ARM GAS  /var/folders/yl/_q9l42k90g1g4mdhbs226msm0000gn/T//cch0ZV5J.s 			page 1


   1              		.cpu cortex-m4
   2              		.arch armv7e-m
   3              		.fpu fpv4-sp-d16
   4              		.eabi_attribute 27, 1
   5              		.eabi_attribute 28, 1
   6              		.eabi_attribute 20, 1
   7              		.eabi_attribute 21, 1
   8              		.eabi_attribute 23, 3
   9              		.eabi_attribute 24, 1
  10              		.eabi_attribute 25, 1
  11              		.eabi_attribute 26, 1
  12              		.eabi_attribute 30, 6
  13              		.eabi_attribute 34, 1
  14              		.eabi_attribute 18, 4
  15              		.file	"LD2.c"
  16              		.text
  17              	.Ltext0:
  18              		.cfi_sections	.debug_frame
  19              		.section	.text.LD2_init,"ax",%progbits
  20              		.align	1
  21              		.global	LD2_init
  22              		.syntax unified
  23              		.thumb
  24              		.thumb_func
  26              	LD2_init:
  27              	.LFB123:
  28              		.file 1 "./Hardware/LD2.c"
   1:./Hardware/LD2.c **** /* Inculdes -------------------------------------------------------------------*/ 
   2:./Hardware/LD2.c **** #include "LD2.h"
   3:./Hardware/LD2.c **** 
   4:./Hardware/LD2.c **** /* Functions -------------------------------------------------------------------*/ 
   5:./Hardware/LD2.c **** 
   6:./Hardware/LD2.c **** /*********************************************************************************
   7:./Hardware/LD2.c ****  *板载绿色LED（LD2）的初始化，包括
   8:./Hardware/LD2.c ****  * - PA5的初始化
   9:./Hardware/LD2.c ****  *     - 推挽输出
  10:./Hardware/LD2.c ****  ********************************************************************************/
  11:./Hardware/LD2.c **** void LD2_init(void)
  12:./Hardware/LD2.c **** {
  29              		.loc 1 12 1
  30              		.cfi_startproc
  31              		@ args = 0, pretend = 0, frame = 8
  32              		@ frame_needed = 1, uses_anonymous_args = 0
  33 0000 80B5     		push	{r7, lr}
  34              	.LCFI0:
  35              		.cfi_def_cfa_offset 8
  36              		.cfi_offset 7, -8
  37              		.cfi_offset 14, -4
  38 0002 82B0     		sub	sp, sp, #8
  39              	.LCFI1:
  40              		.cfi_def_cfa_offset 16
  41 0004 00AF     		add	r7, sp, #0
  42              	.LCFI2:
  43              		.cfi_def_cfa_register 7
  13:./Hardware/LD2.c **** 	RCC_AHB1PeriphClockCmd(RCC_AHB1Periph_GPIOA, ENABLE);
  44              		.loc 1 13 2
  45 0006 0121     		movs	r1, #1
ARM GAS  /var/folders/yl/_q9l42k90g1g4mdhbs226msm0000gn/T//cch0ZV5J.s 			page 2


  46 0008 0120     		movs	r0, #1
  47 000a FFF7FEFF 		bl	RCC_AHB1PeriphClockCmd
  14:./Hardware/LD2.c ****     GPIO_InitTypeDef GPIO_InitStructure;
  15:./Hardware/LD2.c **** 	GPIO_InitStructure.GPIO_Pin = LD2_PIN;
  48              		.loc 1 15 30
  49 000e 2023     		movs	r3, #32
  50 0010 3B60     		str	r3, [r7]
  16:./Hardware/LD2.c **** 	GPIO_InitStructure.GPIO_Speed = GPIO_Speed_100MHz;
  51              		.loc 1 16 32
  52 0012 0323     		movs	r3, #3
  53 0014 7B71     		strb	r3, [r7, #5]
  17:./Hardware/LD2.c **** 	GPIO_InitStructure.GPIO_Mode = GPIO_Mode_OUT;
  54              		.loc 1 17 31
  55 0016 0123     		movs	r3, #1
  56 0018 3B71     		strb	r3, [r7, #4]
  18:./Hardware/LD2.c **** 	GPIO_InitStructure.GPIO_OType = GPIO_OType_PP;
  57              		.loc 1 18 32
  58 001a 0023     		movs	r3, #0
  59 001c BB71     		strb	r3, [r7, #6]
  19:./Hardware/LD2.c **** 	GPIO_Init(LD2_PORT, &GPIO_InitStructure);
  60              		.loc 1 19 2
  61 001e 3B46     		mov	r3, r7
  62 0020 1946     		mov	r1, r3
  63 0022 0348     		ldr	r0, .L2
  64 0024 FFF7FEFF 		bl	GPIO_Init
  20:./Hardware/LD2.c **** }
  65              		.loc 1 20 1
  66 0028 00BF     		nop
  67 002a 0837     		adds	r7, r7, #8
  68              	.LCFI3:
  69              		.cfi_def_cfa_offset 8
  70 002c BD46     		mov	sp, r7
  71              	.LCFI4:
  72              		.cfi_def_cfa_register 13
  73              		@ sp needed
  74 002e 80BD     		pop	{r7, pc}
  75              	.L3:
  76              		.align	2
  77              	.L2:
  78 0030 00000240 		.word	1073872896
  79              		.cfi_endproc
  80              	.LFE123:
  82              		.section	.text.LD2_ON,"ax",%progbits
  83              		.align	1
  84              		.global	LD2_ON
  85              		.syntax unified
  86              		.thumb
  87              		.thumb_func
  89              	LD2_ON:
  90              	.LFB124:
  21:./Hardware/LD2.c **** 
  22:./Hardware/LD2.c **** /*********************************************************************************
  23:./Hardware/LD2.c ****  *点亮/熄灭该灯
  24:./Hardware/LD2.c ****  ********************************************************************************/
  25:./Hardware/LD2.c **** void LD2_ON(void)
  26:./Hardware/LD2.c **** {
  91              		.loc 1 26 1
ARM GAS  /var/folders/yl/_q9l42k90g1g4mdhbs226msm0000gn/T//cch0ZV5J.s 			page 3


  92              		.cfi_startproc
  93              		@ args = 0, pretend = 0, frame = 0
  94              		@ frame_needed = 1, uses_anonymous_args = 0
  95 0000 80B5     		push	{r7, lr}
  96              	.LCFI5:
  97              		.cfi_def_cfa_offset 8
  98              		.cfi_offset 7, -8
  99              		.cfi_offset 14, -4
 100 0002 00AF     		add	r7, sp, #0
 101              	.LCFI6:
 102              		.cfi_def_cfa_register 7
  27:./Hardware/LD2.c **** 	GPIO_SetBits(LD2_PORT,LD2_PIN);
 103              		.loc 1 27 2
 104 0004 2021     		movs	r1, #32
 105 0006 0248     		ldr	r0, .L5
 106 0008 FFF7FEFF 		bl	GPIO_SetBits
  28:./Hardware/LD2.c **** }
 107              		.loc 1 28 1
 108 000c 00BF     		nop
 109 000e 80BD     		pop	{r7, pc}
 110              	.L6:
 111              		.align	2
 112              	.L5:
 113 0010 00000240 		.word	1073872896
 114              		.cfi_endproc
 115              	.LFE124:
 117              		.section	.text.LD2_OFF,"ax",%progbits
 118              		.align	1
 119              		.global	LD2_OFF
 120              		.syntax unified
 121              		.thumb
 122              		.thumb_func
 124              	LD2_OFF:
 125              	.LFB125:
  29:./Hardware/LD2.c **** 
  30:./Hardware/LD2.c **** void LD2_OFF(void)
  31:./Hardware/LD2.c **** {
 126              		.loc 1 31 1
 127              		.cfi_startproc
 128              		@ args = 0, pretend = 0, frame = 0
 129              		@ frame_needed = 1, uses_anonymous_args = 0
 130 0000 80B5     		push	{r7, lr}
 131              	.LCFI7:
 132              		.cfi_def_cfa_offset 8
 133              		.cfi_offset 7, -8
 134              		.cfi_offset 14, -4
 135 0002 00AF     		add	r7, sp, #0
 136              	.LCFI8:
 137              		.cfi_def_cfa_register 7
  32:./Hardware/LD2.c **** 	GPIO_ResetBits(LD2_PORT,LD2_PIN);
 138              		.loc 1 32 2
 139 0004 2021     		movs	r1, #32
 140 0006 0248     		ldr	r0, .L8
 141 0008 FFF7FEFF 		bl	GPIO_ResetBits
  33:./Hardware/LD2.c **** }
 142              		.loc 1 33 1
 143 000c 00BF     		nop
ARM GAS  /var/folders/yl/_q9l42k90g1g4mdhbs226msm0000gn/T//cch0ZV5J.s 			page 4


 144 000e 80BD     		pop	{r7, pc}
 145              	.L9:
 146              		.align	2
 147              	.L8:
 148 0010 00000240 		.word	1073872896
 149              		.cfi_endproc
 150              	.LFE125:
 152              		.section	.text.LD2_Toggle,"ax",%progbits
 153              		.align	1
 154              		.global	LD2_Toggle
 155              		.syntax unified
 156              		.thumb
 157              		.thumb_func
 159              	LD2_Toggle:
 160              	.LFB126:
  34:./Hardware/LD2.c **** 
  35:./Hardware/LD2.c **** 
  36:./Hardware/LD2.c **** /*********************************************************************************
  37:./Hardware/LD2.c ****  *以一定时间间隔闪烁该灯
  38:./Hardware/LD2.c ****  *  -参数：闪烁间隔 单位 ms
  39:./Hardware/LD2.c ****  ********************************************************************************/
  40:./Hardware/LD2.c **** void LD2_Toggle(uint64_t interval)
  41:./Hardware/LD2.c **** {
 161              		.loc 1 41 1
 162              		.cfi_startproc
 163              		@ args = 0, pretend = 0, frame = 8
 164              		@ frame_needed = 1, uses_anonymous_args = 0
 165 0000 80B5     		push	{r7, lr}
 166              	.LCFI9:
 167              		.cfi_def_cfa_offset 8
 168              		.cfi_offset 7, -8
 169              		.cfi_offset 14, -4
 170 0002 82B0     		sub	sp, sp, #8
 171              	.LCFI10:
 172              		.cfi_def_cfa_offset 16
 173 0004 00AF     		add	r7, sp, #0
 174              	.LCFI11:
 175              		.cfi_def_cfa_register 7
 176 0006 C7E90001 		strd	r0, [r7]
  42:./Hardware/LD2.c **** 	LD2_ON();
 177              		.loc 1 42 2
 178 000a FFF7FEFF 		bl	LD2_ON
  43:./Hardware/LD2.c **** 	Delay_ms(interval);
 179              		.loc 1 43 2
 180 000e D7E90001 		ldrd	r0, [r7]
 181 0012 FFF7FEFF 		bl	Delay_ms
  44:./Hardware/LD2.c **** 	LD2_OFF();
 182              		.loc 1 44 2
 183 0016 FFF7FEFF 		bl	LD2_OFF
  45:./Hardware/LD2.c **** 	Delay_ms(interval);
 184              		.loc 1 45 2
 185 001a D7E90001 		ldrd	r0, [r7]
 186 001e FFF7FEFF 		bl	Delay_ms
  46:./Hardware/LD2.c **** }
 187              		.loc 1 46 1
 188 0022 00BF     		nop
 189 0024 0837     		adds	r7, r7, #8
ARM GAS  /var/folders/yl/_q9l42k90g1g4mdhbs226msm0000gn/T//cch0ZV5J.s 			page 5


 190              	.LCFI12:
 191              		.cfi_def_cfa_offset 8
 192 0026 BD46     		mov	sp, r7
 193              	.LCFI13:
 194              		.cfi_def_cfa_register 13
 195              		@ sp needed
 196 0028 80BD     		pop	{r7, pc}
 197              		.cfi_endproc
 198              	.LFE126:
 200              		.text
 201              	.Letext0:
 202              		.file 2 "/Applications/ARM/arm-none-eabi/include/machine/_default_types.h"
 203              		.file 3 "/Applications/ARM/arm-none-eabi/include/sys/_stdint.h"
 204              		.file 4 "./CORE/stm32f4xx.h"
 205              		.file 5 "./Library/stm32f4xx_gpio.h"
ARM GAS  /var/folders/yl/_q9l42k90g1g4mdhbs226msm0000gn/T//cch0ZV5J.s 			page 6

