ARM GAS  /var/folders/yl/_q9l42k90g1g4mdhbs226msm0000gn/T//ccjgPyhc.s 			page 1


   1              		.cpu cortex-m4
   2              		.arch armv7e-m
   3              		.fpu fpv4-sp-d16
   4              		.eabi_attribute 27, 1
   5              		.eabi_attribute 28, 1
   6              		.eabi_attribute 20, 1
   7              		.eabi_attribute 21, 1
   8              		.eabi_attribute 23, 3
   9              		.eabi_attribute 24, 1
  10              		.eabi_attribute 25, 1
  11              		.eabi_attribute 26, 1
  12              		.eabi_attribute 30, 6
  13              		.eabi_attribute 34, 1
  14              		.eabi_attribute 18, 4
  15              		.file	"misc.c"
  16              		.text
  17              	.Ltext0:
  18              		.cfi_sections	.debug_frame
  19              		.section	.text.NVIC_PriorityGroupConfig,"ax",%progbits
  20              		.align	1
  21              		.global	NVIC_PriorityGroupConfig
  22              		.syntax unified
  23              		.thumb
  24              		.thumb_func
  26              	NVIC_PriorityGroupConfig:
  27              	.LFB123:
  28              		.file 1 "./Library/misc.c"
   1:./Library/misc.c **** /**
   2:./Library/misc.c ****   ******************************************************************************
   3:./Library/misc.c ****   * @file    misc.c
   4:./Library/misc.c ****   * @author  MCD Application Team
   5:./Library/misc.c ****   * @version V1.8.1
   6:./Library/misc.c ****   * @date    27-January-2022
   7:./Library/misc.c ****   * @brief   This file provides all the miscellaneous firmware functions (add-on
   8:./Library/misc.c ****   *          to CMSIS functions).
   9:./Library/misc.c ****   *          
  10:./Library/misc.c ****   *  @verbatim   
  11:./Library/misc.c ****   *                               
  12:./Library/misc.c ****   *          ===================================================================      
  13:./Library/misc.c ****   *                        How to configure Interrupts using driver 
  14:./Library/misc.c ****   *          ===================================================================      
  15:./Library/misc.c ****   * 
  16:./Library/misc.c ****   *            This section provide functions allowing to configure the NVIC interrupts (IRQ).
  17:./Library/misc.c ****   *            The Cortex-M4 exceptions are managed by CMSIS functions.
  18:./Library/misc.c ****   *
  19:./Library/misc.c ****   *            1. Configure the NVIC Priority Grouping using NVIC_PriorityGroupConfig()
  20:./Library/misc.c ****   *                function according to the following table.
  21:./Library/misc.c ****  
  22:./Library/misc.c ****   *  The table below gives the allowed values of the pre-emption priority and subpriority according
  23:./Library/misc.c ****   *  to the Priority Grouping configuration performed by NVIC_PriorityGroupConfig function
  24:./Library/misc.c ****   *    ============================================================================================
  25:./Library/misc.c ****   *      NVIC_PriorityGroup   | NVIC_IRQChannelPreemptionPriority | NVIC_IRQChannelSubPriority  |  
  26:./Library/misc.c ****   *    ============================================================================================
  27:./Library/misc.c ****   *     NVIC_PriorityGroup_0  |                0                  |            0-15             | 0
  28:./Library/misc.c ****   *                           |                                   |                             | 4
  29:./Library/misc.c ****   *    --------------------------------------------------------------------------------------------
  30:./Library/misc.c ****   *     NVIC_PriorityGroup_1  |                0-1                |            0-7              | 1
ARM GAS  /var/folders/yl/_q9l42k90g1g4mdhbs226msm0000gn/T//ccjgPyhc.s 			page 2


  31:./Library/misc.c ****   *                           |                                   |                             | 3
  32:./Library/misc.c ****   *    --------------------------------------------------------------------------------------------
  33:./Library/misc.c ****   *     NVIC_PriorityGroup_2  |                0-3                |            0-3              | 2
  34:./Library/misc.c ****   *                           |                                   |                             | 2
  35:./Library/misc.c ****   *    --------------------------------------------------------------------------------------------
  36:./Library/misc.c ****   *     NVIC_PriorityGroup_3  |                0-7                |            0-1              | 3
  37:./Library/misc.c ****   *                           |                                   |                             | 1
  38:./Library/misc.c ****   *    --------------------------------------------------------------------------------------------
  39:./Library/misc.c ****   *     NVIC_PriorityGroup_4  |                0-15               |            0                | 4
  40:./Library/misc.c ****   *                           |                                   |                             | 0
  41:./Library/misc.c ****   *    ============================================================================================
  42:./Library/misc.c ****   *
  43:./Library/misc.c ****   *            2. Enable and Configure the priority of the selected IRQ Channels using NVIC_Init() 
  44:./Library/misc.c ****   *
  45:./Library/misc.c ****   * @note  When the NVIC_PriorityGroup_0 is selected, IRQ pre-emption is no more possible. 
  46:./Library/misc.c ****   *        The pending IRQ priority will be managed only by the subpriority.
  47:./Library/misc.c ****   *
  48:./Library/misc.c ****   * @note  IRQ priority order (sorted by highest to lowest priority):
  49:./Library/misc.c ****   *         - Lowest pre-emption priority
  50:./Library/misc.c ****   *         - Lowest subpriority
  51:./Library/misc.c ****   *         - Lowest hardware priority (IRQ number)
  52:./Library/misc.c ****   *
  53:./Library/misc.c ****   *  @endverbatim
  54:./Library/misc.c ****   *
  55:./Library/misc.c ****   ******************************************************************************
  56:./Library/misc.c ****   * @attention
  57:./Library/misc.c ****   *
  58:./Library/misc.c ****   * Copyright (c) 2016 STMicroelectronics.
  59:./Library/misc.c ****   * All rights reserved.
  60:./Library/misc.c ****   *
  61:./Library/misc.c ****   * This software is licensed under terms that can be found in the LICENSE file
  62:./Library/misc.c ****   * in the root directory of this software component.
  63:./Library/misc.c ****   * If no LICENSE file comes with this software, it is provided AS-IS.
  64:./Library/misc.c ****   *
  65:./Library/misc.c ****   ******************************************************************************
  66:./Library/misc.c ****   */
  67:./Library/misc.c **** 
  68:./Library/misc.c **** /* Includes ------------------------------------------------------------------*/
  69:./Library/misc.c **** #include "misc.h"
  70:./Library/misc.c **** 
  71:./Library/misc.c **** /** @addtogroup STM32F4xx_StdPeriph_Driver
  72:./Library/misc.c ****   * @{
  73:./Library/misc.c ****   */
  74:./Library/misc.c **** 
  75:./Library/misc.c **** /** @defgroup MISC 
  76:./Library/misc.c ****   * @brief MISC driver modules
  77:./Library/misc.c ****   * @{
  78:./Library/misc.c ****   */
  79:./Library/misc.c **** 
  80:./Library/misc.c **** /* Private typedef -----------------------------------------------------------*/
  81:./Library/misc.c **** /* Private define ------------------------------------------------------------*/
  82:./Library/misc.c **** #define AIRCR_VECTKEY_MASK    ((uint32_t)0x05FA0000)
  83:./Library/misc.c **** 
  84:./Library/misc.c **** /* Private macro -------------------------------------------------------------*/
  85:./Library/misc.c **** /* Private variables ---------------------------------------------------------*/
  86:./Library/misc.c **** /* Private function prototypes -----------------------------------------------*/
  87:./Library/misc.c **** /* Private functions ---------------------------------------------------------*/
ARM GAS  /var/folders/yl/_q9l42k90g1g4mdhbs226msm0000gn/T//ccjgPyhc.s 			page 3


  88:./Library/misc.c **** 
  89:./Library/misc.c **** /** @defgroup MISC_Private_Functions
  90:./Library/misc.c ****   * @{
  91:./Library/misc.c ****   */
  92:./Library/misc.c **** 
  93:./Library/misc.c **** /**
  94:./Library/misc.c ****   * @brief  Configures the priority grouping: pre-emption priority and subpriority.
  95:./Library/misc.c ****   * @param  NVIC_PriorityGroup: specifies the priority grouping bits length. 
  96:./Library/misc.c ****   *   This parameter can be one of the following values:
  97:./Library/misc.c ****   *     @arg NVIC_PriorityGroup_0: 0 bits for pre-emption priority
  98:./Library/misc.c ****   *                                4 bits for subpriority
  99:./Library/misc.c ****   *     @arg NVIC_PriorityGroup_1: 1 bits for pre-emption priority
 100:./Library/misc.c ****   *                                3 bits for subpriority
 101:./Library/misc.c ****   *     @arg NVIC_PriorityGroup_2: 2 bits for pre-emption priority
 102:./Library/misc.c ****   *                                2 bits for subpriority
 103:./Library/misc.c ****   *     @arg NVIC_PriorityGroup_3: 3 bits for pre-emption priority
 104:./Library/misc.c ****   *                                1 bits for subpriority
 105:./Library/misc.c ****   *     @arg NVIC_PriorityGroup_4: 4 bits for pre-emption priority
 106:./Library/misc.c ****   *                                0 bits for subpriority
 107:./Library/misc.c ****   * @note   When the NVIC_PriorityGroup_0 is selected, IRQ pre-emption is no more possible. 
 108:./Library/misc.c ****   *         The pending IRQ priority will be managed only by the subpriority. 
 109:./Library/misc.c ****   * @retval None
 110:./Library/misc.c ****   */
 111:./Library/misc.c **** void NVIC_PriorityGroupConfig(uint32_t NVIC_PriorityGroup)
 112:./Library/misc.c **** {
  29              		.loc 1 112 1
  30              		.cfi_startproc
  31              		@ args = 0, pretend = 0, frame = 8
  32              		@ frame_needed = 1, uses_anonymous_args = 0
  33              		@ link register save eliminated.
  34 0000 80B4     		push	{r7}
  35              	.LCFI0:
  36              		.cfi_def_cfa_offset 4
  37              		.cfi_offset 7, -4
  38 0002 83B0     		sub	sp, sp, #12
  39              	.LCFI1:
  40              		.cfi_def_cfa_offset 16
  41 0004 00AF     		add	r7, sp, #0
  42              	.LCFI2:
  43              		.cfi_def_cfa_register 7
  44 0006 7860     		str	r0, [r7, #4]
 113:./Library/misc.c ****   /* Check the parameters */
 114:./Library/misc.c ****   assert_param(IS_NVIC_PRIORITY_GROUP(NVIC_PriorityGroup));
 115:./Library/misc.c ****   
 116:./Library/misc.c ****   /* Set the PRIGROUP[10:8] bits according to NVIC_PriorityGroup value */
 117:./Library/misc.c ****   SCB->AIRCR = AIRCR_VECTKEY_MASK | NVIC_PriorityGroup;
  45              		.loc 1 117 6
  46 0008 064A     		ldr	r2, .L2
  47              		.loc 1 117 35
  48 000a 7B68     		ldr	r3, [r7, #4]
  49 000c 43F0BF63 		orr	r3, r3, #100139008
  50 0010 43F40033 		orr	r3, r3, #131072
  51              		.loc 1 117 14
  52 0014 D360     		str	r3, [r2, #12]
 118:./Library/misc.c **** }
  53              		.loc 1 118 1
  54 0016 00BF     		nop
ARM GAS  /var/folders/yl/_q9l42k90g1g4mdhbs226msm0000gn/T//ccjgPyhc.s 			page 4


  55 0018 0C37     		adds	r7, r7, #12
  56              	.LCFI3:
  57              		.cfi_def_cfa_offset 4
  58 001a BD46     		mov	sp, r7
  59              	.LCFI4:
  60              		.cfi_def_cfa_register 13
  61              		@ sp needed
  62 001c 5DF8047B 		ldr	r7, [sp], #4
  63              	.LCFI5:
  64              		.cfi_restore 7
  65              		.cfi_def_cfa_offset 0
  66 0020 7047     		bx	lr
  67              	.L3:
  68 0022 00BF     		.align	2
  69              	.L2:
  70 0024 00ED00E0 		.word	-536810240
  71              		.cfi_endproc
  72              	.LFE123:
  74              		.section	.text.NVIC_Init,"ax",%progbits
  75              		.align	1
  76              		.global	NVIC_Init
  77              		.syntax unified
  78              		.thumb
  79              		.thumb_func
  81              	NVIC_Init:
  82              	.LFB124:
 119:./Library/misc.c **** 
 120:./Library/misc.c **** /**
 121:./Library/misc.c ****   * @brief  Initializes the NVIC peripheral according to the specified
 122:./Library/misc.c ****   *         parameters in the NVIC_InitStruct.
 123:./Library/misc.c ****   * @note   To configure interrupts priority correctly, the NVIC_PriorityGroupConfig()
 124:./Library/misc.c ****   *         function should be called before. 
 125:./Library/misc.c ****   * @param  NVIC_InitStruct: pointer to a NVIC_InitTypeDef structure that contains
 126:./Library/misc.c ****   *         the configuration information for the specified NVIC peripheral.
 127:./Library/misc.c ****   * @retval None
 128:./Library/misc.c ****   */
 129:./Library/misc.c **** void NVIC_Init(NVIC_InitTypeDef* NVIC_InitStruct)
 130:./Library/misc.c **** {
  83              		.loc 1 130 1
  84              		.cfi_startproc
  85              		@ args = 0, pretend = 0, frame = 16
  86              		@ frame_needed = 1, uses_anonymous_args = 0
  87              		@ link register save eliminated.
  88 0000 80B4     		push	{r7}
  89              	.LCFI6:
  90              		.cfi_def_cfa_offset 4
  91              		.cfi_offset 7, -4
  92 0002 85B0     		sub	sp, sp, #20
  93              	.LCFI7:
  94              		.cfi_def_cfa_offset 24
  95 0004 00AF     		add	r7, sp, #0
  96              	.LCFI8:
  97              		.cfi_def_cfa_register 7
  98 0006 7860     		str	r0, [r7, #4]
 131:./Library/misc.c ****   uint8_t tmppriority = 0x00, tmppre = 0x00, tmpsub = 0x0F;
  99              		.loc 1 131 11
 100 0008 0023     		movs	r3, #0
ARM GAS  /var/folders/yl/_q9l42k90g1g4mdhbs226msm0000gn/T//ccjgPyhc.s 			page 5


 101 000a FB73     		strb	r3, [r7, #15]
 102              		.loc 1 131 31
 103 000c 0023     		movs	r3, #0
 104 000e BB73     		strb	r3, [r7, #14]
 105              		.loc 1 131 46
 106 0010 0F23     		movs	r3, #15
 107 0012 7B73     		strb	r3, [r7, #13]
 132:./Library/misc.c ****   
 133:./Library/misc.c ****   /* Check the parameters */
 134:./Library/misc.c ****   assert_param(IS_FUNCTIONAL_STATE(NVIC_InitStruct->NVIC_IRQChannelCmd));
 135:./Library/misc.c ****   assert_param(IS_NVIC_PREEMPTION_PRIORITY(NVIC_InitStruct->NVIC_IRQChannelPreemptionPriority));  
 136:./Library/misc.c ****   assert_param(IS_NVIC_SUB_PRIORITY(NVIC_InitStruct->NVIC_IRQChannelSubPriority));
 137:./Library/misc.c ****     
 138:./Library/misc.c ****   if (NVIC_InitStruct->NVIC_IRQChannelCmd != DISABLE)
 108              		.loc 1 138 22
 109 0014 7B68     		ldr	r3, [r7, #4]
 110 0016 DB78     		ldrb	r3, [r3, #3]	@ zero_extendqisi2
 111              		.loc 1 138 6
 112 0018 002B     		cmp	r3, #0
 113 001a 39D0     		beq	.L5
 139:./Library/misc.c ****   {
 140:./Library/misc.c ****     /* Compute the Corresponding IRQ Priority --------------------------------*/    
 141:./Library/misc.c ****     tmppriority = (0x700 - ((SCB->AIRCR) & (uint32_t)0x700))>> 0x08;
 114              		.loc 1 141 33
 115 001c 274B     		ldr	r3, .L8
 116 001e DB68     		ldr	r3, [r3, #12]
 117              		.loc 1 141 26
 118 0020 DB43     		mvns	r3, r3
 119              		.loc 1 141 61
 120 0022 1B0A     		lsrs	r3, r3, #8
 121 0024 DBB2     		uxtb	r3, r3
 122              		.loc 1 141 17
 123 0026 03F00703 		and	r3, r3, #7
 124 002a FB73     		strb	r3, [r7, #15]
 142:./Library/misc.c ****     tmppre = (0x4 - tmppriority);
 125              		.loc 1 142 12
 126 002c FB7B     		ldrb	r3, [r7, #15]
 127 002e C3F10403 		rsb	r3, r3, #4
 128 0032 BB73     		strb	r3, [r7, #14]
 143:./Library/misc.c ****     tmpsub = tmpsub >> tmppriority;
 129              		.loc 1 143 21
 130 0034 7A7B     		ldrb	r2, [r7, #13]	@ zero_extendqisi2
 131 0036 FB7B     		ldrb	r3, [r7, #15]	@ zero_extendqisi2
 132 0038 42FA03F3 		asr	r3, r2, r3
 133              		.loc 1 143 12
 134 003c 7B73     		strb	r3, [r7, #13]
 144:./Library/misc.c **** 
 145:./Library/misc.c ****     tmppriority = NVIC_InitStruct->NVIC_IRQChannelPreemptionPriority << tmppre;
 135              		.loc 1 145 34
 136 003e 7B68     		ldr	r3, [r7, #4]
 137 0040 5B78     		ldrb	r3, [r3, #1]	@ zero_extendqisi2
 138 0042 1A46     		mov	r2, r3
 139              		.loc 1 145 70
 140 0044 BB7B     		ldrb	r3, [r7, #14]	@ zero_extendqisi2
 141 0046 02FA03F3 		lsl	r3, r2, r3
 142              		.loc 1 145 17
 143 004a FB73     		strb	r3, [r7, #15]
ARM GAS  /var/folders/yl/_q9l42k90g1g4mdhbs226msm0000gn/T//ccjgPyhc.s 			page 6


 146:./Library/misc.c ****     tmppriority |=  (uint8_t)(NVIC_InitStruct->NVIC_IRQChannelSubPriority & tmpsub);
 144              		.loc 1 146 46
 145 004c 7B68     		ldr	r3, [r7, #4]
 146 004e 9A78     		ldrb	r2, [r3, #2]	@ zero_extendqisi2
 147              		.loc 1 146 21
 148 0050 7B7B     		ldrb	r3, [r7, #13]
 149 0052 1340     		ands	r3, r3, r2
 150 0054 DAB2     		uxtb	r2, r3
 151              		.loc 1 146 17
 152 0056 FB7B     		ldrb	r3, [r7, #15]
 153 0058 1343     		orrs	r3, r3, r2
 154 005a FB73     		strb	r3, [r7, #15]
 147:./Library/misc.c ****         
 148:./Library/misc.c ****     tmppriority = tmppriority << 0x04;
 155              		.loc 1 148 17
 156 005c FB7B     		ldrb	r3, [r7, #15]
 157 005e 1B01     		lsls	r3, r3, #4
 158 0060 FB73     		strb	r3, [r7, #15]
 149:./Library/misc.c ****         
 150:./Library/misc.c ****     NVIC->IP[NVIC_InitStruct->NVIC_IRQChannel] = tmppriority;
 159              		.loc 1 150 9
 160 0062 174A     		ldr	r2, .L8+4
 161              		.loc 1 150 29
 162 0064 7B68     		ldr	r3, [r7, #4]
 163 0066 1B78     		ldrb	r3, [r3]	@ zero_extendqisi2
 164              		.loc 1 150 48
 165 0068 1344     		add	r3, r3, r2
 166 006a FA7B     		ldrb	r2, [r7, #15]
 167 006c 83F80023 		strb	r2, [r3, #768]
 151:./Library/misc.c ****     
 152:./Library/misc.c ****     /* Enable the Selected IRQ Channels --------------------------------------*/
 153:./Library/misc.c ****     NVIC->ISER[NVIC_InitStruct->NVIC_IRQChannel >> 0x05] =
 154:./Library/misc.c ****       (uint32_t)0x01 << (NVIC_InitStruct->NVIC_IRQChannel & (uint8_t)0x1F);
 168              		.loc 1 154 41
 169 0070 7B68     		ldr	r3, [r7, #4]
 170 0072 1B78     		ldrb	r3, [r3]	@ zero_extendqisi2
 171              		.loc 1 154 59
 172 0074 03F01F03 		and	r3, r3, #31
 153:./Library/misc.c ****       (uint32_t)0x01 << (NVIC_InitStruct->NVIC_IRQChannel & (uint8_t)0x1F);
 173              		.loc 1 153 9
 174 0078 1149     		ldr	r1, .L8+4
 153:./Library/misc.c ****       (uint32_t)0x01 << (NVIC_InitStruct->NVIC_IRQChannel & (uint8_t)0x1F);
 175              		.loc 1 153 31
 176 007a 7A68     		ldr	r2, [r7, #4]
 177 007c 1278     		ldrb	r2, [r2]	@ zero_extendqisi2
 153:./Library/misc.c ****       (uint32_t)0x01 << (NVIC_InitStruct->NVIC_IRQChannel & (uint8_t)0x1F);
 178              		.loc 1 153 49
 179 007e 5209     		lsrs	r2, r2, #5
 180 0080 D2B2     		uxtb	r2, r2
 181 0082 1046     		mov	r0, r2
 182              		.loc 1 154 22
 183 0084 0122     		movs	r2, #1
 184 0086 02FA03F3 		lsl	r3, r2, r3
 153:./Library/misc.c ****       (uint32_t)0x01 << (NVIC_InitStruct->NVIC_IRQChannel & (uint8_t)0x1F);
 185              		.loc 1 153 58
 186 008a 41F82030 		str	r3, [r1, r0, lsl #2]
 155:./Library/misc.c ****   }
ARM GAS  /var/folders/yl/_q9l42k90g1g4mdhbs226msm0000gn/T//ccjgPyhc.s 			page 7


 156:./Library/misc.c ****   else
 157:./Library/misc.c ****   {
 158:./Library/misc.c ****     /* Disable the Selected IRQ Channels -------------------------------------*/
 159:./Library/misc.c ****     NVIC->ICER[NVIC_InitStruct->NVIC_IRQChannel >> 0x05] =
 160:./Library/misc.c ****       (uint32_t)0x01 << (NVIC_InitStruct->NVIC_IRQChannel & (uint8_t)0x1F);
 161:./Library/misc.c ****   }
 162:./Library/misc.c **** }
 187              		.loc 1 162 1
 188 008e 0FE0     		b	.L7
 189              	.L5:
 160:./Library/misc.c ****   }
 190              		.loc 1 160 41
 191 0090 7B68     		ldr	r3, [r7, #4]
 192 0092 1B78     		ldrb	r3, [r3]	@ zero_extendqisi2
 160:./Library/misc.c ****   }
 193              		.loc 1 160 59
 194 0094 03F01F03 		and	r3, r3, #31
 159:./Library/misc.c ****       (uint32_t)0x01 << (NVIC_InitStruct->NVIC_IRQChannel & (uint8_t)0x1F);
 195              		.loc 1 159 9
 196 0098 0949     		ldr	r1, .L8+4
 159:./Library/misc.c ****       (uint32_t)0x01 << (NVIC_InitStruct->NVIC_IRQChannel & (uint8_t)0x1F);
 197              		.loc 1 159 31
 198 009a 7A68     		ldr	r2, [r7, #4]
 199 009c 1278     		ldrb	r2, [r2]	@ zero_extendqisi2
 159:./Library/misc.c ****       (uint32_t)0x01 << (NVIC_InitStruct->NVIC_IRQChannel & (uint8_t)0x1F);
 200              		.loc 1 159 49
 201 009e 5209     		lsrs	r2, r2, #5
 202 00a0 D2B2     		uxtb	r2, r2
 203 00a2 1046     		mov	r0, r2
 160:./Library/misc.c ****   }
 204              		.loc 1 160 22
 205 00a4 0122     		movs	r2, #1
 206 00a6 9A40     		lsls	r2, r2, r3
 159:./Library/misc.c ****       (uint32_t)0x01 << (NVIC_InitStruct->NVIC_IRQChannel & (uint8_t)0x1F);
 207              		.loc 1 159 58
 208 00a8 00F12003 		add	r3, r0, #32
 209 00ac 41F82320 		str	r2, [r1, r3, lsl #2]
 210              	.L7:
 211              		.loc 1 162 1
 212 00b0 00BF     		nop
 213 00b2 1437     		adds	r7, r7, #20
 214              	.LCFI9:
 215              		.cfi_def_cfa_offset 4
 216 00b4 BD46     		mov	sp, r7
 217              	.LCFI10:
 218              		.cfi_def_cfa_register 13
 219              		@ sp needed
 220 00b6 5DF8047B 		ldr	r7, [sp], #4
 221              	.LCFI11:
 222              		.cfi_restore 7
 223              		.cfi_def_cfa_offset 0
 224 00ba 7047     		bx	lr
 225              	.L9:
 226              		.align	2
 227              	.L8:
 228 00bc 00ED00E0 		.word	-536810240
 229 00c0 00E100E0 		.word	-536813312
ARM GAS  /var/folders/yl/_q9l42k90g1g4mdhbs226msm0000gn/T//ccjgPyhc.s 			page 8


 230              		.cfi_endproc
 231              	.LFE124:
 233              		.section	.text.NVIC_SetVectorTable,"ax",%progbits
 234              		.align	1
 235              		.global	NVIC_SetVectorTable
 236              		.syntax unified
 237              		.thumb
 238              		.thumb_func
 240              	NVIC_SetVectorTable:
 241              	.LFB125:
 163:./Library/misc.c **** 
 164:./Library/misc.c **** /**
 165:./Library/misc.c ****   * @brief  Sets the vector table location and Offset.
 166:./Library/misc.c ****   * @param  NVIC_VectTab: specifies if the vector table is in RAM or FLASH memory.
 167:./Library/misc.c ****   *   This parameter can be one of the following values:
 168:./Library/misc.c ****   *     @arg NVIC_VectTab_RAM: Vector Table in internal SRAM.
 169:./Library/misc.c ****   *     @arg NVIC_VectTab_FLASH: Vector Table in internal FLASH.
 170:./Library/misc.c ****   * @param  Offset: Vector Table base offset field. This value must be a multiple of 0x200.
 171:./Library/misc.c ****   * @retval None
 172:./Library/misc.c ****   */
 173:./Library/misc.c **** void NVIC_SetVectorTable(uint32_t NVIC_VectTab, uint32_t Offset)
 174:./Library/misc.c **** { 
 242              		.loc 1 174 1
 243              		.cfi_startproc
 244              		@ args = 0, pretend = 0, frame = 8
 245              		@ frame_needed = 1, uses_anonymous_args = 0
 246              		@ link register save eliminated.
 247 0000 80B4     		push	{r7}
 248              	.LCFI12:
 249              		.cfi_def_cfa_offset 4
 250              		.cfi_offset 7, -4
 251 0002 83B0     		sub	sp, sp, #12
 252              	.LCFI13:
 253              		.cfi_def_cfa_offset 16
 254 0004 00AF     		add	r7, sp, #0
 255              	.LCFI14:
 256              		.cfi_def_cfa_register 7
 257 0006 7860     		str	r0, [r7, #4]
 258 0008 3960     		str	r1, [r7]
 175:./Library/misc.c ****   /* Check the parameters */
 176:./Library/misc.c ****   assert_param(IS_NVIC_VECTTAB(NVIC_VectTab));
 177:./Library/misc.c ****   assert_param(IS_NVIC_OFFSET(Offset));  
 178:./Library/misc.c ****    
 179:./Library/misc.c ****   SCB->VTOR = NVIC_VectTab | (Offset & (uint32_t)0x1FFFFF80);
 259              		.loc 1 179 38
 260 000a 3B68     		ldr	r3, [r7]
 261 000c 23F06043 		bic	r3, r3, #-536870912
 262 0010 23F07F03 		bic	r3, r3, #127
 263              		.loc 1 179 6
 264 0014 0449     		ldr	r1, .L11
 265              		.loc 1 179 28
 266 0016 7A68     		ldr	r2, [r7, #4]
 267 0018 1343     		orrs	r3, r3, r2
 268              		.loc 1 179 13
 269 001a 8B60     		str	r3, [r1, #8]
 180:./Library/misc.c **** }
 270              		.loc 1 180 1
ARM GAS  /var/folders/yl/_q9l42k90g1g4mdhbs226msm0000gn/T//ccjgPyhc.s 			page 9


 271 001c 00BF     		nop
 272 001e 0C37     		adds	r7, r7, #12
 273              	.LCFI15:
 274              		.cfi_def_cfa_offset 4
 275 0020 BD46     		mov	sp, r7
 276              	.LCFI16:
 277              		.cfi_def_cfa_register 13
 278              		@ sp needed
 279 0022 5DF8047B 		ldr	r7, [sp], #4
 280              	.LCFI17:
 281              		.cfi_restore 7
 282              		.cfi_def_cfa_offset 0
 283 0026 7047     		bx	lr
 284              	.L12:
 285              		.align	2
 286              	.L11:
 287 0028 00ED00E0 		.word	-536810240
 288              		.cfi_endproc
 289              	.LFE125:
 291              		.section	.text.NVIC_SystemLPConfig,"ax",%progbits
 292              		.align	1
 293              		.global	NVIC_SystemLPConfig
 294              		.syntax unified
 295              		.thumb
 296              		.thumb_func
 298              	NVIC_SystemLPConfig:
 299              	.LFB126:
 181:./Library/misc.c **** 
 182:./Library/misc.c **** /**
 183:./Library/misc.c ****   * @brief  Selects the condition for the system to enter low power mode.
 184:./Library/misc.c ****   * @param  LowPowerMode: Specifies the new mode for the system to enter low power mode.
 185:./Library/misc.c ****   *   This parameter can be one of the following values:
 186:./Library/misc.c ****   *     @arg NVIC_LP_SEVONPEND: Low Power SEV on Pend.
 187:./Library/misc.c ****   *     @arg NVIC_LP_SLEEPDEEP: Low Power DEEPSLEEP request.
 188:./Library/misc.c ****   *     @arg NVIC_LP_SLEEPONEXIT: Low Power Sleep on Exit.
 189:./Library/misc.c ****   * @param  NewState: new state of LP condition. This parameter can be: ENABLE or DISABLE.
 190:./Library/misc.c ****   * @retval None
 191:./Library/misc.c ****   */
 192:./Library/misc.c **** void NVIC_SystemLPConfig(uint8_t LowPowerMode, FunctionalState NewState)
 193:./Library/misc.c **** {
 300              		.loc 1 193 1
 301              		.cfi_startproc
 302              		@ args = 0, pretend = 0, frame = 8
 303              		@ frame_needed = 1, uses_anonymous_args = 0
 304              		@ link register save eliminated.
 305 0000 80B4     		push	{r7}
 306              	.LCFI18:
 307              		.cfi_def_cfa_offset 4
 308              		.cfi_offset 7, -4
 309 0002 83B0     		sub	sp, sp, #12
 310              	.LCFI19:
 311              		.cfi_def_cfa_offset 16
 312 0004 00AF     		add	r7, sp, #0
 313              	.LCFI20:
 314              		.cfi_def_cfa_register 7
 315 0006 0346     		mov	r3, r0
 316 0008 0A46     		mov	r2, r1
ARM GAS  /var/folders/yl/_q9l42k90g1g4mdhbs226msm0000gn/T//ccjgPyhc.s 			page 10


 317 000a FB71     		strb	r3, [r7, #7]
 318 000c 1346     		mov	r3, r2
 319 000e BB71     		strb	r3, [r7, #6]
 194:./Library/misc.c ****   /* Check the parameters */
 195:./Library/misc.c ****   assert_param(IS_NVIC_LP(LowPowerMode));
 196:./Library/misc.c ****   assert_param(IS_FUNCTIONAL_STATE(NewState));  
 197:./Library/misc.c ****   
 198:./Library/misc.c ****   if (NewState != DISABLE)
 320              		.loc 1 198 6
 321 0010 BB79     		ldrb	r3, [r7, #6]	@ zero_extendqisi2
 322 0012 002B     		cmp	r3, #0
 323 0014 06D0     		beq	.L14
 199:./Library/misc.c ****   {
 200:./Library/misc.c ****     SCB->SCR |= LowPowerMode;
 324              		.loc 1 200 14
 325 0016 0A4B     		ldr	r3, .L17
 326 0018 1A69     		ldr	r2, [r3, #16]
 327 001a FB79     		ldrb	r3, [r7, #7]	@ zero_extendqisi2
 328 001c 0849     		ldr	r1, .L17
 329 001e 1343     		orrs	r3, r3, r2
 330 0020 0B61     		str	r3, [r1, #16]
 201:./Library/misc.c ****   }
 202:./Library/misc.c ****   else
 203:./Library/misc.c ****   {
 204:./Library/misc.c ****     SCB->SCR &= (uint32_t)(~(uint32_t)LowPowerMode);
 205:./Library/misc.c ****   }
 206:./Library/misc.c **** }
 331              		.loc 1 206 1
 332 0022 06E0     		b	.L16
 333              	.L14:
 204:./Library/misc.c ****   }
 334              		.loc 1 204 14
 335 0024 064B     		ldr	r3, .L17
 336 0026 1A69     		ldr	r2, [r3, #16]
 204:./Library/misc.c ****   }
 337              		.loc 1 204 29
 338 0028 FB79     		ldrb	r3, [r7, #7]	@ zero_extendqisi2
 204:./Library/misc.c ****   }
 339              		.loc 1 204 17
 340 002a DB43     		mvns	r3, r3
 204:./Library/misc.c ****   }
 341              		.loc 1 204 14
 342 002c 0449     		ldr	r1, .L17
 343 002e 1340     		ands	r3, r3, r2
 344 0030 0B61     		str	r3, [r1, #16]
 345              	.L16:
 346              		.loc 1 206 1
 347 0032 00BF     		nop
 348 0034 0C37     		adds	r7, r7, #12
 349              	.LCFI21:
 350              		.cfi_def_cfa_offset 4
 351 0036 BD46     		mov	sp, r7
 352              	.LCFI22:
 353              		.cfi_def_cfa_register 13
 354              		@ sp needed
 355 0038 5DF8047B 		ldr	r7, [sp], #4
 356              	.LCFI23:
ARM GAS  /var/folders/yl/_q9l42k90g1g4mdhbs226msm0000gn/T//ccjgPyhc.s 			page 11


 357              		.cfi_restore 7
 358              		.cfi_def_cfa_offset 0
 359 003c 7047     		bx	lr
 360              	.L18:
 361 003e 00BF     		.align	2
 362              	.L17:
 363 0040 00ED00E0 		.word	-536810240
 364              		.cfi_endproc
 365              	.LFE126:
 367              		.section	.text.SysTick_CLKSourceConfig,"ax",%progbits
 368              		.align	1
 369              		.global	SysTick_CLKSourceConfig
 370              		.syntax unified
 371              		.thumb
 372              		.thumb_func
 374              	SysTick_CLKSourceConfig:
 375              	.LFB127:
 207:./Library/misc.c **** 
 208:./Library/misc.c **** /**
 209:./Library/misc.c ****   * @brief  Configures the SysTick clock source.
 210:./Library/misc.c ****   * @param  SysTick_CLKSource: specifies the SysTick clock source.
 211:./Library/misc.c ****   *   This parameter can be one of the following values:
 212:./Library/misc.c ****   *     @arg SysTick_CLKSource_HCLK_Div8: AHB clock divided by 8 selected as SysTick clock source.
 213:./Library/misc.c ****   *     @arg SysTick_CLKSource_HCLK: AHB clock selected as SysTick clock source.
 214:./Library/misc.c ****   * @retval None
 215:./Library/misc.c ****   */
 216:./Library/misc.c **** void SysTick_CLKSourceConfig(uint32_t SysTick_CLKSource)
 217:./Library/misc.c **** {
 376              		.loc 1 217 1
 377              		.cfi_startproc
 378              		@ args = 0, pretend = 0, frame = 8
 379              		@ frame_needed = 1, uses_anonymous_args = 0
 380              		@ link register save eliminated.
 381 0000 80B4     		push	{r7}
 382              	.LCFI24:
 383              		.cfi_def_cfa_offset 4
 384              		.cfi_offset 7, -4
 385 0002 83B0     		sub	sp, sp, #12
 386              	.LCFI25:
 387              		.cfi_def_cfa_offset 16
 388 0004 00AF     		add	r7, sp, #0
 389              	.LCFI26:
 390              		.cfi_def_cfa_register 7
 391 0006 7860     		str	r0, [r7, #4]
 218:./Library/misc.c ****   /* Check the parameters */
 219:./Library/misc.c ****   assert_param(IS_SYSTICK_CLK_SOURCE(SysTick_CLKSource));
 220:./Library/misc.c ****   if (SysTick_CLKSource == SysTick_CLKSource_HCLK)
 392              		.loc 1 220 6
 393 0008 7B68     		ldr	r3, [r7, #4]
 394 000a 042B     		cmp	r3, #4
 395 000c 06D1     		bne	.L20
 221:./Library/misc.c ****   {
 222:./Library/misc.c ****     SysTick->CTRL |= SysTick_CLKSource_HCLK;
 396              		.loc 1 222 19
 397 000e 094B     		ldr	r3, .L23
 398 0010 1B68     		ldr	r3, [r3]
 399 0012 084A     		ldr	r2, .L23
ARM GAS  /var/folders/yl/_q9l42k90g1g4mdhbs226msm0000gn/T//ccjgPyhc.s 			page 12


 400 0014 43F00403 		orr	r3, r3, #4
 401 0018 1360     		str	r3, [r2]
 223:./Library/misc.c ****   }
 224:./Library/misc.c ****   else
 225:./Library/misc.c ****   {
 226:./Library/misc.c ****     SysTick->CTRL &= SysTick_CLKSource_HCLK_Div8;
 227:./Library/misc.c ****   }
 228:./Library/misc.c **** }
 402              		.loc 1 228 1
 403 001a 05E0     		b	.L22
 404              	.L20:
 226:./Library/misc.c ****   }
 405              		.loc 1 226 19
 406 001c 054B     		ldr	r3, .L23
 407 001e 1B68     		ldr	r3, [r3]
 408 0020 044A     		ldr	r2, .L23
 409 0022 23F00403 		bic	r3, r3, #4
 410 0026 1360     		str	r3, [r2]
 411              	.L22:
 412              		.loc 1 228 1
 413 0028 00BF     		nop
 414 002a 0C37     		adds	r7, r7, #12
 415              	.LCFI27:
 416              		.cfi_def_cfa_offset 4
 417 002c BD46     		mov	sp, r7
 418              	.LCFI28:
 419              		.cfi_def_cfa_register 13
 420              		@ sp needed
 421 002e 5DF8047B 		ldr	r7, [sp], #4
 422              	.LCFI29:
 423              		.cfi_restore 7
 424              		.cfi_def_cfa_offset 0
 425 0032 7047     		bx	lr
 426              	.L24:
 427              		.align	2
 428              	.L23:
 429 0034 10E000E0 		.word	-536813552
 430              		.cfi_endproc
 431              	.LFE127:
 433              		.text
 434              	.Letext0:
 435              		.file 2 "/Applications/ARM/arm-none-eabi/include/machine/_default_types.h"
 436              		.file 3 "/Applications/ARM/arm-none-eabi/include/sys/_stdint.h"
 437              		.file 4 "./CORE/core_cm4.h"
 438              		.file 5 "./CORE/stm32f4xx.h"
 439              		.file 6 "./Library/misc.h"
ARM GAS  /var/folders/yl/_q9l42k90g1g4mdhbs226msm0000gn/T//ccjgPyhc.s 			page 13

