ARM GAS  /var/folders/yl/_q9l42k90g1g4mdhbs226msm0000gn/T//ccH75JyQ.s 			page 1


   1              		.cpu cortex-m4
   2              		.arch armv7e-m
   3              		.fpu fpv4-sp-d16
   4              		.eabi_attribute 27, 1
   5              		.eabi_attribute 28, 1
   6              		.eabi_attribute 20, 1
   7              		.eabi_attribute 21, 1
   8              		.eabi_attribute 23, 3
   9              		.eabi_attribute 24, 1
  10              		.eabi_attribute 25, 1
  11              		.eabi_attribute 26, 1
  12              		.eabi_attribute 30, 6
  13              		.eabi_attribute 34, 1
  14              		.eabi_attribute 18, 4
  15              		.file	"OLED.c"
  16              		.text
  17              	.Ltext0:
  18              		.cfi_sections	.debug_frame
  19              		.section	.text.OLED_I2C_Init,"ax",%progbits
  20              		.align	1
  21              		.global	OLED_I2C_Init
  22              		.syntax unified
  23              		.thumb
  24              		.thumb_func
  26              	OLED_I2C_Init:
  27              	.LFB123:
  28              		.file 1 "./Hardware/OLED.c"
   1:./Hardware/OLED.c **** 
   2:./Hardware/OLED.c **** #include "OLED.h"
   3:./Hardware/OLED.c **** 
   4:./Hardware/OLED.c **** /*引脚配置*/
   5:./Hardware/OLED.c **** #define OLED_W_SCL(x)		GPIO_WriteBit(GPIOC, GPIO_Pin_6, (BitAction)(x))
   6:./Hardware/OLED.c **** #define OLED_W_SDA(x)		GPIO_WriteBit(GPIOC, GPIO_Pin_5, (BitAction)(x))
   7:./Hardware/OLED.c **** 
   8:./Hardware/OLED.c **** /*引脚初始化*/
   9:./Hardware/OLED.c **** void OLED_I2C_Init(void)
  10:./Hardware/OLED.c **** {
  29              		.loc 1 10 1
  30              		.cfi_startproc
  31              		@ args = 0, pretend = 0, frame = 8
  32              		@ frame_needed = 1, uses_anonymous_args = 0
  33 0000 80B5     		push	{r7, lr}
  34              	.LCFI0:
  35              		.cfi_def_cfa_offset 8
  36              		.cfi_offset 7, -8
  37              		.cfi_offset 14, -4
  38 0002 82B0     		sub	sp, sp, #8
  39              	.LCFI1:
  40              		.cfi_def_cfa_offset 16
  41 0004 00AF     		add	r7, sp, #0
  42              	.LCFI2:
  43              		.cfi_def_cfa_register 7
  11:./Hardware/OLED.c **** 	//初始化PB6和PB7作为模拟SCL与SDA
  12:./Hardware/OLED.c **** 	GPIO_InitTypeDef GPIO_InitStructure;
  13:./Hardware/OLED.c **** 	RCC_AHB1PeriphClockCmd(RCC_AHB1Periph_GPIOC, ENABLE);
  44              		.loc 1 13 2
  45 0006 0121     		movs	r1, #1
ARM GAS  /var/folders/yl/_q9l42k90g1g4mdhbs226msm0000gn/T//ccH75JyQ.s 			page 2


  46 0008 0420     		movs	r0, #4
  47 000a FFF7FEFF 		bl	RCC_AHB1PeriphClockCmd
  14:./Hardware/OLED.c **** 	GPIO_InitStructure.GPIO_Pin = GPIO_Pin_6 | GPIO_Pin_5;
  48              		.loc 1 14 30
  49 000e 6023     		movs	r3, #96
  50 0010 3B60     		str	r3, [r7]
  15:./Hardware/OLED.c **** 	GPIO_InitStructure.GPIO_Speed = GPIO_Speed_100MHz;
  51              		.loc 1 15 32
  52 0012 0323     		movs	r3, #3
  53 0014 7B71     		strb	r3, [r7, #5]
  16:./Hardware/OLED.c **** 	GPIO_InitStructure.GPIO_Mode = GPIO_Mode_OUT;
  54              		.loc 1 16 31
  55 0016 0123     		movs	r3, #1
  56 0018 3B71     		strb	r3, [r7, #4]
  17:./Hardware/OLED.c **** 	GPIO_InitStructure.GPIO_OType = GPIO_OType_OD;
  57              		.loc 1 17 32
  58 001a 0123     		movs	r3, #1
  59 001c BB71     		strb	r3, [r7, #6]
  18:./Hardware/OLED.c **** 	GPIO_Init(GPIOC, &GPIO_InitStructure);
  60              		.loc 1 18 2
  61 001e 3B46     		mov	r3, r7
  62 0020 1946     		mov	r1, r3
  63 0022 1548     		ldr	r0, .L2
  64 0024 FFF7FEFF 		bl	GPIO_Init
  19:./Hardware/OLED.c **** 		
  20:./Hardware/OLED.c **** 	GPIO_InitStructure.GPIO_Pin = GPIO_Pin_8 | GPIO_Pin_9;
  65              		.loc 1 20 30
  66 0028 4FF44073 		mov	r3, #768
  67 002c 3B60     		str	r3, [r7]
  21:./Hardware/OLED.c **** 	GPIO_InitStructure.GPIO_Mode = GPIO_Mode_OUT;
  68              		.loc 1 21 31
  69 002e 0123     		movs	r3, #1
  70 0030 3B71     		strb	r3, [r7, #4]
  22:./Hardware/OLED.c **** 	GPIO_InitStructure.GPIO_OType = GPIO_OType_PP;
  71              		.loc 1 22 32
  72 0032 0023     		movs	r3, #0
  73 0034 BB71     		strb	r3, [r7, #6]
  23:./Hardware/OLED.c **** 	GPIO_InitStructure.GPIO_Speed = GPIO_Speed_50MHz;
  74              		.loc 1 23 32
  75 0036 0223     		movs	r3, #2
  76 0038 7B71     		strb	r3, [r7, #5]
  24:./Hardware/OLED.c **** 	GPIO_InitStructure.GPIO_PuPd = GPIO_PuPd_UP;
  77              		.loc 1 24 31
  78 003a 0123     		movs	r3, #1
  79 003c FB71     		strb	r3, [r7, #7]
  25:./Hardware/OLED.c **** 	GPIO_Init(GPIOC,&GPIO_InitStructure);
  80              		.loc 1 25 2
  81 003e 3B46     		mov	r3, r7
  82 0040 1946     		mov	r1, r3
  83 0042 0D48     		ldr	r0, .L2
  84 0044 FFF7FEFF 		bl	GPIO_Init
  26:./Hardware/OLED.c **** 	GPIO_SetBits(GPIOC,GPIO_Pin_8);
  85              		.loc 1 26 2
  86 0048 4FF48071 		mov	r1, #256
  87 004c 0A48     		ldr	r0, .L2
  88 004e FFF7FEFF 		bl	GPIO_SetBits
  27:./Hardware/OLED.c **** 	GPIO_ResetBits(GPIOC,GPIO_Pin_9);
ARM GAS  /var/folders/yl/_q9l42k90g1g4mdhbs226msm0000gn/T//ccH75JyQ.s 			page 3


  89              		.loc 1 27 2
  90 0052 4FF40071 		mov	r1, #512
  91 0056 0848     		ldr	r0, .L2
  92 0058 FFF7FEFF 		bl	GPIO_ResetBits
  28:./Hardware/OLED.c **** 	
  29:./Hardware/OLED.c **** 	
  30:./Hardware/OLED.c **** 	
  31:./Hardware/OLED.c **** 	OLED_W_SCL(1);
  93              		.loc 1 31 2
  94 005c 0122     		movs	r2, #1
  95 005e 4021     		movs	r1, #64
  96 0060 0548     		ldr	r0, .L2
  97 0062 FFF7FEFF 		bl	GPIO_WriteBit
  32:./Hardware/OLED.c **** 	OLED_W_SDA(1);
  98              		.loc 1 32 2
  99 0066 0122     		movs	r2, #1
 100 0068 2021     		movs	r1, #32
 101 006a 0348     		ldr	r0, .L2
 102 006c FFF7FEFF 		bl	GPIO_WriteBit
  33:./Hardware/OLED.c **** }
 103              		.loc 1 33 1
 104 0070 00BF     		nop
 105 0072 0837     		adds	r7, r7, #8
 106              	.LCFI3:
 107              		.cfi_def_cfa_offset 8
 108 0074 BD46     		mov	sp, r7
 109              	.LCFI4:
 110              		.cfi_def_cfa_register 13
 111              		@ sp needed
 112 0076 80BD     		pop	{r7, pc}
 113              	.L3:
 114              		.align	2
 115              	.L2:
 116 0078 00080240 		.word	1073874944
 117              		.cfi_endproc
 118              	.LFE123:
 120              		.global	OLED_F08x16
 121              		.section	.rodata.OLED_F08x16,"a"
 122              		.align	2
 125              	OLED_F08x16:
 126 0000 00000000 		.ascii	"\000\000\000\000\000\000\000\000\000\000\000\000\000"
 126      00000000 
 126      00000000 
 126      00
 127 000d 000000   		.ascii	"\000\000\000"
 128 0010 000000F8 		.ascii	"\000\000\000\370\000\000\000\000\000\000\00030\000\000"
 128      00000000 
 128      00000033 
 128      300000
 129 001f 00       		.ascii	"\000"
 130 0020 00100C06 		.ascii	"\000\020\014\006\020\014\006\000\000\000\000\000\000"
 130      100C0600 
 130      00000000 
 130      00
 131 002d 000000   		.ascii	"\000\000\000"
 132 0030 40C07840 		.ascii	"@\300x@\300x@\000\004?\004\004?\004\004\000"
 132      C0784000 
ARM GAS  /var/folders/yl/_q9l42k90g1g4mdhbs226msm0000gn/T//ccH75JyQ.s 			page 4


 132      043F0404 
 132      3F040400 
 133 0040 007088FC 		.ascii	"\000p\210\374\0100\000\000\000\030 \377!\036\000\000"
 133      08300000 
 133      001820FF 
 133      211E0000 
 134 0050 F008F000 		.ascii	"\360\010\360\000\340\030\000\000\000!\034\003\036!\036"
 134      E0180000 
 134      00211C03 
 134      1E211E
 135 005f 00       		.ascii	"\000"
 136 0060 00F00888 		.ascii	"\000\360\010\210p\000\000\000\036!#$\031'!\020"
 136      70000000 
 136      1E212324 
 136      19272110 
 137 0070 10160E00 		.ascii	"\020\026\016\000\000\000\000\000\000\000\000\000\000"
 137      00000000 
 137      00000000 
 137      00
 138 007d 000000   		.ascii	"\000\000\000"
 139 0080 000000E0 		.ascii	"\000\000\000\340\030\004\002\000\000\000\000\007\030"
 139      18040200 
 139      00000007 
 139      18
 140 008d 204000   		.ascii	" @\000"
 141 0090 00020418 		.ascii	"\000\002\004\030\340\000\000\000\000@ \030\007\000\000"
 141      E0000000 
 141      00402018 
 141      070000
 142 009f 00       		.ascii	"\000"
 143 00a0 404080F0 		.ascii	"@@\200\360\200@@\000\002\002\001\017\001\002\002\000"
 143      80404000 
 143      0202010F 
 143      01020200 
 144 00b0 000000F0 		.ascii	"\000\000\000\360\000\000\000\000\001\001\001\037\001"
 144      00000000 
 144      0101011F 
 144      01
 145 00bd 010100   		.ascii	"\001\001\000"
 146 00c0 00000000 		.ascii	"\000\000\000\000\000\000\000\000\200\260p\000\000\000"
 146      00000000 
 146      80B07000 
 146      0000
 147 00ce 0000     		.ascii	"\000\000"
 148 00d0 00000000 		.ascii	"\000\000\000\000\000\000\000\000\000\001\001\001\001"
 148      00000000 
 148      00010101 
 148      01
 149 00dd 010101   		.ascii	"\001\001\001"
 150 00e0 00000000 		.ascii	"\000\000\000\000\000\000\000\000\00000\000\000\000\000"
 150      00000000 
 150      00303000 
 150      000000
 151 00ef 00       		.ascii	"\000"
 152 00f0 00000000 		.ascii	"\000\000\000\000\200`\030\004\000`\030\006\001\000\000"
 152      80601804 
 152      00601806 
ARM GAS  /var/folders/yl/_q9l42k90g1g4mdhbs226msm0000gn/T//ccH75JyQ.s 			page 5


 152      010000
 153 00ff 00       		.ascii	"\000"
 154 0100 00E01008 		.ascii	"\000\340\020\010\010\020\340\000\000\017\020  \020\017"
 154      0810E000 
 154      000F1020 
 154      20100F
 155 010f 00       		.ascii	"\000"
 156 0110 001010F8 		.ascii	"\000\020\020\370\000\000\000\000\000  ?  \000\000"
 156      00000000 
 156      0020203F 
 156      20200000 
 157 0120 00700808 		.ascii	"\000p\010\010\010\210p\000\0000($\"!0\000"
 157      08887000 
 157      00302824 
 157      22213000 
 158 0130 00300888 		.ascii	"\0000\010\210\210H0\000\000\030   \021\016\000"
 158      88483000 
 158      00182020 
 158      20110E00 
 159 0140 0000C020 		.ascii	"\000\000\300 \020\370\000\000\000\007\004$$?$\000"
 159      10F80000 
 159      00070424 
 159      243F2400 
 160 0150 00F80888 		.ascii	"\000\370\010\210\210\010\010\000\000\031!  \021\016"
 160      88080800 
 160      00192120 
 160      20110E
 161 015f 00       		.ascii	"\000"
 162 0160 00E01088 		.ascii	"\000\340\020\210\210\030\000\000\000\017\021  \021\016"
 162      88180000 
 162      000F1120 
 162      20110E
 163 016f 00       		.ascii	"\000"
 164 0170 00380808 		.ascii	"\0008\010\010\3108\010\000\000\000\000?\000\000\000"
 164      C8380800 
 164      0000003F 
 164      000000
 165 017f 00       		.ascii	"\000"
 166 0180 00708808 		.ascii	"\000p\210\010\010\210p\000\000\034\"!!\"\034\000"
 166      08887000 
 166      001C2221 
 166      21221C00 
 167 0190 00E01008 		.ascii	"\000\340\020\010\010\020\340\000\000\0001\"\"\021\017"
 167      0810E000 
 167      00003122 
 167      22110F
 168 019f 00       		.ascii	"\000"
 169 01a0 000000C0 		.ascii	"\000\000\000\300\300\000\000\000\000\000\00000\000\000"
 169      C0000000 
 169      00000030 
 169      300000
 170 01af 00       		.ascii	"\000"
 171 01b0 00000080 		.ascii	"\000\000\000\200\000\000\000\000\000\000\200`\000\000"
 171      00000000 
 171      00008060 
 171      0000
 172 01be 0000     		.ascii	"\000\000"
ARM GAS  /var/folders/yl/_q9l42k90g1g4mdhbs226msm0000gn/T//ccH75JyQ.s 			page 6


 173 01c0 00008040 		.ascii	"\000\000\200@ \020\010\000\000\001\002\004\010\020 "
 173      20100800 
 173      00010204 
 173      081020
 174 01cf 00       		.ascii	"\000"
 175 01d0 40404040 		.ascii	"@@@@@@@\000\004\004\004\004\004\004\004\000"
 175      40404000 
 175      04040404 
 175      04040400 
 176 01e0 00081020 		.ascii	"\000\010\020 @\200\000\000\000 \020\010\004\002\001"
 176      40800000 
 176      00201008 
 176      040201
 177 01ef 00       		.ascii	"\000"
 178 01f0 00704808 		.ascii	"\000pH\010\010\010\360\000\000\000\00006\001\000\000"
 178      0808F000 
 178      00000030 
 178      36010000 
 179 0200 C030C828 		.ascii	"\3000\310(\350\020\340\000\007\030'$#\024\013\000"
 179      E810E000 
 179      07182724 
 179      23140B00 
 180 0210 0000C038 		.ascii	"\000\000\3008\340\000\000\000 <#\002\002'8 "
 180      E0000000 
 180      203C2302 
 180      02273820 
 181 0220 08F88888 		.ascii	"\010\370\210\210\210p\000\000 ?   \021\016\000"
 181      88700000 
 181      203F2020 
 181      20110E00 
 182 0230 C0300808 		.ascii	"\3000\010\010\010\0108\000\007\030   \020\010\000"
 182      08083800 
 182      07182020 
 182      20100800 
 183 0240 08F80808 		.ascii	"\010\370\010\010\010\020\340\000 ?   \020\017\000"
 183      0810E000 
 183      203F2020 
 183      20100F00 
 184 0250 08F88888 		.ascii	"\010\370\210\210\350\010\020\000 ?  # \030\000"
 184      E8081000 
 184      203F2020 
 184      23201800 
 185 0260 08F88888 		.ascii	"\010\370\210\210\350\010\020\000 ? \000\003\000\000"
 185      E8081000 
 185      203F2000 
 185      030000
 186 026f 00       		.ascii	"\000"
 187 0270 C0300808 		.ascii	"\3000\010\010\0108\000\000\007\030  \"\036\002\000"
 187      08380000 
 187      07182020 
 187      221E0200 
 188 0280 08F80800 		.ascii	"\010\370\010\000\000\010\370\010 ?!\001\001!? "
 188      0008F808 
 188      203F2101 
 188      01213F20 
 189 0290 000808F8 		.ascii	"\000\010\010\370\010\010\000\000\000  ?  \000\000"
 189      08080000 
ARM GAS  /var/folders/yl/_q9l42k90g1g4mdhbs226msm0000gn/T//ccH75JyQ.s 			page 7


 189      0020203F 
 189      20200000 
 190 02a0 00000808 		.ascii	"\000\000\010\010\370\010\010\000\300\200\200\200\177"
 190      F8080800 
 190      C0808080 
 190      7F
 191 02ad 000000   		.ascii	"\000\000\000"
 192 02b0 08F888C0 		.ascii	"\010\370\210\300(\030\010\000 ? \001&8 \000"
 192      28180800 
 192      203F2001 
 192      26382000 
 193 02c0 08F80800 		.ascii	"\010\370\010\000\000\000\000\000 ?    0\000"
 193      00000000 
 193      203F2020 
 193      20203000 
 194 02d0 08F8F800 		.ascii	"\010\370\370\000\370\370\010\000 ?\000?\000? \000"
 194      F8F80800 
 194      203F003F 
 194      003F2000 
 195 02e0 08F830C0 		.ascii	"\010\3700\300\000\010\370\010 ? \000\007\030?\000"
 195      0008F808 
 195      203F2000 
 195      07183F00 
 196 02f0 E0100808 		.ascii	"\340\020\010\010\010\020\340\000\017\020   \020\017"
 196      0810E000 
 196      0F102020 
 196      20100F
 197 02ff 00       		.ascii	"\000"
 198 0300 08F80808 		.ascii	"\010\370\010\010\010\010\360\000 ?!\001\001\001\000"
 198      0808F000 
 198      203F2101 
 198      010100
 199 030f 00       		.ascii	"\000"
 200 0310 E0100808 		.ascii	"\340\020\010\010\010\020\340\000\017\030$$8PO\000"
 200      0810E000 
 200      0F182424 
 200      38504F00 
 201 0320 08F88888 		.ascii	"\010\370\210\210\210\210p\000 ? \000\003\0140 "
 201      88887000 
 201      203F2000 
 201      030C3020 
 202 0330 00708808 		.ascii	"\000p\210\010\010\0108\000\0008 !!\"\034\000"
 202      08083800 
 202      00382021 
 202      21221C00 
 203 0340 180808F8 		.ascii	"\030\010\010\370\010\010\030\000\000\000 ? \000\000"
 203      08081800 
 203      0000203F 
 203      200000
 204 034f 00       		.ascii	"\000"
 205 0350 08F80800 		.ascii	"\010\370\010\000\000\010\370\010\000\037    \037\000"
 205      0008F808 
 205      001F2020 
 205      20201F00 
 206 0360 08788800 		.ascii	"\010x\210\000\000\3108\010\000\000\0078\016\001\000"
 206      00C83808 
 206      00000738 
ARM GAS  /var/folders/yl/_q9l42k90g1g4mdhbs226msm0000gn/T//ccH75JyQ.s 			page 8


 206      0E0100
 207 036f 00       		.ascii	"\000"
 208 0370 F80800F8 		.ascii	"\370\010\000\370\000\010\370\000\003<\007\000\007<\003"
 208      0008F800 
 208      033C0700 
 208      073C03
 209 037f 00       		.ascii	"\000"
 210 0380 08186880 		.ascii	"\010\030h\200\200h\030\010 0,\003\003,0 "
 210      80681808 
 210      20302C03 
 210      032C3020 
 211 0390 0838C800 		.ascii	"\0108\310\000\3108\010\000\000\000 ? \000\000\000"
 211      C8380800 
 211      0000203F 
 211      20000000 
 212 03a0 10080808 		.ascii	"\020\010\010\010\3108\010\000 8&!  \030\000"
 212      C8380800 
 212      20382621 
 212      20201800 
 213 03b0 000000FE 		.ascii	"\000\000\000\376\002\002\002\000\000\000\000\177@@@"
 213      02020200 
 213      0000007F 
 213      404040
 214 03bf 00       		.ascii	"\000"
 215 03c0 000C30C0 		.ascii	"\000\0140\300\000\000\000\000\000\000\000\001\0068\300"
 215      00000000 
 215      00000001 
 215      0638C0
 216 03cf 00       		.ascii	"\000"
 217 03d0 00020202 		.ascii	"\000\002\002\002\376\000\000\000\000@@@\177\000\000"
 217      FE000000 
 217      00404040 
 217      7F0000
 218 03df 00       		.ascii	"\000"
 219 03e0 00000402 		.ascii	"\000\000\004\002\002\002\004\000\000\000\000\000\000"
 219      02020400 
 219      00000000 
 219      00
 220 03ed 000000   		.ascii	"\000\000\000"
 221 03f0 00000000 		.ascii	"\000\000\000\000\000\000\000\000\200\200\200\200\200"
 221      00000000 
 221      80808080 
 221      80
 222 03fd 808080   		.ascii	"\200\200\200"
 223 0400 00020204 		.ascii	"\000\002\002\004\000\000\000\000\000\000\000\000\000"
 223      00000000 
 223      00000000 
 223      00
 224 040d 000000   		.ascii	"\000\000\000"
 225 0410 00008080 		.ascii	"\000\000\200\200\200\200\000\000\000\031$\"\"\"? "
 225      80800000 
 225      00192422 
 225      22223F20 
 226 0420 08F80080 		.ascii	"\010\370\000\200\200\000\000\000\000?\021  \021\016"
 226      80000000 
 226      003F1120 
 226      20110E
ARM GAS  /var/folders/yl/_q9l42k90g1g4mdhbs226msm0000gn/T//ccH75JyQ.s 			page 9


 227 042f 00       		.ascii	"\000"
 228 0430 00000080 		.ascii	"\000\000\000\200\200\200\000\000\000\016\021   \021"
 228      80800000 
 228      000E1120 
 228      202011
 229 043f 00       		.ascii	"\000"
 230 0440 00000080 		.ascii	"\000\000\000\200\200\210\370\000\000\016\021  \020?"
 230      8088F800 
 230      000E1120 
 230      20103F
 231 044f 20       		.ascii	" "
 232 0450 00008080 		.ascii	"\000\000\200\200\200\200\000\000\000\037\"\"\"\"\023"
 232      80800000 
 232      001F2222 
 232      222213
 233 045f 00       		.ascii	"\000"
 234 0460 008080F0 		.ascii	"\000\200\200\360\210\210\210\030\000  ?  \000\000"
 234      88888818 
 234      0020203F 
 234      20200000 
 235 0470 00008080 		.ascii	"\000\000\200\200\200\200\200\000\000k\224\224\224\223"
 235      80808000 
 235      006B9494 
 235      9493
 236 047e 6000     		.ascii	"`\000"
 237 0480 08F80080 		.ascii	"\010\370\000\200\200\200\000\000 ?!\000\000 ? "
 237      80800000 
 237      203F2100 
 237      00203F20 
 238 0490 00809898 		.ascii	"\000\200\230\230\000\000\000\000\000  ?  \000\000"
 238      00000000 
 238      0020203F 
 238      20200000 
 239 04a0 00000080 		.ascii	"\000\000\000\200\230\230\000\000\000\300\200\200\200"
 239      98980000 
 239      00C08080 
 239      80
 240 04ad 7F0000   		.ascii	"\177\000\000"
 241 04b0 08F80000 		.ascii	"\010\370\000\000\200\200\200\000 ?$\002-0 \000"
 241      80808000 
 241      203F2402 
 241      2D302000 
 242 04c0 000808F8 		.ascii	"\000\010\010\370\000\000\000\000\000  ?  \000\000"
 242      00000000 
 242      0020203F 
 242      20200000 
 243 04d0 80808080 		.ascii	"\200\200\200\200\200\200\200\000 ? \000? \000?"
 243      80808000 
 243      203F2000 
 243      3F20003F 
 244 04e0 80800080 		.ascii	"\200\200\000\200\200\200\000\000 ?!\000\000 ? "
 244      80800000 
 244      203F2100 
 244      00203F20 
 245 04f0 00008080 		.ascii	"\000\000\200\200\200\200\000\000\000\037    \037\000"
 245      80800000 
 245      001F2020 
ARM GAS  /var/folders/yl/_q9l42k90g1g4mdhbs226msm0000gn/T//ccH75JyQ.s 			page 10


 245      20201F00 
 246 0500 80800080 		.ascii	"\200\200\000\200\200\000\000\000\200\377\241  \021\016"
 246      80000000 
 246      80FFA120 
 246      20110E
 247 050f 00       		.ascii	"\000"
 248 0510 00000080 		.ascii	"\000\000\000\200\200\200\200\000\000\016\021  \240\377"
 248      80808000 
 248      000E1120 
 248      20A0FF
 249 051f 80       		.ascii	"\200"
 250 0520 80808000 		.ascii	"\200\200\200\000\200\200\200\000  ?! \000\001\000"
 250      80808000 
 250      20203F21 
 250      20000100 
 251 0530 00008080 		.ascii	"\000\000\200\200\200\200\200\000\0003$$$$\031\000"
 251      80808000 
 251      00332424 
 251      24241900 
 252 0540 008080E0 		.ascii	"\000\200\200\340\200\200\000\000\000\000\000\037  \000"
 252      80800000 
 252      0000001F 
 252      202000
 253 054f 00       		.ascii	"\000"
 254 0550 80800000 		.ascii	"\200\200\000\000\000\200\200\000\000\037   \020? "
 254      00808000 
 254      001F2020 
 254      20103F20 
 255 0560 80808000 		.ascii	"\200\200\200\000\000\200\200\200\000\001\0160\010\006"
 255      00808080 
 255      00010E30 
 255      0806
 256 056e 0100     		.ascii	"\001\000"
 257 0570 80800080 		.ascii	"\200\200\000\200\000\200\200\200\0170\014\003\0140\017"
 257      00808080 
 257      0F300C03 
 257      0C300F
 258 057f 00       		.ascii	"\000"
 259 0580 00808000 		.ascii	"\000\200\200\000\200\200\200\000\000 1.\0161 \000"
 259      80808000 
 259      0020312E 
 259      0E312000 
 260 0590 80808000 		.ascii	"\200\200\200\000\000\200\200\200\200\201\216p\030\006"
 260      00808080 
 260      80818E70 
 260      1806
 261 059e 0100     		.ascii	"\001\000"
 262 05a0 00808080 		.ascii	"\000\200\200\200\200\200\200\000\000!0,\"!0\000"
 262      80808000 
 262      0021302C 
 262      22213000 
 263 05b0 00000000 		.ascii	"\000\000\000\000\200|\002\002\000\000\000\000\000?@"
 263      807C0202 
 263      00000000 
 263      003F40
 264 05bf 40       		.ascii	"@"
 265 05c0 00000000 		.ascii	"\000\000\000\000\377\000\000\000\000\000\000\000\377"
ARM GAS  /var/folders/yl/_q9l42k90g1g4mdhbs226msm0000gn/T//ccH75JyQ.s 			page 11


 265      FF000000 
 265      00000000 
 265      FF
 266 05cd 000000   		.ascii	"\000\000\000"
 267 05d0 0002027C 		.ascii	"\000\002\002|\200\000\000\000\000@@?\000\000\000\000"
 267      80000000 
 267      0040403F 
 267      00000000 
 268 05e0 00060101 		.ascii	"\000\006\001\001\002\002\004\004\000\000\000\000\000"
 268      02020404 
 268      00000000 
 268      00
 269 05ed 000000   		.ascii	"\000\000\000"
 270              		.section	.text.OLED_I2C_Start,"ax",%progbits
 271              		.align	1
 272              		.global	OLED_I2C_Start
 273              		.syntax unified
 274              		.thumb
 275              		.thumb_func
 277              	OLED_I2C_Start:
 278              	.LFB124:
  34:./Hardware/OLED.c **** 
  35:./Hardware/OLED.c **** 
  36:./Hardware/OLED.c **** 
  37:./Hardware/OLED.c **** /*OLED字模库，宽8像素，高16像素*/
  38:./Hardware/OLED.c **** const uint8_t OLED_F08x16[][16]=
  39:./Hardware/OLED.c **** {
  40:./Hardware/OLED.c **** 	{
  41:./Hardware/OLED.c **** 	0x00,0x00,0x00,0x00,0x00,0x00,0x00,0x00,
  42:./Hardware/OLED.c **** 	0x00,0x00,0x00,0x00,0x00,0x00,0x00,0x00,//  0
  43:./Hardware/OLED.c **** 	},{
  44:./Hardware/OLED.c **** 	0x00,0x00,0x00,0xF8,0x00,0x00,0x00,0x00,
  45:./Hardware/OLED.c **** 	0x00,0x00,0x00,0x33,0x30,0x00,0x00,0x00,//! 1
  46:./Hardware/OLED.c **** 	},{
  47:./Hardware/OLED.c **** 	0x00,0x10,0x0C,0x06,0x10,0x0C,0x06,0x00,
  48:./Hardware/OLED.c **** 	0x00,0x00,0x00,0x00,0x00,0x00,0x00,0x00,//" 2
  49:./Hardware/OLED.c **** 	},{
  50:./Hardware/OLED.c **** 	0x40,0xC0,0x78,0x40,0xC0,0x78,0x40,0x00,
  51:./Hardware/OLED.c **** 	0x04,0x3F,0x04,0x04,0x3F,0x04,0x04,0x00,//# 3
  52:./Hardware/OLED.c **** 	},{
  53:./Hardware/OLED.c **** 	0x00,0x70,0x88,0xFC,0x08,0x30,0x00,0x00,
  54:./Hardware/OLED.c **** 	0x00,0x18,0x20,0xFF,0x21,0x1E,0x00,0x00,//$ 4
  55:./Hardware/OLED.c **** 	},{
  56:./Hardware/OLED.c **** 	0xF0,0x08,0xF0,0x00,0xE0,0x18,0x00,0x00,
  57:./Hardware/OLED.c **** 	0x00,0x21,0x1C,0x03,0x1E,0x21,0x1E,0x00,//% 5
  58:./Hardware/OLED.c **** 	},{
  59:./Hardware/OLED.c **** 	0x00,0xF0,0x08,0x88,0x70,0x00,0x00,0x00,
  60:./Hardware/OLED.c **** 	0x1E,0x21,0x23,0x24,0x19,0x27,0x21,0x10,//& 6
  61:./Hardware/OLED.c **** 	},{
  62:./Hardware/OLED.c **** 	0x10,0x16,0x0E,0x00,0x00,0x00,0x00,0x00,
  63:./Hardware/OLED.c **** 	0x00,0x00,0x00,0x00,0x00,0x00,0x00,0x00,//' 7
  64:./Hardware/OLED.c **** 	},{
  65:./Hardware/OLED.c **** 	0x00,0x00,0x00,0xE0,0x18,0x04,0x02,0x00,
  66:./Hardware/OLED.c **** 	0x00,0x00,0x00,0x07,0x18,0x20,0x40,0x00,//( 8
  67:./Hardware/OLED.c **** 	},{
  68:./Hardware/OLED.c **** 	0x00,0x02,0x04,0x18,0xE0,0x00,0x00,0x00,
  69:./Hardware/OLED.c **** 	0x00,0x40,0x20,0x18,0x07,0x00,0x00,0x00,//) 9
ARM GAS  /var/folders/yl/_q9l42k90g1g4mdhbs226msm0000gn/T//ccH75JyQ.s 			page 12


  70:./Hardware/OLED.c **** 	},{
  71:./Hardware/OLED.c **** 	0x40,0x40,0x80,0xF0,0x80,0x40,0x40,0x00,
  72:./Hardware/OLED.c **** 	0x02,0x02,0x01,0x0F,0x01,0x02,0x02,0x00,//* 10
  73:./Hardware/OLED.c **** 	},{
  74:./Hardware/OLED.c **** 	0x00,0x00,0x00,0xF0,0x00,0x00,0x00,0x00,
  75:./Hardware/OLED.c **** 	0x01,0x01,0x01,0x1F,0x01,0x01,0x01,0x00,//+ 11
  76:./Hardware/OLED.c **** 	},{
  77:./Hardware/OLED.c **** 	0x00,0x00,0x00,0x00,0x00,0x00,0x00,0x00,
  78:./Hardware/OLED.c **** 	0x80,0xB0,0x70,0x00,0x00,0x00,0x00,0x00,//, 12
  79:./Hardware/OLED.c **** 	},{
  80:./Hardware/OLED.c **** 	0x00,0x00,0x00,0x00,0x00,0x00,0x00,0x00,
  81:./Hardware/OLED.c **** 	0x00,0x01,0x01,0x01,0x01,0x01,0x01,0x01,//- 13
  82:./Hardware/OLED.c **** 	},{
  83:./Hardware/OLED.c **** 	0x00,0x00,0x00,0x00,0x00,0x00,0x00,0x00,
  84:./Hardware/OLED.c **** 	0x00,0x30,0x30,0x00,0x00,0x00,0x00,0x00,//. 14
  85:./Hardware/OLED.c **** 	},{
  86:./Hardware/OLED.c **** 	0x00,0x00,0x00,0x00,0x80,0x60,0x18,0x04,
  87:./Hardware/OLED.c **** 	0x00,0x60,0x18,0x06,0x01,0x00,0x00,0x00,/// 15
  88:./Hardware/OLED.c **** 	},{
  89:./Hardware/OLED.c **** 	0x00,0xE0,0x10,0x08,0x08,0x10,0xE0,0x00,
  90:./Hardware/OLED.c **** 	0x00,0x0F,0x10,0x20,0x20,0x10,0x0F,0x00,//0 16
  91:./Hardware/OLED.c **** 	},{
  92:./Hardware/OLED.c **** 	0x00,0x10,0x10,0xF8,0x00,0x00,0x00,0x00,
  93:./Hardware/OLED.c **** 	0x00,0x20,0x20,0x3F,0x20,0x20,0x00,0x00,//1 17
  94:./Hardware/OLED.c **** 	},{
  95:./Hardware/OLED.c **** 	0x00,0x70,0x08,0x08,0x08,0x88,0x70,0x00,
  96:./Hardware/OLED.c **** 	0x00,0x30,0x28,0x24,0x22,0x21,0x30,0x00,//2 18
  97:./Hardware/OLED.c **** 	},{
  98:./Hardware/OLED.c **** 	0x00,0x30,0x08,0x88,0x88,0x48,0x30,0x00,
  99:./Hardware/OLED.c **** 	0x00,0x18,0x20,0x20,0x20,0x11,0x0E,0x00,//3 19
 100:./Hardware/OLED.c **** 	},{
 101:./Hardware/OLED.c **** 	0x00,0x00,0xC0,0x20,0x10,0xF8,0x00,0x00,
 102:./Hardware/OLED.c **** 	0x00,0x07,0x04,0x24,0x24,0x3F,0x24,0x00,//4 20
 103:./Hardware/OLED.c **** 	},{
 104:./Hardware/OLED.c **** 	0x00,0xF8,0x08,0x88,0x88,0x08,0x08,0x00,
 105:./Hardware/OLED.c **** 	0x00,0x19,0x21,0x20,0x20,0x11,0x0E,0x00,//5 21
 106:./Hardware/OLED.c **** 	},{
 107:./Hardware/OLED.c **** 	0x00,0xE0,0x10,0x88,0x88,0x18,0x00,0x00,
 108:./Hardware/OLED.c **** 	0x00,0x0F,0x11,0x20,0x20,0x11,0x0E,0x00,//6 22
 109:./Hardware/OLED.c **** 	},{
 110:./Hardware/OLED.c **** 	0x00,0x38,0x08,0x08,0xC8,0x38,0x08,0x00,
 111:./Hardware/OLED.c **** 	0x00,0x00,0x00,0x3F,0x00,0x00,0x00,0x00,//7 23
 112:./Hardware/OLED.c **** 	},{
 113:./Hardware/OLED.c **** 	0x00,0x70,0x88,0x08,0x08,0x88,0x70,0x00,
 114:./Hardware/OLED.c **** 	0x00,0x1C,0x22,0x21,0x21,0x22,0x1C,0x00,//8 24
 115:./Hardware/OLED.c **** 	},{
 116:./Hardware/OLED.c **** 	0x00,0xE0,0x10,0x08,0x08,0x10,0xE0,0x00,
 117:./Hardware/OLED.c **** 	0x00,0x00,0x31,0x22,0x22,0x11,0x0F,0x00,//9 25
 118:./Hardware/OLED.c **** 	},{
 119:./Hardware/OLED.c **** 	0x00,0x00,0x00,0xC0,0xC0,0x00,0x00,0x00,
 120:./Hardware/OLED.c **** 	0x00,0x00,0x00,0x30,0x30,0x00,0x00,0x00,//: 26
 121:./Hardware/OLED.c **** 	},{
 122:./Hardware/OLED.c **** 	0x00,0x00,0x00,0x80,0x00,0x00,0x00,0x00,
 123:./Hardware/OLED.c **** 	0x00,0x00,0x80,0x60,0x00,0x00,0x00,0x00,//; 27
 124:./Hardware/OLED.c **** 	},{
 125:./Hardware/OLED.c **** 	0x00,0x00,0x80,0x40,0x20,0x10,0x08,0x00,
 126:./Hardware/OLED.c **** 	0x00,0x01,0x02,0x04,0x08,0x10,0x20,0x00,//< 28
ARM GAS  /var/folders/yl/_q9l42k90g1g4mdhbs226msm0000gn/T//ccH75JyQ.s 			page 13


 127:./Hardware/OLED.c **** 	},{
 128:./Hardware/OLED.c **** 	0x40,0x40,0x40,0x40,0x40,0x40,0x40,0x00,
 129:./Hardware/OLED.c **** 	0x04,0x04,0x04,0x04,0x04,0x04,0x04,0x00,//= 29
 130:./Hardware/OLED.c **** 	},{
 131:./Hardware/OLED.c **** 	0x00,0x08,0x10,0x20,0x40,0x80,0x00,0x00,
 132:./Hardware/OLED.c **** 	0x00,0x20,0x10,0x08,0x04,0x02,0x01,0x00,//> 30
 133:./Hardware/OLED.c **** 	},{
 134:./Hardware/OLED.c **** 	0x00,0x70,0x48,0x08,0x08,0x08,0xF0,0x00,
 135:./Hardware/OLED.c **** 	0x00,0x00,0x00,0x30,0x36,0x01,0x00,0x00,//? 31
 136:./Hardware/OLED.c **** 	},{
 137:./Hardware/OLED.c **** 	0xC0,0x30,0xC8,0x28,0xE8,0x10,0xE0,0x00,
 138:./Hardware/OLED.c **** 	0x07,0x18,0x27,0x24,0x23,0x14,0x0B,0x00,//@ 32
 139:./Hardware/OLED.c **** 	},{
 140:./Hardware/OLED.c **** 	0x00,0x00,0xC0,0x38,0xE0,0x00,0x00,0x00,
 141:./Hardware/OLED.c **** 	0x20,0x3C,0x23,0x02,0x02,0x27,0x38,0x20,//A 33
 142:./Hardware/OLED.c **** 	},{
 143:./Hardware/OLED.c **** 	0x08,0xF8,0x88,0x88,0x88,0x70,0x00,0x00,
 144:./Hardware/OLED.c **** 	0x20,0x3F,0x20,0x20,0x20,0x11,0x0E,0x00,//B 34
 145:./Hardware/OLED.c **** 	},{
 146:./Hardware/OLED.c **** 	0xC0,0x30,0x08,0x08,0x08,0x08,0x38,0x00,
 147:./Hardware/OLED.c **** 	0x07,0x18,0x20,0x20,0x20,0x10,0x08,0x00,//C 35
 148:./Hardware/OLED.c **** 	},{
 149:./Hardware/OLED.c **** 	0x08,0xF8,0x08,0x08,0x08,0x10,0xE0,0x00,
 150:./Hardware/OLED.c **** 	0x20,0x3F,0x20,0x20,0x20,0x10,0x0F,0x00,//D 36
 151:./Hardware/OLED.c **** 	},{
 152:./Hardware/OLED.c **** 	0x08,0xF8,0x88,0x88,0xE8,0x08,0x10,0x00,
 153:./Hardware/OLED.c **** 	0x20,0x3F,0x20,0x20,0x23,0x20,0x18,0x00,//E 37
 154:./Hardware/OLED.c **** 	},{
 155:./Hardware/OLED.c **** 	0x08,0xF8,0x88,0x88,0xE8,0x08,0x10,0x00,
 156:./Hardware/OLED.c **** 	0x20,0x3F,0x20,0x00,0x03,0x00,0x00,0x00,//F 38
 157:./Hardware/OLED.c **** 	},{
 158:./Hardware/OLED.c **** 	0xC0,0x30,0x08,0x08,0x08,0x38,0x00,0x00,
 159:./Hardware/OLED.c **** 	0x07,0x18,0x20,0x20,0x22,0x1E,0x02,0x00,//G 39
 160:./Hardware/OLED.c **** 	},{
 161:./Hardware/OLED.c **** 	0x08,0xF8,0x08,0x00,0x00,0x08,0xF8,0x08,
 162:./Hardware/OLED.c **** 	0x20,0x3F,0x21,0x01,0x01,0x21,0x3F,0x20,//H 40
 163:./Hardware/OLED.c **** 	},{
 164:./Hardware/OLED.c **** 	0x00,0x08,0x08,0xF8,0x08,0x08,0x00,0x00,
 165:./Hardware/OLED.c **** 	0x00,0x20,0x20,0x3F,0x20,0x20,0x00,0x00,//I 41
 166:./Hardware/OLED.c **** 	},{
 167:./Hardware/OLED.c **** 	0x00,0x00,0x08,0x08,0xF8,0x08,0x08,0x00,
 168:./Hardware/OLED.c **** 	0xC0,0x80,0x80,0x80,0x7F,0x00,0x00,0x00,//J 42
 169:./Hardware/OLED.c **** 	},{
 170:./Hardware/OLED.c **** 	0x08,0xF8,0x88,0xC0,0x28,0x18,0x08,0x00,
 171:./Hardware/OLED.c **** 	0x20,0x3F,0x20,0x01,0x26,0x38,0x20,0x00,//K 43
 172:./Hardware/OLED.c **** 	},{
 173:./Hardware/OLED.c **** 	0x08,0xF8,0x08,0x00,0x00,0x00,0x00,0x00,
 174:./Hardware/OLED.c **** 	0x20,0x3F,0x20,0x20,0x20,0x20,0x30,0x00,//L 44
 175:./Hardware/OLED.c **** 	},{
 176:./Hardware/OLED.c **** 	0x08,0xF8,0xF8,0x00,0xF8,0xF8,0x08,0x00,
 177:./Hardware/OLED.c **** 	0x20,0x3F,0x00,0x3F,0x00,0x3F,0x20,0x00,//M 45
 178:./Hardware/OLED.c **** 	},{
 179:./Hardware/OLED.c **** 	0x08,0xF8,0x30,0xC0,0x00,0x08,0xF8,0x08,
 180:./Hardware/OLED.c **** 	0x20,0x3F,0x20,0x00,0x07,0x18,0x3F,0x00,//N 46
 181:./Hardware/OLED.c **** 	},{
 182:./Hardware/OLED.c **** 	0xE0,0x10,0x08,0x08,0x08,0x10,0xE0,0x00,
 183:./Hardware/OLED.c **** 	0x0F,0x10,0x20,0x20,0x20,0x10,0x0F,0x00,//O 47
ARM GAS  /var/folders/yl/_q9l42k90g1g4mdhbs226msm0000gn/T//ccH75JyQ.s 			page 14


 184:./Hardware/OLED.c **** 	},{
 185:./Hardware/OLED.c **** 	0x08,0xF8,0x08,0x08,0x08,0x08,0xF0,0x00,
 186:./Hardware/OLED.c **** 	0x20,0x3F,0x21,0x01,0x01,0x01,0x00,0x00,//P 48
 187:./Hardware/OLED.c **** 	},{
 188:./Hardware/OLED.c **** 	0xE0,0x10,0x08,0x08,0x08,0x10,0xE0,0x00,
 189:./Hardware/OLED.c **** 	0x0F,0x18,0x24,0x24,0x38,0x50,0x4F,0x00,//Q 49
 190:./Hardware/OLED.c **** 	},{
 191:./Hardware/OLED.c **** 	0x08,0xF8,0x88,0x88,0x88,0x88,0x70,0x00,
 192:./Hardware/OLED.c **** 	0x20,0x3F,0x20,0x00,0x03,0x0C,0x30,0x20,//R 50
 193:./Hardware/OLED.c **** 	},{
 194:./Hardware/OLED.c **** 	0x00,0x70,0x88,0x08,0x08,0x08,0x38,0x00,
 195:./Hardware/OLED.c **** 	0x00,0x38,0x20,0x21,0x21,0x22,0x1C,0x00,//S 51
 196:./Hardware/OLED.c **** 	},{
 197:./Hardware/OLED.c **** 	0x18,0x08,0x08,0xF8,0x08,0x08,0x18,0x00,
 198:./Hardware/OLED.c **** 	0x00,0x00,0x20,0x3F,0x20,0x00,0x00,0x00,//T 52
 199:./Hardware/OLED.c **** 	},{
 200:./Hardware/OLED.c **** 	0x08,0xF8,0x08,0x00,0x00,0x08,0xF8,0x08,
 201:./Hardware/OLED.c **** 	0x00,0x1F,0x20,0x20,0x20,0x20,0x1F,0x00,//U 53
 202:./Hardware/OLED.c **** 	},{
 203:./Hardware/OLED.c **** 	0x08,0x78,0x88,0x00,0x00,0xC8,0x38,0x08,
 204:./Hardware/OLED.c **** 	0x00,0x00,0x07,0x38,0x0E,0x01,0x00,0x00,//V 54
 205:./Hardware/OLED.c **** 	},{
 206:./Hardware/OLED.c **** 	0xF8,0x08,0x00,0xF8,0x00,0x08,0xF8,0x00,
 207:./Hardware/OLED.c **** 	0x03,0x3C,0x07,0x00,0x07,0x3C,0x03,0x00,//W 55
 208:./Hardware/OLED.c **** 	},{
 209:./Hardware/OLED.c **** 	0x08,0x18,0x68,0x80,0x80,0x68,0x18,0x08,
 210:./Hardware/OLED.c **** 	0x20,0x30,0x2C,0x03,0x03,0x2C,0x30,0x20,//X 56
 211:./Hardware/OLED.c **** 	},{
 212:./Hardware/OLED.c **** 	0x08,0x38,0xC8,0x00,0xC8,0x38,0x08,0x00,
 213:./Hardware/OLED.c **** 	0x00,0x00,0x20,0x3F,0x20,0x00,0x00,0x00,//Y 57
 214:./Hardware/OLED.c **** 	},{
 215:./Hardware/OLED.c **** 	0x10,0x08,0x08,0x08,0xC8,0x38,0x08,0x00,
 216:./Hardware/OLED.c **** 	0x20,0x38,0x26,0x21,0x20,0x20,0x18,0x00,//Z 58
 217:./Hardware/OLED.c **** 	},{
 218:./Hardware/OLED.c **** 	0x00,0x00,0x00,0xFE,0x02,0x02,0x02,0x00,
 219:./Hardware/OLED.c **** 	0x00,0x00,0x00,0x7F,0x40,0x40,0x40,0x00,//[ 59
 220:./Hardware/OLED.c **** 	},{
 221:./Hardware/OLED.c **** 	0x00,0x0C,0x30,0xC0,0x00,0x00,0x00,0x00,
 222:./Hardware/OLED.c **** 	0x00,0x00,0x00,0x01,0x06,0x38,0xC0,0x00,//\ 60
 223:./Hardware/OLED.c **** 	},{
 224:./Hardware/OLED.c **** 	0x00,0x02,0x02,0x02,0xFE,0x00,0x00,0x00,
 225:./Hardware/OLED.c **** 	0x00,0x40,0x40,0x40,0x7F,0x00,0x00,0x00,//] 61
 226:./Hardware/OLED.c **** 	},{
 227:./Hardware/OLED.c **** 	0x00,0x00,0x04,0x02,0x02,0x02,0x04,0x00,
 228:./Hardware/OLED.c **** 	0x00,0x00,0x00,0x00,0x00,0x00,0x00,0x00,//^ 62
 229:./Hardware/OLED.c **** 	},{
 230:./Hardware/OLED.c **** 	0x00,0x00,0x00,0x00,0x00,0x00,0x00,0x00,
 231:./Hardware/OLED.c **** 	0x80,0x80,0x80,0x80,0x80,0x80,0x80,0x80,//_ 63
 232:./Hardware/OLED.c **** 	},{
 233:./Hardware/OLED.c **** 	0x00,0x02,0x02,0x04,0x00,0x00,0x00,0x00,
 234:./Hardware/OLED.c **** 	0x00,0x00,0x00,0x00,0x00,0x00,0x00,0x00,//` 64
 235:./Hardware/OLED.c **** 	},{
 236:./Hardware/OLED.c **** 	0x00,0x00,0x80,0x80,0x80,0x80,0x00,0x00,
 237:./Hardware/OLED.c **** 	0x00,0x19,0x24,0x22,0x22,0x22,0x3F,0x20,//a 65
 238:./Hardware/OLED.c **** 	},{
 239:./Hardware/OLED.c **** 	0x08,0xF8,0x00,0x80,0x80,0x00,0x00,0x00,
 240:./Hardware/OLED.c **** 	0x00,0x3F,0x11,0x20,0x20,0x11,0x0E,0x00,//b 66
ARM GAS  /var/folders/yl/_q9l42k90g1g4mdhbs226msm0000gn/T//ccH75JyQ.s 			page 15


 241:./Hardware/OLED.c **** 	},{
 242:./Hardware/OLED.c **** 	0x00,0x00,0x00,0x80,0x80,0x80,0x00,0x00,
 243:./Hardware/OLED.c **** 	0x00,0x0E,0x11,0x20,0x20,0x20,0x11,0x00,//c 67
 244:./Hardware/OLED.c **** 	},{
 245:./Hardware/OLED.c **** 	0x00,0x00,0x00,0x80,0x80,0x88,0xF8,0x00,
 246:./Hardware/OLED.c **** 	0x00,0x0E,0x11,0x20,0x20,0x10,0x3F,0x20,//d 68
 247:./Hardware/OLED.c **** 	},{
 248:./Hardware/OLED.c **** 	0x00,0x00,0x80,0x80,0x80,0x80,0x00,0x00,
 249:./Hardware/OLED.c **** 	0x00,0x1F,0x22,0x22,0x22,0x22,0x13,0x00,//e 69
 250:./Hardware/OLED.c **** 	},{
 251:./Hardware/OLED.c **** 	0x00,0x80,0x80,0xF0,0x88,0x88,0x88,0x18,
 252:./Hardware/OLED.c **** 	0x00,0x20,0x20,0x3F,0x20,0x20,0x00,0x00,//f 70
 253:./Hardware/OLED.c **** 	},{
 254:./Hardware/OLED.c **** 	0x00,0x00,0x80,0x80,0x80,0x80,0x80,0x00,
 255:./Hardware/OLED.c **** 	0x00,0x6B,0x94,0x94,0x94,0x93,0x60,0x00,//g 71
 256:./Hardware/OLED.c **** 	},{
 257:./Hardware/OLED.c **** 	0x08,0xF8,0x00,0x80,0x80,0x80,0x00,0x00,
 258:./Hardware/OLED.c **** 	0x20,0x3F,0x21,0x00,0x00,0x20,0x3F,0x20,//h 72
 259:./Hardware/OLED.c **** 	},{
 260:./Hardware/OLED.c **** 	0x00,0x80,0x98,0x98,0x00,0x00,0x00,0x00,
 261:./Hardware/OLED.c **** 	0x00,0x20,0x20,0x3F,0x20,0x20,0x00,0x00,//i 73
 262:./Hardware/OLED.c **** 	},{
 263:./Hardware/OLED.c **** 	0x00,0x00,0x00,0x80,0x98,0x98,0x00,0x00,
 264:./Hardware/OLED.c **** 	0x00,0xC0,0x80,0x80,0x80,0x7F,0x00,0x00,//j 74
 265:./Hardware/OLED.c **** 	},{
 266:./Hardware/OLED.c **** 	0x08,0xF8,0x00,0x00,0x80,0x80,0x80,0x00,
 267:./Hardware/OLED.c **** 	0x20,0x3F,0x24,0x02,0x2D,0x30,0x20,0x00,//k 75
 268:./Hardware/OLED.c **** 	},{
 269:./Hardware/OLED.c **** 	0x00,0x08,0x08,0xF8,0x00,0x00,0x00,0x00,
 270:./Hardware/OLED.c **** 	0x00,0x20,0x20,0x3F,0x20,0x20,0x00,0x00,//l 76
 271:./Hardware/OLED.c **** 	},{
 272:./Hardware/OLED.c **** 	0x80,0x80,0x80,0x80,0x80,0x80,0x80,0x00,
 273:./Hardware/OLED.c **** 	0x20,0x3F,0x20,0x00,0x3F,0x20,0x00,0x3F,//m 77
 274:./Hardware/OLED.c **** 	},{
 275:./Hardware/OLED.c **** 	0x80,0x80,0x00,0x80,0x80,0x80,0x00,0x00,
 276:./Hardware/OLED.c **** 	0x20,0x3F,0x21,0x00,0x00,0x20,0x3F,0x20,//n 78
 277:./Hardware/OLED.c **** 	},{
 278:./Hardware/OLED.c **** 	0x00,0x00,0x80,0x80,0x80,0x80,0x00,0x00,
 279:./Hardware/OLED.c **** 	0x00,0x1F,0x20,0x20,0x20,0x20,0x1F,0x00,//o 79
 280:./Hardware/OLED.c **** 	},{
 281:./Hardware/OLED.c **** 	0x80,0x80,0x00,0x80,0x80,0x00,0x00,0x00,
 282:./Hardware/OLED.c **** 	0x80,0xFF,0xA1,0x20,0x20,0x11,0x0E,0x00,//p 80
 283:./Hardware/OLED.c **** 	},{
 284:./Hardware/OLED.c **** 	0x00,0x00,0x00,0x80,0x80,0x80,0x80,0x00,
 285:./Hardware/OLED.c **** 	0x00,0x0E,0x11,0x20,0x20,0xA0,0xFF,0x80,//q 81
 286:./Hardware/OLED.c **** 	},{
 287:./Hardware/OLED.c **** 	0x80,0x80,0x80,0x00,0x80,0x80,0x80,0x00,
 288:./Hardware/OLED.c **** 	0x20,0x20,0x3F,0x21,0x20,0x00,0x01,0x00,//r 82
 289:./Hardware/OLED.c **** 	},{
 290:./Hardware/OLED.c **** 	0x00,0x00,0x80,0x80,0x80,0x80,0x80,0x00,
 291:./Hardware/OLED.c **** 	0x00,0x33,0x24,0x24,0x24,0x24,0x19,0x00,//s 83
 292:./Hardware/OLED.c **** 	},{
 293:./Hardware/OLED.c **** 	0x00,0x80,0x80,0xE0,0x80,0x80,0x00,0x00,
 294:./Hardware/OLED.c **** 	0x00,0x00,0x00,0x1F,0x20,0x20,0x00,0x00,//t 84
 295:./Hardware/OLED.c **** 	},{
 296:./Hardware/OLED.c **** 	0x80,0x80,0x00,0x00,0x00,0x80,0x80,0x00,
 297:./Hardware/OLED.c **** 	0x00,0x1F,0x20,0x20,0x20,0x10,0x3F,0x20,//u 85
ARM GAS  /var/folders/yl/_q9l42k90g1g4mdhbs226msm0000gn/T//ccH75JyQ.s 			page 16


 298:./Hardware/OLED.c **** 	},{
 299:./Hardware/OLED.c **** 	0x80,0x80,0x80,0x00,0x00,0x80,0x80,0x80,
 300:./Hardware/OLED.c **** 	0x00,0x01,0x0E,0x30,0x08,0x06,0x01,0x00,//v 86
 301:./Hardware/OLED.c **** 	},{
 302:./Hardware/OLED.c **** 	0x80,0x80,0x00,0x80,0x00,0x80,0x80,0x80,
 303:./Hardware/OLED.c **** 	0x0F,0x30,0x0C,0x03,0x0C,0x30,0x0F,0x00,//w 87
 304:./Hardware/OLED.c **** 	},{
 305:./Hardware/OLED.c **** 	0x00,0x80,0x80,0x00,0x80,0x80,0x80,0x00,
 306:./Hardware/OLED.c **** 	0x00,0x20,0x31,0x2E,0x0E,0x31,0x20,0x00,//x 88
 307:./Hardware/OLED.c **** 	},{
 308:./Hardware/OLED.c **** 	0x80,0x80,0x80,0x00,0x00,0x80,0x80,0x80,
 309:./Hardware/OLED.c **** 	0x80,0x81,0x8E,0x70,0x18,0x06,0x01,0x00,//y 89
 310:./Hardware/OLED.c **** 	},{
 311:./Hardware/OLED.c **** 	0x00,0x80,0x80,0x80,0x80,0x80,0x80,0x00,
 312:./Hardware/OLED.c **** 	0x00,0x21,0x30,0x2C,0x22,0x21,0x30,0x00,//z 90
 313:./Hardware/OLED.c **** 	},{
 314:./Hardware/OLED.c **** 	0x00,0x00,0x00,0x00,0x80,0x7C,0x02,0x02,
 315:./Hardware/OLED.c **** 	0x00,0x00,0x00,0x00,0x00,0x3F,0x40,0x40,//{ 91
 316:./Hardware/OLED.c **** 	},{
 317:./Hardware/OLED.c **** 	0x00,0x00,0x00,0x00,0xFF,0x00,0x00,0x00,
 318:./Hardware/OLED.c **** 	0x00,0x00,0x00,0x00,0xFF,0x00,0x00,0x00,//| 92
 319:./Hardware/OLED.c **** 	},{
 320:./Hardware/OLED.c **** 	0x00,0x02,0x02,0x7C,0x80,0x00,0x00,0x00,
 321:./Hardware/OLED.c **** 	0x00,0x40,0x40,0x3F,0x00,0x00,0x00,0x00,//} 93
 322:./Hardware/OLED.c **** 	},{
 323:./Hardware/OLED.c **** 	0x00,0x06,0x01,0x01,0x02,0x02,0x04,0x04,
 324:./Hardware/OLED.c **** 	0x00,0x00,0x00,0x00,0x00,0x00,0x00,0x00,//~ 94
 325:./Hardware/OLED.c **** 	},
 326:./Hardware/OLED.c **** };
 327:./Hardware/OLED.c **** 
 328:./Hardware/OLED.c **** 
 329:./Hardware/OLED.c **** 
 330:./Hardware/OLED.c **** /**
 331:./Hardware/OLED.c ****   * @brief  I2C开始
 332:./Hardware/OLED.c ****   * @param  无
 333:./Hardware/OLED.c ****   * @retval 无
 334:./Hardware/OLED.c ****   */
 335:./Hardware/OLED.c **** void OLED_I2C_Start(void)
 336:./Hardware/OLED.c **** {
 279              		.loc 1 336 1
 280              		.cfi_startproc
 281              		@ args = 0, pretend = 0, frame = 0
 282              		@ frame_needed = 1, uses_anonymous_args = 0
 283 0000 80B5     		push	{r7, lr}
 284              	.LCFI5:
 285              		.cfi_def_cfa_offset 8
 286              		.cfi_offset 7, -8
 287              		.cfi_offset 14, -4
 288 0002 00AF     		add	r7, sp, #0
 289              	.LCFI6:
 290              		.cfi_def_cfa_register 7
 337:./Hardware/OLED.c **** 	OLED_W_SDA(1);
 291              		.loc 1 337 2
 292 0004 0122     		movs	r2, #1
 293 0006 2021     		movs	r1, #32
 294 0008 0948     		ldr	r0, .L5
 295 000a FFF7FEFF 		bl	GPIO_WriteBit
ARM GAS  /var/folders/yl/_q9l42k90g1g4mdhbs226msm0000gn/T//ccH75JyQ.s 			page 17


 338:./Hardware/OLED.c **** 	OLED_W_SCL(1);
 296              		.loc 1 338 2
 297 000e 0122     		movs	r2, #1
 298 0010 4021     		movs	r1, #64
 299 0012 0748     		ldr	r0, .L5
 300 0014 FFF7FEFF 		bl	GPIO_WriteBit
 339:./Hardware/OLED.c **** 	OLED_W_SDA(0);
 301              		.loc 1 339 2
 302 0018 0022     		movs	r2, #0
 303 001a 2021     		movs	r1, #32
 304 001c 0448     		ldr	r0, .L5
 305 001e FFF7FEFF 		bl	GPIO_WriteBit
 340:./Hardware/OLED.c **** 	OLED_W_SCL(0);
 306              		.loc 1 340 2
 307 0022 0022     		movs	r2, #0
 308 0024 4021     		movs	r1, #64
 309 0026 0248     		ldr	r0, .L5
 310 0028 FFF7FEFF 		bl	GPIO_WriteBit
 341:./Hardware/OLED.c **** }
 311              		.loc 1 341 1
 312 002c 00BF     		nop
 313 002e 80BD     		pop	{r7, pc}
 314              	.L6:
 315              		.align	2
 316              	.L5:
 317 0030 00080240 		.word	1073874944
 318              		.cfi_endproc
 319              	.LFE124:
 321              		.section	.text.OLED_I2C_Stop,"ax",%progbits
 322              		.align	1
 323              		.global	OLED_I2C_Stop
 324              		.syntax unified
 325              		.thumb
 326              		.thumb_func
 328              	OLED_I2C_Stop:
 329              	.LFB125:
 342:./Hardware/OLED.c **** 
 343:./Hardware/OLED.c **** /**
 344:./Hardware/OLED.c ****   * @brief  I2C停止
 345:./Hardware/OLED.c ****   * @param  无
 346:./Hardware/OLED.c ****   * @retval 无
 347:./Hardware/OLED.c ****   */
 348:./Hardware/OLED.c **** void OLED_I2C_Stop(void)
 349:./Hardware/OLED.c **** {
 330              		.loc 1 349 1
 331              		.cfi_startproc
 332              		@ args = 0, pretend = 0, frame = 0
 333              		@ frame_needed = 1, uses_anonymous_args = 0
 334 0000 80B5     		push	{r7, lr}
 335              	.LCFI7:
 336              		.cfi_def_cfa_offset 8
 337              		.cfi_offset 7, -8
 338              		.cfi_offset 14, -4
 339 0002 00AF     		add	r7, sp, #0
 340              	.LCFI8:
 341              		.cfi_def_cfa_register 7
 350:./Hardware/OLED.c **** 	OLED_W_SDA(0);
ARM GAS  /var/folders/yl/_q9l42k90g1g4mdhbs226msm0000gn/T//ccH75JyQ.s 			page 18


 342              		.loc 1 350 2
 343 0004 0022     		movs	r2, #0
 344 0006 2021     		movs	r1, #32
 345 0008 0748     		ldr	r0, .L8
 346 000a FFF7FEFF 		bl	GPIO_WriteBit
 351:./Hardware/OLED.c **** 	OLED_W_SCL(1);
 347              		.loc 1 351 2
 348 000e 0122     		movs	r2, #1
 349 0010 4021     		movs	r1, #64
 350 0012 0548     		ldr	r0, .L8
 351 0014 FFF7FEFF 		bl	GPIO_WriteBit
 352:./Hardware/OLED.c **** 	OLED_W_SDA(1);
 352              		.loc 1 352 2
 353 0018 0122     		movs	r2, #1
 354 001a 2021     		movs	r1, #32
 355 001c 0248     		ldr	r0, .L8
 356 001e FFF7FEFF 		bl	GPIO_WriteBit
 353:./Hardware/OLED.c **** }
 357              		.loc 1 353 1
 358 0022 00BF     		nop
 359 0024 80BD     		pop	{r7, pc}
 360              	.L9:
 361 0026 00BF     		.align	2
 362              	.L8:
 363 0028 00080240 		.word	1073874944
 364              		.cfi_endproc
 365              	.LFE125:
 367              		.section	.text.OLED_I2C_SendByte,"ax",%progbits
 368              		.align	1
 369              		.global	OLED_I2C_SendByte
 370              		.syntax unified
 371              		.thumb
 372              		.thumb_func
 374              	OLED_I2C_SendByte:
 375              	.LFB126:
 354:./Hardware/OLED.c **** 
 355:./Hardware/OLED.c **** /**
 356:./Hardware/OLED.c ****   * @brief  I2C发送一个字节
 357:./Hardware/OLED.c ****   * @param  Byte 要发送的一个字节
 358:./Hardware/OLED.c ****   * @retval 无
 359:./Hardware/OLED.c ****   */
 360:./Hardware/OLED.c **** void OLED_I2C_SendByte(uint8_t Byte)
 361:./Hardware/OLED.c **** {
 376              		.loc 1 361 1
 377              		.cfi_startproc
 378              		@ args = 0, pretend = 0, frame = 16
 379              		@ frame_needed = 1, uses_anonymous_args = 0
 380 0000 80B5     		push	{r7, lr}
 381              	.LCFI9:
 382              		.cfi_def_cfa_offset 8
 383              		.cfi_offset 7, -8
 384              		.cfi_offset 14, -4
 385 0002 84B0     		sub	sp, sp, #16
 386              	.LCFI10:
 387              		.cfi_def_cfa_offset 24
 388 0004 00AF     		add	r7, sp, #0
 389              	.LCFI11:
ARM GAS  /var/folders/yl/_q9l42k90g1g4mdhbs226msm0000gn/T//ccH75JyQ.s 			page 19


 390              		.cfi_def_cfa_register 7
 391 0006 0346     		mov	r3, r0
 392 0008 FB71     		strb	r3, [r7, #7]
 362:./Hardware/OLED.c **** 	uint8_t i;
 363:./Hardware/OLED.c **** 	for (i = 0; i < 8; i++)
 393              		.loc 1 363 9
 394 000a 0023     		movs	r3, #0
 395 000c FB73     		strb	r3, [r7, #15]
 396              		.loc 1 363 2
 397 000e 1BE0     		b	.L11
 398              	.L12:
 364:./Hardware/OLED.c **** 	{
 365:./Hardware/OLED.c **** 		OLED_W_SDA(Byte & (0x80 >> i));
 399              		.loc 1 365 3 discriminator 3
 400 0010 FB7B     		ldrb	r3, [r7, #15]	@ zero_extendqisi2
 401 0012 8022     		movs	r2, #128
 402 0014 42FA03F3 		asr	r3, r2, r3
 403 0018 5AB2     		sxtb	r2, r3
 404 001a 97F90730 		ldrsb	r3, [r7, #7]
 405 001e 1340     		ands	r3, r3, r2
 406 0020 5BB2     		sxtb	r3, r3
 407 0022 DBB2     		uxtb	r3, r3
 408 0024 1A46     		mov	r2, r3
 409 0026 2021     		movs	r1, #32
 410 0028 1048     		ldr	r0, .L13
 411 002a FFF7FEFF 		bl	GPIO_WriteBit
 366:./Hardware/OLED.c **** 		OLED_W_SCL(1);
 412              		.loc 1 366 3 discriminator 3
 413 002e 0122     		movs	r2, #1
 414 0030 4021     		movs	r1, #64
 415 0032 0E48     		ldr	r0, .L13
 416 0034 FFF7FEFF 		bl	GPIO_WriteBit
 367:./Hardware/OLED.c **** 		OLED_W_SCL(0);
 417              		.loc 1 367 3 discriminator 3
 418 0038 0022     		movs	r2, #0
 419 003a 4021     		movs	r1, #64
 420 003c 0B48     		ldr	r0, .L13
 421 003e FFF7FEFF 		bl	GPIO_WriteBit
 363:./Hardware/OLED.c **** 	{
 422              		.loc 1 363 22 discriminator 3
 423 0042 FB7B     		ldrb	r3, [r7, #15]	@ zero_extendqisi2
 424 0044 0133     		adds	r3, r3, #1
 425 0046 FB73     		strb	r3, [r7, #15]
 426              	.L11:
 363:./Hardware/OLED.c **** 	{
 427              		.loc 1 363 2 discriminator 1
 428 0048 FB7B     		ldrb	r3, [r7, #15]	@ zero_extendqisi2
 429 004a 072B     		cmp	r3, #7
 430 004c E0D9     		bls	.L12
 368:./Hardware/OLED.c **** 	}
 369:./Hardware/OLED.c **** 	OLED_W_SCL(1);	//额外的一个时钟，不处理应答信号
 431              		.loc 1 369 2
 432 004e 0122     		movs	r2, #1
 433 0050 4021     		movs	r1, #64
 434 0052 0648     		ldr	r0, .L13
 435 0054 FFF7FEFF 		bl	GPIO_WriteBit
 370:./Hardware/OLED.c **** 	OLED_W_SCL(0);
ARM GAS  /var/folders/yl/_q9l42k90g1g4mdhbs226msm0000gn/T//ccH75JyQ.s 			page 20


 436              		.loc 1 370 2
 437 0058 0022     		movs	r2, #0
 438 005a 4021     		movs	r1, #64
 439 005c 0348     		ldr	r0, .L13
 440 005e FFF7FEFF 		bl	GPIO_WriteBit
 371:./Hardware/OLED.c **** }
 441              		.loc 1 371 1
 442 0062 00BF     		nop
 443 0064 1037     		adds	r7, r7, #16
 444              	.LCFI12:
 445              		.cfi_def_cfa_offset 8
 446 0066 BD46     		mov	sp, r7
 447              	.LCFI13:
 448              		.cfi_def_cfa_register 13
 449              		@ sp needed
 450 0068 80BD     		pop	{r7, pc}
 451              	.L14:
 452 006a 00BF     		.align	2
 453              	.L13:
 454 006c 00080240 		.word	1073874944
 455              		.cfi_endproc
 456              	.LFE126:
 458              		.section	.text.OLED_WriteCommand,"ax",%progbits
 459              		.align	1
 460              		.global	OLED_WriteCommand
 461              		.syntax unified
 462              		.thumb
 463              		.thumb_func
 465              	OLED_WriteCommand:
 466              	.LFB127:
 372:./Hardware/OLED.c **** 
 373:./Hardware/OLED.c **** /**
 374:./Hardware/OLED.c ****   * @brief  OLED写命令
 375:./Hardware/OLED.c ****   * @param  Command 要写入的命令
 376:./Hardware/OLED.c ****   * @retval 无
 377:./Hardware/OLED.c ****   */
 378:./Hardware/OLED.c **** void OLED_WriteCommand(uint8_t Command)
 379:./Hardware/OLED.c **** {
 467              		.loc 1 379 1
 468              		.cfi_startproc
 469              		@ args = 0, pretend = 0, frame = 8
 470              		@ frame_needed = 1, uses_anonymous_args = 0
 471 0000 80B5     		push	{r7, lr}
 472              	.LCFI14:
 473              		.cfi_def_cfa_offset 8
 474              		.cfi_offset 7, -8
 475              		.cfi_offset 14, -4
 476 0002 82B0     		sub	sp, sp, #8
 477              	.LCFI15:
 478              		.cfi_def_cfa_offset 16
 479 0004 00AF     		add	r7, sp, #0
 480              	.LCFI16:
 481              		.cfi_def_cfa_register 7
 482 0006 0346     		mov	r3, r0
 483 0008 FB71     		strb	r3, [r7, #7]
 380:./Hardware/OLED.c **** 	OLED_I2C_Start();
 484              		.loc 1 380 2
ARM GAS  /var/folders/yl/_q9l42k90g1g4mdhbs226msm0000gn/T//ccH75JyQ.s 			page 21


 485 000a FFF7FEFF 		bl	OLED_I2C_Start
 381:./Hardware/OLED.c **** 	OLED_I2C_SendByte(0x78);		//从机地址
 486              		.loc 1 381 2
 487 000e 7820     		movs	r0, #120
 488 0010 FFF7FEFF 		bl	OLED_I2C_SendByte
 382:./Hardware/OLED.c **** 	OLED_I2C_SendByte(0x00);		//写命令
 489              		.loc 1 382 2
 490 0014 0020     		movs	r0, #0
 491 0016 FFF7FEFF 		bl	OLED_I2C_SendByte
 383:./Hardware/OLED.c **** 	OLED_I2C_SendByte(Command); 
 492              		.loc 1 383 2
 493 001a FB79     		ldrb	r3, [r7, #7]	@ zero_extendqisi2
 494 001c 1846     		mov	r0, r3
 495 001e FFF7FEFF 		bl	OLED_I2C_SendByte
 384:./Hardware/OLED.c **** 	OLED_I2C_Stop();
 496              		.loc 1 384 2
 497 0022 FFF7FEFF 		bl	OLED_I2C_Stop
 385:./Hardware/OLED.c **** }
 498              		.loc 1 385 1
 499 0026 00BF     		nop
 500 0028 0837     		adds	r7, r7, #8
 501              	.LCFI17:
 502              		.cfi_def_cfa_offset 8
 503 002a BD46     		mov	sp, r7
 504              	.LCFI18:
 505              		.cfi_def_cfa_register 13
 506              		@ sp needed
 507 002c 80BD     		pop	{r7, pc}
 508              		.cfi_endproc
 509              	.LFE127:
 511              		.section	.text.OLED_WriteData,"ax",%progbits
 512              		.align	1
 513              		.global	OLED_WriteData
 514              		.syntax unified
 515              		.thumb
 516              		.thumb_func
 518              	OLED_WriteData:
 519              	.LFB128:
 386:./Hardware/OLED.c **** 
 387:./Hardware/OLED.c **** /**
 388:./Hardware/OLED.c ****   * @brief  OLED写数据
 389:./Hardware/OLED.c ****   * @param  Data 要写入的数据
 390:./Hardware/OLED.c ****   * @retval 无
 391:./Hardware/OLED.c ****   */
 392:./Hardware/OLED.c **** void OLED_WriteData(uint8_t Data)
 393:./Hardware/OLED.c **** {
 520              		.loc 1 393 1
 521              		.cfi_startproc
 522              		@ args = 0, pretend = 0, frame = 8
 523              		@ frame_needed = 1, uses_anonymous_args = 0
 524 0000 80B5     		push	{r7, lr}
 525              	.LCFI19:
 526              		.cfi_def_cfa_offset 8
 527              		.cfi_offset 7, -8
 528              		.cfi_offset 14, -4
 529 0002 82B0     		sub	sp, sp, #8
 530              	.LCFI20:
ARM GAS  /var/folders/yl/_q9l42k90g1g4mdhbs226msm0000gn/T//ccH75JyQ.s 			page 22


 531              		.cfi_def_cfa_offset 16
 532 0004 00AF     		add	r7, sp, #0
 533              	.LCFI21:
 534              		.cfi_def_cfa_register 7
 535 0006 0346     		mov	r3, r0
 536 0008 FB71     		strb	r3, [r7, #7]
 394:./Hardware/OLED.c **** 	OLED_I2C_Start();
 537              		.loc 1 394 2
 538 000a FFF7FEFF 		bl	OLED_I2C_Start
 395:./Hardware/OLED.c **** 	OLED_I2C_SendByte(0x78);		//从机地址
 539              		.loc 1 395 2
 540 000e 7820     		movs	r0, #120
 541 0010 FFF7FEFF 		bl	OLED_I2C_SendByte
 396:./Hardware/OLED.c **** 	OLED_I2C_SendByte(0x40);		//写数据
 542              		.loc 1 396 2
 543 0014 4020     		movs	r0, #64
 544 0016 FFF7FEFF 		bl	OLED_I2C_SendByte
 397:./Hardware/OLED.c **** 	OLED_I2C_SendByte(Data);
 545              		.loc 1 397 2
 546 001a FB79     		ldrb	r3, [r7, #7]	@ zero_extendqisi2
 547 001c 1846     		mov	r0, r3
 548 001e FFF7FEFF 		bl	OLED_I2C_SendByte
 398:./Hardware/OLED.c **** 	OLED_I2C_Stop();
 549              		.loc 1 398 2
 550 0022 FFF7FEFF 		bl	OLED_I2C_Stop
 399:./Hardware/OLED.c **** }
 551              		.loc 1 399 1
 552 0026 00BF     		nop
 553 0028 0837     		adds	r7, r7, #8
 554              	.LCFI22:
 555              		.cfi_def_cfa_offset 8
 556 002a BD46     		mov	sp, r7
 557              	.LCFI23:
 558              		.cfi_def_cfa_register 13
 559              		@ sp needed
 560 002c 80BD     		pop	{r7, pc}
 561              		.cfi_endproc
 562              	.LFE128:
 564              		.section	.text.OLED_SetCursor,"ax",%progbits
 565              		.align	1
 566              		.global	OLED_SetCursor
 567              		.syntax unified
 568              		.thumb
 569              		.thumb_func
 571              	OLED_SetCursor:
 572              	.LFB129:
 400:./Hardware/OLED.c **** 
 401:./Hardware/OLED.c **** /**
 402:./Hardware/OLED.c ****   * @brief  OLED设置光标位置
 403:./Hardware/OLED.c ****   * @param  Y 以左上角为原点，向下方向的坐标，范围：0~7
 404:./Hardware/OLED.c ****   * @param  X 以左上角为原点，向右方向的坐标，范围：0~127
 405:./Hardware/OLED.c ****   * @retval 无
 406:./Hardware/OLED.c ****   */
 407:./Hardware/OLED.c **** void OLED_SetCursor(uint8_t Y, uint8_t X)
 408:./Hardware/OLED.c **** {
 573              		.loc 1 408 1
 574              		.cfi_startproc
ARM GAS  /var/folders/yl/_q9l42k90g1g4mdhbs226msm0000gn/T//ccH75JyQ.s 			page 23


 575              		@ args = 0, pretend = 0, frame = 8
 576              		@ frame_needed = 1, uses_anonymous_args = 0
 577 0000 80B5     		push	{r7, lr}
 578              	.LCFI24:
 579              		.cfi_def_cfa_offset 8
 580              		.cfi_offset 7, -8
 581              		.cfi_offset 14, -4
 582 0002 82B0     		sub	sp, sp, #8
 583              	.LCFI25:
 584              		.cfi_def_cfa_offset 16
 585 0004 00AF     		add	r7, sp, #0
 586              	.LCFI26:
 587              		.cfi_def_cfa_register 7
 588 0006 0346     		mov	r3, r0
 589 0008 0A46     		mov	r2, r1
 590 000a FB71     		strb	r3, [r7, #7]
 591 000c 1346     		mov	r3, r2
 592 000e BB71     		strb	r3, [r7, #6]
 409:./Hardware/OLED.c **** 	OLED_WriteCommand(0xB0 | Y);					//设置Y位置
 593              		.loc 1 409 2
 594 0010 FB79     		ldrb	r3, [r7, #7]
 595 0012 63F04F03 		orn	r3, r3, #79
 596 0016 DBB2     		uxtb	r3, r3
 597 0018 1846     		mov	r0, r3
 598 001a FFF7FEFF 		bl	OLED_WriteCommand
 410:./Hardware/OLED.c **** 	OLED_WriteCommand(0x10 | ((X & 0xF0) >> 4));	//设置X位置高4位
 599              		.loc 1 410 39
 600 001e BB79     		ldrb	r3, [r7, #6]	@ zero_extendqisi2
 601 0020 1B09     		lsrs	r3, r3, #4
 602 0022 DBB2     		uxtb	r3, r3
 603              		.loc 1 410 2
 604 0024 43F01003 		orr	r3, r3, #16
 605 0028 DBB2     		uxtb	r3, r3
 606 002a 1846     		mov	r0, r3
 607 002c FFF7FEFF 		bl	OLED_WriteCommand
 411:./Hardware/OLED.c **** 	OLED_WriteCommand(0x00 | (X & 0x0F));			//设置X位置低4位
 608              		.loc 1 411 2
 609 0030 BB79     		ldrb	r3, [r7, #6]
 610 0032 03F00F03 		and	r3, r3, #15
 611 0036 DBB2     		uxtb	r3, r3
 612 0038 1846     		mov	r0, r3
 613 003a FFF7FEFF 		bl	OLED_WriteCommand
 412:./Hardware/OLED.c **** }
 614              		.loc 1 412 1
 615 003e 00BF     		nop
 616 0040 0837     		adds	r7, r7, #8
 617              	.LCFI27:
 618              		.cfi_def_cfa_offset 8
 619 0042 BD46     		mov	sp, r7
 620              	.LCFI28:
 621              		.cfi_def_cfa_register 13
 622              		@ sp needed
 623 0044 80BD     		pop	{r7, pc}
 624              		.cfi_endproc
 625              	.LFE129:
 627              		.section	.text.OLED_Clear,"ax",%progbits
 628              		.align	1
ARM GAS  /var/folders/yl/_q9l42k90g1g4mdhbs226msm0000gn/T//ccH75JyQ.s 			page 24


 629              		.global	OLED_Clear
 630              		.syntax unified
 631              		.thumb
 632              		.thumb_func
 634              	OLED_Clear:
 635              	.LFB130:
 413:./Hardware/OLED.c **** 
 414:./Hardware/OLED.c **** /**
 415:./Hardware/OLED.c ****   * @brief  OLED清屏
 416:./Hardware/OLED.c ****   * @param  无
 417:./Hardware/OLED.c ****   * @retval 无
 418:./Hardware/OLED.c ****   */
 419:./Hardware/OLED.c **** void OLED_Clear(void)
 420:./Hardware/OLED.c **** {  
 636              		.loc 1 420 1
 637              		.cfi_startproc
 638              		@ args = 0, pretend = 0, frame = 8
 639              		@ frame_needed = 1, uses_anonymous_args = 0
 640 0000 80B5     		push	{r7, lr}
 641              	.LCFI29:
 642              		.cfi_def_cfa_offset 8
 643              		.cfi_offset 7, -8
 644              		.cfi_offset 14, -4
 645 0002 82B0     		sub	sp, sp, #8
 646              	.LCFI30:
 647              		.cfi_def_cfa_offset 16
 648 0004 00AF     		add	r7, sp, #0
 649              	.LCFI31:
 650              		.cfi_def_cfa_register 7
 421:./Hardware/OLED.c **** 	uint8_t i, j;
 422:./Hardware/OLED.c **** 	for (j = 0; j < 8; j++)
 651              		.loc 1 422 9
 652 0006 0023     		movs	r3, #0
 653 0008 BB71     		strb	r3, [r7, #6]
 654              		.loc 1 422 2
 655 000a 14E0     		b	.L19
 656              	.L22:
 423:./Hardware/OLED.c **** 	{
 424:./Hardware/OLED.c **** 		OLED_SetCursor(j, 0);
 657              		.loc 1 424 3
 658 000c BB79     		ldrb	r3, [r7, #6]	@ zero_extendqisi2
 659 000e 0021     		movs	r1, #0
 660 0010 1846     		mov	r0, r3
 661 0012 FFF7FEFF 		bl	OLED_SetCursor
 425:./Hardware/OLED.c **** 		for(i = 0; i < 128; i++)
 662              		.loc 1 425 9
 663 0016 0023     		movs	r3, #0
 664 0018 FB71     		strb	r3, [r7, #7]
 665              		.loc 1 425 3
 666 001a 05E0     		b	.L20
 667              	.L21:
 426:./Hardware/OLED.c **** 		{
 427:./Hardware/OLED.c **** 			OLED_WriteData(0x00);
 668              		.loc 1 427 4 discriminator 3
 669 001c 0020     		movs	r0, #0
 670 001e FFF7FEFF 		bl	OLED_WriteData
 425:./Hardware/OLED.c **** 		for(i = 0; i < 128; i++)
ARM GAS  /var/folders/yl/_q9l42k90g1g4mdhbs226msm0000gn/T//ccH75JyQ.s 			page 25


 671              		.loc 1 425 24 discriminator 3
 672 0022 FB79     		ldrb	r3, [r7, #7]	@ zero_extendqisi2
 673 0024 0133     		adds	r3, r3, #1
 674 0026 FB71     		strb	r3, [r7, #7]
 675              	.L20:
 425:./Hardware/OLED.c **** 		for(i = 0; i < 128; i++)
 676              		.loc 1 425 16 discriminator 1
 677 0028 97F90730 		ldrsb	r3, [r7, #7]
 425:./Hardware/OLED.c **** 		for(i = 0; i < 128; i++)
 678              		.loc 1 425 3 discriminator 1
 679 002c 002B     		cmp	r3, #0
 680 002e F5DA     		bge	.L21
 422:./Hardware/OLED.c **** 	{
 681              		.loc 1 422 22 discriminator 2
 682 0030 BB79     		ldrb	r3, [r7, #6]	@ zero_extendqisi2
 683 0032 0133     		adds	r3, r3, #1
 684 0034 BB71     		strb	r3, [r7, #6]
 685              	.L19:
 422:./Hardware/OLED.c **** 	{
 686              		.loc 1 422 2 discriminator 1
 687 0036 BB79     		ldrb	r3, [r7, #6]	@ zero_extendqisi2
 688 0038 072B     		cmp	r3, #7
 689 003a E7D9     		bls	.L22
 428:./Hardware/OLED.c **** 		}
 429:./Hardware/OLED.c **** 	}
 430:./Hardware/OLED.c **** }
 690              		.loc 1 430 1
 691 003c 00BF     		nop
 692 003e 00BF     		nop
 693 0040 0837     		adds	r7, r7, #8
 694              	.LCFI32:
 695              		.cfi_def_cfa_offset 8
 696 0042 BD46     		mov	sp, r7
 697              	.LCFI33:
 698              		.cfi_def_cfa_register 13
 699              		@ sp needed
 700 0044 80BD     		pop	{r7, pc}
 701              		.cfi_endproc
 702              	.LFE130:
 704              		.section	.text.OLED_ShowChar,"ax",%progbits
 705              		.align	1
 706              		.global	OLED_ShowChar
 707              		.syntax unified
 708              		.thumb
 709              		.thumb_func
 711              	OLED_ShowChar:
 712              	.LFB131:
 431:./Hardware/OLED.c **** 
 432:./Hardware/OLED.c **** /**
 433:./Hardware/OLED.c ****   * @brief  OLED显示一个字符
 434:./Hardware/OLED.c ****   * @param  Line 行位置，范围：1~4
 435:./Hardware/OLED.c ****   * @param  Column 列位置，范围：1~16
 436:./Hardware/OLED.c ****   * @param  Char 要显示的一个字符，范围：ASCII可见字符
 437:./Hardware/OLED.c ****   * @retval 无
 438:./Hardware/OLED.c ****   */
 439:./Hardware/OLED.c **** void OLED_ShowChar(uint8_t Line, uint8_t Column, char Char)
 440:./Hardware/OLED.c **** {      	
ARM GAS  /var/folders/yl/_q9l42k90g1g4mdhbs226msm0000gn/T//ccH75JyQ.s 			page 26


 713              		.loc 1 440 1
 714              		.cfi_startproc
 715              		@ args = 0, pretend = 0, frame = 16
 716              		@ frame_needed = 1, uses_anonymous_args = 0
 717 0000 80B5     		push	{r7, lr}
 718              	.LCFI34:
 719              		.cfi_def_cfa_offset 8
 720              		.cfi_offset 7, -8
 721              		.cfi_offset 14, -4
 722 0002 84B0     		sub	sp, sp, #16
 723              	.LCFI35:
 724              		.cfi_def_cfa_offset 24
 725 0004 00AF     		add	r7, sp, #0
 726              	.LCFI36:
 727              		.cfi_def_cfa_register 7
 728 0006 0346     		mov	r3, r0
 729 0008 FB71     		strb	r3, [r7, #7]
 730 000a 0B46     		mov	r3, r1
 731 000c BB71     		strb	r3, [r7, #6]
 732 000e 1346     		mov	r3, r2
 733 0010 7B71     		strb	r3, [r7, #5]
 441:./Hardware/OLED.c **** 	uint8_t i;
 442:./Hardware/OLED.c **** 	OLED_SetCursor((Line - 1) * 2, (Column - 1) * 8);		//设置光标位置在上半部分
 734              		.loc 1 442 2
 735 0012 FB79     		ldrb	r3, [r7, #7]
 736 0014 013B     		subs	r3, r3, #1
 737 0016 DBB2     		uxtb	r3, r3
 738 0018 5B00     		lsls	r3, r3, #1
 739 001a DAB2     		uxtb	r2, r3
 740 001c BB79     		ldrb	r3, [r7, #6]
 741 001e 013B     		subs	r3, r3, #1
 742 0020 DBB2     		uxtb	r3, r3
 743 0022 DB00     		lsls	r3, r3, #3
 744 0024 DBB2     		uxtb	r3, r3
 745 0026 1946     		mov	r1, r3
 746 0028 1046     		mov	r0, r2
 747 002a FFF7FEFF 		bl	OLED_SetCursor
 443:./Hardware/OLED.c **** 	for (i = 0; i < 8; i++)
 748              		.loc 1 443 9
 749 002e 0023     		movs	r3, #0
 750 0030 FB73     		strb	r3, [r7, #15]
 751              		.loc 1 443 2
 752 0032 0EE0     		b	.L24
 753              	.L25:
 444:./Hardware/OLED.c **** 	{
 445:./Hardware/OLED.c **** 		OLED_WriteData(OLED_F08x16[Char - ' '][i]);			//显示上半部分内容
 754              		.loc 1 445 35 discriminator 3
 755 0034 7B79     		ldrb	r3, [r7, #5]	@ zero_extendqisi2
 756 0036 A3F12002 		sub	r2, r3, #32
 757              		.loc 1 445 3 discriminator 3
 758 003a FB7B     		ldrb	r3, [r7, #15]	@ zero_extendqisi2
 759 003c 1C49     		ldr	r1, .L28
 760 003e 1201     		lsls	r2, r2, #4
 761 0040 0A44     		add	r2, r2, r1
 762 0042 1344     		add	r3, r3, r2
 763 0044 1B78     		ldrb	r3, [r3]	@ zero_extendqisi2
 764 0046 1846     		mov	r0, r3
ARM GAS  /var/folders/yl/_q9l42k90g1g4mdhbs226msm0000gn/T//ccH75JyQ.s 			page 27


 765 0048 FFF7FEFF 		bl	OLED_WriteData
 443:./Hardware/OLED.c **** 	for (i = 0; i < 8; i++)
 766              		.loc 1 443 22 discriminator 3
 767 004c FB7B     		ldrb	r3, [r7, #15]	@ zero_extendqisi2
 768 004e 0133     		adds	r3, r3, #1
 769 0050 FB73     		strb	r3, [r7, #15]
 770              	.L24:
 443:./Hardware/OLED.c **** 	for (i = 0; i < 8; i++)
 771              		.loc 1 443 2 discriminator 1
 772 0052 FB7B     		ldrb	r3, [r7, #15]	@ zero_extendqisi2
 773 0054 072B     		cmp	r3, #7
 774 0056 EDD9     		bls	.L25
 446:./Hardware/OLED.c **** 	}
 447:./Hardware/OLED.c **** 	OLED_SetCursor((Line - 1) * 2 + 1, (Column - 1) * 8);	//设置光标位置在下半部分
 775              		.loc 1 447 2
 776 0058 FB79     		ldrb	r3, [r7, #7]
 777 005a 013B     		subs	r3, r3, #1
 778 005c DBB2     		uxtb	r3, r3
 779 005e 5B00     		lsls	r3, r3, #1
 780 0060 DBB2     		uxtb	r3, r3
 781 0062 0133     		adds	r3, r3, #1
 782 0064 DAB2     		uxtb	r2, r3
 783 0066 BB79     		ldrb	r3, [r7, #6]
 784 0068 013B     		subs	r3, r3, #1
 785 006a DBB2     		uxtb	r3, r3
 786 006c DB00     		lsls	r3, r3, #3
 787 006e DBB2     		uxtb	r3, r3
 788 0070 1946     		mov	r1, r3
 789 0072 1046     		mov	r0, r2
 790 0074 FFF7FEFF 		bl	OLED_SetCursor
 448:./Hardware/OLED.c **** 	for (i = 0; i < 8; i++)
 791              		.loc 1 448 9
 792 0078 0023     		movs	r3, #0
 793 007a FB73     		strb	r3, [r7, #15]
 794              		.loc 1 448 2
 795 007c 0FE0     		b	.L26
 796              	.L27:
 449:./Hardware/OLED.c **** 	{
 450:./Hardware/OLED.c **** 		OLED_WriteData(OLED_F08x16[Char - ' '][i + 8]);		//显示下半部分内容
 797              		.loc 1 450 35 discriminator 3
 798 007e 7B79     		ldrb	r3, [r7, #5]	@ zero_extendqisi2
 799 0080 A3F12002 		sub	r2, r3, #32
 800              		.loc 1 450 44 discriminator 3
 801 0084 FB7B     		ldrb	r3, [r7, #15]	@ zero_extendqisi2
 802 0086 0833     		adds	r3, r3, #8
 803              		.loc 1 450 3 discriminator 3
 804 0088 0949     		ldr	r1, .L28
 805 008a 1201     		lsls	r2, r2, #4
 806 008c 0A44     		add	r2, r2, r1
 807 008e 1344     		add	r3, r3, r2
 808 0090 1B78     		ldrb	r3, [r3]	@ zero_extendqisi2
 809 0092 1846     		mov	r0, r3
 810 0094 FFF7FEFF 		bl	OLED_WriteData
 448:./Hardware/OLED.c **** 	for (i = 0; i < 8; i++)
 811              		.loc 1 448 22 discriminator 3
 812 0098 FB7B     		ldrb	r3, [r7, #15]	@ zero_extendqisi2
 813 009a 0133     		adds	r3, r3, #1
ARM GAS  /var/folders/yl/_q9l42k90g1g4mdhbs226msm0000gn/T//ccH75JyQ.s 			page 28


 814 009c FB73     		strb	r3, [r7, #15]
 815              	.L26:
 448:./Hardware/OLED.c **** 	for (i = 0; i < 8; i++)
 816              		.loc 1 448 2 discriminator 1
 817 009e FB7B     		ldrb	r3, [r7, #15]	@ zero_extendqisi2
 818 00a0 072B     		cmp	r3, #7
 819 00a2 ECD9     		bls	.L27
 451:./Hardware/OLED.c **** 	}
 452:./Hardware/OLED.c **** }
 820              		.loc 1 452 1
 821 00a4 00BF     		nop
 822 00a6 00BF     		nop
 823 00a8 1037     		adds	r7, r7, #16
 824              	.LCFI37:
 825              		.cfi_def_cfa_offset 8
 826 00aa BD46     		mov	sp, r7
 827              	.LCFI38:
 828              		.cfi_def_cfa_register 13
 829              		@ sp needed
 830 00ac 80BD     		pop	{r7, pc}
 831              	.L29:
 832 00ae 00BF     		.align	2
 833              	.L28:
 834 00b0 00000000 		.word	OLED_F08x16
 835              		.cfi_endproc
 836              	.LFE131:
 838              		.section	.text.OLED_ShowString,"ax",%progbits
 839              		.align	1
 840              		.global	OLED_ShowString
 841              		.syntax unified
 842              		.thumb
 843              		.thumb_func
 845              	OLED_ShowString:
 846              	.LFB132:
 453:./Hardware/OLED.c **** 
 454:./Hardware/OLED.c **** /**
 455:./Hardware/OLED.c ****   * @brief  OLED显示字符串
 456:./Hardware/OLED.c ****   * @param  Line 起始行位置，范围：1~4
 457:./Hardware/OLED.c ****   * @param  Column 起始列位置，范围：1~16
 458:./Hardware/OLED.c ****   * @param  String 要显示的字符串，范围：ASCII可见字符
 459:./Hardware/OLED.c ****   * @retval 无
 460:./Hardware/OLED.c ****   */
 461:./Hardware/OLED.c **** void OLED_ShowString(uint8_t Line, uint8_t Column, char *String)
 462:./Hardware/OLED.c **** {
 847              		.loc 1 462 1
 848              		.cfi_startproc
 849              		@ args = 0, pretend = 0, frame = 16
 850              		@ frame_needed = 1, uses_anonymous_args = 0
 851 0000 80B5     		push	{r7, lr}
 852              	.LCFI39:
 853              		.cfi_def_cfa_offset 8
 854              		.cfi_offset 7, -8
 855              		.cfi_offset 14, -4
 856 0002 84B0     		sub	sp, sp, #16
 857              	.LCFI40:
 858              		.cfi_def_cfa_offset 24
 859 0004 00AF     		add	r7, sp, #0
ARM GAS  /var/folders/yl/_q9l42k90g1g4mdhbs226msm0000gn/T//ccH75JyQ.s 			page 29


 860              	.LCFI41:
 861              		.cfi_def_cfa_register 7
 862 0006 0346     		mov	r3, r0
 863 0008 3A60     		str	r2, [r7]
 864 000a FB71     		strb	r3, [r7, #7]
 865 000c 0B46     		mov	r3, r1
 866 000e BB71     		strb	r3, [r7, #6]
 463:./Hardware/OLED.c **** 	uint8_t i;
 464:./Hardware/OLED.c **** 	for (i = 0; String[i] != '\0'; i++)
 867              		.loc 1 464 9
 868 0010 0023     		movs	r3, #0
 869 0012 FB73     		strb	r3, [r7, #15]
 870              		.loc 1 464 2
 871 0014 0EE0     		b	.L31
 872              	.L32:
 465:./Hardware/OLED.c **** 	{
 466:./Hardware/OLED.c **** 		OLED_ShowChar(Line, Column + i, String[i]);
 873              		.loc 1 466 3 discriminator 3
 874 0016 BA79     		ldrb	r2, [r7, #6]
 875 0018 FB7B     		ldrb	r3, [r7, #15]
 876 001a 1344     		add	r3, r3, r2
 877 001c D9B2     		uxtb	r1, r3
 878              		.loc 1 466 41 discriminator 3
 879 001e FB7B     		ldrb	r3, [r7, #15]	@ zero_extendqisi2
 880 0020 3A68     		ldr	r2, [r7]
 881 0022 1344     		add	r3, r3, r2
 882              		.loc 1 466 3 discriminator 3
 883 0024 1A78     		ldrb	r2, [r3]	@ zero_extendqisi2
 884 0026 FB79     		ldrb	r3, [r7, #7]	@ zero_extendqisi2
 885 0028 1846     		mov	r0, r3
 886 002a FFF7FEFF 		bl	OLED_ShowChar
 464:./Hardware/OLED.c **** 	{
 887              		.loc 1 464 34 discriminator 3
 888 002e FB7B     		ldrb	r3, [r7, #15]	@ zero_extendqisi2
 889 0030 0133     		adds	r3, r3, #1
 890 0032 FB73     		strb	r3, [r7, #15]
 891              	.L31:
 464:./Hardware/OLED.c **** 	{
 892              		.loc 1 464 20 discriminator 1
 893 0034 FB7B     		ldrb	r3, [r7, #15]	@ zero_extendqisi2
 894 0036 3A68     		ldr	r2, [r7]
 895 0038 1344     		add	r3, r3, r2
 896 003a 1B78     		ldrb	r3, [r3]	@ zero_extendqisi2
 464:./Hardware/OLED.c **** 	{
 897              		.loc 1 464 2 discriminator 1
 898 003c 002B     		cmp	r3, #0
 899 003e EAD1     		bne	.L32
 467:./Hardware/OLED.c **** 	}
 468:./Hardware/OLED.c **** }
 900              		.loc 1 468 1
 901 0040 00BF     		nop
 902 0042 00BF     		nop
 903 0044 1037     		adds	r7, r7, #16
 904              	.LCFI42:
 905              		.cfi_def_cfa_offset 8
 906 0046 BD46     		mov	sp, r7
 907              	.LCFI43:
ARM GAS  /var/folders/yl/_q9l42k90g1g4mdhbs226msm0000gn/T//ccH75JyQ.s 			page 30


 908              		.cfi_def_cfa_register 13
 909              		@ sp needed
 910 0048 80BD     		pop	{r7, pc}
 911              		.cfi_endproc
 912              	.LFE132:
 914              		.section	.text.OLED_Pow,"ax",%progbits
 915              		.align	1
 916              		.global	OLED_Pow
 917              		.syntax unified
 918              		.thumb
 919              		.thumb_func
 921              	OLED_Pow:
 922              	.LFB133:
 469:./Hardware/OLED.c **** 
 470:./Hardware/OLED.c **** /**
 471:./Hardware/OLED.c ****   * @brief  OLED次方函数
 472:./Hardware/OLED.c ****   * @retval 返回值等于X的Y次方
 473:./Hardware/OLED.c ****   */
 474:./Hardware/OLED.c **** uint32_t OLED_Pow(uint32_t X, uint32_t Y)
 475:./Hardware/OLED.c **** {
 923              		.loc 1 475 1
 924              		.cfi_startproc
 925              		@ args = 0, pretend = 0, frame = 16
 926              		@ frame_needed = 1, uses_anonymous_args = 0
 927              		@ link register save eliminated.
 928 0000 80B4     		push	{r7}
 929              	.LCFI44:
 930              		.cfi_def_cfa_offset 4
 931              		.cfi_offset 7, -4
 932 0002 85B0     		sub	sp, sp, #20
 933              	.LCFI45:
 934              		.cfi_def_cfa_offset 24
 935 0004 00AF     		add	r7, sp, #0
 936              	.LCFI46:
 937              		.cfi_def_cfa_register 7
 938 0006 7860     		str	r0, [r7, #4]
 939 0008 3960     		str	r1, [r7]
 476:./Hardware/OLED.c **** 	uint32_t Result = 1;
 940              		.loc 1 476 11
 941 000a 0123     		movs	r3, #1
 942 000c FB60     		str	r3, [r7, #12]
 477:./Hardware/OLED.c **** 	while (Y--)
 943              		.loc 1 477 8
 944 000e 04E0     		b	.L34
 945              	.L35:
 478:./Hardware/OLED.c **** 	{
 479:./Hardware/OLED.c **** 		Result *= X;
 946              		.loc 1 479 10
 947 0010 FB68     		ldr	r3, [r7, #12]
 948 0012 7A68     		ldr	r2, [r7, #4]
 949 0014 02FB03F3 		mul	r3, r2, r3
 950 0018 FB60     		str	r3, [r7, #12]
 951              	.L34:
 477:./Hardware/OLED.c **** 	while (Y--)
 952              		.loc 1 477 10
 953 001a 3B68     		ldr	r3, [r7]
 954 001c 5A1E     		subs	r2, r3, #1
ARM GAS  /var/folders/yl/_q9l42k90g1g4mdhbs226msm0000gn/T//ccH75JyQ.s 			page 31


 955 001e 3A60     		str	r2, [r7]
 477:./Hardware/OLED.c **** 	while (Y--)
 956              		.loc 1 477 8
 957 0020 002B     		cmp	r3, #0
 958 0022 F5D1     		bne	.L35
 480:./Hardware/OLED.c **** 	}
 481:./Hardware/OLED.c **** 	return Result;
 959              		.loc 1 481 9
 960 0024 FB68     		ldr	r3, [r7, #12]
 482:./Hardware/OLED.c **** }
 961              		.loc 1 482 1
 962 0026 1846     		mov	r0, r3
 963 0028 1437     		adds	r7, r7, #20
 964              	.LCFI47:
 965              		.cfi_def_cfa_offset 4
 966 002a BD46     		mov	sp, r7
 967              	.LCFI48:
 968              		.cfi_def_cfa_register 13
 969              		@ sp needed
 970 002c 5DF8047B 		ldr	r7, [sp], #4
 971              	.LCFI49:
 972              		.cfi_restore 7
 973              		.cfi_def_cfa_offset 0
 974 0030 7047     		bx	lr
 975              		.cfi_endproc
 976              	.LFE133:
 978              		.section	.text.OLED_ShowNum,"ax",%progbits
 979              		.align	1
 980              		.global	OLED_ShowNum
 981              		.syntax unified
 982              		.thumb
 983              		.thumb_func
 985              	OLED_ShowNum:
 986              	.LFB134:
 483:./Hardware/OLED.c **** 
 484:./Hardware/OLED.c **** /**
 485:./Hardware/OLED.c ****   * @brief  OLED显示数字（十进制，正数）
 486:./Hardware/OLED.c ****   * @param  Line 起始行位置，范围：1~4
 487:./Hardware/OLED.c ****   * @param  Column 起始列位置，范围：1~16
 488:./Hardware/OLED.c ****   * @param  Number 要显示的数字，范围：0~4294967295
 489:./Hardware/OLED.c ****   * @param  Length 要显示数字的长度，范围：1~10
 490:./Hardware/OLED.c ****   * @retval 无
 491:./Hardware/OLED.c ****   */
 492:./Hardware/OLED.c **** void OLED_ShowNum(uint8_t Line, uint8_t Column, uint32_t Number, uint8_t Length)
 493:./Hardware/OLED.c **** {
 987              		.loc 1 493 1
 988              		.cfi_startproc
 989              		@ args = 0, pretend = 0, frame = 16
 990              		@ frame_needed = 1, uses_anonymous_args = 0
 991 0000 90B5     		push	{r4, r7, lr}
 992              	.LCFI50:
 993              		.cfi_def_cfa_offset 12
 994              		.cfi_offset 4, -12
 995              		.cfi_offset 7, -8
 996              		.cfi_offset 14, -4
 997 0002 85B0     		sub	sp, sp, #20
 998              	.LCFI51:
ARM GAS  /var/folders/yl/_q9l42k90g1g4mdhbs226msm0000gn/T//ccH75JyQ.s 			page 32


 999              		.cfi_def_cfa_offset 32
 1000 0004 00AF     		add	r7, sp, #0
 1001              	.LCFI52:
 1002              		.cfi_def_cfa_register 7
 1003 0006 3A60     		str	r2, [r7]
 1004 0008 1A46     		mov	r2, r3
 1005 000a 0346     		mov	r3, r0
 1006 000c FB71     		strb	r3, [r7, #7]
 1007 000e 0B46     		mov	r3, r1
 1008 0010 BB71     		strb	r3, [r7, #6]
 1009 0012 1346     		mov	r3, r2
 1010 0014 7B71     		strb	r3, [r7, #5]
 494:./Hardware/OLED.c **** 	uint8_t i;
 495:./Hardware/OLED.c **** 	for (i = 0; i < Length; i++)							
 1011              		.loc 1 495 9
 1012 0016 0023     		movs	r3, #0
 1013 0018 FB73     		strb	r3, [r7, #15]
 1014              		.loc 1 495 2
 1015 001a 23E0     		b	.L38
 1016              	.L39:
 496:./Hardware/OLED.c **** 	{
 497:./Hardware/OLED.c **** 		OLED_ShowChar(Line, Column + i, Number / OLED_Pow(10, Length - i - 1) % 10 + '0');
 1017              		.loc 1 497 3 discriminator 3
 1018 001c BA79     		ldrb	r2, [r7, #6]
 1019 001e FB7B     		ldrb	r3, [r7, #15]
 1020 0020 1344     		add	r3, r3, r2
 1021 0022 DCB2     		uxtb	r4, r3
 1022              		.loc 1 497 64 discriminator 3
 1023 0024 7A79     		ldrb	r2, [r7, #5]	@ zero_extendqisi2
 1024 0026 FB7B     		ldrb	r3, [r7, #15]	@ zero_extendqisi2
 1025 0028 D31A     		subs	r3, r2, r3
 1026              		.loc 1 497 68 discriminator 3
 1027 002a 013B     		subs	r3, r3, #1
 1028              		.loc 1 497 44 discriminator 3
 1029 002c 1946     		mov	r1, r3
 1030 002e 0A20     		movs	r0, #10
 1031 0030 FFF7FEFF 		bl	OLED_Pow
 1032 0034 0246     		mov	r2, r0
 1033              		.loc 1 497 42 discriminator 3
 1034 0036 3B68     		ldr	r3, [r7]
 1035 0038 B3FBF2F1 		udiv	r1, r3, r2
 1036              		.loc 1 497 73 discriminator 3
 1037 003c 0E4B     		ldr	r3, .L40
 1038 003e A3FB0123 		umull	r2, r3, r3, r1
 1039 0042 DA08     		lsrs	r2, r3, #3
 1040 0044 1346     		mov	r3, r2
 1041 0046 9B00     		lsls	r3, r3, #2
 1042 0048 1344     		add	r3, r3, r2
 1043 004a 5B00     		lsls	r3, r3, #1
 1044 004c CA1A     		subs	r2, r1, r3
 1045              		.loc 1 497 3 discriminator 3
 1046 004e D3B2     		uxtb	r3, r2
 1047 0050 3033     		adds	r3, r3, #48
 1048 0052 DAB2     		uxtb	r2, r3
 1049 0054 FB79     		ldrb	r3, [r7, #7]	@ zero_extendqisi2
 1050 0056 2146     		mov	r1, r4
 1051 0058 1846     		mov	r0, r3
ARM GAS  /var/folders/yl/_q9l42k90g1g4mdhbs226msm0000gn/T//ccH75JyQ.s 			page 33


 1052 005a FFF7FEFF 		bl	OLED_ShowChar
 495:./Hardware/OLED.c **** 	{
 1053              		.loc 1 495 27 discriminator 3
 1054 005e FB7B     		ldrb	r3, [r7, #15]	@ zero_extendqisi2
 1055 0060 0133     		adds	r3, r3, #1
 1056 0062 FB73     		strb	r3, [r7, #15]
 1057              	.L38:
 495:./Hardware/OLED.c **** 	{
 1058              		.loc 1 495 2 discriminator 1
 1059 0064 FA7B     		ldrb	r2, [r7, #15]	@ zero_extendqisi2
 1060 0066 7B79     		ldrb	r3, [r7, #5]	@ zero_extendqisi2
 1061 0068 9A42     		cmp	r2, r3
 1062 006a D7D3     		bcc	.L39
 498:./Hardware/OLED.c **** 	}
 499:./Hardware/OLED.c **** }
 1063              		.loc 1 499 1
 1064 006c 00BF     		nop
 1065 006e 00BF     		nop
 1066 0070 1437     		adds	r7, r7, #20
 1067              	.LCFI53:
 1068              		.cfi_def_cfa_offset 12
 1069 0072 BD46     		mov	sp, r7
 1070              	.LCFI54:
 1071              		.cfi_def_cfa_register 13
 1072              		@ sp needed
 1073 0074 90BD     		pop	{r4, r7, pc}
 1074              	.L41:
 1075 0076 00BF     		.align	2
 1076              	.L40:
 1077 0078 CDCCCCCC 		.word	-858993459
 1078              		.cfi_endproc
 1079              	.LFE134:
 1081              		.section	.text.OLED_ShowSignedNum,"ax",%progbits
 1082              		.align	1
 1083              		.global	OLED_ShowSignedNum
 1084              		.syntax unified
 1085              		.thumb
 1086              		.thumb_func
 1088              	OLED_ShowSignedNum:
 1089              	.LFB135:
 500:./Hardware/OLED.c **** 
 501:./Hardware/OLED.c **** /**
 502:./Hardware/OLED.c ****   * @brief  OLED显示数字（十进制，带符号数）
 503:./Hardware/OLED.c ****   * @param  Line 起始行位置，范围：1~4
 504:./Hardware/OLED.c ****   * @param  Column 起始列位置，范围：1~16
 505:./Hardware/OLED.c ****   * @param  Number 要显示的数字，范围：-2147483648~2147483647
 506:./Hardware/OLED.c ****   * @param  Length 要显示数字的长度，范围：1~10
 507:./Hardware/OLED.c ****   * @retval 无
 508:./Hardware/OLED.c ****   */
 509:./Hardware/OLED.c **** void OLED_ShowSignedNum(uint8_t Line, uint8_t Column, int32_t Number, uint8_t Length)
 510:./Hardware/OLED.c **** {
 1090              		.loc 1 510 1
 1091              		.cfi_startproc
 1092              		@ args = 0, pretend = 0, frame = 16
 1093              		@ frame_needed = 1, uses_anonymous_args = 0
 1094 0000 90B5     		push	{r4, r7, lr}
 1095              	.LCFI55:
ARM GAS  /var/folders/yl/_q9l42k90g1g4mdhbs226msm0000gn/T//ccH75JyQ.s 			page 34


 1096              		.cfi_def_cfa_offset 12
 1097              		.cfi_offset 4, -12
 1098              		.cfi_offset 7, -8
 1099              		.cfi_offset 14, -4
 1100 0002 85B0     		sub	sp, sp, #20
 1101              	.LCFI56:
 1102              		.cfi_def_cfa_offset 32
 1103 0004 00AF     		add	r7, sp, #0
 1104              	.LCFI57:
 1105              		.cfi_def_cfa_register 7
 1106 0006 3A60     		str	r2, [r7]
 1107 0008 1A46     		mov	r2, r3
 1108 000a 0346     		mov	r3, r0
 1109 000c FB71     		strb	r3, [r7, #7]
 1110 000e 0B46     		mov	r3, r1
 1111 0010 BB71     		strb	r3, [r7, #6]
 1112 0012 1346     		mov	r3, r2
 1113 0014 7B71     		strb	r3, [r7, #5]
 511:./Hardware/OLED.c **** 	uint8_t i;
 512:./Hardware/OLED.c **** 	uint32_t Number1;
 513:./Hardware/OLED.c **** 	if (Number >= 0)
 1114              		.loc 1 513 5
 1115 0016 3B68     		ldr	r3, [r7]
 1116 0018 002B     		cmp	r3, #0
 1117 001a 08DB     		blt	.L43
 514:./Hardware/OLED.c **** 	{
 515:./Hardware/OLED.c **** 		OLED_ShowChar(Line, Column, '+');
 1118              		.loc 1 515 3
 1119 001c B979     		ldrb	r1, [r7, #6]	@ zero_extendqisi2
 1120 001e FB79     		ldrb	r3, [r7, #7]	@ zero_extendqisi2
 1121 0020 2B22     		movs	r2, #43
 1122 0022 1846     		mov	r0, r3
 1123 0024 FFF7FEFF 		bl	OLED_ShowChar
 516:./Hardware/OLED.c **** 		Number1 = Number;
 1124              		.loc 1 516 11
 1125 0028 3B68     		ldr	r3, [r7]
 1126 002a BB60     		str	r3, [r7, #8]
 1127 002c 08E0     		b	.L44
 1128              	.L43:
 517:./Hardware/OLED.c **** 	}
 518:./Hardware/OLED.c **** 	else
 519:./Hardware/OLED.c **** 	{
 520:./Hardware/OLED.c **** 		OLED_ShowChar(Line, Column, '-');
 1129              		.loc 1 520 3
 1130 002e B979     		ldrb	r1, [r7, #6]	@ zero_extendqisi2
 1131 0030 FB79     		ldrb	r3, [r7, #7]	@ zero_extendqisi2
 1132 0032 2D22     		movs	r2, #45
 1133 0034 1846     		mov	r0, r3
 1134 0036 FFF7FEFF 		bl	OLED_ShowChar
 521:./Hardware/OLED.c **** 		Number1 = -Number;
 1135              		.loc 1 521 13
 1136 003a 3B68     		ldr	r3, [r7]
 1137 003c 5B42     		rsbs	r3, r3, #0
 1138              		.loc 1 521 11
 1139 003e BB60     		str	r3, [r7, #8]
 1140              	.L44:
 522:./Hardware/OLED.c **** 	}
ARM GAS  /var/folders/yl/_q9l42k90g1g4mdhbs226msm0000gn/T//ccH75JyQ.s 			page 35


 523:./Hardware/OLED.c **** 	for (i = 0; i < Length; i++)							
 1141              		.loc 1 523 9
 1142 0040 0023     		movs	r3, #0
 1143 0042 FB73     		strb	r3, [r7, #15]
 1144              		.loc 1 523 2
 1145 0044 25E0     		b	.L45
 1146              	.L46:
 524:./Hardware/OLED.c **** 	{
 525:./Hardware/OLED.c **** 		OLED_ShowChar(Line, Column + i + 1, Number1 / OLED_Pow(10, Length - i - 1) % 10 + '0');
 1147              		.loc 1 525 30 discriminator 3
 1148 0046 BA79     		ldrb	r2, [r7, #6]
 1149 0048 FB7B     		ldrb	r3, [r7, #15]
 1150 004a 1344     		add	r3, r3, r2
 1151 004c DBB2     		uxtb	r3, r3
 1152              		.loc 1 525 3 discriminator 3
 1153 004e 0133     		adds	r3, r3, #1
 1154 0050 DCB2     		uxtb	r4, r3
 1155              		.loc 1 525 69 discriminator 3
 1156 0052 7A79     		ldrb	r2, [r7, #5]	@ zero_extendqisi2
 1157 0054 FB7B     		ldrb	r3, [r7, #15]	@ zero_extendqisi2
 1158 0056 D31A     		subs	r3, r2, r3
 1159              		.loc 1 525 73 discriminator 3
 1160 0058 013B     		subs	r3, r3, #1
 1161              		.loc 1 525 49 discriminator 3
 1162 005a 1946     		mov	r1, r3
 1163 005c 0A20     		movs	r0, #10
 1164 005e FFF7FEFF 		bl	OLED_Pow
 1165 0062 0246     		mov	r2, r0
 1166              		.loc 1 525 47 discriminator 3
 1167 0064 BB68     		ldr	r3, [r7, #8]
 1168 0066 B3FBF2F1 		udiv	r1, r3, r2
 1169              		.loc 1 525 78 discriminator 3
 1170 006a 0E4B     		ldr	r3, .L47
 1171 006c A3FB0123 		umull	r2, r3, r3, r1
 1172 0070 DA08     		lsrs	r2, r3, #3
 1173 0072 1346     		mov	r3, r2
 1174 0074 9B00     		lsls	r3, r3, #2
 1175 0076 1344     		add	r3, r3, r2
 1176 0078 5B00     		lsls	r3, r3, #1
 1177 007a CA1A     		subs	r2, r1, r3
 1178              		.loc 1 525 3 discriminator 3
 1179 007c D3B2     		uxtb	r3, r2
 1180 007e 3033     		adds	r3, r3, #48
 1181 0080 DAB2     		uxtb	r2, r3
 1182 0082 FB79     		ldrb	r3, [r7, #7]	@ zero_extendqisi2
 1183 0084 2146     		mov	r1, r4
 1184 0086 1846     		mov	r0, r3
 1185 0088 FFF7FEFF 		bl	OLED_ShowChar
 523:./Hardware/OLED.c **** 	{
 1186              		.loc 1 523 27 discriminator 3
 1187 008c FB7B     		ldrb	r3, [r7, #15]	@ zero_extendqisi2
 1188 008e 0133     		adds	r3, r3, #1
 1189 0090 FB73     		strb	r3, [r7, #15]
 1190              	.L45:
 523:./Hardware/OLED.c **** 	{
 1191              		.loc 1 523 2 discriminator 1
 1192 0092 FA7B     		ldrb	r2, [r7, #15]	@ zero_extendqisi2
ARM GAS  /var/folders/yl/_q9l42k90g1g4mdhbs226msm0000gn/T//ccH75JyQ.s 			page 36


 1193 0094 7B79     		ldrb	r3, [r7, #5]	@ zero_extendqisi2
 1194 0096 9A42     		cmp	r2, r3
 1195 0098 D5D3     		bcc	.L46
 526:./Hardware/OLED.c **** 	}
 527:./Hardware/OLED.c **** }
 1196              		.loc 1 527 1
 1197 009a 00BF     		nop
 1198 009c 00BF     		nop
 1199 009e 1437     		adds	r7, r7, #20
 1200              	.LCFI58:
 1201              		.cfi_def_cfa_offset 12
 1202 00a0 BD46     		mov	sp, r7
 1203              	.LCFI59:
 1204              		.cfi_def_cfa_register 13
 1205              		@ sp needed
 1206 00a2 90BD     		pop	{r4, r7, pc}
 1207              	.L48:
 1208              		.align	2
 1209              	.L47:
 1210 00a4 CDCCCCCC 		.word	-858993459
 1211              		.cfi_endproc
 1212              	.LFE135:
 1214              		.section	.text.OLED_ShowHexNum,"ax",%progbits
 1215              		.align	1
 1216              		.global	OLED_ShowHexNum
 1217              		.syntax unified
 1218              		.thumb
 1219              		.thumb_func
 1221              	OLED_ShowHexNum:
 1222              	.LFB136:
 528:./Hardware/OLED.c **** 
 529:./Hardware/OLED.c **** /**
 530:./Hardware/OLED.c ****   * @brief  OLED显示数字（十六进制，正数）
 531:./Hardware/OLED.c ****   * @param  Line 起始行位置，范围：1~4
 532:./Hardware/OLED.c ****   * @param  Column 起始列位置，范围：1~16
 533:./Hardware/OLED.c ****   * @param  Number 要显示的数字，范围：0~0xFFFFFFFF
 534:./Hardware/OLED.c ****   * @param  Length 要显示数字的长度，范围：1~8
 535:./Hardware/OLED.c ****   * @retval 无
 536:./Hardware/OLED.c ****   */
 537:./Hardware/OLED.c **** void OLED_ShowHexNum(uint8_t Line, uint8_t Column, uint32_t Number, uint8_t Length)
 538:./Hardware/OLED.c **** {
 1223              		.loc 1 538 1
 1224              		.cfi_startproc
 1225              		@ args = 0, pretend = 0, frame = 16
 1226              		@ frame_needed = 1, uses_anonymous_args = 0
 1227 0000 80B5     		push	{r7, lr}
 1228              	.LCFI60:
 1229              		.cfi_def_cfa_offset 8
 1230              		.cfi_offset 7, -8
 1231              		.cfi_offset 14, -4
 1232 0002 84B0     		sub	sp, sp, #16
 1233              	.LCFI61:
 1234              		.cfi_def_cfa_offset 24
 1235 0004 00AF     		add	r7, sp, #0
 1236              	.LCFI62:
 1237              		.cfi_def_cfa_register 7
 1238 0006 3A60     		str	r2, [r7]
ARM GAS  /var/folders/yl/_q9l42k90g1g4mdhbs226msm0000gn/T//ccH75JyQ.s 			page 37


 1239 0008 1A46     		mov	r2, r3
 1240 000a 0346     		mov	r3, r0
 1241 000c FB71     		strb	r3, [r7, #7]
 1242 000e 0B46     		mov	r3, r1
 1243 0010 BB71     		strb	r3, [r7, #6]
 1244 0012 1346     		mov	r3, r2
 1245 0014 7B71     		strb	r3, [r7, #5]
 539:./Hardware/OLED.c **** 	uint8_t i, SingleNumber;
 540:./Hardware/OLED.c **** 	for (i = 0; i < Length; i++)							
 1246              		.loc 1 540 9
 1247 0016 0023     		movs	r3, #0
 1248 0018 FB73     		strb	r3, [r7, #15]
 1249              		.loc 1 540 2
 1250 001a 2CE0     		b	.L50
 1251              	.L53:
 541:./Hardware/OLED.c **** 	{
 542:./Hardware/OLED.c **** 		SingleNumber = Number / OLED_Pow(16, Length - i - 1) % 16;
 1252              		.loc 1 542 47
 1253 001c 7A79     		ldrb	r2, [r7, #5]	@ zero_extendqisi2
 1254 001e FB7B     		ldrb	r3, [r7, #15]	@ zero_extendqisi2
 1255 0020 D31A     		subs	r3, r2, r3
 1256              		.loc 1 542 51
 1257 0022 013B     		subs	r3, r3, #1
 1258              		.loc 1 542 27
 1259 0024 1946     		mov	r1, r3
 1260 0026 1020     		movs	r0, #16
 1261 0028 FFF7FEFF 		bl	OLED_Pow
 1262 002c 0246     		mov	r2, r0
 1263              		.loc 1 542 25
 1264 002e 3B68     		ldr	r3, [r7]
 1265 0030 B3FBF2F3 		udiv	r3, r3, r2
 1266              		.loc 1 542 56
 1267 0034 DBB2     		uxtb	r3, r3
 1268              		.loc 1 542 16
 1269 0036 03F00F03 		and	r3, r3, #15
 1270 003a BB73     		strb	r3, [r7, #14]
 543:./Hardware/OLED.c **** 		if (SingleNumber < 10)
 1271              		.loc 1 543 6
 1272 003c BB7B     		ldrb	r3, [r7, #14]	@ zero_extendqisi2
 1273 003e 092B     		cmp	r3, #9
 1274 0040 0BD8     		bhi	.L51
 544:./Hardware/OLED.c **** 		{
 545:./Hardware/OLED.c **** 			OLED_ShowChar(Line, Column + i, SingleNumber + '0');
 1275              		.loc 1 545 4
 1276 0042 BA79     		ldrb	r2, [r7, #6]
 1277 0044 FB7B     		ldrb	r3, [r7, #15]
 1278 0046 1344     		add	r3, r3, r2
 1279 0048 D9B2     		uxtb	r1, r3
 1280 004a BB7B     		ldrb	r3, [r7, #14]
 1281 004c 3033     		adds	r3, r3, #48
 1282 004e DAB2     		uxtb	r2, r3
 1283 0050 FB79     		ldrb	r3, [r7, #7]	@ zero_extendqisi2
 1284 0052 1846     		mov	r0, r3
 1285 0054 FFF7FEFF 		bl	OLED_ShowChar
 1286 0058 0AE0     		b	.L52
 1287              	.L51:
 546:./Hardware/OLED.c **** 		}
ARM GAS  /var/folders/yl/_q9l42k90g1g4mdhbs226msm0000gn/T//ccH75JyQ.s 			page 38


 547:./Hardware/OLED.c **** 		else
 548:./Hardware/OLED.c **** 		{
 549:./Hardware/OLED.c **** 			OLED_ShowChar(Line, Column + i, SingleNumber - 10 + 'A');
 1288              		.loc 1 549 4
 1289 005a BA79     		ldrb	r2, [r7, #6]
 1290 005c FB7B     		ldrb	r3, [r7, #15]
 1291 005e 1344     		add	r3, r3, r2
 1292 0060 D9B2     		uxtb	r1, r3
 1293 0062 BB7B     		ldrb	r3, [r7, #14]
 1294 0064 3733     		adds	r3, r3, #55
 1295 0066 DAB2     		uxtb	r2, r3
 1296 0068 FB79     		ldrb	r3, [r7, #7]	@ zero_extendqisi2
 1297 006a 1846     		mov	r0, r3
 1298 006c FFF7FEFF 		bl	OLED_ShowChar
 1299              	.L52:
 540:./Hardware/OLED.c **** 	{
 1300              		.loc 1 540 27 discriminator 2
 1301 0070 FB7B     		ldrb	r3, [r7, #15]	@ zero_extendqisi2
 1302 0072 0133     		adds	r3, r3, #1
 1303 0074 FB73     		strb	r3, [r7, #15]
 1304              	.L50:
 540:./Hardware/OLED.c **** 	{
 1305              		.loc 1 540 2 discriminator 1
 1306 0076 FA7B     		ldrb	r2, [r7, #15]	@ zero_extendqisi2
 1307 0078 7B79     		ldrb	r3, [r7, #5]	@ zero_extendqisi2
 1308 007a 9A42     		cmp	r2, r3
 1309 007c CED3     		bcc	.L53
 550:./Hardware/OLED.c **** 		}
 551:./Hardware/OLED.c **** 	}
 552:./Hardware/OLED.c **** }
 1310              		.loc 1 552 1
 1311 007e 00BF     		nop
 1312 0080 00BF     		nop
 1313 0082 1037     		adds	r7, r7, #16
 1314              	.LCFI63:
 1315              		.cfi_def_cfa_offset 8
 1316 0084 BD46     		mov	sp, r7
 1317              	.LCFI64:
 1318              		.cfi_def_cfa_register 13
 1319              		@ sp needed
 1320 0086 80BD     		pop	{r7, pc}
 1321              		.cfi_endproc
 1322              	.LFE136:
 1324              		.section	.text.OLED_ShowBinNum,"ax",%progbits
 1325              		.align	1
 1326              		.global	OLED_ShowBinNum
 1327              		.syntax unified
 1328              		.thumb
 1329              		.thumb_func
 1331              	OLED_ShowBinNum:
 1332              	.LFB137:
 553:./Hardware/OLED.c **** 
 554:./Hardware/OLED.c **** /**
 555:./Hardware/OLED.c ****   * @brief  OLED显示数字（二进制，正数）
 556:./Hardware/OLED.c ****   * @param  Line 起始行位置，范围：1~4
 557:./Hardware/OLED.c ****   * @param  Column 起始列位置，范围：1~16
 558:./Hardware/OLED.c ****   * @param  Number 要显示的数字，范围：0~1111 1111 1111 1111
ARM GAS  /var/folders/yl/_q9l42k90g1g4mdhbs226msm0000gn/T//ccH75JyQ.s 			page 39


 559:./Hardware/OLED.c ****   * @param  Length 要显示数字的长度，范围：1~16
 560:./Hardware/OLED.c ****   * @retval 无
 561:./Hardware/OLED.c ****   */
 562:./Hardware/OLED.c **** void OLED_ShowBinNum(uint8_t Line, uint8_t Column, uint32_t Number, uint8_t Length)
 563:./Hardware/OLED.c **** {
 1333              		.loc 1 563 1
 1334              		.cfi_startproc
 1335              		@ args = 0, pretend = 0, frame = 16
 1336              		@ frame_needed = 1, uses_anonymous_args = 0
 1337 0000 90B5     		push	{r4, r7, lr}
 1338              	.LCFI65:
 1339              		.cfi_def_cfa_offset 12
 1340              		.cfi_offset 4, -12
 1341              		.cfi_offset 7, -8
 1342              		.cfi_offset 14, -4
 1343 0002 85B0     		sub	sp, sp, #20
 1344              	.LCFI66:
 1345              		.cfi_def_cfa_offset 32
 1346 0004 00AF     		add	r7, sp, #0
 1347              	.LCFI67:
 1348              		.cfi_def_cfa_register 7
 1349 0006 3A60     		str	r2, [r7]
 1350 0008 1A46     		mov	r2, r3
 1351 000a 0346     		mov	r3, r0
 1352 000c FB71     		strb	r3, [r7, #7]
 1353 000e 0B46     		mov	r3, r1
 1354 0010 BB71     		strb	r3, [r7, #6]
 1355 0012 1346     		mov	r3, r2
 1356 0014 7B71     		strb	r3, [r7, #5]
 564:./Hardware/OLED.c **** 	uint8_t i;
 565:./Hardware/OLED.c **** 	for (i = 0; i < Length; i++)							
 1357              		.loc 1 565 9
 1358 0016 0023     		movs	r3, #0
 1359 0018 FB73     		strb	r3, [r7, #15]
 1360              		.loc 1 565 2
 1361 001a 1DE0     		b	.L55
 1362              	.L56:
 566:./Hardware/OLED.c **** 	{
 567:./Hardware/OLED.c **** 		OLED_ShowChar(Line, Column + i, Number / OLED_Pow(2, Length - i - 1) % 2 + '0');
 1363              		.loc 1 567 3 discriminator 3
 1364 001c BA79     		ldrb	r2, [r7, #6]
 1365 001e FB7B     		ldrb	r3, [r7, #15]
 1366 0020 1344     		add	r3, r3, r2
 1367 0022 DCB2     		uxtb	r4, r3
 1368              		.loc 1 567 63 discriminator 3
 1369 0024 7A79     		ldrb	r2, [r7, #5]	@ zero_extendqisi2
 1370 0026 FB7B     		ldrb	r3, [r7, #15]	@ zero_extendqisi2
 1371 0028 D31A     		subs	r3, r2, r3
 1372              		.loc 1 567 67 discriminator 3
 1373 002a 013B     		subs	r3, r3, #1
 1374              		.loc 1 567 44 discriminator 3
 1375 002c 1946     		mov	r1, r3
 1376 002e 0220     		movs	r0, #2
 1377 0030 FFF7FEFF 		bl	OLED_Pow
 1378 0034 0246     		mov	r2, r0
 1379              		.loc 1 567 42 discriminator 3
 1380 0036 3B68     		ldr	r3, [r7]
ARM GAS  /var/folders/yl/_q9l42k90g1g4mdhbs226msm0000gn/T//ccH75JyQ.s 			page 40


 1381 0038 B3FBF2F3 		udiv	r3, r3, r2
 1382              		.loc 1 567 72 discriminator 3
 1383 003c DBB2     		uxtb	r3, r3
 1384 003e 03F00103 		and	r3, r3, #1
 1385 0042 DBB2     		uxtb	r3, r3
 1386              		.loc 1 567 3 discriminator 3
 1387 0044 3033     		adds	r3, r3, #48
 1388 0046 DAB2     		uxtb	r2, r3
 1389 0048 FB79     		ldrb	r3, [r7, #7]	@ zero_extendqisi2
 1390 004a 2146     		mov	r1, r4
 1391 004c 1846     		mov	r0, r3
 1392 004e FFF7FEFF 		bl	OLED_ShowChar
 565:./Hardware/OLED.c **** 	{
 1393              		.loc 1 565 27 discriminator 3
 1394 0052 FB7B     		ldrb	r3, [r7, #15]	@ zero_extendqisi2
 1395 0054 0133     		adds	r3, r3, #1
 1396 0056 FB73     		strb	r3, [r7, #15]
 1397              	.L55:
 565:./Hardware/OLED.c **** 	{
 1398              		.loc 1 565 2 discriminator 1
 1399 0058 FA7B     		ldrb	r2, [r7, #15]	@ zero_extendqisi2
 1400 005a 7B79     		ldrb	r3, [r7, #5]	@ zero_extendqisi2
 1401 005c 9A42     		cmp	r2, r3
 1402 005e DDD3     		bcc	.L56
 568:./Hardware/OLED.c **** 	}
 569:./Hardware/OLED.c **** }
 1403              		.loc 1 569 1
 1404 0060 00BF     		nop
 1405 0062 00BF     		nop
 1406 0064 1437     		adds	r7, r7, #20
 1407              	.LCFI68:
 1408              		.cfi_def_cfa_offset 12
 1409 0066 BD46     		mov	sp, r7
 1410              	.LCFI69:
 1411              		.cfi_def_cfa_register 13
 1412              		@ sp needed
 1413 0068 90BD     		pop	{r4, r7, pc}
 1414              		.cfi_endproc
 1415              	.LFE137:
 1417              		.section	.text.OLED_Init,"ax",%progbits
 1418              		.align	1
 1419              		.global	OLED_Init
 1420              		.syntax unified
 1421              		.thumb
 1422              		.thumb_func
 1424              	OLED_Init:
 1425              	.LFB138:
 570:./Hardware/OLED.c **** 
 571:./Hardware/OLED.c **** /**
 572:./Hardware/OLED.c ****   * @brief  OLED初始化
 573:./Hardware/OLED.c ****   * @param  无
 574:./Hardware/OLED.c ****   * @retval 无
 575:./Hardware/OLED.c ****   */
 576:./Hardware/OLED.c **** void OLED_Init(void)
 577:./Hardware/OLED.c **** {
 1426              		.loc 1 577 1
 1427              		.cfi_startproc
ARM GAS  /var/folders/yl/_q9l42k90g1g4mdhbs226msm0000gn/T//ccH75JyQ.s 			page 41


 1428              		@ args = 0, pretend = 0, frame = 8
 1429              		@ frame_needed = 1, uses_anonymous_args = 0
 1430 0000 80B5     		push	{r7, lr}
 1431              	.LCFI70:
 1432              		.cfi_def_cfa_offset 8
 1433              		.cfi_offset 7, -8
 1434              		.cfi_offset 14, -4
 1435 0002 82B0     		sub	sp, sp, #8
 1436              	.LCFI71:
 1437              		.cfi_def_cfa_offset 16
 1438 0004 00AF     		add	r7, sp, #0
 1439              	.LCFI72:
 1440              		.cfi_def_cfa_register 7
 578:./Hardware/OLED.c **** 	uint32_t i, j;
 579:./Hardware/OLED.c **** 	
 580:./Hardware/OLED.c **** 	for (i = 0; i < 1000; i++)			//上电延时
 1441              		.loc 1 580 9
 1442 0006 0023     		movs	r3, #0
 1443 0008 7B60     		str	r3, [r7, #4]
 1444              		.loc 1 580 2
 1445 000a 0CE0     		b	.L58
 1446              	.L61:
 581:./Hardware/OLED.c **** 	{
 582:./Hardware/OLED.c **** 		for (j = 0; j < 1000; j++);
 1447              		.loc 1 582 10
 1448 000c 0023     		movs	r3, #0
 1449 000e 3B60     		str	r3, [r7]
 1450              		.loc 1 582 3
 1451 0010 02E0     		b	.L59
 1452              	.L60:
 1453              		.loc 1 582 26 discriminator 3
 1454 0012 3B68     		ldr	r3, [r7]
 1455 0014 0133     		adds	r3, r3, #1
 1456 0016 3B60     		str	r3, [r7]
 1457              	.L59:
 1458              		.loc 1 582 3 discriminator 1
 1459 0018 3B68     		ldr	r3, [r7]
 1460 001a B3F57A7F 		cmp	r3, #1000
 1461 001e F8D3     		bcc	.L60
 580:./Hardware/OLED.c **** 	{
 1462              		.loc 1 580 25 discriminator 2
 1463 0020 7B68     		ldr	r3, [r7, #4]
 1464 0022 0133     		adds	r3, r3, #1
 1465 0024 7B60     		str	r3, [r7, #4]
 1466              	.L58:
 580:./Hardware/OLED.c **** 	{
 1467              		.loc 1 580 2 discriminator 1
 1468 0026 7B68     		ldr	r3, [r7, #4]
 1469 0028 B3F57A7F 		cmp	r3, #1000
 1470 002c EED3     		bcc	.L61
 583:./Hardware/OLED.c **** 	}
 584:./Hardware/OLED.c **** 	
 585:./Hardware/OLED.c **** 	OLED_I2C_Init();			//端口初始化
 1471              		.loc 1 585 2
 1472 002e FFF7FEFF 		bl	OLED_I2C_Init
 586:./Hardware/OLED.c **** 	
 587:./Hardware/OLED.c **** 	OLED_WriteCommand(0xAE);	//关闭显示
ARM GAS  /var/folders/yl/_q9l42k90g1g4mdhbs226msm0000gn/T//ccH75JyQ.s 			page 42


 1473              		.loc 1 587 2
 1474 0032 AE20     		movs	r0, #174
 1475 0034 FFF7FEFF 		bl	OLED_WriteCommand
 588:./Hardware/OLED.c **** 	
 589:./Hardware/OLED.c **** 	OLED_WriteCommand(0xD5);	//设置显示时钟分频比/振荡器频率
 1476              		.loc 1 589 2
 1477 0038 D520     		movs	r0, #213
 1478 003a FFF7FEFF 		bl	OLED_WriteCommand
 590:./Hardware/OLED.c **** 	OLED_WriteCommand(0x80);
 1479              		.loc 1 590 2
 1480 003e 8020     		movs	r0, #128
 1481 0040 FFF7FEFF 		bl	OLED_WriteCommand
 591:./Hardware/OLED.c **** 	
 592:./Hardware/OLED.c **** 	OLED_WriteCommand(0xA8);	//设置多路复用率
 1482              		.loc 1 592 2
 1483 0044 A820     		movs	r0, #168
 1484 0046 FFF7FEFF 		bl	OLED_WriteCommand
 593:./Hardware/OLED.c **** 	OLED_WriteCommand(0x3F);
 1485              		.loc 1 593 2
 1486 004a 3F20     		movs	r0, #63
 1487 004c FFF7FEFF 		bl	OLED_WriteCommand
 594:./Hardware/OLED.c **** 	
 595:./Hardware/OLED.c **** 	OLED_WriteCommand(0xD3);	//设置显示偏移
 1488              		.loc 1 595 2
 1489 0050 D320     		movs	r0, #211
 1490 0052 FFF7FEFF 		bl	OLED_WriteCommand
 596:./Hardware/OLED.c **** 	OLED_WriteCommand(0x00);
 1491              		.loc 1 596 2
 1492 0056 0020     		movs	r0, #0
 1493 0058 FFF7FEFF 		bl	OLED_WriteCommand
 597:./Hardware/OLED.c **** 	
 598:./Hardware/OLED.c **** 	OLED_WriteCommand(0x40);	//设置显示开始行
 1494              		.loc 1 598 2
 1495 005c 4020     		movs	r0, #64
 1496 005e FFF7FEFF 		bl	OLED_WriteCommand
 599:./Hardware/OLED.c **** 	
 600:./Hardware/OLED.c **** 	OLED_WriteCommand(0xA1);	//设置左右方向，0xA1正常 0xA0左右反置
 1497              		.loc 1 600 2
 1498 0062 A120     		movs	r0, #161
 1499 0064 FFF7FEFF 		bl	OLED_WriteCommand
 601:./Hardware/OLED.c **** 	
 602:./Hardware/OLED.c **** 	OLED_WriteCommand(0xC8);	//设置上下方向，0xC8正常 0xC0上下反置
 1500              		.loc 1 602 2
 1501 0068 C820     		movs	r0, #200
 1502 006a FFF7FEFF 		bl	OLED_WriteCommand
 603:./Hardware/OLED.c **** 
 604:./Hardware/OLED.c **** 	OLED_WriteCommand(0xDA);	//设置COM引脚硬件配置
 1503              		.loc 1 604 2
 1504 006e DA20     		movs	r0, #218
 1505 0070 FFF7FEFF 		bl	OLED_WriteCommand
 605:./Hardware/OLED.c **** 	OLED_WriteCommand(0x12);
 1506              		.loc 1 605 2
 1507 0074 1220     		movs	r0, #18
 1508 0076 FFF7FEFF 		bl	OLED_WriteCommand
 606:./Hardware/OLED.c **** 	
 607:./Hardware/OLED.c **** 	OLED_WriteCommand(0x81);	//设置对比度控制
 1509              		.loc 1 607 2
ARM GAS  /var/folders/yl/_q9l42k90g1g4mdhbs226msm0000gn/T//ccH75JyQ.s 			page 43


 1510 007a 8120     		movs	r0, #129
 1511 007c FFF7FEFF 		bl	OLED_WriteCommand
 608:./Hardware/OLED.c **** 	OLED_WriteCommand(0xCF);
 1512              		.loc 1 608 2
 1513 0080 CF20     		movs	r0, #207
 1514 0082 FFF7FEFF 		bl	OLED_WriteCommand
 609:./Hardware/OLED.c **** 
 610:./Hardware/OLED.c **** 	OLED_WriteCommand(0xD9);	//设置预充电周期
 1515              		.loc 1 610 2
 1516 0086 D920     		movs	r0, #217
 1517 0088 FFF7FEFF 		bl	OLED_WriteCommand
 611:./Hardware/OLED.c **** 	OLED_WriteCommand(0xF1);
 1518              		.loc 1 611 2
 1519 008c F120     		movs	r0, #241
 1520 008e FFF7FEFF 		bl	OLED_WriteCommand
 612:./Hardware/OLED.c **** 
 613:./Hardware/OLED.c **** 	OLED_WriteCommand(0xDB);	//设置VCOMH取消选择级别
 1521              		.loc 1 613 2
 1522 0092 DB20     		movs	r0, #219
 1523 0094 FFF7FEFF 		bl	OLED_WriteCommand
 614:./Hardware/OLED.c **** 	OLED_WriteCommand(0x30);
 1524              		.loc 1 614 2
 1525 0098 3020     		movs	r0, #48
 1526 009a FFF7FEFF 		bl	OLED_WriteCommand
 615:./Hardware/OLED.c **** 
 616:./Hardware/OLED.c **** 	OLED_WriteCommand(0xA4);	//设置整个显示打开/关闭
 1527              		.loc 1 616 2
 1528 009e A420     		movs	r0, #164
 1529 00a0 FFF7FEFF 		bl	OLED_WriteCommand
 617:./Hardware/OLED.c **** 
 618:./Hardware/OLED.c **** 	OLED_WriteCommand(0xA6);	//设置正常/倒转显示
 1530              		.loc 1 618 2
 1531 00a4 A620     		movs	r0, #166
 1532 00a6 FFF7FEFF 		bl	OLED_WriteCommand
 619:./Hardware/OLED.c **** 
 620:./Hardware/OLED.c **** 	OLED_WriteCommand(0x8D);	//设置充电泵
 1533              		.loc 1 620 2
 1534 00aa 8D20     		movs	r0, #141
 1535 00ac FFF7FEFF 		bl	OLED_WriteCommand
 621:./Hardware/OLED.c **** 	OLED_WriteCommand(0x14);
 1536              		.loc 1 621 2
 1537 00b0 1420     		movs	r0, #20
 1538 00b2 FFF7FEFF 		bl	OLED_WriteCommand
 622:./Hardware/OLED.c **** 
 623:./Hardware/OLED.c **** 	OLED_WriteCommand(0xAF);	//开启显示
 1539              		.loc 1 623 2
 1540 00b6 AF20     		movs	r0, #175
 1541 00b8 FFF7FEFF 		bl	OLED_WriteCommand
 624:./Hardware/OLED.c **** 		
 625:./Hardware/OLED.c **** 	OLED_Clear();				//OLED清屏
 1542              		.loc 1 625 2
 1543 00bc FFF7FEFF 		bl	OLED_Clear
 626:./Hardware/OLED.c **** }
 1544              		.loc 1 626 1
 1545 00c0 00BF     		nop
 1546 00c2 0837     		adds	r7, r7, #8
 1547              	.LCFI73:
ARM GAS  /var/folders/yl/_q9l42k90g1g4mdhbs226msm0000gn/T//ccH75JyQ.s 			page 44


 1548              		.cfi_def_cfa_offset 8
 1549 00c4 BD46     		mov	sp, r7
 1550              	.LCFI74:
 1551              		.cfi_def_cfa_register 13
 1552              		@ sp needed
 1553 00c6 80BD     		pop	{r7, pc}
 1554              		.cfi_endproc
 1555              	.LFE138:
 1557              		.text
 1558              	.Letext0:
 1559              		.file 2 "/Applications/ARM/arm-none-eabi/include/machine/_default_types.h"
 1560              		.file 3 "/Applications/ARM/arm-none-eabi/include/sys/_stdint.h"
 1561              		.file 4 "./CORE/stm32f4xx.h"
 1562              		.file 5 "./Library/stm32f4xx_gpio.h"
ARM GAS  /var/folders/yl/_q9l42k90g1g4mdhbs226msm0000gn/T//ccH75JyQ.s 			page 45


DEFINED SYMBOLS
                            *ABS*:0000000000000000 OLED.c
/var/folders/yl/_q9l42k90g1g4mdhbs226msm0000gn/T//ccH75JyQ.s:20     .text.OLED_I2C_Init:0000000000000000 $t
/var/folders/yl/_q9l42k90g1g4mdhbs226msm0000gn/T//ccH75JyQ.s:26     .text.OLED_I2C_Init:0000000000000000 OLED_I2C_Init
/var/folders/yl/_q9l42k90g1g4mdhbs226msm0000gn/T//ccH75JyQ.s:116    .text.OLED_I2C_Init:0000000000000078 $d
/var/folders/yl/_q9l42k90g1g4mdhbs226msm0000gn/T//ccH75JyQ.s:125    .rodata.OLED_F08x16:0000000000000000 OLED_F08x16
/var/folders/yl/_q9l42k90g1g4mdhbs226msm0000gn/T//ccH75JyQ.s:122    .rodata.OLED_F08x16:0000000000000000 $d
/var/folders/yl/_q9l42k90g1g4mdhbs226msm0000gn/T//ccH75JyQ.s:271    .text.OLED_I2C_Start:0000000000000000 $t
/var/folders/yl/_q9l42k90g1g4mdhbs226msm0000gn/T//ccH75JyQ.s:277    .text.OLED_I2C_Start:0000000000000000 OLED_I2C_Start
/var/folders/yl/_q9l42k90g1g4mdhbs226msm0000gn/T//ccH75JyQ.s:317    .text.OLED_I2C_Start:0000000000000030 $d
/var/folders/yl/_q9l42k90g1g4mdhbs226msm0000gn/T//ccH75JyQ.s:322    .text.OLED_I2C_Stop:0000000000000000 $t
/var/folders/yl/_q9l42k90g1g4mdhbs226msm0000gn/T//ccH75JyQ.s:328    .text.OLED_I2C_Stop:0000000000000000 OLED_I2C_Stop
/var/folders/yl/_q9l42k90g1g4mdhbs226msm0000gn/T//ccH75JyQ.s:363    .text.OLED_I2C_Stop:0000000000000028 $d
/var/folders/yl/_q9l42k90g1g4mdhbs226msm0000gn/T//ccH75JyQ.s:368    .text.OLED_I2C_SendByte:0000000000000000 $t
/var/folders/yl/_q9l42k90g1g4mdhbs226msm0000gn/T//ccH75JyQ.s:374    .text.OLED_I2C_SendByte:0000000000000000 OLED_I2C_SendByte
/var/folders/yl/_q9l42k90g1g4mdhbs226msm0000gn/T//ccH75JyQ.s:454    .text.OLED_I2C_SendByte:000000000000006c $d
/var/folders/yl/_q9l42k90g1g4mdhbs226msm0000gn/T//ccH75JyQ.s:459    .text.OLED_WriteCommand:0000000000000000 $t
/var/folders/yl/_q9l42k90g1g4mdhbs226msm0000gn/T//ccH75JyQ.s:465    .text.OLED_WriteCommand:0000000000000000 OLED_WriteCommand
/var/folders/yl/_q9l42k90g1g4mdhbs226msm0000gn/T//ccH75JyQ.s:512    .text.OLED_WriteData:0000000000000000 $t
/var/folders/yl/_q9l42k90g1g4mdhbs226msm0000gn/T//ccH75JyQ.s:518    .text.OLED_WriteData:0000000000000000 OLED_WriteData
/var/folders/yl/_q9l42k90g1g4mdhbs226msm0000gn/T//ccH75JyQ.s:565    .text.OLED_SetCursor:0000000000000000 $t
/var/folders/yl/_q9l42k90g1g4mdhbs226msm0000gn/T//ccH75JyQ.s:571    .text.OLED_SetCursor:0000000000000000 OLED_SetCursor
/var/folders/yl/_q9l42k90g1g4mdhbs226msm0000gn/T//ccH75JyQ.s:628    .text.OLED_Clear:0000000000000000 $t
/var/folders/yl/_q9l42k90g1g4mdhbs226msm0000gn/T//ccH75JyQ.s:634    .text.OLED_Clear:0000000000000000 OLED_Clear
/var/folders/yl/_q9l42k90g1g4mdhbs226msm0000gn/T//ccH75JyQ.s:705    .text.OLED_ShowChar:0000000000000000 $t
/var/folders/yl/_q9l42k90g1g4mdhbs226msm0000gn/T//ccH75JyQ.s:711    .text.OLED_ShowChar:0000000000000000 OLED_ShowChar
/var/folders/yl/_q9l42k90g1g4mdhbs226msm0000gn/T//ccH75JyQ.s:834    .text.OLED_ShowChar:00000000000000b0 $d
/var/folders/yl/_q9l42k90g1g4mdhbs226msm0000gn/T//ccH75JyQ.s:839    .text.OLED_ShowString:0000000000000000 $t
/var/folders/yl/_q9l42k90g1g4mdhbs226msm0000gn/T//ccH75JyQ.s:845    .text.OLED_ShowString:0000000000000000 OLED_ShowString
/var/folders/yl/_q9l42k90g1g4mdhbs226msm0000gn/T//ccH75JyQ.s:915    .text.OLED_Pow:0000000000000000 $t
/var/folders/yl/_q9l42k90g1g4mdhbs226msm0000gn/T//ccH75JyQ.s:921    .text.OLED_Pow:0000000000000000 OLED_Pow
/var/folders/yl/_q9l42k90g1g4mdhbs226msm0000gn/T//ccH75JyQ.s:979    .text.OLED_ShowNum:0000000000000000 $t
/var/folders/yl/_q9l42k90g1g4mdhbs226msm0000gn/T//ccH75JyQ.s:985    .text.OLED_ShowNum:0000000000000000 OLED_ShowNum
/var/folders/yl/_q9l42k90g1g4mdhbs226msm0000gn/T//ccH75JyQ.s:1077   .text.OLED_ShowNum:0000000000000078 $d
/var/folders/yl/_q9l42k90g1g4mdhbs226msm0000gn/T//ccH75JyQ.s:1082   .text.OLED_ShowSignedNum:0000000000000000 $t
/var/folders/yl/_q9l42k90g1g4mdhbs226msm0000gn/T//ccH75JyQ.s:1088   .text.OLED_ShowSignedNum:0000000000000000 OLED_ShowSignedNum
/var/folders/yl/_q9l42k90g1g4mdhbs226msm0000gn/T//ccH75JyQ.s:1210   .text.OLED_ShowSignedNum:00000000000000a4 $d
/var/folders/yl/_q9l42k90g1g4mdhbs226msm0000gn/T//ccH75JyQ.s:1215   .text.OLED_ShowHexNum:0000000000000000 $t
/var/folders/yl/_q9l42k90g1g4mdhbs226msm0000gn/T//ccH75JyQ.s:1221   .text.OLED_ShowHexNum:0000000000000000 OLED_ShowHexNum
/var/folders/yl/_q9l42k90g1g4mdhbs226msm0000gn/T//ccH75JyQ.s:1325   .text.OLED_ShowBinNum:0000000000000000 $t
/var/folders/yl/_q9l42k90g1g4mdhbs226msm0000gn/T//ccH75JyQ.s:1331   .text.OLED_ShowBinNum:0000000000000000 OLED_ShowBinNum
/var/folders/yl/_q9l42k90g1g4mdhbs226msm0000gn/T//ccH75JyQ.s:1418   .text.OLED_Init:0000000000000000 $t
/var/folders/yl/_q9l42k90g1g4mdhbs226msm0000gn/T//ccH75JyQ.s:1424   .text.OLED_Init:0000000000000000 OLED_Init

UNDEFINED SYMBOLS
RCC_AHB1PeriphClockCmd
GPIO_Init
GPIO_SetBits
GPIO_ResetBits
GPIO_WriteBit
