ARM GAS  /var/folders/yl/_q9l42k90g1g4mdhbs226msm0000gn/T//cclJZZaI.s 			page 1


   1              		.cpu cortex-m4
   2              		.arch armv7e-m
   3              		.fpu fpv4-sp-d16
   4              		.eabi_attribute 27, 1
   5              		.eabi_attribute 28, 1
   6              		.eabi_attribute 20, 1
   7              		.eabi_attribute 21, 1
   8              		.eabi_attribute 23, 3
   9              		.eabi_attribute 24, 1
  10              		.eabi_attribute 25, 1
  11              		.eabi_attribute 26, 1
  12              		.eabi_attribute 30, 6
  13              		.eabi_attribute 34, 1
  14              		.eabi_attribute 18, 4
  15              		.file	"OLED2.c"
  16              		.text
  17              	.Ltext0:
  18              		.cfi_sections	.debug_frame
  19              		.section	.text.OLED2_I2C_Init,"ax",%progbits
  20              		.align	1
  21              		.global	OLED2_I2C_Init
  22              		.syntax unified
  23              		.thumb
  24              		.thumb_func
  26              	OLED2_I2C_Init:
  27              	.LFB123:
  28              		.file 1 "./Hardware/OLED2.c"
   1:./Hardware/OLED2.c **** 
   2:./Hardware/OLED2.c **** #include "OLED2.h"
   3:./Hardware/OLED2.c **** 
   4:./Hardware/OLED2.c **** /*引脚配置*/
   5:./Hardware/OLED2.c **** #define OLED2_W_SCL(x)		GPIO_WriteBit(GPIOC, GPIO_Pin_0, (BitAction)(x))
   6:./Hardware/OLED2.c **** #define OLED2_W_SDA(x)		GPIO_WriteBit(GPIOC, GPIO_Pin_1, (BitAction)(x))
   7:./Hardware/OLED2.c **** 
   8:./Hardware/OLED2.c **** /*引脚初始化*/
   9:./Hardware/OLED2.c **** void OLED2_I2C_Init(void)
  10:./Hardware/OLED2.c **** {
  29              		.loc 1 10 1
  30              		.cfi_startproc
  31              		@ args = 0, pretend = 0, frame = 8
  32              		@ frame_needed = 1, uses_anonymous_args = 0
  33 0000 80B5     		push	{r7, lr}
  34              	.LCFI0:
  35              		.cfi_def_cfa_offset 8
  36              		.cfi_offset 7, -8
  37              		.cfi_offset 14, -4
  38 0002 82B0     		sub	sp, sp, #8
  39              	.LCFI1:
  40              		.cfi_def_cfa_offset 16
  41 0004 00AF     		add	r7, sp, #0
  42              	.LCFI2:
  43              		.cfi_def_cfa_register 7
  11:./Hardware/OLED2.c **** 	//初始化PC0和PC1作为模拟SCL与SDA
  12:./Hardware/OLED2.c **** 	GPIO_InitTypeDef GPIO_InitStructure;
  13:./Hardware/OLED2.c **** 	RCC_AHB1PeriphClockCmd(RCC_AHB1Periph_GPIOC, ENABLE);
  44              		.loc 1 13 2
  45 0006 0121     		movs	r1, #1
ARM GAS  /var/folders/yl/_q9l42k90g1g4mdhbs226msm0000gn/T//cclJZZaI.s 			page 2


  46 0008 0420     		movs	r0, #4
  47 000a FFF7FEFF 		bl	RCC_AHB1PeriphClockCmd
  14:./Hardware/OLED2.c **** 	GPIO_InitStructure.GPIO_Pin = GPIO_Pin_0 | GPIO_Pin_1;
  48              		.loc 1 14 30
  49 000e 0323     		movs	r3, #3
  50 0010 3B60     		str	r3, [r7]
  15:./Hardware/OLED2.c **** 	GPIO_InitStructure.GPIO_Speed = GPIO_Speed_100MHz;
  51              		.loc 1 15 32
  52 0012 0323     		movs	r3, #3
  53 0014 7B71     		strb	r3, [r7, #5]
  16:./Hardware/OLED2.c **** 	GPIO_InitStructure.GPIO_Mode = GPIO_Mode_OUT;
  54              		.loc 1 16 31
  55 0016 0123     		movs	r3, #1
  56 0018 3B71     		strb	r3, [r7, #4]
  17:./Hardware/OLED2.c **** 	GPIO_InitStructure.GPIO_OType = GPIO_OType_OD;
  57              		.loc 1 17 32
  58 001a 0123     		movs	r3, #1
  59 001c BB71     		strb	r3, [r7, #6]
  18:./Hardware/OLED2.c **** 	GPIO_Init(GPIOC, &GPIO_InitStructure);
  60              		.loc 1 18 2
  61 001e 3B46     		mov	r3, r7
  62 0020 1946     		mov	r1, r3
  63 0022 0848     		ldr	r0, .L2
  64 0024 FFF7FEFF 		bl	GPIO_Init
  19:./Hardware/OLED2.c **** 			
  20:./Hardware/OLED2.c **** 	OLED2_W_SCL(1);
  65              		.loc 1 20 2
  66 0028 0122     		movs	r2, #1
  67 002a 0121     		movs	r1, #1
  68 002c 0548     		ldr	r0, .L2
  69 002e FFF7FEFF 		bl	GPIO_WriteBit
  21:./Hardware/OLED2.c **** 	OLED2_W_SDA(1);
  70              		.loc 1 21 2
  71 0032 0122     		movs	r2, #1
  72 0034 0221     		movs	r1, #2
  73 0036 0348     		ldr	r0, .L2
  74 0038 FFF7FEFF 		bl	GPIO_WriteBit
  22:./Hardware/OLED2.c **** }
  75              		.loc 1 22 1
  76 003c 00BF     		nop
  77 003e 0837     		adds	r7, r7, #8
  78              	.LCFI3:
  79              		.cfi_def_cfa_offset 8
  80 0040 BD46     		mov	sp, r7
  81              	.LCFI4:
  82              		.cfi_def_cfa_register 13
  83              		@ sp needed
  84 0042 80BD     		pop	{r7, pc}
  85              	.L3:
  86              		.align	2
  87              	.L2:
  88 0044 00080240 		.word	1073874944
  89              		.cfi_endproc
  90              	.LFE123:
  92              		.global	OLED2_F08x16
  93              		.section	.rodata.OLED2_F08x16,"a"
  94              		.align	2
ARM GAS  /var/folders/yl/_q9l42k90g1g4mdhbs226msm0000gn/T//cclJZZaI.s 			page 3


  97              	OLED2_F08x16:
  98 0000 00000000 		.ascii	"\000\000\000\000\000\000\000\000\000\000\000\000\000"
  98      00000000 
  98      00000000 
  98      00
  99 000d 000000   		.ascii	"\000\000\000"
 100 0010 000000F8 		.ascii	"\000\000\000\370\000\000\000\000\000\000\00030\000\000"
 100      00000000 
 100      00000033 
 100      300000
 101 001f 00       		.ascii	"\000"
 102 0020 00100C06 		.ascii	"\000\020\014\006\020\014\006\000\000\000\000\000\000"
 102      100C0600 
 102      00000000 
 102      00
 103 002d 000000   		.ascii	"\000\000\000"
 104 0030 40C07840 		.ascii	"@\300x@\300x@\000\004?\004\004?\004\004\000"
 104      C0784000 
 104      043F0404 
 104      3F040400 
 105 0040 007088FC 		.ascii	"\000p\210\374\0100\000\000\000\030 \377!\036\000\000"
 105      08300000 
 105      001820FF 
 105      211E0000 
 106 0050 F008F000 		.ascii	"\360\010\360\000\340\030\000\000\000!\034\003\036!\036"
 106      E0180000 
 106      00211C03 
 106      1E211E
 107 005f 00       		.ascii	"\000"
 108 0060 00F00888 		.ascii	"\000\360\010\210p\000\000\000\036!#$\031'!\020"
 108      70000000 
 108      1E212324 
 108      19272110 
 109 0070 10160E00 		.ascii	"\020\026\016\000\000\000\000\000\000\000\000\000\000"
 109      00000000 
 109      00000000 
 109      00
 110 007d 000000   		.ascii	"\000\000\000"
 111 0080 000000E0 		.ascii	"\000\000\000\340\030\004\002\000\000\000\000\007\030"
 111      18040200 
 111      00000007 
 111      18
 112 008d 204000   		.ascii	" @\000"
 113 0090 00020418 		.ascii	"\000\002\004\030\340\000\000\000\000@ \030\007\000\000"
 113      E0000000 
 113      00402018 
 113      070000
 114 009f 00       		.ascii	"\000"
 115 00a0 404080F0 		.ascii	"@@\200\360\200@@\000\002\002\001\017\001\002\002\000"
 115      80404000 
 115      0202010F 
 115      01020200 
 116 00b0 000000F0 		.ascii	"\000\000\000\360\000\000\000\000\001\001\001\037\001"
 116      00000000 
 116      0101011F 
 116      01
 117 00bd 010100   		.ascii	"\001\001\000"
ARM GAS  /var/folders/yl/_q9l42k90g1g4mdhbs226msm0000gn/T//cclJZZaI.s 			page 4


 118 00c0 00000000 		.ascii	"\000\000\000\000\000\000\000\000\200\260p\000\000\000"
 118      00000000 
 118      80B07000 
 118      0000
 119 00ce 0000     		.ascii	"\000\000"
 120 00d0 00000000 		.ascii	"\000\000\000\000\000\000\000\000\000\001\001\001\001"
 120      00000000 
 120      00010101 
 120      01
 121 00dd 010101   		.ascii	"\001\001\001"
 122 00e0 00000000 		.ascii	"\000\000\000\000\000\000\000\000\00000\000\000\000\000"
 122      00000000 
 122      00303000 
 122      000000
 123 00ef 00       		.ascii	"\000"
 124 00f0 00000000 		.ascii	"\000\000\000\000\200`\030\004\000`\030\006\001\000\000"
 124      80601804 
 124      00601806 
 124      010000
 125 00ff 00       		.ascii	"\000"
 126 0100 00E01008 		.ascii	"\000\340\020\010\010\020\340\000\000\017\020  \020\017"
 126      0810E000 
 126      000F1020 
 126      20100F
 127 010f 00       		.ascii	"\000"
 128 0110 001010F8 		.ascii	"\000\020\020\370\000\000\000\000\000  ?  \000\000"
 128      00000000 
 128      0020203F 
 128      20200000 
 129 0120 00700808 		.ascii	"\000p\010\010\010\210p\000\0000($\"!0\000"
 129      08887000 
 129      00302824 
 129      22213000 
 130 0130 00300888 		.ascii	"\0000\010\210\210H0\000\000\030   \021\016\000"
 130      88483000 
 130      00182020 
 130      20110E00 
 131 0140 0000C020 		.ascii	"\000\000\300 \020\370\000\000\000\007\004$$?$\000"
 131      10F80000 
 131      00070424 
 131      243F2400 
 132 0150 00F80888 		.ascii	"\000\370\010\210\210\010\010\000\000\031!  \021\016"
 132      88080800 
 132      00192120 
 132      20110E
 133 015f 00       		.ascii	"\000"
 134 0160 00E01088 		.ascii	"\000\340\020\210\210\030\000\000\000\017\021  \021\016"
 134      88180000 
 134      000F1120 
 134      20110E
 135 016f 00       		.ascii	"\000"
 136 0170 00380808 		.ascii	"\0008\010\010\3108\010\000\000\000\000?\000\000\000"
 136      C8380800 
 136      0000003F 
 136      000000
 137 017f 00       		.ascii	"\000"
 138 0180 00708808 		.ascii	"\000p\210\010\010\210p\000\000\034\"!!\"\034\000"
ARM GAS  /var/folders/yl/_q9l42k90g1g4mdhbs226msm0000gn/T//cclJZZaI.s 			page 5


 138      08887000 
 138      001C2221 
 138      21221C00 
 139 0190 00E01008 		.ascii	"\000\340\020\010\010\020\340\000\000\0001\"\"\021\017"
 139      0810E000 
 139      00003122 
 139      22110F
 140 019f 00       		.ascii	"\000"
 141 01a0 000000C0 		.ascii	"\000\000\000\300\300\000\000\000\000\000\00000\000\000"
 141      C0000000 
 141      00000030 
 141      300000
 142 01af 00       		.ascii	"\000"
 143 01b0 00000080 		.ascii	"\000\000\000\200\000\000\000\000\000\000\200`\000\000"
 143      00000000 
 143      00008060 
 143      0000
 144 01be 0000     		.ascii	"\000\000"
 145 01c0 00008040 		.ascii	"\000\000\200@ \020\010\000\000\001\002\004\010\020 "
 145      20100800 
 145      00010204 
 145      081020
 146 01cf 00       		.ascii	"\000"
 147 01d0 40404040 		.ascii	"@@@@@@@\000\004\004\004\004\004\004\004\000"
 147      40404000 
 147      04040404 
 147      04040400 
 148 01e0 00081020 		.ascii	"\000\010\020 @\200\000\000\000 \020\010\004\002\001"
 148      40800000 
 148      00201008 
 148      040201
 149 01ef 00       		.ascii	"\000"
 150 01f0 00704808 		.ascii	"\000pH\010\010\010\360\000\000\000\00006\001\000\000"
 150      0808F000 
 150      00000030 
 150      36010000 
 151 0200 C030C828 		.ascii	"\3000\310(\350\020\340\000\007\030'$#\024\013\000"
 151      E810E000 
 151      07182724 
 151      23140B00 
 152 0210 0000C038 		.ascii	"\000\000\3008\340\000\000\000 <#\002\002'8 "
 152      E0000000 
 152      203C2302 
 152      02273820 
 153 0220 08F88888 		.ascii	"\010\370\210\210\210p\000\000 ?   \021\016\000"
 153      88700000 
 153      203F2020 
 153      20110E00 
 154 0230 C0300808 		.ascii	"\3000\010\010\010\0108\000\007\030   \020\010\000"
 154      08083800 
 154      07182020 
 154      20100800 
 155 0240 08F80808 		.ascii	"\010\370\010\010\010\020\340\000 ?   \020\017\000"
 155      0810E000 
 155      203F2020 
 155      20100F00 
 156 0250 08F88888 		.ascii	"\010\370\210\210\350\010\020\000 ?  # \030\000"
ARM GAS  /var/folders/yl/_q9l42k90g1g4mdhbs226msm0000gn/T//cclJZZaI.s 			page 6


 156      E8081000 
 156      203F2020 
 156      23201800 
 157 0260 08F88888 		.ascii	"\010\370\210\210\350\010\020\000 ? \000\003\000\000"
 157      E8081000 
 157      203F2000 
 157      030000
 158 026f 00       		.ascii	"\000"
 159 0270 C0300808 		.ascii	"\3000\010\010\0108\000\000\007\030  \"\036\002\000"
 159      08380000 
 159      07182020 
 159      221E0200 
 160 0280 08F80800 		.ascii	"\010\370\010\000\000\010\370\010 ?!\001\001!? "
 160      0008F808 
 160      203F2101 
 160      01213F20 
 161 0290 000808F8 		.ascii	"\000\010\010\370\010\010\000\000\000  ?  \000\000"
 161      08080000 
 161      0020203F 
 161      20200000 
 162 02a0 00000808 		.ascii	"\000\000\010\010\370\010\010\000\300\200\200\200\177"
 162      F8080800 
 162      C0808080 
 162      7F
 163 02ad 000000   		.ascii	"\000\000\000"
 164 02b0 08F888C0 		.ascii	"\010\370\210\300(\030\010\000 ? \001&8 \000"
 164      28180800 
 164      203F2001 
 164      26382000 
 165 02c0 08F80800 		.ascii	"\010\370\010\000\000\000\000\000 ?    0\000"
 165      00000000 
 165      203F2020 
 165      20203000 
 166 02d0 08F8F800 		.ascii	"\010\370\370\000\370\370\010\000 ?\000?\000? \000"
 166      F8F80800 
 166      203F003F 
 166      003F2000 
 167 02e0 08F830C0 		.ascii	"\010\3700\300\000\010\370\010 ? \000\007\030?\000"
 167      0008F808 
 167      203F2000 
 167      07183F00 
 168 02f0 E0100808 		.ascii	"\340\020\010\010\010\020\340\000\017\020   \020\017"
 168      0810E000 
 168      0F102020 
 168      20100F
 169 02ff 00       		.ascii	"\000"
 170 0300 08F80808 		.ascii	"\010\370\010\010\010\010\360\000 ?!\001\001\001\000"
 170      0808F000 
 170      203F2101 
 170      010100
 171 030f 00       		.ascii	"\000"
 172 0310 E0100808 		.ascii	"\340\020\010\010\010\020\340\000\017\030$$8PO\000"
 172      0810E000 
 172      0F182424 
 172      38504F00 
 173 0320 08F88888 		.ascii	"\010\370\210\210\210\210p\000 ? \000\003\0140 "
 173      88887000 
ARM GAS  /var/folders/yl/_q9l42k90g1g4mdhbs226msm0000gn/T//cclJZZaI.s 			page 7


 173      203F2000 
 173      030C3020 
 174 0330 00708808 		.ascii	"\000p\210\010\010\0108\000\0008 !!\"\034\000"
 174      08083800 
 174      00382021 
 174      21221C00 
 175 0340 180808F8 		.ascii	"\030\010\010\370\010\010\030\000\000\000 ? \000\000"
 175      08081800 
 175      0000203F 
 175      200000
 176 034f 00       		.ascii	"\000"
 177 0350 08F80800 		.ascii	"\010\370\010\000\000\010\370\010\000\037    \037\000"
 177      0008F808 
 177      001F2020 
 177      20201F00 
 178 0360 08788800 		.ascii	"\010x\210\000\000\3108\010\000\000\0078\016\001\000"
 178      00C83808 
 178      00000738 
 178      0E0100
 179 036f 00       		.ascii	"\000"
 180 0370 F80800F8 		.ascii	"\370\010\000\370\000\010\370\000\003<\007\000\007<\003"
 180      0008F800 
 180      033C0700 
 180      073C03
 181 037f 00       		.ascii	"\000"
 182 0380 08186880 		.ascii	"\010\030h\200\200h\030\010 0,\003\003,0 "
 182      80681808 
 182      20302C03 
 182      032C3020 
 183 0390 0838C800 		.ascii	"\0108\310\000\3108\010\000\000\000 ? \000\000\000"
 183      C8380800 
 183      0000203F 
 183      20000000 
 184 03a0 10080808 		.ascii	"\020\010\010\010\3108\010\000 8&!  \030\000"
 184      C8380800 
 184      20382621 
 184      20201800 
 185 03b0 000000FE 		.ascii	"\000\000\000\376\002\002\002\000\000\000\000\177@@@"
 185      02020200 
 185      0000007F 
 185      404040
 186 03bf 00       		.ascii	"\000"
 187 03c0 000C30C0 		.ascii	"\000\0140\300\000\000\000\000\000\000\000\001\0068\300"
 187      00000000 
 187      00000001 
 187      0638C0
 188 03cf 00       		.ascii	"\000"
 189 03d0 00020202 		.ascii	"\000\002\002\002\376\000\000\000\000@@@\177\000\000"
 189      FE000000 
 189      00404040 
 189      7F0000
 190 03df 00       		.ascii	"\000"
 191 03e0 00000402 		.ascii	"\000\000\004\002\002\002\004\000\000\000\000\000\000"
 191      02020400 
 191      00000000 
 191      00
 192 03ed 000000   		.ascii	"\000\000\000"
ARM GAS  /var/folders/yl/_q9l42k90g1g4mdhbs226msm0000gn/T//cclJZZaI.s 			page 8


 193 03f0 00000000 		.ascii	"\000\000\000\000\000\000\000\000\200\200\200\200\200"
 193      00000000 
 193      80808080 
 193      80
 194 03fd 808080   		.ascii	"\200\200\200"
 195 0400 00020204 		.ascii	"\000\002\002\004\000\000\000\000\000\000\000\000\000"
 195      00000000 
 195      00000000 
 195      00
 196 040d 000000   		.ascii	"\000\000\000"
 197 0410 00008080 		.ascii	"\000\000\200\200\200\200\000\000\000\031$\"\"\"? "
 197      80800000 
 197      00192422 
 197      22223F20 
 198 0420 08F80080 		.ascii	"\010\370\000\200\200\000\000\000\000?\021  \021\016"
 198      80000000 
 198      003F1120 
 198      20110E
 199 042f 00       		.ascii	"\000"
 200 0430 00000080 		.ascii	"\000\000\000\200\200\200\000\000\000\016\021   \021"
 200      80800000 
 200      000E1120 
 200      202011
 201 043f 00       		.ascii	"\000"
 202 0440 00000080 		.ascii	"\000\000\000\200\200\210\370\000\000\016\021  \020?"
 202      8088F800 
 202      000E1120 
 202      20103F
 203 044f 20       		.ascii	" "
 204 0450 00008080 		.ascii	"\000\000\200\200\200\200\000\000\000\037\"\"\"\"\023"
 204      80800000 
 204      001F2222 
 204      222213
 205 045f 00       		.ascii	"\000"
 206 0460 008080F0 		.ascii	"\000\200\200\360\210\210\210\030\000  ?  \000\000"
 206      88888818 
 206      0020203F 
 206      20200000 
 207 0470 00008080 		.ascii	"\000\000\200\200\200\200\200\000\000k\224\224\224\223"
 207      80808000 
 207      006B9494 
 207      9493
 208 047e 6000     		.ascii	"`\000"
 209 0480 08F80080 		.ascii	"\010\370\000\200\200\200\000\000 ?!\000\000 ? "
 209      80800000 
 209      203F2100 
 209      00203F20 
 210 0490 00809898 		.ascii	"\000\200\230\230\000\000\000\000\000  ?  \000\000"
 210      00000000 
 210      0020203F 
 210      20200000 
 211 04a0 00000080 		.ascii	"\000\000\000\200\230\230\000\000\000\300\200\200\200"
 211      98980000 
 211      00C08080 
 211      80
 212 04ad 7F0000   		.ascii	"\177\000\000"
 213 04b0 08F80000 		.ascii	"\010\370\000\000\200\200\200\000 ?$\002-0 \000"
ARM GAS  /var/folders/yl/_q9l42k90g1g4mdhbs226msm0000gn/T//cclJZZaI.s 			page 9


 213      80808000 
 213      203F2402 
 213      2D302000 
 214 04c0 000808F8 		.ascii	"\000\010\010\370\000\000\000\000\000  ?  \000\000"
 214      00000000 
 214      0020203F 
 214      20200000 
 215 04d0 80808080 		.ascii	"\200\200\200\200\200\200\200\000 ? \000? \000?"
 215      80808000 
 215      203F2000 
 215      3F20003F 
 216 04e0 80800080 		.ascii	"\200\200\000\200\200\200\000\000 ?!\000\000 ? "
 216      80800000 
 216      203F2100 
 216      00203F20 
 217 04f0 00008080 		.ascii	"\000\000\200\200\200\200\000\000\000\037    \037\000"
 217      80800000 
 217      001F2020 
 217      20201F00 
 218 0500 80800080 		.ascii	"\200\200\000\200\200\000\000\000\200\377\241  \021\016"
 218      80000000 
 218      80FFA120 
 218      20110E
 219 050f 00       		.ascii	"\000"
 220 0510 00000080 		.ascii	"\000\000\000\200\200\200\200\000\000\016\021  \240\377"
 220      80808000 
 220      000E1120 
 220      20A0FF
 221 051f 80       		.ascii	"\200"
 222 0520 80808000 		.ascii	"\200\200\200\000\200\200\200\000  ?! \000\001\000"
 222      80808000 
 222      20203F21 
 222      20000100 
 223 0530 00008080 		.ascii	"\000\000\200\200\200\200\200\000\0003$$$$\031\000"
 223      80808000 
 223      00332424 
 223      24241900 
 224 0540 008080E0 		.ascii	"\000\200\200\340\200\200\000\000\000\000\000\037  \000"
 224      80800000 
 224      0000001F 
 224      202000
 225 054f 00       		.ascii	"\000"
 226 0550 80800000 		.ascii	"\200\200\000\000\000\200\200\000\000\037   \020? "
 226      00808000 
 226      001F2020 
 226      20103F20 
 227 0560 80808000 		.ascii	"\200\200\200\000\000\200\200\200\000\001\0160\010\006"
 227      00808080 
 227      00010E30 
 227      0806
 228 056e 0100     		.ascii	"\001\000"
 229 0570 80800080 		.ascii	"\200\200\000\200\000\200\200\200\0170\014\003\0140\017"
 229      00808080 
 229      0F300C03 
 229      0C300F
 230 057f 00       		.ascii	"\000"
 231 0580 00808000 		.ascii	"\000\200\200\000\200\200\200\000\000 1.\0161 \000"
ARM GAS  /var/folders/yl/_q9l42k90g1g4mdhbs226msm0000gn/T//cclJZZaI.s 			page 10


 231      80808000 
 231      0020312E 
 231      0E312000 
 232 0590 80808000 		.ascii	"\200\200\200\000\000\200\200\200\200\201\216p\030\006"
 232      00808080 
 232      80818E70 
 232      1806
 233 059e 0100     		.ascii	"\001\000"
 234 05a0 00808080 		.ascii	"\000\200\200\200\200\200\200\000\000!0,\"!0\000"
 234      80808000 
 234      0021302C 
 234      22213000 
 235 05b0 00000000 		.ascii	"\000\000\000\000\200|\002\002\000\000\000\000\000?@"
 235      807C0202 
 235      00000000 
 235      003F40
 236 05bf 40       		.ascii	"@"
 237 05c0 00000000 		.ascii	"\000\000\000\000\377\000\000\000\000\000\000\000\377"
 237      FF000000 
 237      00000000 
 237      FF
 238 05cd 000000   		.ascii	"\000\000\000"
 239 05d0 0002027C 		.ascii	"\000\002\002|\200\000\000\000\000@@?\000\000\000\000"
 239      80000000 
 239      0040403F 
 239      00000000 
 240 05e0 00060101 		.ascii	"\000\006\001\001\002\002\004\004\000\000\000\000\000"
 240      02020404 
 240      00000000 
 240      00
 241 05ed 000000   		.ascii	"\000\000\000"
 242              		.section	.text.OLED2_I2C_Start,"ax",%progbits
 243              		.align	1
 244              		.global	OLED2_I2C_Start
 245              		.syntax unified
 246              		.thumb
 247              		.thumb_func
 249              	OLED2_I2C_Start:
 250              	.LFB124:
  23:./Hardware/OLED2.c **** 
  24:./Hardware/OLED2.c **** 
  25:./Hardware/OLED2.c **** 
  26:./Hardware/OLED2.c **** /*OLED字模库，宽8像素，高16像素*/
  27:./Hardware/OLED2.c **** const uint8_t OLED2_F08x16[][16]=
  28:./Hardware/OLED2.c **** {
  29:./Hardware/OLED2.c **** 	{
  30:./Hardware/OLED2.c **** 	0x00,0x00,0x00,0x00,0x00,0x00,0x00,0x00,
  31:./Hardware/OLED2.c **** 	0x00,0x00,0x00,0x00,0x00,0x00,0x00,0x00,//  0
  32:./Hardware/OLED2.c **** 	},{
  33:./Hardware/OLED2.c **** 	0x00,0x00,0x00,0xF8,0x00,0x00,0x00,0x00,
  34:./Hardware/OLED2.c **** 	0x00,0x00,0x00,0x33,0x30,0x00,0x00,0x00,//! 1
  35:./Hardware/OLED2.c **** 	},{
  36:./Hardware/OLED2.c **** 	0x00,0x10,0x0C,0x06,0x10,0x0C,0x06,0x00,
  37:./Hardware/OLED2.c **** 	0x00,0x00,0x00,0x00,0x00,0x00,0x00,0x00,//" 2
  38:./Hardware/OLED2.c **** 	},{
  39:./Hardware/OLED2.c **** 	0x40,0xC0,0x78,0x40,0xC0,0x78,0x40,0x00,
  40:./Hardware/OLED2.c **** 	0x04,0x3F,0x04,0x04,0x3F,0x04,0x04,0x00,//# 3
ARM GAS  /var/folders/yl/_q9l42k90g1g4mdhbs226msm0000gn/T//cclJZZaI.s 			page 11


  41:./Hardware/OLED2.c **** 	},{
  42:./Hardware/OLED2.c **** 	0x00,0x70,0x88,0xFC,0x08,0x30,0x00,0x00,
  43:./Hardware/OLED2.c **** 	0x00,0x18,0x20,0xFF,0x21,0x1E,0x00,0x00,//$ 4
  44:./Hardware/OLED2.c **** 	},{
  45:./Hardware/OLED2.c **** 	0xF0,0x08,0xF0,0x00,0xE0,0x18,0x00,0x00,
  46:./Hardware/OLED2.c **** 	0x00,0x21,0x1C,0x03,0x1E,0x21,0x1E,0x00,//% 5
  47:./Hardware/OLED2.c **** 	},{
  48:./Hardware/OLED2.c **** 	0x00,0xF0,0x08,0x88,0x70,0x00,0x00,0x00,
  49:./Hardware/OLED2.c **** 	0x1E,0x21,0x23,0x24,0x19,0x27,0x21,0x10,//& 6
  50:./Hardware/OLED2.c **** 	},{
  51:./Hardware/OLED2.c **** 	0x10,0x16,0x0E,0x00,0x00,0x00,0x00,0x00,
  52:./Hardware/OLED2.c **** 	0x00,0x00,0x00,0x00,0x00,0x00,0x00,0x00,//' 7
  53:./Hardware/OLED2.c **** 	},{
  54:./Hardware/OLED2.c **** 	0x00,0x00,0x00,0xE0,0x18,0x04,0x02,0x00,
  55:./Hardware/OLED2.c **** 	0x00,0x00,0x00,0x07,0x18,0x20,0x40,0x00,//( 8
  56:./Hardware/OLED2.c **** 	},{
  57:./Hardware/OLED2.c **** 	0x00,0x02,0x04,0x18,0xE0,0x00,0x00,0x00,
  58:./Hardware/OLED2.c **** 	0x00,0x40,0x20,0x18,0x07,0x00,0x00,0x00,//) 9
  59:./Hardware/OLED2.c **** 	},{
  60:./Hardware/OLED2.c **** 	0x40,0x40,0x80,0xF0,0x80,0x40,0x40,0x00,
  61:./Hardware/OLED2.c **** 	0x02,0x02,0x01,0x0F,0x01,0x02,0x02,0x00,//* 10
  62:./Hardware/OLED2.c **** 	},{
  63:./Hardware/OLED2.c **** 	0x00,0x00,0x00,0xF0,0x00,0x00,0x00,0x00,
  64:./Hardware/OLED2.c **** 	0x01,0x01,0x01,0x1F,0x01,0x01,0x01,0x00,//+ 11
  65:./Hardware/OLED2.c **** 	},{
  66:./Hardware/OLED2.c **** 	0x00,0x00,0x00,0x00,0x00,0x00,0x00,0x00,
  67:./Hardware/OLED2.c **** 	0x80,0xB0,0x70,0x00,0x00,0x00,0x00,0x00,//, 12
  68:./Hardware/OLED2.c **** 	},{
  69:./Hardware/OLED2.c **** 	0x00,0x00,0x00,0x00,0x00,0x00,0x00,0x00,
  70:./Hardware/OLED2.c **** 	0x00,0x01,0x01,0x01,0x01,0x01,0x01,0x01,//- 13
  71:./Hardware/OLED2.c **** 	},{
  72:./Hardware/OLED2.c **** 	0x00,0x00,0x00,0x00,0x00,0x00,0x00,0x00,
  73:./Hardware/OLED2.c **** 	0x00,0x30,0x30,0x00,0x00,0x00,0x00,0x00,//. 14
  74:./Hardware/OLED2.c **** 	},{
  75:./Hardware/OLED2.c **** 	0x00,0x00,0x00,0x00,0x80,0x60,0x18,0x04,
  76:./Hardware/OLED2.c **** 	0x00,0x60,0x18,0x06,0x01,0x00,0x00,0x00,/// 15
  77:./Hardware/OLED2.c **** 	},{
  78:./Hardware/OLED2.c **** 	0x00,0xE0,0x10,0x08,0x08,0x10,0xE0,0x00,
  79:./Hardware/OLED2.c **** 	0x00,0x0F,0x10,0x20,0x20,0x10,0x0F,0x00,//0 16
  80:./Hardware/OLED2.c **** 	},{
  81:./Hardware/OLED2.c **** 	0x00,0x10,0x10,0xF8,0x00,0x00,0x00,0x00,
  82:./Hardware/OLED2.c **** 	0x00,0x20,0x20,0x3F,0x20,0x20,0x00,0x00,//1 17
  83:./Hardware/OLED2.c **** 	},{
  84:./Hardware/OLED2.c **** 	0x00,0x70,0x08,0x08,0x08,0x88,0x70,0x00,
  85:./Hardware/OLED2.c **** 	0x00,0x30,0x28,0x24,0x22,0x21,0x30,0x00,//2 18
  86:./Hardware/OLED2.c **** 	},{
  87:./Hardware/OLED2.c **** 	0x00,0x30,0x08,0x88,0x88,0x48,0x30,0x00,
  88:./Hardware/OLED2.c **** 	0x00,0x18,0x20,0x20,0x20,0x11,0x0E,0x00,//3 19
  89:./Hardware/OLED2.c **** 	},{
  90:./Hardware/OLED2.c **** 	0x00,0x00,0xC0,0x20,0x10,0xF8,0x00,0x00,
  91:./Hardware/OLED2.c **** 	0x00,0x07,0x04,0x24,0x24,0x3F,0x24,0x00,//4 20
  92:./Hardware/OLED2.c **** 	},{
  93:./Hardware/OLED2.c **** 	0x00,0xF8,0x08,0x88,0x88,0x08,0x08,0x00,
  94:./Hardware/OLED2.c **** 	0x00,0x19,0x21,0x20,0x20,0x11,0x0E,0x00,//5 21
  95:./Hardware/OLED2.c **** 	},{
  96:./Hardware/OLED2.c **** 	0x00,0xE0,0x10,0x88,0x88,0x18,0x00,0x00,
  97:./Hardware/OLED2.c **** 	0x00,0x0F,0x11,0x20,0x20,0x11,0x0E,0x00,//6 22
ARM GAS  /var/folders/yl/_q9l42k90g1g4mdhbs226msm0000gn/T//cclJZZaI.s 			page 12


  98:./Hardware/OLED2.c **** 	},{
  99:./Hardware/OLED2.c **** 	0x00,0x38,0x08,0x08,0xC8,0x38,0x08,0x00,
 100:./Hardware/OLED2.c **** 	0x00,0x00,0x00,0x3F,0x00,0x00,0x00,0x00,//7 23
 101:./Hardware/OLED2.c **** 	},{
 102:./Hardware/OLED2.c **** 	0x00,0x70,0x88,0x08,0x08,0x88,0x70,0x00,
 103:./Hardware/OLED2.c **** 	0x00,0x1C,0x22,0x21,0x21,0x22,0x1C,0x00,//8 24
 104:./Hardware/OLED2.c **** 	},{
 105:./Hardware/OLED2.c **** 	0x00,0xE0,0x10,0x08,0x08,0x10,0xE0,0x00,
 106:./Hardware/OLED2.c **** 	0x00,0x00,0x31,0x22,0x22,0x11,0x0F,0x00,//9 25
 107:./Hardware/OLED2.c **** 	},{
 108:./Hardware/OLED2.c **** 	0x00,0x00,0x00,0xC0,0xC0,0x00,0x00,0x00,
 109:./Hardware/OLED2.c **** 	0x00,0x00,0x00,0x30,0x30,0x00,0x00,0x00,//: 26
 110:./Hardware/OLED2.c **** 	},{
 111:./Hardware/OLED2.c **** 	0x00,0x00,0x00,0x80,0x00,0x00,0x00,0x00,
 112:./Hardware/OLED2.c **** 	0x00,0x00,0x80,0x60,0x00,0x00,0x00,0x00,//; 27
 113:./Hardware/OLED2.c **** 	},{
 114:./Hardware/OLED2.c **** 	0x00,0x00,0x80,0x40,0x20,0x10,0x08,0x00,
 115:./Hardware/OLED2.c **** 	0x00,0x01,0x02,0x04,0x08,0x10,0x20,0x00,//< 28
 116:./Hardware/OLED2.c **** 	},{
 117:./Hardware/OLED2.c **** 	0x40,0x40,0x40,0x40,0x40,0x40,0x40,0x00,
 118:./Hardware/OLED2.c **** 	0x04,0x04,0x04,0x04,0x04,0x04,0x04,0x00,//= 29
 119:./Hardware/OLED2.c **** 	},{
 120:./Hardware/OLED2.c **** 	0x00,0x08,0x10,0x20,0x40,0x80,0x00,0x00,
 121:./Hardware/OLED2.c **** 	0x00,0x20,0x10,0x08,0x04,0x02,0x01,0x00,//> 30
 122:./Hardware/OLED2.c **** 	},{
 123:./Hardware/OLED2.c **** 	0x00,0x70,0x48,0x08,0x08,0x08,0xF0,0x00,
 124:./Hardware/OLED2.c **** 	0x00,0x00,0x00,0x30,0x36,0x01,0x00,0x00,//? 31
 125:./Hardware/OLED2.c **** 	},{
 126:./Hardware/OLED2.c **** 	0xC0,0x30,0xC8,0x28,0xE8,0x10,0xE0,0x00,
 127:./Hardware/OLED2.c **** 	0x07,0x18,0x27,0x24,0x23,0x14,0x0B,0x00,//@ 32
 128:./Hardware/OLED2.c **** 	},{
 129:./Hardware/OLED2.c **** 	0x00,0x00,0xC0,0x38,0xE0,0x00,0x00,0x00,
 130:./Hardware/OLED2.c **** 	0x20,0x3C,0x23,0x02,0x02,0x27,0x38,0x20,//A 33
 131:./Hardware/OLED2.c **** 	},{
 132:./Hardware/OLED2.c **** 	0x08,0xF8,0x88,0x88,0x88,0x70,0x00,0x00,
 133:./Hardware/OLED2.c **** 	0x20,0x3F,0x20,0x20,0x20,0x11,0x0E,0x00,//B 34
 134:./Hardware/OLED2.c **** 	},{
 135:./Hardware/OLED2.c **** 	0xC0,0x30,0x08,0x08,0x08,0x08,0x38,0x00,
 136:./Hardware/OLED2.c **** 	0x07,0x18,0x20,0x20,0x20,0x10,0x08,0x00,//C 35
 137:./Hardware/OLED2.c **** 	},{
 138:./Hardware/OLED2.c **** 	0x08,0xF8,0x08,0x08,0x08,0x10,0xE0,0x00,
 139:./Hardware/OLED2.c **** 	0x20,0x3F,0x20,0x20,0x20,0x10,0x0F,0x00,//D 36
 140:./Hardware/OLED2.c **** 	},{
 141:./Hardware/OLED2.c **** 	0x08,0xF8,0x88,0x88,0xE8,0x08,0x10,0x00,
 142:./Hardware/OLED2.c **** 	0x20,0x3F,0x20,0x20,0x23,0x20,0x18,0x00,//E 37
 143:./Hardware/OLED2.c **** 	},{
 144:./Hardware/OLED2.c **** 	0x08,0xF8,0x88,0x88,0xE8,0x08,0x10,0x00,
 145:./Hardware/OLED2.c **** 	0x20,0x3F,0x20,0x00,0x03,0x00,0x00,0x00,//F 38
 146:./Hardware/OLED2.c **** 	},{
 147:./Hardware/OLED2.c **** 	0xC0,0x30,0x08,0x08,0x08,0x38,0x00,0x00,
 148:./Hardware/OLED2.c **** 	0x07,0x18,0x20,0x20,0x22,0x1E,0x02,0x00,//G 39
 149:./Hardware/OLED2.c **** 	},{
 150:./Hardware/OLED2.c **** 	0x08,0xF8,0x08,0x00,0x00,0x08,0xF8,0x08,
 151:./Hardware/OLED2.c **** 	0x20,0x3F,0x21,0x01,0x01,0x21,0x3F,0x20,//H 40
 152:./Hardware/OLED2.c **** 	},{
 153:./Hardware/OLED2.c **** 	0x00,0x08,0x08,0xF8,0x08,0x08,0x00,0x00,
 154:./Hardware/OLED2.c **** 	0x00,0x20,0x20,0x3F,0x20,0x20,0x00,0x00,//I 41
ARM GAS  /var/folders/yl/_q9l42k90g1g4mdhbs226msm0000gn/T//cclJZZaI.s 			page 13


 155:./Hardware/OLED2.c **** 	},{
 156:./Hardware/OLED2.c **** 	0x00,0x00,0x08,0x08,0xF8,0x08,0x08,0x00,
 157:./Hardware/OLED2.c **** 	0xC0,0x80,0x80,0x80,0x7F,0x00,0x00,0x00,//J 42
 158:./Hardware/OLED2.c **** 	},{
 159:./Hardware/OLED2.c **** 	0x08,0xF8,0x88,0xC0,0x28,0x18,0x08,0x00,
 160:./Hardware/OLED2.c **** 	0x20,0x3F,0x20,0x01,0x26,0x38,0x20,0x00,//K 43
 161:./Hardware/OLED2.c **** 	},{
 162:./Hardware/OLED2.c **** 	0x08,0xF8,0x08,0x00,0x00,0x00,0x00,0x00,
 163:./Hardware/OLED2.c **** 	0x20,0x3F,0x20,0x20,0x20,0x20,0x30,0x00,//L 44
 164:./Hardware/OLED2.c **** 	},{
 165:./Hardware/OLED2.c **** 	0x08,0xF8,0xF8,0x00,0xF8,0xF8,0x08,0x00,
 166:./Hardware/OLED2.c **** 	0x20,0x3F,0x00,0x3F,0x00,0x3F,0x20,0x00,//M 45
 167:./Hardware/OLED2.c **** 	},{
 168:./Hardware/OLED2.c **** 	0x08,0xF8,0x30,0xC0,0x00,0x08,0xF8,0x08,
 169:./Hardware/OLED2.c **** 	0x20,0x3F,0x20,0x00,0x07,0x18,0x3F,0x00,//N 46
 170:./Hardware/OLED2.c **** 	},{
 171:./Hardware/OLED2.c **** 	0xE0,0x10,0x08,0x08,0x08,0x10,0xE0,0x00,
 172:./Hardware/OLED2.c **** 	0x0F,0x10,0x20,0x20,0x20,0x10,0x0F,0x00,//O 47
 173:./Hardware/OLED2.c **** 	},{
 174:./Hardware/OLED2.c **** 	0x08,0xF8,0x08,0x08,0x08,0x08,0xF0,0x00,
 175:./Hardware/OLED2.c **** 	0x20,0x3F,0x21,0x01,0x01,0x01,0x00,0x00,//P 48
 176:./Hardware/OLED2.c **** 	},{
 177:./Hardware/OLED2.c **** 	0xE0,0x10,0x08,0x08,0x08,0x10,0xE0,0x00,
 178:./Hardware/OLED2.c **** 	0x0F,0x18,0x24,0x24,0x38,0x50,0x4F,0x00,//Q 49
 179:./Hardware/OLED2.c **** 	},{
 180:./Hardware/OLED2.c **** 	0x08,0xF8,0x88,0x88,0x88,0x88,0x70,0x00,
 181:./Hardware/OLED2.c **** 	0x20,0x3F,0x20,0x00,0x03,0x0C,0x30,0x20,//R 50
 182:./Hardware/OLED2.c **** 	},{
 183:./Hardware/OLED2.c **** 	0x00,0x70,0x88,0x08,0x08,0x08,0x38,0x00,
 184:./Hardware/OLED2.c **** 	0x00,0x38,0x20,0x21,0x21,0x22,0x1C,0x00,//S 51
 185:./Hardware/OLED2.c **** 	},{
 186:./Hardware/OLED2.c **** 	0x18,0x08,0x08,0xF8,0x08,0x08,0x18,0x00,
 187:./Hardware/OLED2.c **** 	0x00,0x00,0x20,0x3F,0x20,0x00,0x00,0x00,//T 52
 188:./Hardware/OLED2.c **** 	},{
 189:./Hardware/OLED2.c **** 	0x08,0xF8,0x08,0x00,0x00,0x08,0xF8,0x08,
 190:./Hardware/OLED2.c **** 	0x00,0x1F,0x20,0x20,0x20,0x20,0x1F,0x00,//U 53
 191:./Hardware/OLED2.c **** 	},{
 192:./Hardware/OLED2.c **** 	0x08,0x78,0x88,0x00,0x00,0xC8,0x38,0x08,
 193:./Hardware/OLED2.c **** 	0x00,0x00,0x07,0x38,0x0E,0x01,0x00,0x00,//V 54
 194:./Hardware/OLED2.c **** 	},{
 195:./Hardware/OLED2.c **** 	0xF8,0x08,0x00,0xF8,0x00,0x08,0xF8,0x00,
 196:./Hardware/OLED2.c **** 	0x03,0x3C,0x07,0x00,0x07,0x3C,0x03,0x00,//W 55
 197:./Hardware/OLED2.c **** 	},{
 198:./Hardware/OLED2.c **** 	0x08,0x18,0x68,0x80,0x80,0x68,0x18,0x08,
 199:./Hardware/OLED2.c **** 	0x20,0x30,0x2C,0x03,0x03,0x2C,0x30,0x20,//X 56
 200:./Hardware/OLED2.c **** 	},{
 201:./Hardware/OLED2.c **** 	0x08,0x38,0xC8,0x00,0xC8,0x38,0x08,0x00,
 202:./Hardware/OLED2.c **** 	0x00,0x00,0x20,0x3F,0x20,0x00,0x00,0x00,//Y 57
 203:./Hardware/OLED2.c **** 	},{
 204:./Hardware/OLED2.c **** 	0x10,0x08,0x08,0x08,0xC8,0x38,0x08,0x00,
 205:./Hardware/OLED2.c **** 	0x20,0x38,0x26,0x21,0x20,0x20,0x18,0x00,//Z 58
 206:./Hardware/OLED2.c **** 	},{
 207:./Hardware/OLED2.c **** 	0x00,0x00,0x00,0xFE,0x02,0x02,0x02,0x00,
 208:./Hardware/OLED2.c **** 	0x00,0x00,0x00,0x7F,0x40,0x40,0x40,0x00,//[ 59
 209:./Hardware/OLED2.c **** 	},{
 210:./Hardware/OLED2.c **** 	0x00,0x0C,0x30,0xC0,0x00,0x00,0x00,0x00,
 211:./Hardware/OLED2.c **** 	0x00,0x00,0x00,0x01,0x06,0x38,0xC0,0x00,//\ 60
ARM GAS  /var/folders/yl/_q9l42k90g1g4mdhbs226msm0000gn/T//cclJZZaI.s 			page 14


 212:./Hardware/OLED2.c **** 	},{
 213:./Hardware/OLED2.c **** 	0x00,0x02,0x02,0x02,0xFE,0x00,0x00,0x00,
 214:./Hardware/OLED2.c **** 	0x00,0x40,0x40,0x40,0x7F,0x00,0x00,0x00,//] 61
 215:./Hardware/OLED2.c **** 	},{
 216:./Hardware/OLED2.c **** 	0x00,0x00,0x04,0x02,0x02,0x02,0x04,0x00,
 217:./Hardware/OLED2.c **** 	0x00,0x00,0x00,0x00,0x00,0x00,0x00,0x00,//^ 62
 218:./Hardware/OLED2.c **** 	},{
 219:./Hardware/OLED2.c **** 	0x00,0x00,0x00,0x00,0x00,0x00,0x00,0x00,
 220:./Hardware/OLED2.c **** 	0x80,0x80,0x80,0x80,0x80,0x80,0x80,0x80,//_ 63
 221:./Hardware/OLED2.c **** 	},{
 222:./Hardware/OLED2.c **** 	0x00,0x02,0x02,0x04,0x00,0x00,0x00,0x00,
 223:./Hardware/OLED2.c **** 	0x00,0x00,0x00,0x00,0x00,0x00,0x00,0x00,//` 64
 224:./Hardware/OLED2.c **** 	},{
 225:./Hardware/OLED2.c **** 	0x00,0x00,0x80,0x80,0x80,0x80,0x00,0x00,
 226:./Hardware/OLED2.c **** 	0x00,0x19,0x24,0x22,0x22,0x22,0x3F,0x20,//a 65
 227:./Hardware/OLED2.c **** 	},{
 228:./Hardware/OLED2.c **** 	0x08,0xF8,0x00,0x80,0x80,0x00,0x00,0x00,
 229:./Hardware/OLED2.c **** 	0x00,0x3F,0x11,0x20,0x20,0x11,0x0E,0x00,//b 66
 230:./Hardware/OLED2.c **** 	},{
 231:./Hardware/OLED2.c **** 	0x00,0x00,0x00,0x80,0x80,0x80,0x00,0x00,
 232:./Hardware/OLED2.c **** 	0x00,0x0E,0x11,0x20,0x20,0x20,0x11,0x00,//c 67
 233:./Hardware/OLED2.c **** 	},{
 234:./Hardware/OLED2.c **** 	0x00,0x00,0x00,0x80,0x80,0x88,0xF8,0x00,
 235:./Hardware/OLED2.c **** 	0x00,0x0E,0x11,0x20,0x20,0x10,0x3F,0x20,//d 68
 236:./Hardware/OLED2.c **** 	},{
 237:./Hardware/OLED2.c **** 	0x00,0x00,0x80,0x80,0x80,0x80,0x00,0x00,
 238:./Hardware/OLED2.c **** 	0x00,0x1F,0x22,0x22,0x22,0x22,0x13,0x00,//e 69
 239:./Hardware/OLED2.c **** 	},{
 240:./Hardware/OLED2.c **** 	0x00,0x80,0x80,0xF0,0x88,0x88,0x88,0x18,
 241:./Hardware/OLED2.c **** 	0x00,0x20,0x20,0x3F,0x20,0x20,0x00,0x00,//f 70
 242:./Hardware/OLED2.c **** 	},{
 243:./Hardware/OLED2.c **** 	0x00,0x00,0x80,0x80,0x80,0x80,0x80,0x00,
 244:./Hardware/OLED2.c **** 	0x00,0x6B,0x94,0x94,0x94,0x93,0x60,0x00,//g 71
 245:./Hardware/OLED2.c **** 	},{
 246:./Hardware/OLED2.c **** 	0x08,0xF8,0x00,0x80,0x80,0x80,0x00,0x00,
 247:./Hardware/OLED2.c **** 	0x20,0x3F,0x21,0x00,0x00,0x20,0x3F,0x20,//h 72
 248:./Hardware/OLED2.c **** 	},{
 249:./Hardware/OLED2.c **** 	0x00,0x80,0x98,0x98,0x00,0x00,0x00,0x00,
 250:./Hardware/OLED2.c **** 	0x00,0x20,0x20,0x3F,0x20,0x20,0x00,0x00,//i 73
 251:./Hardware/OLED2.c **** 	},{
 252:./Hardware/OLED2.c **** 	0x00,0x00,0x00,0x80,0x98,0x98,0x00,0x00,
 253:./Hardware/OLED2.c **** 	0x00,0xC0,0x80,0x80,0x80,0x7F,0x00,0x00,//j 74
 254:./Hardware/OLED2.c **** 	},{
 255:./Hardware/OLED2.c **** 	0x08,0xF8,0x00,0x00,0x80,0x80,0x80,0x00,
 256:./Hardware/OLED2.c **** 	0x20,0x3F,0x24,0x02,0x2D,0x30,0x20,0x00,//k 75
 257:./Hardware/OLED2.c **** 	},{
 258:./Hardware/OLED2.c **** 	0x00,0x08,0x08,0xF8,0x00,0x00,0x00,0x00,
 259:./Hardware/OLED2.c **** 	0x00,0x20,0x20,0x3F,0x20,0x20,0x00,0x00,//l 76
 260:./Hardware/OLED2.c **** 	},{
 261:./Hardware/OLED2.c **** 	0x80,0x80,0x80,0x80,0x80,0x80,0x80,0x00,
 262:./Hardware/OLED2.c **** 	0x20,0x3F,0x20,0x00,0x3F,0x20,0x00,0x3F,//m 77
 263:./Hardware/OLED2.c **** 	},{
 264:./Hardware/OLED2.c **** 	0x80,0x80,0x00,0x80,0x80,0x80,0x00,0x00,
 265:./Hardware/OLED2.c **** 	0x20,0x3F,0x21,0x00,0x00,0x20,0x3F,0x20,//n 78
 266:./Hardware/OLED2.c **** 	},{
 267:./Hardware/OLED2.c **** 	0x00,0x00,0x80,0x80,0x80,0x80,0x00,0x00,
 268:./Hardware/OLED2.c **** 	0x00,0x1F,0x20,0x20,0x20,0x20,0x1F,0x00,//o 79
ARM GAS  /var/folders/yl/_q9l42k90g1g4mdhbs226msm0000gn/T//cclJZZaI.s 			page 15


 269:./Hardware/OLED2.c **** 	},{
 270:./Hardware/OLED2.c **** 	0x80,0x80,0x00,0x80,0x80,0x00,0x00,0x00,
 271:./Hardware/OLED2.c **** 	0x80,0xFF,0xA1,0x20,0x20,0x11,0x0E,0x00,//p 80
 272:./Hardware/OLED2.c **** 	},{
 273:./Hardware/OLED2.c **** 	0x00,0x00,0x00,0x80,0x80,0x80,0x80,0x00,
 274:./Hardware/OLED2.c **** 	0x00,0x0E,0x11,0x20,0x20,0xA0,0xFF,0x80,//q 81
 275:./Hardware/OLED2.c **** 	},{
 276:./Hardware/OLED2.c **** 	0x80,0x80,0x80,0x00,0x80,0x80,0x80,0x00,
 277:./Hardware/OLED2.c **** 	0x20,0x20,0x3F,0x21,0x20,0x00,0x01,0x00,//r 82
 278:./Hardware/OLED2.c **** 	},{
 279:./Hardware/OLED2.c **** 	0x00,0x00,0x80,0x80,0x80,0x80,0x80,0x00,
 280:./Hardware/OLED2.c **** 	0x00,0x33,0x24,0x24,0x24,0x24,0x19,0x00,//s 83
 281:./Hardware/OLED2.c **** 	},{
 282:./Hardware/OLED2.c **** 	0x00,0x80,0x80,0xE0,0x80,0x80,0x00,0x00,
 283:./Hardware/OLED2.c **** 	0x00,0x00,0x00,0x1F,0x20,0x20,0x00,0x00,//t 84
 284:./Hardware/OLED2.c **** 	},{
 285:./Hardware/OLED2.c **** 	0x80,0x80,0x00,0x00,0x00,0x80,0x80,0x00,
 286:./Hardware/OLED2.c **** 	0x00,0x1F,0x20,0x20,0x20,0x10,0x3F,0x20,//u 85
 287:./Hardware/OLED2.c **** 	},{
 288:./Hardware/OLED2.c **** 	0x80,0x80,0x80,0x00,0x00,0x80,0x80,0x80,
 289:./Hardware/OLED2.c **** 	0x00,0x01,0x0E,0x30,0x08,0x06,0x01,0x00,//v 86
 290:./Hardware/OLED2.c **** 	},{
 291:./Hardware/OLED2.c **** 	0x80,0x80,0x00,0x80,0x00,0x80,0x80,0x80,
 292:./Hardware/OLED2.c **** 	0x0F,0x30,0x0C,0x03,0x0C,0x30,0x0F,0x00,//w 87
 293:./Hardware/OLED2.c **** 	},{
 294:./Hardware/OLED2.c **** 	0x00,0x80,0x80,0x00,0x80,0x80,0x80,0x00,
 295:./Hardware/OLED2.c **** 	0x00,0x20,0x31,0x2E,0x0E,0x31,0x20,0x00,//x 88
 296:./Hardware/OLED2.c **** 	},{
 297:./Hardware/OLED2.c **** 	0x80,0x80,0x80,0x00,0x00,0x80,0x80,0x80,
 298:./Hardware/OLED2.c **** 	0x80,0x81,0x8E,0x70,0x18,0x06,0x01,0x00,//y 89
 299:./Hardware/OLED2.c **** 	},{
 300:./Hardware/OLED2.c **** 	0x00,0x80,0x80,0x80,0x80,0x80,0x80,0x00,
 301:./Hardware/OLED2.c **** 	0x00,0x21,0x30,0x2C,0x22,0x21,0x30,0x00,//z 90
 302:./Hardware/OLED2.c **** 	},{
 303:./Hardware/OLED2.c **** 	0x00,0x00,0x00,0x00,0x80,0x7C,0x02,0x02,
 304:./Hardware/OLED2.c **** 	0x00,0x00,0x00,0x00,0x00,0x3F,0x40,0x40,//{ 91
 305:./Hardware/OLED2.c **** 	},{
 306:./Hardware/OLED2.c **** 	0x00,0x00,0x00,0x00,0xFF,0x00,0x00,0x00,
 307:./Hardware/OLED2.c **** 	0x00,0x00,0x00,0x00,0xFF,0x00,0x00,0x00,//| 92
 308:./Hardware/OLED2.c **** 	},{
 309:./Hardware/OLED2.c **** 	0x00,0x02,0x02,0x7C,0x80,0x00,0x00,0x00,
 310:./Hardware/OLED2.c **** 	0x00,0x40,0x40,0x3F,0x00,0x00,0x00,0x00,//} 93
 311:./Hardware/OLED2.c **** 	},{
 312:./Hardware/OLED2.c **** 	0x00,0x06,0x01,0x01,0x02,0x02,0x04,0x04,
 313:./Hardware/OLED2.c **** 	0x00,0x00,0x00,0x00,0x00,0x00,0x00,0x00,//~ 94
 314:./Hardware/OLED2.c **** 	},
 315:./Hardware/OLED2.c **** };
 316:./Hardware/OLED2.c **** 
 317:./Hardware/OLED2.c **** 
 318:./Hardware/OLED2.c **** 
 319:./Hardware/OLED2.c **** /**
 320:./Hardware/OLED2.c ****   * @brief  I2C开始
 321:./Hardware/OLED2.c ****   * @param  无
 322:./Hardware/OLED2.c ****   * @retval 无
 323:./Hardware/OLED2.c ****   */
 324:./Hardware/OLED2.c **** void OLED2_I2C_Start(void)
 325:./Hardware/OLED2.c **** {
ARM GAS  /var/folders/yl/_q9l42k90g1g4mdhbs226msm0000gn/T//cclJZZaI.s 			page 16


 251              		.loc 1 325 1
 252              		.cfi_startproc
 253              		@ args = 0, pretend = 0, frame = 0
 254              		@ frame_needed = 1, uses_anonymous_args = 0
 255 0000 80B5     		push	{r7, lr}
 256              	.LCFI5:
 257              		.cfi_def_cfa_offset 8
 258              		.cfi_offset 7, -8
 259              		.cfi_offset 14, -4
 260 0002 00AF     		add	r7, sp, #0
 261              	.LCFI6:
 262              		.cfi_def_cfa_register 7
 326:./Hardware/OLED2.c **** 	OLED2_W_SDA(1);
 263              		.loc 1 326 2
 264 0004 0122     		movs	r2, #1
 265 0006 0221     		movs	r1, #2
 266 0008 0948     		ldr	r0, .L5
 267 000a FFF7FEFF 		bl	GPIO_WriteBit
 327:./Hardware/OLED2.c **** 	OLED2_W_SCL(1);
 268              		.loc 1 327 2
 269 000e 0122     		movs	r2, #1
 270 0010 0121     		movs	r1, #1
 271 0012 0748     		ldr	r0, .L5
 272 0014 FFF7FEFF 		bl	GPIO_WriteBit
 328:./Hardware/OLED2.c **** 	OLED2_W_SDA(0);
 273              		.loc 1 328 2
 274 0018 0022     		movs	r2, #0
 275 001a 0221     		movs	r1, #2
 276 001c 0448     		ldr	r0, .L5
 277 001e FFF7FEFF 		bl	GPIO_WriteBit
 329:./Hardware/OLED2.c **** 	OLED2_W_SCL(0);
 278              		.loc 1 329 2
 279 0022 0022     		movs	r2, #0
 280 0024 0121     		movs	r1, #1
 281 0026 0248     		ldr	r0, .L5
 282 0028 FFF7FEFF 		bl	GPIO_WriteBit
 330:./Hardware/OLED2.c **** }
 283              		.loc 1 330 1
 284 002c 00BF     		nop
 285 002e 80BD     		pop	{r7, pc}
 286              	.L6:
 287              		.align	2
 288              	.L5:
 289 0030 00080240 		.word	1073874944
 290              		.cfi_endproc
 291              	.LFE124:
 293              		.section	.text.OLED2_I2C_Stop,"ax",%progbits
 294              		.align	1
 295              		.global	OLED2_I2C_Stop
 296              		.syntax unified
 297              		.thumb
 298              		.thumb_func
 300              	OLED2_I2C_Stop:
 301              	.LFB125:
 331:./Hardware/OLED2.c **** 
 332:./Hardware/OLED2.c **** /**
 333:./Hardware/OLED2.c ****   * @brief  I2C停止
ARM GAS  /var/folders/yl/_q9l42k90g1g4mdhbs226msm0000gn/T//cclJZZaI.s 			page 17


 334:./Hardware/OLED2.c ****   * @param  无
 335:./Hardware/OLED2.c ****   * @retval 无
 336:./Hardware/OLED2.c ****   */
 337:./Hardware/OLED2.c **** void OLED2_I2C_Stop(void)
 338:./Hardware/OLED2.c **** {
 302              		.loc 1 338 1
 303              		.cfi_startproc
 304              		@ args = 0, pretend = 0, frame = 0
 305              		@ frame_needed = 1, uses_anonymous_args = 0
 306 0000 80B5     		push	{r7, lr}
 307              	.LCFI7:
 308              		.cfi_def_cfa_offset 8
 309              		.cfi_offset 7, -8
 310              		.cfi_offset 14, -4
 311 0002 00AF     		add	r7, sp, #0
 312              	.LCFI8:
 313              		.cfi_def_cfa_register 7
 339:./Hardware/OLED2.c **** 	OLED2_W_SDA(0);
 314              		.loc 1 339 2
 315 0004 0022     		movs	r2, #0
 316 0006 0221     		movs	r1, #2
 317 0008 0748     		ldr	r0, .L8
 318 000a FFF7FEFF 		bl	GPIO_WriteBit
 340:./Hardware/OLED2.c **** 	OLED2_W_SCL(1);
 319              		.loc 1 340 2
 320 000e 0122     		movs	r2, #1
 321 0010 0121     		movs	r1, #1
 322 0012 0548     		ldr	r0, .L8
 323 0014 FFF7FEFF 		bl	GPIO_WriteBit
 341:./Hardware/OLED2.c **** 	OLED2_W_SDA(1);
 324              		.loc 1 341 2
 325 0018 0122     		movs	r2, #1
 326 001a 0221     		movs	r1, #2
 327 001c 0248     		ldr	r0, .L8
 328 001e FFF7FEFF 		bl	GPIO_WriteBit
 342:./Hardware/OLED2.c **** }
 329              		.loc 1 342 1
 330 0022 00BF     		nop
 331 0024 80BD     		pop	{r7, pc}
 332              	.L9:
 333 0026 00BF     		.align	2
 334              	.L8:
 335 0028 00080240 		.word	1073874944
 336              		.cfi_endproc
 337              	.LFE125:
 339              		.section	.text.OLED2_I2C_SendByte,"ax",%progbits
 340              		.align	1
 341              		.global	OLED2_I2C_SendByte
 342              		.syntax unified
 343              		.thumb
 344              		.thumb_func
 346              	OLED2_I2C_SendByte:
 347              	.LFB126:
 343:./Hardware/OLED2.c **** 
 344:./Hardware/OLED2.c **** /**
 345:./Hardware/OLED2.c ****   * @brief  I2C发送一个字节
 346:./Hardware/OLED2.c ****   * @param  Byte 要发送的一个字节
ARM GAS  /var/folders/yl/_q9l42k90g1g4mdhbs226msm0000gn/T//cclJZZaI.s 			page 18


 347:./Hardware/OLED2.c ****   * @retval 无
 348:./Hardware/OLED2.c ****   */
 349:./Hardware/OLED2.c **** void OLED2_I2C_SendByte(uint8_t Byte)
 350:./Hardware/OLED2.c **** {
 348              		.loc 1 350 1
 349              		.cfi_startproc
 350              		@ args = 0, pretend = 0, frame = 16
 351              		@ frame_needed = 1, uses_anonymous_args = 0
 352 0000 80B5     		push	{r7, lr}
 353              	.LCFI9:
 354              		.cfi_def_cfa_offset 8
 355              		.cfi_offset 7, -8
 356              		.cfi_offset 14, -4
 357 0002 84B0     		sub	sp, sp, #16
 358              	.LCFI10:
 359              		.cfi_def_cfa_offset 24
 360 0004 00AF     		add	r7, sp, #0
 361              	.LCFI11:
 362              		.cfi_def_cfa_register 7
 363 0006 0346     		mov	r3, r0
 364 0008 FB71     		strb	r3, [r7, #7]
 351:./Hardware/OLED2.c **** 	uint8_t i;
 352:./Hardware/OLED2.c **** 	for (i = 0; i < 8; i++)
 365              		.loc 1 352 9
 366 000a 0023     		movs	r3, #0
 367 000c FB73     		strb	r3, [r7, #15]
 368              		.loc 1 352 2
 369 000e 1BE0     		b	.L11
 370              	.L12:
 353:./Hardware/OLED2.c **** 	{
 354:./Hardware/OLED2.c **** 		OLED2_W_SDA(Byte & (0x80 >> i));
 371              		.loc 1 354 3 discriminator 3
 372 0010 FB7B     		ldrb	r3, [r7, #15]	@ zero_extendqisi2
 373 0012 8022     		movs	r2, #128
 374 0014 42FA03F3 		asr	r3, r2, r3
 375 0018 5AB2     		sxtb	r2, r3
 376 001a 97F90730 		ldrsb	r3, [r7, #7]
 377 001e 1340     		ands	r3, r3, r2
 378 0020 5BB2     		sxtb	r3, r3
 379 0022 DBB2     		uxtb	r3, r3
 380 0024 1A46     		mov	r2, r3
 381 0026 0221     		movs	r1, #2
 382 0028 1048     		ldr	r0, .L13
 383 002a FFF7FEFF 		bl	GPIO_WriteBit
 355:./Hardware/OLED2.c **** 		OLED2_W_SCL(1);
 384              		.loc 1 355 3 discriminator 3
 385 002e 0122     		movs	r2, #1
 386 0030 0121     		movs	r1, #1
 387 0032 0E48     		ldr	r0, .L13
 388 0034 FFF7FEFF 		bl	GPIO_WriteBit
 356:./Hardware/OLED2.c **** 		OLED2_W_SCL(0);
 389              		.loc 1 356 3 discriminator 3
 390 0038 0022     		movs	r2, #0
 391 003a 0121     		movs	r1, #1
 392 003c 0B48     		ldr	r0, .L13
 393 003e FFF7FEFF 		bl	GPIO_WriteBit
 352:./Hardware/OLED2.c **** 	{
ARM GAS  /var/folders/yl/_q9l42k90g1g4mdhbs226msm0000gn/T//cclJZZaI.s 			page 19


 394              		.loc 1 352 22 discriminator 3
 395 0042 FB7B     		ldrb	r3, [r7, #15]	@ zero_extendqisi2
 396 0044 0133     		adds	r3, r3, #1
 397 0046 FB73     		strb	r3, [r7, #15]
 398              	.L11:
 352:./Hardware/OLED2.c **** 	{
 399              		.loc 1 352 2 discriminator 1
 400 0048 FB7B     		ldrb	r3, [r7, #15]	@ zero_extendqisi2
 401 004a 072B     		cmp	r3, #7
 402 004c E0D9     		bls	.L12
 357:./Hardware/OLED2.c **** 	}
 358:./Hardware/OLED2.c **** 	OLED2_W_SCL(1);	//额外的一个时钟，不处理应答信号
 403              		.loc 1 358 2
 404 004e 0122     		movs	r2, #1
 405 0050 0121     		movs	r1, #1
 406 0052 0648     		ldr	r0, .L13
 407 0054 FFF7FEFF 		bl	GPIO_WriteBit
 359:./Hardware/OLED2.c **** 	OLED2_W_SCL(0);
 408              		.loc 1 359 2
 409 0058 0022     		movs	r2, #0
 410 005a 0121     		movs	r1, #1
 411 005c 0348     		ldr	r0, .L13
 412 005e FFF7FEFF 		bl	GPIO_WriteBit
 360:./Hardware/OLED2.c **** }
 413              		.loc 1 360 1
 414 0062 00BF     		nop
 415 0064 1037     		adds	r7, r7, #16
 416              	.LCFI12:
 417              		.cfi_def_cfa_offset 8
 418 0066 BD46     		mov	sp, r7
 419              	.LCFI13:
 420              		.cfi_def_cfa_register 13
 421              		@ sp needed
 422 0068 80BD     		pop	{r7, pc}
 423              	.L14:
 424 006a 00BF     		.align	2
 425              	.L13:
 426 006c 00080240 		.word	1073874944
 427              		.cfi_endproc
 428              	.LFE126:
 430              		.section	.text.OLED2_WriteCommand,"ax",%progbits
 431              		.align	1
 432              		.global	OLED2_WriteCommand
 433              		.syntax unified
 434              		.thumb
 435              		.thumb_func
 437              	OLED2_WriteCommand:
 438              	.LFB127:
 361:./Hardware/OLED2.c **** 
 362:./Hardware/OLED2.c **** /**
 363:./Hardware/OLED2.c ****   * @brief  OLED写命令
 364:./Hardware/OLED2.c ****   * @param  Command 要写入的命令
 365:./Hardware/OLED2.c ****   * @retval 无
 366:./Hardware/OLED2.c ****   */
 367:./Hardware/OLED2.c **** void OLED2_WriteCommand(uint8_t Command)
 368:./Hardware/OLED2.c **** {
 439              		.loc 1 368 1
ARM GAS  /var/folders/yl/_q9l42k90g1g4mdhbs226msm0000gn/T//cclJZZaI.s 			page 20


 440              		.cfi_startproc
 441              		@ args = 0, pretend = 0, frame = 8
 442              		@ frame_needed = 1, uses_anonymous_args = 0
 443 0000 80B5     		push	{r7, lr}
 444              	.LCFI14:
 445              		.cfi_def_cfa_offset 8
 446              		.cfi_offset 7, -8
 447              		.cfi_offset 14, -4
 448 0002 82B0     		sub	sp, sp, #8
 449              	.LCFI15:
 450              		.cfi_def_cfa_offset 16
 451 0004 00AF     		add	r7, sp, #0
 452              	.LCFI16:
 453              		.cfi_def_cfa_register 7
 454 0006 0346     		mov	r3, r0
 455 0008 FB71     		strb	r3, [r7, #7]
 369:./Hardware/OLED2.c **** 	OLED2_I2C_Start();
 456              		.loc 1 369 2
 457 000a FFF7FEFF 		bl	OLED2_I2C_Start
 370:./Hardware/OLED2.c **** 	OLED2_I2C_SendByte(0x78);		//从机地址
 458              		.loc 1 370 2
 459 000e 7820     		movs	r0, #120
 460 0010 FFF7FEFF 		bl	OLED2_I2C_SendByte
 371:./Hardware/OLED2.c **** 	OLED2_I2C_SendByte(0x00);		//写命令
 461              		.loc 1 371 2
 462 0014 0020     		movs	r0, #0
 463 0016 FFF7FEFF 		bl	OLED2_I2C_SendByte
 372:./Hardware/OLED2.c **** 	OLED2_I2C_SendByte(Command); 
 464              		.loc 1 372 2
 465 001a FB79     		ldrb	r3, [r7, #7]	@ zero_extendqisi2
 466 001c 1846     		mov	r0, r3
 467 001e FFF7FEFF 		bl	OLED2_I2C_SendByte
 373:./Hardware/OLED2.c **** 	OLED2_I2C_Stop();
 468              		.loc 1 373 2
 469 0022 FFF7FEFF 		bl	OLED2_I2C_Stop
 374:./Hardware/OLED2.c **** }
 470              		.loc 1 374 1
 471 0026 00BF     		nop
 472 0028 0837     		adds	r7, r7, #8
 473              	.LCFI17:
 474              		.cfi_def_cfa_offset 8
 475 002a BD46     		mov	sp, r7
 476              	.LCFI18:
 477              		.cfi_def_cfa_register 13
 478              		@ sp needed
 479 002c 80BD     		pop	{r7, pc}
 480              		.cfi_endproc
 481              	.LFE127:
 483              		.section	.text.OLED2_WriteData,"ax",%progbits
 484              		.align	1
 485              		.global	OLED2_WriteData
 486              		.syntax unified
 487              		.thumb
 488              		.thumb_func
 490              	OLED2_WriteData:
 491              	.LFB128:
 375:./Hardware/OLED2.c **** 
ARM GAS  /var/folders/yl/_q9l42k90g1g4mdhbs226msm0000gn/T//cclJZZaI.s 			page 21


 376:./Hardware/OLED2.c **** /**
 377:./Hardware/OLED2.c ****   * @brief  OLED写数据
 378:./Hardware/OLED2.c ****   * @param  Data 要写入的数据
 379:./Hardware/OLED2.c ****   * @retval 无
 380:./Hardware/OLED2.c ****   */
 381:./Hardware/OLED2.c **** void OLED2_WriteData(uint8_t Data)
 382:./Hardware/OLED2.c **** {
 492              		.loc 1 382 1
 493              		.cfi_startproc
 494              		@ args = 0, pretend = 0, frame = 8
 495              		@ frame_needed = 1, uses_anonymous_args = 0
 496 0000 80B5     		push	{r7, lr}
 497              	.LCFI19:
 498              		.cfi_def_cfa_offset 8
 499              		.cfi_offset 7, -8
 500              		.cfi_offset 14, -4
 501 0002 82B0     		sub	sp, sp, #8
 502              	.LCFI20:
 503              		.cfi_def_cfa_offset 16
 504 0004 00AF     		add	r7, sp, #0
 505              	.LCFI21:
 506              		.cfi_def_cfa_register 7
 507 0006 0346     		mov	r3, r0
 508 0008 FB71     		strb	r3, [r7, #7]
 383:./Hardware/OLED2.c **** 	OLED2_I2C_Start();
 509              		.loc 1 383 2
 510 000a FFF7FEFF 		bl	OLED2_I2C_Start
 384:./Hardware/OLED2.c **** 	OLED2_I2C_SendByte(0x78);		//从机地址
 511              		.loc 1 384 2
 512 000e 7820     		movs	r0, #120
 513 0010 FFF7FEFF 		bl	OLED2_I2C_SendByte
 385:./Hardware/OLED2.c **** 	OLED2_I2C_SendByte(0x40);		//写数据
 514              		.loc 1 385 2
 515 0014 4020     		movs	r0, #64
 516 0016 FFF7FEFF 		bl	OLED2_I2C_SendByte
 386:./Hardware/OLED2.c **** 	OLED2_I2C_SendByte(Data);
 517              		.loc 1 386 2
 518 001a FB79     		ldrb	r3, [r7, #7]	@ zero_extendqisi2
 519 001c 1846     		mov	r0, r3
 520 001e FFF7FEFF 		bl	OLED2_I2C_SendByte
 387:./Hardware/OLED2.c **** 	OLED2_I2C_Stop();
 521              		.loc 1 387 2
 522 0022 FFF7FEFF 		bl	OLED2_I2C_Stop
 388:./Hardware/OLED2.c **** }
 523              		.loc 1 388 1
 524 0026 00BF     		nop
 525 0028 0837     		adds	r7, r7, #8
 526              	.LCFI22:
 527              		.cfi_def_cfa_offset 8
 528 002a BD46     		mov	sp, r7
 529              	.LCFI23:
 530              		.cfi_def_cfa_register 13
 531              		@ sp needed
 532 002c 80BD     		pop	{r7, pc}
 533              		.cfi_endproc
 534              	.LFE128:
 536              		.section	.text.OLED2_SetCursor,"ax",%progbits
ARM GAS  /var/folders/yl/_q9l42k90g1g4mdhbs226msm0000gn/T//cclJZZaI.s 			page 22


 537              		.align	1
 538              		.global	OLED2_SetCursor
 539              		.syntax unified
 540              		.thumb
 541              		.thumb_func
 543              	OLED2_SetCursor:
 544              	.LFB129:
 389:./Hardware/OLED2.c **** 
 390:./Hardware/OLED2.c **** /**
 391:./Hardware/OLED2.c ****   * @brief  OLED设置光标位置
 392:./Hardware/OLED2.c ****   * @param  Y 以左上角为原点，向下方向的坐标，范围：0~7
 393:./Hardware/OLED2.c ****   * @param  X 以左上角为原点，向右方向的坐标，范围：0~127
 394:./Hardware/OLED2.c ****   * @retval 无
 395:./Hardware/OLED2.c ****   */
 396:./Hardware/OLED2.c **** void OLED2_SetCursor(uint8_t Y, uint8_t X)
 397:./Hardware/OLED2.c **** {
 545              		.loc 1 397 1
 546              		.cfi_startproc
 547              		@ args = 0, pretend = 0, frame = 8
 548              		@ frame_needed = 1, uses_anonymous_args = 0
 549 0000 80B5     		push	{r7, lr}
 550              	.LCFI24:
 551              		.cfi_def_cfa_offset 8
 552              		.cfi_offset 7, -8
 553              		.cfi_offset 14, -4
 554 0002 82B0     		sub	sp, sp, #8
 555              	.LCFI25:
 556              		.cfi_def_cfa_offset 16
 557 0004 00AF     		add	r7, sp, #0
 558              	.LCFI26:
 559              		.cfi_def_cfa_register 7
 560 0006 0346     		mov	r3, r0
 561 0008 0A46     		mov	r2, r1
 562 000a FB71     		strb	r3, [r7, #7]
 563 000c 1346     		mov	r3, r2
 564 000e BB71     		strb	r3, [r7, #6]
 398:./Hardware/OLED2.c **** 	OLED2_WriteCommand(0xB0 | Y);					//设置Y位置
 565              		.loc 1 398 2
 566 0010 FB79     		ldrb	r3, [r7, #7]
 567 0012 63F04F03 		orn	r3, r3, #79
 568 0016 DBB2     		uxtb	r3, r3
 569 0018 1846     		mov	r0, r3
 570 001a FFF7FEFF 		bl	OLED2_WriteCommand
 399:./Hardware/OLED2.c **** 	OLED2_WriteCommand(0x10 | ((X & 0xF0) >> 4));	//设置X位置高4位
 571              		.loc 1 399 40
 572 001e BB79     		ldrb	r3, [r7, #6]	@ zero_extendqisi2
 573 0020 1B09     		lsrs	r3, r3, #4
 574 0022 DBB2     		uxtb	r3, r3
 575              		.loc 1 399 2
 576 0024 43F01003 		orr	r3, r3, #16
 577 0028 DBB2     		uxtb	r3, r3
 578 002a 1846     		mov	r0, r3
 579 002c FFF7FEFF 		bl	OLED2_WriteCommand
 400:./Hardware/OLED2.c **** 	OLED2_WriteCommand(0x00 | (X & 0x0F));			//设置X位置低4位
 580              		.loc 1 400 2
 581 0030 BB79     		ldrb	r3, [r7, #6]
 582 0032 03F00F03 		and	r3, r3, #15
ARM GAS  /var/folders/yl/_q9l42k90g1g4mdhbs226msm0000gn/T//cclJZZaI.s 			page 23


 583 0036 DBB2     		uxtb	r3, r3
 584 0038 1846     		mov	r0, r3
 585 003a FFF7FEFF 		bl	OLED2_WriteCommand
 401:./Hardware/OLED2.c **** }
 586              		.loc 1 401 1
 587 003e 00BF     		nop
 588 0040 0837     		adds	r7, r7, #8
 589              	.LCFI27:
 590              		.cfi_def_cfa_offset 8
 591 0042 BD46     		mov	sp, r7
 592              	.LCFI28:
 593              		.cfi_def_cfa_register 13
 594              		@ sp needed
 595 0044 80BD     		pop	{r7, pc}
 596              		.cfi_endproc
 597              	.LFE129:
 599              		.section	.text.OLED2_Clear,"ax",%progbits
 600              		.align	1
 601              		.global	OLED2_Clear
 602              		.syntax unified
 603              		.thumb
 604              		.thumb_func
 606              	OLED2_Clear:
 607              	.LFB130:
 402:./Hardware/OLED2.c **** 
 403:./Hardware/OLED2.c **** /**
 404:./Hardware/OLED2.c ****   * @brief  OLED清屏
 405:./Hardware/OLED2.c ****   * @param  无
 406:./Hardware/OLED2.c ****   * @retval 无
 407:./Hardware/OLED2.c ****   */
 408:./Hardware/OLED2.c **** void OLED2_Clear(void)
 409:./Hardware/OLED2.c **** {  
 608              		.loc 1 409 1
 609              		.cfi_startproc
 610              		@ args = 0, pretend = 0, frame = 8
 611              		@ frame_needed = 1, uses_anonymous_args = 0
 612 0000 80B5     		push	{r7, lr}
 613              	.LCFI29:
 614              		.cfi_def_cfa_offset 8
 615              		.cfi_offset 7, -8
 616              		.cfi_offset 14, -4
 617 0002 82B0     		sub	sp, sp, #8
 618              	.LCFI30:
 619              		.cfi_def_cfa_offset 16
 620 0004 00AF     		add	r7, sp, #0
 621              	.LCFI31:
 622              		.cfi_def_cfa_register 7
 410:./Hardware/OLED2.c **** 	uint8_t i, j;
 411:./Hardware/OLED2.c **** 	for (j = 0; j < 8; j++)
 623              		.loc 1 411 9
 624 0006 0023     		movs	r3, #0
 625 0008 BB71     		strb	r3, [r7, #6]
 626              		.loc 1 411 2
 627 000a 14E0     		b	.L19
 628              	.L22:
 412:./Hardware/OLED2.c **** 	{
 413:./Hardware/OLED2.c **** 		OLED2_SetCursor(j, 0);
ARM GAS  /var/folders/yl/_q9l42k90g1g4mdhbs226msm0000gn/T//cclJZZaI.s 			page 24


 629              		.loc 1 413 3
 630 000c BB79     		ldrb	r3, [r7, #6]	@ zero_extendqisi2
 631 000e 0021     		movs	r1, #0
 632 0010 1846     		mov	r0, r3
 633 0012 FFF7FEFF 		bl	OLED2_SetCursor
 414:./Hardware/OLED2.c **** 		for(i = 0; i < 128; i++)
 634              		.loc 1 414 9
 635 0016 0023     		movs	r3, #0
 636 0018 FB71     		strb	r3, [r7, #7]
 637              		.loc 1 414 3
 638 001a 05E0     		b	.L20
 639              	.L21:
 415:./Hardware/OLED2.c **** 		{
 416:./Hardware/OLED2.c **** 			OLED2_WriteData(0x00);
 640              		.loc 1 416 4 discriminator 3
 641 001c 0020     		movs	r0, #0
 642 001e FFF7FEFF 		bl	OLED2_WriteData
 414:./Hardware/OLED2.c **** 		for(i = 0; i < 128; i++)
 643              		.loc 1 414 24 discriminator 3
 644 0022 FB79     		ldrb	r3, [r7, #7]	@ zero_extendqisi2
 645 0024 0133     		adds	r3, r3, #1
 646 0026 FB71     		strb	r3, [r7, #7]
 647              	.L20:
 414:./Hardware/OLED2.c **** 		for(i = 0; i < 128; i++)
 648              		.loc 1 414 16 discriminator 1
 649 0028 97F90730 		ldrsb	r3, [r7, #7]
 414:./Hardware/OLED2.c **** 		for(i = 0; i < 128; i++)
 650              		.loc 1 414 3 discriminator 1
 651 002c 002B     		cmp	r3, #0
 652 002e F5DA     		bge	.L21
 411:./Hardware/OLED2.c **** 	{
 653              		.loc 1 411 22 discriminator 2
 654 0030 BB79     		ldrb	r3, [r7, #6]	@ zero_extendqisi2
 655 0032 0133     		adds	r3, r3, #1
 656 0034 BB71     		strb	r3, [r7, #6]
 657              	.L19:
 411:./Hardware/OLED2.c **** 	{
 658              		.loc 1 411 2 discriminator 1
 659 0036 BB79     		ldrb	r3, [r7, #6]	@ zero_extendqisi2
 660 0038 072B     		cmp	r3, #7
 661 003a E7D9     		bls	.L22
 417:./Hardware/OLED2.c **** 		}
 418:./Hardware/OLED2.c **** 	}
 419:./Hardware/OLED2.c **** }
 662              		.loc 1 419 1
 663 003c 00BF     		nop
 664 003e 00BF     		nop
 665 0040 0837     		adds	r7, r7, #8
 666              	.LCFI32:
 667              		.cfi_def_cfa_offset 8
 668 0042 BD46     		mov	sp, r7
 669              	.LCFI33:
 670              		.cfi_def_cfa_register 13
 671              		@ sp needed
 672 0044 80BD     		pop	{r7, pc}
 673              		.cfi_endproc
 674              	.LFE130:
ARM GAS  /var/folders/yl/_q9l42k90g1g4mdhbs226msm0000gn/T//cclJZZaI.s 			page 25


 676              		.section	.text.OLED2_ShowChar,"ax",%progbits
 677              		.align	1
 678              		.global	OLED2_ShowChar
 679              		.syntax unified
 680              		.thumb
 681              		.thumb_func
 683              	OLED2_ShowChar:
 684              	.LFB131:
 420:./Hardware/OLED2.c **** 
 421:./Hardware/OLED2.c **** /**
 422:./Hardware/OLED2.c ****   * @brief  OLED显示一个字符
 423:./Hardware/OLED2.c ****   * @param  Line 行位置，范围：1~4
 424:./Hardware/OLED2.c ****   * @param  Column 列位置，范围：1~16
 425:./Hardware/OLED2.c ****   * @param  Char 要显示的一个字符，范围：ASCII可见字符
 426:./Hardware/OLED2.c ****   * @retval 无
 427:./Hardware/OLED2.c ****   */
 428:./Hardware/OLED2.c **** void OLED2_ShowChar(uint8_t Line, uint8_t Column, char Char)
 429:./Hardware/OLED2.c **** {      	
 685              		.loc 1 429 1
 686              		.cfi_startproc
 687              		@ args = 0, pretend = 0, frame = 16
 688              		@ frame_needed = 1, uses_anonymous_args = 0
 689 0000 80B5     		push	{r7, lr}
 690              	.LCFI34:
 691              		.cfi_def_cfa_offset 8
 692              		.cfi_offset 7, -8
 693              		.cfi_offset 14, -4
 694 0002 84B0     		sub	sp, sp, #16
 695              	.LCFI35:
 696              		.cfi_def_cfa_offset 24
 697 0004 00AF     		add	r7, sp, #0
 698              	.LCFI36:
 699              		.cfi_def_cfa_register 7
 700 0006 0346     		mov	r3, r0
 701 0008 FB71     		strb	r3, [r7, #7]
 702 000a 0B46     		mov	r3, r1
 703 000c BB71     		strb	r3, [r7, #6]
 704 000e 1346     		mov	r3, r2
 705 0010 7B71     		strb	r3, [r7, #5]
 430:./Hardware/OLED2.c **** 	uint8_t i;
 431:./Hardware/OLED2.c **** 	OLED2_SetCursor((Line - 1) * 2, (Column - 1) * 8);		//设置光标位置在上半部分
 706              		.loc 1 431 2
 707 0012 FB79     		ldrb	r3, [r7, #7]
 708 0014 013B     		subs	r3, r3, #1
 709 0016 DBB2     		uxtb	r3, r3
 710 0018 5B00     		lsls	r3, r3, #1
 711 001a DAB2     		uxtb	r2, r3
 712 001c BB79     		ldrb	r3, [r7, #6]
 713 001e 013B     		subs	r3, r3, #1
 714 0020 DBB2     		uxtb	r3, r3
 715 0022 DB00     		lsls	r3, r3, #3
 716 0024 DBB2     		uxtb	r3, r3
 717 0026 1946     		mov	r1, r3
 718 0028 1046     		mov	r0, r2
 719 002a FFF7FEFF 		bl	OLED2_SetCursor
 432:./Hardware/OLED2.c **** 	for (i = 0; i < 8; i++)
 720              		.loc 1 432 9
ARM GAS  /var/folders/yl/_q9l42k90g1g4mdhbs226msm0000gn/T//cclJZZaI.s 			page 26


 721 002e 0023     		movs	r3, #0
 722 0030 FB73     		strb	r3, [r7, #15]
 723              		.loc 1 432 2
 724 0032 0EE0     		b	.L24
 725              	.L25:
 433:./Hardware/OLED2.c **** 	{
 434:./Hardware/OLED2.c **** 		OLED2_WriteData(OLED2_F08x16[Char - ' '][i]);			//显示上半部分内容
 726              		.loc 1 434 37 discriminator 3
 727 0034 7B79     		ldrb	r3, [r7, #5]	@ zero_extendqisi2
 728 0036 A3F12002 		sub	r2, r3, #32
 729              		.loc 1 434 3 discriminator 3
 730 003a FB7B     		ldrb	r3, [r7, #15]	@ zero_extendqisi2
 731 003c 1C49     		ldr	r1, .L28
 732 003e 1201     		lsls	r2, r2, #4
 733 0040 0A44     		add	r2, r2, r1
 734 0042 1344     		add	r3, r3, r2
 735 0044 1B78     		ldrb	r3, [r3]	@ zero_extendqisi2
 736 0046 1846     		mov	r0, r3
 737 0048 FFF7FEFF 		bl	OLED2_WriteData
 432:./Hardware/OLED2.c **** 	for (i = 0; i < 8; i++)
 738              		.loc 1 432 22 discriminator 3
 739 004c FB7B     		ldrb	r3, [r7, #15]	@ zero_extendqisi2
 740 004e 0133     		adds	r3, r3, #1
 741 0050 FB73     		strb	r3, [r7, #15]
 742              	.L24:
 432:./Hardware/OLED2.c **** 	for (i = 0; i < 8; i++)
 743              		.loc 1 432 2 discriminator 1
 744 0052 FB7B     		ldrb	r3, [r7, #15]	@ zero_extendqisi2
 745 0054 072B     		cmp	r3, #7
 746 0056 EDD9     		bls	.L25
 435:./Hardware/OLED2.c **** 	}
 436:./Hardware/OLED2.c **** 	OLED2_SetCursor((Line - 1) * 2 + 1, (Column - 1) * 8);	//设置光标位置在下半部分
 747              		.loc 1 436 2
 748 0058 FB79     		ldrb	r3, [r7, #7]
 749 005a 013B     		subs	r3, r3, #1
 750 005c DBB2     		uxtb	r3, r3
 751 005e 5B00     		lsls	r3, r3, #1
 752 0060 DBB2     		uxtb	r3, r3
 753 0062 0133     		adds	r3, r3, #1
 754 0064 DAB2     		uxtb	r2, r3
 755 0066 BB79     		ldrb	r3, [r7, #6]
 756 0068 013B     		subs	r3, r3, #1
 757 006a DBB2     		uxtb	r3, r3
 758 006c DB00     		lsls	r3, r3, #3
 759 006e DBB2     		uxtb	r3, r3
 760 0070 1946     		mov	r1, r3
 761 0072 1046     		mov	r0, r2
 762 0074 FFF7FEFF 		bl	OLED2_SetCursor
 437:./Hardware/OLED2.c **** 	for (i = 0; i < 8; i++)
 763              		.loc 1 437 9
 764 0078 0023     		movs	r3, #0
 765 007a FB73     		strb	r3, [r7, #15]
 766              		.loc 1 437 2
 767 007c 0FE0     		b	.L26
 768              	.L27:
 438:./Hardware/OLED2.c **** 	{
 439:./Hardware/OLED2.c **** 		OLED2_WriteData(OLED2_F08x16[Char - ' '][i + 8]);		//显示下半部分内容
ARM GAS  /var/folders/yl/_q9l42k90g1g4mdhbs226msm0000gn/T//cclJZZaI.s 			page 27


 769              		.loc 1 439 37 discriminator 3
 770 007e 7B79     		ldrb	r3, [r7, #5]	@ zero_extendqisi2
 771 0080 A3F12002 		sub	r2, r3, #32
 772              		.loc 1 439 46 discriminator 3
 773 0084 FB7B     		ldrb	r3, [r7, #15]	@ zero_extendqisi2
 774 0086 0833     		adds	r3, r3, #8
 775              		.loc 1 439 3 discriminator 3
 776 0088 0949     		ldr	r1, .L28
 777 008a 1201     		lsls	r2, r2, #4
 778 008c 0A44     		add	r2, r2, r1
 779 008e 1344     		add	r3, r3, r2
 780 0090 1B78     		ldrb	r3, [r3]	@ zero_extendqisi2
 781 0092 1846     		mov	r0, r3
 782 0094 FFF7FEFF 		bl	OLED2_WriteData
 437:./Hardware/OLED2.c **** 	for (i = 0; i < 8; i++)
 783              		.loc 1 437 22 discriminator 3
 784 0098 FB7B     		ldrb	r3, [r7, #15]	@ zero_extendqisi2
 785 009a 0133     		adds	r3, r3, #1
 786 009c FB73     		strb	r3, [r7, #15]
 787              	.L26:
 437:./Hardware/OLED2.c **** 	for (i = 0; i < 8; i++)
 788              		.loc 1 437 2 discriminator 1
 789 009e FB7B     		ldrb	r3, [r7, #15]	@ zero_extendqisi2
 790 00a0 072B     		cmp	r3, #7
 791 00a2 ECD9     		bls	.L27
 440:./Hardware/OLED2.c **** 	}
 441:./Hardware/OLED2.c **** }
 792              		.loc 1 441 1
 793 00a4 00BF     		nop
 794 00a6 00BF     		nop
 795 00a8 1037     		adds	r7, r7, #16
 796              	.LCFI37:
 797              		.cfi_def_cfa_offset 8
 798 00aa BD46     		mov	sp, r7
 799              	.LCFI38:
 800              		.cfi_def_cfa_register 13
 801              		@ sp needed
 802 00ac 80BD     		pop	{r7, pc}
 803              	.L29:
 804 00ae 00BF     		.align	2
 805              	.L28:
 806 00b0 00000000 		.word	OLED2_F08x16
 807              		.cfi_endproc
 808              	.LFE131:
 810              		.section	.text.OLED2_ShowString,"ax",%progbits
 811              		.align	1
 812              		.global	OLED2_ShowString
 813              		.syntax unified
 814              		.thumb
 815              		.thumb_func
 817              	OLED2_ShowString:
 818              	.LFB132:
 442:./Hardware/OLED2.c **** 
 443:./Hardware/OLED2.c **** /**
 444:./Hardware/OLED2.c ****   * @brief  OLED显示字符串
 445:./Hardware/OLED2.c ****   * @param  Line 起始行位置，范围：1~4
 446:./Hardware/OLED2.c ****   * @param  Column 起始列位置，范围：1~16
ARM GAS  /var/folders/yl/_q9l42k90g1g4mdhbs226msm0000gn/T//cclJZZaI.s 			page 28


 447:./Hardware/OLED2.c ****   * @param  String 要显示的字符串，范围：ASCII可见字符
 448:./Hardware/OLED2.c ****   * @retval 无
 449:./Hardware/OLED2.c ****   */
 450:./Hardware/OLED2.c **** void OLED2_ShowString(uint8_t Line, uint8_t Column, char *String)
 451:./Hardware/OLED2.c **** {
 819              		.loc 1 451 1
 820              		.cfi_startproc
 821              		@ args = 0, pretend = 0, frame = 16
 822              		@ frame_needed = 1, uses_anonymous_args = 0
 823 0000 80B5     		push	{r7, lr}
 824              	.LCFI39:
 825              		.cfi_def_cfa_offset 8
 826              		.cfi_offset 7, -8
 827              		.cfi_offset 14, -4
 828 0002 84B0     		sub	sp, sp, #16
 829              	.LCFI40:
 830              		.cfi_def_cfa_offset 24
 831 0004 00AF     		add	r7, sp, #0
 832              	.LCFI41:
 833              		.cfi_def_cfa_register 7
 834 0006 0346     		mov	r3, r0
 835 0008 3A60     		str	r2, [r7]
 836 000a FB71     		strb	r3, [r7, #7]
 837 000c 0B46     		mov	r3, r1
 838 000e BB71     		strb	r3, [r7, #6]
 452:./Hardware/OLED2.c **** 	uint8_t i;
 453:./Hardware/OLED2.c **** 	for (i = 0; String[i] != '\0'; i++)
 839              		.loc 1 453 9
 840 0010 0023     		movs	r3, #0
 841 0012 FB73     		strb	r3, [r7, #15]
 842              		.loc 1 453 2
 843 0014 0EE0     		b	.L31
 844              	.L32:
 454:./Hardware/OLED2.c **** 	{
 455:./Hardware/OLED2.c **** 		OLED2_ShowChar(Line, Column + i, String[i]);
 845              		.loc 1 455 3 discriminator 3
 846 0016 BA79     		ldrb	r2, [r7, #6]
 847 0018 FB7B     		ldrb	r3, [r7, #15]
 848 001a 1344     		add	r3, r3, r2
 849 001c D9B2     		uxtb	r1, r3
 850              		.loc 1 455 42 discriminator 3
 851 001e FB7B     		ldrb	r3, [r7, #15]	@ zero_extendqisi2
 852 0020 3A68     		ldr	r2, [r7]
 853 0022 1344     		add	r3, r3, r2
 854              		.loc 1 455 3 discriminator 3
 855 0024 1A78     		ldrb	r2, [r3]	@ zero_extendqisi2
 856 0026 FB79     		ldrb	r3, [r7, #7]	@ zero_extendqisi2
 857 0028 1846     		mov	r0, r3
 858 002a FFF7FEFF 		bl	OLED2_ShowChar
 453:./Hardware/OLED2.c **** 	{
 859              		.loc 1 453 34 discriminator 3
 860 002e FB7B     		ldrb	r3, [r7, #15]	@ zero_extendqisi2
 861 0030 0133     		adds	r3, r3, #1
 862 0032 FB73     		strb	r3, [r7, #15]
 863              	.L31:
 453:./Hardware/OLED2.c **** 	{
 864              		.loc 1 453 20 discriminator 1
ARM GAS  /var/folders/yl/_q9l42k90g1g4mdhbs226msm0000gn/T//cclJZZaI.s 			page 29


 865 0034 FB7B     		ldrb	r3, [r7, #15]	@ zero_extendqisi2
 866 0036 3A68     		ldr	r2, [r7]
 867 0038 1344     		add	r3, r3, r2
 868 003a 1B78     		ldrb	r3, [r3]	@ zero_extendqisi2
 453:./Hardware/OLED2.c **** 	{
 869              		.loc 1 453 2 discriminator 1
 870 003c 002B     		cmp	r3, #0
 871 003e EAD1     		bne	.L32
 456:./Hardware/OLED2.c **** 	}
 457:./Hardware/OLED2.c **** }
 872              		.loc 1 457 1
 873 0040 00BF     		nop
 874 0042 00BF     		nop
 875 0044 1037     		adds	r7, r7, #16
 876              	.LCFI42:
 877              		.cfi_def_cfa_offset 8
 878 0046 BD46     		mov	sp, r7
 879              	.LCFI43:
 880              		.cfi_def_cfa_register 13
 881              		@ sp needed
 882 0048 80BD     		pop	{r7, pc}
 883              		.cfi_endproc
 884              	.LFE132:
 886              		.section	.text.OLED2_Pow,"ax",%progbits
 887              		.align	1
 888              		.global	OLED2_Pow
 889              		.syntax unified
 890              		.thumb
 891              		.thumb_func
 893              	OLED2_Pow:
 894              	.LFB133:
 458:./Hardware/OLED2.c **** 
 459:./Hardware/OLED2.c **** /**
 460:./Hardware/OLED2.c ****   * @brief  OLED次方函数
 461:./Hardware/OLED2.c ****   * @retval 返回值等于X的Y次方
 462:./Hardware/OLED2.c ****   */
 463:./Hardware/OLED2.c **** uint32_t OLED2_Pow(uint32_t X, uint32_t Y)
 464:./Hardware/OLED2.c **** {
 895              		.loc 1 464 1
 896              		.cfi_startproc
 897              		@ args = 0, pretend = 0, frame = 16
 898              		@ frame_needed = 1, uses_anonymous_args = 0
 899              		@ link register save eliminated.
 900 0000 80B4     		push	{r7}
 901              	.LCFI44:
 902              		.cfi_def_cfa_offset 4
 903              		.cfi_offset 7, -4
 904 0002 85B0     		sub	sp, sp, #20
 905              	.LCFI45:
 906              		.cfi_def_cfa_offset 24
 907 0004 00AF     		add	r7, sp, #0
 908              	.LCFI46:
 909              		.cfi_def_cfa_register 7
 910 0006 7860     		str	r0, [r7, #4]
 911 0008 3960     		str	r1, [r7]
 465:./Hardware/OLED2.c **** 	uint32_t Result = 1;
 912              		.loc 1 465 11
ARM GAS  /var/folders/yl/_q9l42k90g1g4mdhbs226msm0000gn/T//cclJZZaI.s 			page 30


 913 000a 0123     		movs	r3, #1
 914 000c FB60     		str	r3, [r7, #12]
 466:./Hardware/OLED2.c **** 	while (Y--)
 915              		.loc 1 466 8
 916 000e 04E0     		b	.L34
 917              	.L35:
 467:./Hardware/OLED2.c **** 	{
 468:./Hardware/OLED2.c **** 		Result *= X;
 918              		.loc 1 468 10
 919 0010 FB68     		ldr	r3, [r7, #12]
 920 0012 7A68     		ldr	r2, [r7, #4]
 921 0014 02FB03F3 		mul	r3, r2, r3
 922 0018 FB60     		str	r3, [r7, #12]
 923              	.L34:
 466:./Hardware/OLED2.c **** 	while (Y--)
 924              		.loc 1 466 10
 925 001a 3B68     		ldr	r3, [r7]
 926 001c 5A1E     		subs	r2, r3, #1
 927 001e 3A60     		str	r2, [r7]
 466:./Hardware/OLED2.c **** 	while (Y--)
 928              		.loc 1 466 8
 929 0020 002B     		cmp	r3, #0
 930 0022 F5D1     		bne	.L35
 469:./Hardware/OLED2.c **** 	}
 470:./Hardware/OLED2.c **** 	return Result;
 931              		.loc 1 470 9
 932 0024 FB68     		ldr	r3, [r7, #12]
 471:./Hardware/OLED2.c **** }
 933              		.loc 1 471 1
 934 0026 1846     		mov	r0, r3
 935 0028 1437     		adds	r7, r7, #20
 936              	.LCFI47:
 937              		.cfi_def_cfa_offset 4
 938 002a BD46     		mov	sp, r7
 939              	.LCFI48:
 940              		.cfi_def_cfa_register 13
 941              		@ sp needed
 942 002c 5DF8047B 		ldr	r7, [sp], #4
 943              	.LCFI49:
 944              		.cfi_restore 7
 945              		.cfi_def_cfa_offset 0
 946 0030 7047     		bx	lr
 947              		.cfi_endproc
 948              	.LFE133:
 950              		.section	.text.OLED2_ShowNum,"ax",%progbits
 951              		.align	1
 952              		.global	OLED2_ShowNum
 953              		.syntax unified
 954              		.thumb
 955              		.thumb_func
 957              	OLED2_ShowNum:
 958              	.LFB134:
 472:./Hardware/OLED2.c **** 
 473:./Hardware/OLED2.c **** /**
 474:./Hardware/OLED2.c ****   * @brief  OLED显示数字（十进制，正数）
 475:./Hardware/OLED2.c ****   * @param  Line 起始行位置，范围：1~4
 476:./Hardware/OLED2.c ****   * @param  Column 起始列位置，范围：1~16
ARM GAS  /var/folders/yl/_q9l42k90g1g4mdhbs226msm0000gn/T//cclJZZaI.s 			page 31


 477:./Hardware/OLED2.c ****   * @param  Number 要显示的数字，范围：0~4294967295
 478:./Hardware/OLED2.c ****   * @param  Length 要显示数字的长度，范围：1~10
 479:./Hardware/OLED2.c ****   * @retval 无
 480:./Hardware/OLED2.c ****   */
 481:./Hardware/OLED2.c **** void OLED2_ShowNum(uint8_t Line, uint8_t Column, uint32_t Number, uint8_t Length)
 482:./Hardware/OLED2.c **** {
 959              		.loc 1 482 1
 960              		.cfi_startproc
 961              		@ args = 0, pretend = 0, frame = 16
 962              		@ frame_needed = 1, uses_anonymous_args = 0
 963 0000 90B5     		push	{r4, r7, lr}
 964              	.LCFI50:
 965              		.cfi_def_cfa_offset 12
 966              		.cfi_offset 4, -12
 967              		.cfi_offset 7, -8
 968              		.cfi_offset 14, -4
 969 0002 85B0     		sub	sp, sp, #20
 970              	.LCFI51:
 971              		.cfi_def_cfa_offset 32
 972 0004 00AF     		add	r7, sp, #0
 973              	.LCFI52:
 974              		.cfi_def_cfa_register 7
 975 0006 3A60     		str	r2, [r7]
 976 0008 1A46     		mov	r2, r3
 977 000a 0346     		mov	r3, r0
 978 000c FB71     		strb	r3, [r7, #7]
 979 000e 0B46     		mov	r3, r1
 980 0010 BB71     		strb	r3, [r7, #6]
 981 0012 1346     		mov	r3, r2
 982 0014 7B71     		strb	r3, [r7, #5]
 483:./Hardware/OLED2.c **** 	uint8_t i;
 484:./Hardware/OLED2.c **** 	for (i = 0; i < Length; i++)							
 983              		.loc 1 484 9
 984 0016 0023     		movs	r3, #0
 985 0018 FB73     		strb	r3, [r7, #15]
 986              		.loc 1 484 2
 987 001a 23E0     		b	.L38
 988              	.L39:
 485:./Hardware/OLED2.c **** 	{
 486:./Hardware/OLED2.c **** 		OLED2_ShowChar(Line, Column + i, Number / OLED2_Pow(10, Length - i - 1) % 10 + '0');
 989              		.loc 1 486 3 discriminator 3
 990 001c BA79     		ldrb	r2, [r7, #6]
 991 001e FB7B     		ldrb	r3, [r7, #15]
 992 0020 1344     		add	r3, r3, r2
 993 0022 DCB2     		uxtb	r4, r3
 994              		.loc 1 486 66 discriminator 3
 995 0024 7A79     		ldrb	r2, [r7, #5]	@ zero_extendqisi2
 996 0026 FB7B     		ldrb	r3, [r7, #15]	@ zero_extendqisi2
 997 0028 D31A     		subs	r3, r2, r3
 998              		.loc 1 486 70 discriminator 3
 999 002a 013B     		subs	r3, r3, #1
 1000              		.loc 1 486 45 discriminator 3
 1001 002c 1946     		mov	r1, r3
 1002 002e 0A20     		movs	r0, #10
 1003 0030 FFF7FEFF 		bl	OLED2_Pow
 1004 0034 0246     		mov	r2, r0
 1005              		.loc 1 486 43 discriminator 3
ARM GAS  /var/folders/yl/_q9l42k90g1g4mdhbs226msm0000gn/T//cclJZZaI.s 			page 32


 1006 0036 3B68     		ldr	r3, [r7]
 1007 0038 B3FBF2F1 		udiv	r1, r3, r2
 1008              		.loc 1 486 75 discriminator 3
 1009 003c 0E4B     		ldr	r3, .L40
 1010 003e A3FB0123 		umull	r2, r3, r3, r1
 1011 0042 DA08     		lsrs	r2, r3, #3
 1012 0044 1346     		mov	r3, r2
 1013 0046 9B00     		lsls	r3, r3, #2
 1014 0048 1344     		add	r3, r3, r2
 1015 004a 5B00     		lsls	r3, r3, #1
 1016 004c CA1A     		subs	r2, r1, r3
 1017              		.loc 1 486 3 discriminator 3
 1018 004e D3B2     		uxtb	r3, r2
 1019 0050 3033     		adds	r3, r3, #48
 1020 0052 DAB2     		uxtb	r2, r3
 1021 0054 FB79     		ldrb	r3, [r7, #7]	@ zero_extendqisi2
 1022 0056 2146     		mov	r1, r4
 1023 0058 1846     		mov	r0, r3
 1024 005a FFF7FEFF 		bl	OLED2_ShowChar
 484:./Hardware/OLED2.c **** 	{
 1025              		.loc 1 484 27 discriminator 3
 1026 005e FB7B     		ldrb	r3, [r7, #15]	@ zero_extendqisi2
 1027 0060 0133     		adds	r3, r3, #1
 1028 0062 FB73     		strb	r3, [r7, #15]
 1029              	.L38:
 484:./Hardware/OLED2.c **** 	{
 1030              		.loc 1 484 2 discriminator 1
 1031 0064 FA7B     		ldrb	r2, [r7, #15]	@ zero_extendqisi2
 1032 0066 7B79     		ldrb	r3, [r7, #5]	@ zero_extendqisi2
 1033 0068 9A42     		cmp	r2, r3
 1034 006a D7D3     		bcc	.L39
 487:./Hardware/OLED2.c **** 	}
 488:./Hardware/OLED2.c **** }
 1035              		.loc 1 488 1
 1036 006c 00BF     		nop
 1037 006e 00BF     		nop
 1038 0070 1437     		adds	r7, r7, #20
 1039              	.LCFI53:
 1040              		.cfi_def_cfa_offset 12
 1041 0072 BD46     		mov	sp, r7
 1042              	.LCFI54:
 1043              		.cfi_def_cfa_register 13
 1044              		@ sp needed
 1045 0074 90BD     		pop	{r4, r7, pc}
 1046              	.L41:
 1047 0076 00BF     		.align	2
 1048              	.L40:
 1049 0078 CDCCCCCC 		.word	-858993459
 1050              		.cfi_endproc
 1051              	.LFE134:
 1053              		.section	.text.OLED2_ShowSignedNum,"ax",%progbits
 1054              		.align	1
 1055              		.global	OLED2_ShowSignedNum
 1056              		.syntax unified
 1057              		.thumb
 1058              		.thumb_func
 1060              	OLED2_ShowSignedNum:
ARM GAS  /var/folders/yl/_q9l42k90g1g4mdhbs226msm0000gn/T//cclJZZaI.s 			page 33


 1061              	.LFB135:
 489:./Hardware/OLED2.c **** 
 490:./Hardware/OLED2.c **** /**
 491:./Hardware/OLED2.c ****   * @brief  OLED显示数字（十进制，带符号数）
 492:./Hardware/OLED2.c ****   * @param  Line 起始行位置，范围：1~4
 493:./Hardware/OLED2.c ****   * @param  Column 起始列位置，范围：1~16
 494:./Hardware/OLED2.c ****   * @param  Number 要显示的数字，范围：-2147483648~2147483647
 495:./Hardware/OLED2.c ****   * @param  Length 要显示数字的长度，范围：1~10
 496:./Hardware/OLED2.c ****   * @retval 无
 497:./Hardware/OLED2.c ****   */
 498:./Hardware/OLED2.c **** void OLED2_ShowSignedNum(uint8_t Line, uint8_t Column, int32_t Number, uint8_t Length)
 499:./Hardware/OLED2.c **** {
 1062              		.loc 1 499 1
 1063              		.cfi_startproc
 1064              		@ args = 0, pretend = 0, frame = 16
 1065              		@ frame_needed = 1, uses_anonymous_args = 0
 1066 0000 90B5     		push	{r4, r7, lr}
 1067              	.LCFI55:
 1068              		.cfi_def_cfa_offset 12
 1069              		.cfi_offset 4, -12
 1070              		.cfi_offset 7, -8
 1071              		.cfi_offset 14, -4
 1072 0002 85B0     		sub	sp, sp, #20
 1073              	.LCFI56:
 1074              		.cfi_def_cfa_offset 32
 1075 0004 00AF     		add	r7, sp, #0
 1076              	.LCFI57:
 1077              		.cfi_def_cfa_register 7
 1078 0006 3A60     		str	r2, [r7]
 1079 0008 1A46     		mov	r2, r3
 1080 000a 0346     		mov	r3, r0
 1081 000c FB71     		strb	r3, [r7, #7]
 1082 000e 0B46     		mov	r3, r1
 1083 0010 BB71     		strb	r3, [r7, #6]
 1084 0012 1346     		mov	r3, r2
 1085 0014 7B71     		strb	r3, [r7, #5]
 500:./Hardware/OLED2.c **** 	uint8_t i;
 501:./Hardware/OLED2.c **** 	uint32_t Number1;
 502:./Hardware/OLED2.c **** 	if (Number >= 0)
 1086              		.loc 1 502 5
 1087 0016 3B68     		ldr	r3, [r7]
 1088 0018 002B     		cmp	r3, #0
 1089 001a 08DB     		blt	.L43
 503:./Hardware/OLED2.c **** 	{
 504:./Hardware/OLED2.c **** 		OLED2_ShowChar(Line, Column, '+');
 1090              		.loc 1 504 3
 1091 001c B979     		ldrb	r1, [r7, #6]	@ zero_extendqisi2
 1092 001e FB79     		ldrb	r3, [r7, #7]	@ zero_extendqisi2
 1093 0020 2B22     		movs	r2, #43
 1094 0022 1846     		mov	r0, r3
 1095 0024 FFF7FEFF 		bl	OLED2_ShowChar
 505:./Hardware/OLED2.c **** 		Number1 = Number;
 1096              		.loc 1 505 11
 1097 0028 3B68     		ldr	r3, [r7]
 1098 002a BB60     		str	r3, [r7, #8]
 1099 002c 08E0     		b	.L44
 1100              	.L43:
ARM GAS  /var/folders/yl/_q9l42k90g1g4mdhbs226msm0000gn/T//cclJZZaI.s 			page 34


 506:./Hardware/OLED2.c **** 	}
 507:./Hardware/OLED2.c **** 	else
 508:./Hardware/OLED2.c **** 	{
 509:./Hardware/OLED2.c **** 		OLED2_ShowChar(Line, Column, '-');
 1101              		.loc 1 509 3
 1102 002e B979     		ldrb	r1, [r7, #6]	@ zero_extendqisi2
 1103 0030 FB79     		ldrb	r3, [r7, #7]	@ zero_extendqisi2
 1104 0032 2D22     		movs	r2, #45
 1105 0034 1846     		mov	r0, r3
 1106 0036 FFF7FEFF 		bl	OLED2_ShowChar
 510:./Hardware/OLED2.c **** 		Number1 = -Number;
 1107              		.loc 1 510 13
 1108 003a 3B68     		ldr	r3, [r7]
 1109 003c 5B42     		rsbs	r3, r3, #0
 1110              		.loc 1 510 11
 1111 003e BB60     		str	r3, [r7, #8]
 1112              	.L44:
 511:./Hardware/OLED2.c **** 	}
 512:./Hardware/OLED2.c **** 	for (i = 0; i < Length; i++)							
 1113              		.loc 1 512 9
 1114 0040 0023     		movs	r3, #0
 1115 0042 FB73     		strb	r3, [r7, #15]
 1116              		.loc 1 512 2
 1117 0044 25E0     		b	.L45
 1118              	.L46:
 513:./Hardware/OLED2.c **** 	{
 514:./Hardware/OLED2.c **** 		OLED2_ShowChar(Line, Column + i + 1, Number1 / OLED2_Pow(10, Length - i - 1) % 10 + '0');
 1119              		.loc 1 514 31 discriminator 3
 1120 0046 BA79     		ldrb	r2, [r7, #6]
 1121 0048 FB7B     		ldrb	r3, [r7, #15]
 1122 004a 1344     		add	r3, r3, r2
 1123 004c DBB2     		uxtb	r3, r3
 1124              		.loc 1 514 3 discriminator 3
 1125 004e 0133     		adds	r3, r3, #1
 1126 0050 DCB2     		uxtb	r4, r3
 1127              		.loc 1 514 71 discriminator 3
 1128 0052 7A79     		ldrb	r2, [r7, #5]	@ zero_extendqisi2
 1129 0054 FB7B     		ldrb	r3, [r7, #15]	@ zero_extendqisi2
 1130 0056 D31A     		subs	r3, r2, r3
 1131              		.loc 1 514 75 discriminator 3
 1132 0058 013B     		subs	r3, r3, #1
 1133              		.loc 1 514 50 discriminator 3
 1134 005a 1946     		mov	r1, r3
 1135 005c 0A20     		movs	r0, #10
 1136 005e FFF7FEFF 		bl	OLED2_Pow
 1137 0062 0246     		mov	r2, r0
 1138              		.loc 1 514 48 discriminator 3
 1139 0064 BB68     		ldr	r3, [r7, #8]
 1140 0066 B3FBF2F1 		udiv	r1, r3, r2
 1141              		.loc 1 514 80 discriminator 3
 1142 006a 0E4B     		ldr	r3, .L47
 1143 006c A3FB0123 		umull	r2, r3, r3, r1
 1144 0070 DA08     		lsrs	r2, r3, #3
 1145 0072 1346     		mov	r3, r2
 1146 0074 9B00     		lsls	r3, r3, #2
 1147 0076 1344     		add	r3, r3, r2
 1148 0078 5B00     		lsls	r3, r3, #1
ARM GAS  /var/folders/yl/_q9l42k90g1g4mdhbs226msm0000gn/T//cclJZZaI.s 			page 35


 1149 007a CA1A     		subs	r2, r1, r3
 1150              		.loc 1 514 3 discriminator 3
 1151 007c D3B2     		uxtb	r3, r2
 1152 007e 3033     		adds	r3, r3, #48
 1153 0080 DAB2     		uxtb	r2, r3
 1154 0082 FB79     		ldrb	r3, [r7, #7]	@ zero_extendqisi2
 1155 0084 2146     		mov	r1, r4
 1156 0086 1846     		mov	r0, r3
 1157 0088 FFF7FEFF 		bl	OLED2_ShowChar
 512:./Hardware/OLED2.c **** 	{
 1158              		.loc 1 512 27 discriminator 3
 1159 008c FB7B     		ldrb	r3, [r7, #15]	@ zero_extendqisi2
 1160 008e 0133     		adds	r3, r3, #1
 1161 0090 FB73     		strb	r3, [r7, #15]
 1162              	.L45:
 512:./Hardware/OLED2.c **** 	{
 1163              		.loc 1 512 2 discriminator 1
 1164 0092 FA7B     		ldrb	r2, [r7, #15]	@ zero_extendqisi2
 1165 0094 7B79     		ldrb	r3, [r7, #5]	@ zero_extendqisi2
 1166 0096 9A42     		cmp	r2, r3
 1167 0098 D5D3     		bcc	.L46
 515:./Hardware/OLED2.c **** 	}
 516:./Hardware/OLED2.c **** }
 1168              		.loc 1 516 1
 1169 009a 00BF     		nop
 1170 009c 00BF     		nop
 1171 009e 1437     		adds	r7, r7, #20
 1172              	.LCFI58:
 1173              		.cfi_def_cfa_offset 12
 1174 00a0 BD46     		mov	sp, r7
 1175              	.LCFI59:
 1176              		.cfi_def_cfa_register 13
 1177              		@ sp needed
 1178 00a2 90BD     		pop	{r4, r7, pc}
 1179              	.L48:
 1180              		.align	2
 1181              	.L47:
 1182 00a4 CDCCCCCC 		.word	-858993459
 1183              		.cfi_endproc
 1184              	.LFE135:
 1186              		.section	.text.OLED2_ShowHexNum,"ax",%progbits
 1187              		.align	1
 1188              		.global	OLED2_ShowHexNum
 1189              		.syntax unified
 1190              		.thumb
 1191              		.thumb_func
 1193              	OLED2_ShowHexNum:
 1194              	.LFB136:
 517:./Hardware/OLED2.c **** 
 518:./Hardware/OLED2.c **** /**
 519:./Hardware/OLED2.c ****   * @brief  OLED显示数字（十六进制，正数）
 520:./Hardware/OLED2.c ****   * @param  Line 起始行位置，范围：1~4
 521:./Hardware/OLED2.c ****   * @param  Column 起始列位置，范围：1~16
 522:./Hardware/OLED2.c ****   * @param  Number 要显示的数字，范围：0~0xFFFFFFFF
 523:./Hardware/OLED2.c ****   * @param  Length 要显示数字的长度，范围：1~8
 524:./Hardware/OLED2.c ****   * @retval 无
 525:./Hardware/OLED2.c ****   */
ARM GAS  /var/folders/yl/_q9l42k90g1g4mdhbs226msm0000gn/T//cclJZZaI.s 			page 36


 526:./Hardware/OLED2.c **** void OLED2_ShowHexNum(uint8_t Line, uint8_t Column, uint32_t Number, uint8_t Length)
 527:./Hardware/OLED2.c **** {
 1195              		.loc 1 527 1
 1196              		.cfi_startproc
 1197              		@ args = 0, pretend = 0, frame = 16
 1198              		@ frame_needed = 1, uses_anonymous_args = 0
 1199 0000 80B5     		push	{r7, lr}
 1200              	.LCFI60:
 1201              		.cfi_def_cfa_offset 8
 1202              		.cfi_offset 7, -8
 1203              		.cfi_offset 14, -4
 1204 0002 84B0     		sub	sp, sp, #16
 1205              	.LCFI61:
 1206              		.cfi_def_cfa_offset 24
 1207 0004 00AF     		add	r7, sp, #0
 1208              	.LCFI62:
 1209              		.cfi_def_cfa_register 7
 1210 0006 3A60     		str	r2, [r7]
 1211 0008 1A46     		mov	r2, r3
 1212 000a 0346     		mov	r3, r0
 1213 000c FB71     		strb	r3, [r7, #7]
 1214 000e 0B46     		mov	r3, r1
 1215 0010 BB71     		strb	r3, [r7, #6]
 1216 0012 1346     		mov	r3, r2
 1217 0014 7B71     		strb	r3, [r7, #5]
 528:./Hardware/OLED2.c **** 	uint8_t i, SingleNumber;
 529:./Hardware/OLED2.c **** 	for (i = 0; i < Length; i++)							
 1218              		.loc 1 529 9
 1219 0016 0023     		movs	r3, #0
 1220 0018 FB73     		strb	r3, [r7, #15]
 1221              		.loc 1 529 2
 1222 001a 2CE0     		b	.L50
 1223              	.L53:
 530:./Hardware/OLED2.c **** 	{
 531:./Hardware/OLED2.c **** 		SingleNumber = Number / OLED2_Pow(16, Length - i - 1) % 16;
 1224              		.loc 1 531 48
 1225 001c 7A79     		ldrb	r2, [r7, #5]	@ zero_extendqisi2
 1226 001e FB7B     		ldrb	r3, [r7, #15]	@ zero_extendqisi2
 1227 0020 D31A     		subs	r3, r2, r3
 1228              		.loc 1 531 52
 1229 0022 013B     		subs	r3, r3, #1
 1230              		.loc 1 531 27
 1231 0024 1946     		mov	r1, r3
 1232 0026 1020     		movs	r0, #16
 1233 0028 FFF7FEFF 		bl	OLED2_Pow
 1234 002c 0246     		mov	r2, r0
 1235              		.loc 1 531 25
 1236 002e 3B68     		ldr	r3, [r7]
 1237 0030 B3FBF2F3 		udiv	r3, r3, r2
 1238              		.loc 1 531 57
 1239 0034 DBB2     		uxtb	r3, r3
 1240              		.loc 1 531 16
 1241 0036 03F00F03 		and	r3, r3, #15
 1242 003a BB73     		strb	r3, [r7, #14]
 532:./Hardware/OLED2.c **** 		if (SingleNumber < 10)
 1243              		.loc 1 532 6
 1244 003c BB7B     		ldrb	r3, [r7, #14]	@ zero_extendqisi2
ARM GAS  /var/folders/yl/_q9l42k90g1g4mdhbs226msm0000gn/T//cclJZZaI.s 			page 37


 1245 003e 092B     		cmp	r3, #9
 1246 0040 0BD8     		bhi	.L51
 533:./Hardware/OLED2.c **** 		{
 534:./Hardware/OLED2.c **** 			OLED2_ShowChar(Line, Column + i, SingleNumber + '0');
 1247              		.loc 1 534 4
 1248 0042 BA79     		ldrb	r2, [r7, #6]
 1249 0044 FB7B     		ldrb	r3, [r7, #15]
 1250 0046 1344     		add	r3, r3, r2
 1251 0048 D9B2     		uxtb	r1, r3
 1252 004a BB7B     		ldrb	r3, [r7, #14]
 1253 004c 3033     		adds	r3, r3, #48
 1254 004e DAB2     		uxtb	r2, r3
 1255 0050 FB79     		ldrb	r3, [r7, #7]	@ zero_extendqisi2
 1256 0052 1846     		mov	r0, r3
 1257 0054 FFF7FEFF 		bl	OLED2_ShowChar
 1258 0058 0AE0     		b	.L52
 1259              	.L51:
 535:./Hardware/OLED2.c **** 		}
 536:./Hardware/OLED2.c **** 		else
 537:./Hardware/OLED2.c **** 		{
 538:./Hardware/OLED2.c **** 			OLED2_ShowChar(Line, Column + i, SingleNumber - 10 + 'A');
 1260              		.loc 1 538 4
 1261 005a BA79     		ldrb	r2, [r7, #6]
 1262 005c FB7B     		ldrb	r3, [r7, #15]
 1263 005e 1344     		add	r3, r3, r2
 1264 0060 D9B2     		uxtb	r1, r3
 1265 0062 BB7B     		ldrb	r3, [r7, #14]
 1266 0064 3733     		adds	r3, r3, #55
 1267 0066 DAB2     		uxtb	r2, r3
 1268 0068 FB79     		ldrb	r3, [r7, #7]	@ zero_extendqisi2
 1269 006a 1846     		mov	r0, r3
 1270 006c FFF7FEFF 		bl	OLED2_ShowChar
 1271              	.L52:
 529:./Hardware/OLED2.c **** 	{
 1272              		.loc 1 529 27 discriminator 2
 1273 0070 FB7B     		ldrb	r3, [r7, #15]	@ zero_extendqisi2
 1274 0072 0133     		adds	r3, r3, #1
 1275 0074 FB73     		strb	r3, [r7, #15]
 1276              	.L50:
 529:./Hardware/OLED2.c **** 	{
 1277              		.loc 1 529 2 discriminator 1
 1278 0076 FA7B     		ldrb	r2, [r7, #15]	@ zero_extendqisi2
 1279 0078 7B79     		ldrb	r3, [r7, #5]	@ zero_extendqisi2
 1280 007a 9A42     		cmp	r2, r3
 1281 007c CED3     		bcc	.L53
 539:./Hardware/OLED2.c **** 		}
 540:./Hardware/OLED2.c **** 	}
 541:./Hardware/OLED2.c **** }
 1282              		.loc 1 541 1
 1283 007e 00BF     		nop
 1284 0080 00BF     		nop
 1285 0082 1037     		adds	r7, r7, #16
 1286              	.LCFI63:
 1287              		.cfi_def_cfa_offset 8
 1288 0084 BD46     		mov	sp, r7
 1289              	.LCFI64:
 1290              		.cfi_def_cfa_register 13
ARM GAS  /var/folders/yl/_q9l42k90g1g4mdhbs226msm0000gn/T//cclJZZaI.s 			page 38


 1291              		@ sp needed
 1292 0086 80BD     		pop	{r7, pc}
 1293              		.cfi_endproc
 1294              	.LFE136:
 1296              		.section	.text.OLED2_ShowBinNum,"ax",%progbits
 1297              		.align	1
 1298              		.global	OLED2_ShowBinNum
 1299              		.syntax unified
 1300              		.thumb
 1301              		.thumb_func
 1303              	OLED2_ShowBinNum:
 1304              	.LFB137:
 542:./Hardware/OLED2.c **** 
 543:./Hardware/OLED2.c **** /**
 544:./Hardware/OLED2.c ****   * @brief  OLED显示数字（二进制，正数）
 545:./Hardware/OLED2.c ****   * @param  Line 起始行位置，范围：1~4
 546:./Hardware/OLED2.c ****   * @param  Column 起始列位置，范围：1~16
 547:./Hardware/OLED2.c ****   * @param  Number 要显示的数字，范围：0~1111 1111 1111 1111
 548:./Hardware/OLED2.c ****   * @param  Length 要显示数字的长度，范围：1~16
 549:./Hardware/OLED2.c ****   * @retval 无
 550:./Hardware/OLED2.c ****   */
 551:./Hardware/OLED2.c **** void OLED2_ShowBinNum(uint8_t Line, uint8_t Column, uint32_t Number, uint8_t Length)
 552:./Hardware/OLED2.c **** {
 1305              		.loc 1 552 1
 1306              		.cfi_startproc
 1307              		@ args = 0, pretend = 0, frame = 16
 1308              		@ frame_needed = 1, uses_anonymous_args = 0
 1309 0000 90B5     		push	{r4, r7, lr}
 1310              	.LCFI65:
 1311              		.cfi_def_cfa_offset 12
 1312              		.cfi_offset 4, -12
 1313              		.cfi_offset 7, -8
 1314              		.cfi_offset 14, -4
 1315 0002 85B0     		sub	sp, sp, #20
 1316              	.LCFI66:
 1317              		.cfi_def_cfa_offset 32
 1318 0004 00AF     		add	r7, sp, #0
 1319              	.LCFI67:
 1320              		.cfi_def_cfa_register 7
 1321 0006 3A60     		str	r2, [r7]
 1322 0008 1A46     		mov	r2, r3
 1323 000a 0346     		mov	r3, r0
 1324 000c FB71     		strb	r3, [r7, #7]
 1325 000e 0B46     		mov	r3, r1
 1326 0010 BB71     		strb	r3, [r7, #6]
 1327 0012 1346     		mov	r3, r2
 1328 0014 7B71     		strb	r3, [r7, #5]
 553:./Hardware/OLED2.c **** 	uint8_t i;
 554:./Hardware/OLED2.c **** 	for (i = 0; i < Length; i++)							
 1329              		.loc 1 554 9
 1330 0016 0023     		movs	r3, #0
 1331 0018 FB73     		strb	r3, [r7, #15]
 1332              		.loc 1 554 2
 1333 001a 1DE0     		b	.L55
 1334              	.L56:
 555:./Hardware/OLED2.c **** 	{
 556:./Hardware/OLED2.c **** 		OLED2_ShowChar(Line, Column + i, Number / OLED2_Pow(2, Length - i - 1) % 2 + '0');
ARM GAS  /var/folders/yl/_q9l42k90g1g4mdhbs226msm0000gn/T//cclJZZaI.s 			page 39


 1335              		.loc 1 556 3 discriminator 3
 1336 001c BA79     		ldrb	r2, [r7, #6]
 1337 001e FB7B     		ldrb	r3, [r7, #15]
 1338 0020 1344     		add	r3, r3, r2
 1339 0022 DCB2     		uxtb	r4, r3
 1340              		.loc 1 556 65 discriminator 3
 1341 0024 7A79     		ldrb	r2, [r7, #5]	@ zero_extendqisi2
 1342 0026 FB7B     		ldrb	r3, [r7, #15]	@ zero_extendqisi2
 1343 0028 D31A     		subs	r3, r2, r3
 1344              		.loc 1 556 69 discriminator 3
 1345 002a 013B     		subs	r3, r3, #1
 1346              		.loc 1 556 45 discriminator 3
 1347 002c 1946     		mov	r1, r3
 1348 002e 0220     		movs	r0, #2
 1349 0030 FFF7FEFF 		bl	OLED2_Pow
 1350 0034 0246     		mov	r2, r0
 1351              		.loc 1 556 43 discriminator 3
 1352 0036 3B68     		ldr	r3, [r7]
 1353 0038 B3FBF2F3 		udiv	r3, r3, r2
 1354              		.loc 1 556 74 discriminator 3
 1355 003c DBB2     		uxtb	r3, r3
 1356 003e 03F00103 		and	r3, r3, #1
 1357 0042 DBB2     		uxtb	r3, r3
 1358              		.loc 1 556 3 discriminator 3
 1359 0044 3033     		adds	r3, r3, #48
 1360 0046 DAB2     		uxtb	r2, r3
 1361 0048 FB79     		ldrb	r3, [r7, #7]	@ zero_extendqisi2
 1362 004a 2146     		mov	r1, r4
 1363 004c 1846     		mov	r0, r3
 1364 004e FFF7FEFF 		bl	OLED2_ShowChar
 554:./Hardware/OLED2.c **** 	{
 1365              		.loc 1 554 27 discriminator 3
 1366 0052 FB7B     		ldrb	r3, [r7, #15]	@ zero_extendqisi2
 1367 0054 0133     		adds	r3, r3, #1
 1368 0056 FB73     		strb	r3, [r7, #15]
 1369              	.L55:
 554:./Hardware/OLED2.c **** 	{
 1370              		.loc 1 554 2 discriminator 1
 1371 0058 FA7B     		ldrb	r2, [r7, #15]	@ zero_extendqisi2
 1372 005a 7B79     		ldrb	r3, [r7, #5]	@ zero_extendqisi2
 1373 005c 9A42     		cmp	r2, r3
 1374 005e DDD3     		bcc	.L56
 557:./Hardware/OLED2.c **** 	}
 558:./Hardware/OLED2.c **** }
 1375              		.loc 1 558 1
 1376 0060 00BF     		nop
 1377 0062 00BF     		nop
 1378 0064 1437     		adds	r7, r7, #20
 1379              	.LCFI68:
 1380              		.cfi_def_cfa_offset 12
 1381 0066 BD46     		mov	sp, r7
 1382              	.LCFI69:
 1383              		.cfi_def_cfa_register 13
 1384              		@ sp needed
 1385 0068 90BD     		pop	{r4, r7, pc}
 1386              		.cfi_endproc
 1387              	.LFE137:
ARM GAS  /var/folders/yl/_q9l42k90g1g4mdhbs226msm0000gn/T//cclJZZaI.s 			page 40


 1389              		.section	.text.OLED2_Init,"ax",%progbits
 1390              		.align	1
 1391              		.global	OLED2_Init
 1392              		.syntax unified
 1393              		.thumb
 1394              		.thumb_func
 1396              	OLED2_Init:
 1397              	.LFB138:
 559:./Hardware/OLED2.c **** 
 560:./Hardware/OLED2.c **** /**
 561:./Hardware/OLED2.c ****   * @brief  OLED初始化
 562:./Hardware/OLED2.c ****   * @param  无
 563:./Hardware/OLED2.c ****   * @retval 无
 564:./Hardware/OLED2.c ****   */
 565:./Hardware/OLED2.c **** void OLED2_Init(void)
 566:./Hardware/OLED2.c **** {
 1398              		.loc 1 566 1
 1399              		.cfi_startproc
 1400              		@ args = 0, pretend = 0, frame = 8
 1401              		@ frame_needed = 1, uses_anonymous_args = 0
 1402 0000 80B5     		push	{r7, lr}
 1403              	.LCFI70:
 1404              		.cfi_def_cfa_offset 8
 1405              		.cfi_offset 7, -8
 1406              		.cfi_offset 14, -4
 1407 0002 82B0     		sub	sp, sp, #8
 1408              	.LCFI71:
 1409              		.cfi_def_cfa_offset 16
 1410 0004 00AF     		add	r7, sp, #0
 1411              	.LCFI72:
 1412              		.cfi_def_cfa_register 7
 567:./Hardware/OLED2.c **** 	uint32_t i, j;
 568:./Hardware/OLED2.c **** 	
 569:./Hardware/OLED2.c **** 	for (i = 0; i < 1000; i++)			//上电延时
 1413              		.loc 1 569 9
 1414 0006 0023     		movs	r3, #0
 1415 0008 7B60     		str	r3, [r7, #4]
 1416              		.loc 1 569 2
 1417 000a 0CE0     		b	.L58
 1418              	.L61:
 570:./Hardware/OLED2.c **** 	{
 571:./Hardware/OLED2.c **** 		for (j = 0; j < 1000; j++);
 1419              		.loc 1 571 10
 1420 000c 0023     		movs	r3, #0
 1421 000e 3B60     		str	r3, [r7]
 1422              		.loc 1 571 3
 1423 0010 02E0     		b	.L59
 1424              	.L60:
 1425              		.loc 1 571 26 discriminator 3
 1426 0012 3B68     		ldr	r3, [r7]
 1427 0014 0133     		adds	r3, r3, #1
 1428 0016 3B60     		str	r3, [r7]
 1429              	.L59:
 1430              		.loc 1 571 3 discriminator 1
 1431 0018 3B68     		ldr	r3, [r7]
 1432 001a B3F57A7F 		cmp	r3, #1000
 1433 001e F8D3     		bcc	.L60
ARM GAS  /var/folders/yl/_q9l42k90g1g4mdhbs226msm0000gn/T//cclJZZaI.s 			page 41


 569:./Hardware/OLED2.c **** 	{
 1434              		.loc 1 569 25 discriminator 2
 1435 0020 7B68     		ldr	r3, [r7, #4]
 1436 0022 0133     		adds	r3, r3, #1
 1437 0024 7B60     		str	r3, [r7, #4]
 1438              	.L58:
 569:./Hardware/OLED2.c **** 	{
 1439              		.loc 1 569 2 discriminator 1
 1440 0026 7B68     		ldr	r3, [r7, #4]
 1441 0028 B3F57A7F 		cmp	r3, #1000
 1442 002c EED3     		bcc	.L61
 572:./Hardware/OLED2.c **** 	}
 573:./Hardware/OLED2.c **** 	
 574:./Hardware/OLED2.c **** 	OLED2_I2C_Init();			//端口初始化
 1443              		.loc 1 574 2
 1444 002e FFF7FEFF 		bl	OLED2_I2C_Init
 575:./Hardware/OLED2.c **** 	
 576:./Hardware/OLED2.c **** 	OLED2_WriteCommand(0xAE);	//关闭显示
 1445              		.loc 1 576 2
 1446 0032 AE20     		movs	r0, #174
 1447 0034 FFF7FEFF 		bl	OLED2_WriteCommand
 577:./Hardware/OLED2.c **** 	
 578:./Hardware/OLED2.c **** 	OLED2_WriteCommand(0xD5);	//设置显示时钟分频比/振荡器频率
 1448              		.loc 1 578 2
 1449 0038 D520     		movs	r0, #213
 1450 003a FFF7FEFF 		bl	OLED2_WriteCommand
 579:./Hardware/OLED2.c **** 	OLED2_WriteCommand(0x80);
 1451              		.loc 1 579 2
 1452 003e 8020     		movs	r0, #128
 1453 0040 FFF7FEFF 		bl	OLED2_WriteCommand
 580:./Hardware/OLED2.c **** 	
 581:./Hardware/OLED2.c **** 	OLED2_WriteCommand(0xA8);	//设置多路复用率
 1454              		.loc 1 581 2
 1455 0044 A820     		movs	r0, #168
 1456 0046 FFF7FEFF 		bl	OLED2_WriteCommand
 582:./Hardware/OLED2.c **** 	OLED2_WriteCommand(0x3F);
 1457              		.loc 1 582 2
 1458 004a 3F20     		movs	r0, #63
 1459 004c FFF7FEFF 		bl	OLED2_WriteCommand
 583:./Hardware/OLED2.c **** 	
 584:./Hardware/OLED2.c **** 	OLED2_WriteCommand(0xD3);	//设置显示偏移
 1460              		.loc 1 584 2
 1461 0050 D320     		movs	r0, #211
 1462 0052 FFF7FEFF 		bl	OLED2_WriteCommand
 585:./Hardware/OLED2.c **** 	OLED2_WriteCommand(0x00);
 1463              		.loc 1 585 2
 1464 0056 0020     		movs	r0, #0
 1465 0058 FFF7FEFF 		bl	OLED2_WriteCommand
 586:./Hardware/OLED2.c **** 	
 587:./Hardware/OLED2.c **** 	OLED2_WriteCommand(0x40);	//设置显示开始行
 1466              		.loc 1 587 2
 1467 005c 4020     		movs	r0, #64
 1468 005e FFF7FEFF 		bl	OLED2_WriteCommand
 588:./Hardware/OLED2.c **** 	
 589:./Hardware/OLED2.c **** 	OLED2_WriteCommand(0xA1);	//设置左右方向，0xA1正常 0xA0左右反置
 1469              		.loc 1 589 2
 1470 0062 A120     		movs	r0, #161
ARM GAS  /var/folders/yl/_q9l42k90g1g4mdhbs226msm0000gn/T//cclJZZaI.s 			page 42


 1471 0064 FFF7FEFF 		bl	OLED2_WriteCommand
 590:./Hardware/OLED2.c **** 	
 591:./Hardware/OLED2.c **** 	OLED2_WriteCommand(0xC8);	//设置上下方向，0xC8正常 0xC0上下反置
 1472              		.loc 1 591 2
 1473 0068 C820     		movs	r0, #200
 1474 006a FFF7FEFF 		bl	OLED2_WriteCommand
 592:./Hardware/OLED2.c **** 
 593:./Hardware/OLED2.c **** 	OLED2_WriteCommand(0xDA);	//设置COM引脚硬件配置
 1475              		.loc 1 593 2
 1476 006e DA20     		movs	r0, #218
 1477 0070 FFF7FEFF 		bl	OLED2_WriteCommand
 594:./Hardware/OLED2.c **** 	OLED2_WriteCommand(0x12);
 1478              		.loc 1 594 2
 1479 0074 1220     		movs	r0, #18
 1480 0076 FFF7FEFF 		bl	OLED2_WriteCommand
 595:./Hardware/OLED2.c **** 	
 596:./Hardware/OLED2.c **** 	OLED2_WriteCommand(0x81);	//设置对比度控制
 1481              		.loc 1 596 2
 1482 007a 8120     		movs	r0, #129
 1483 007c FFF7FEFF 		bl	OLED2_WriteCommand
 597:./Hardware/OLED2.c **** 	OLED2_WriteCommand(0xCF);
 1484              		.loc 1 597 2
 1485 0080 CF20     		movs	r0, #207
 1486 0082 FFF7FEFF 		bl	OLED2_WriteCommand
 598:./Hardware/OLED2.c **** 
 599:./Hardware/OLED2.c **** 	OLED2_WriteCommand(0xD9);	//设置预充电周期
 1487              		.loc 1 599 2
 1488 0086 D920     		movs	r0, #217
 1489 0088 FFF7FEFF 		bl	OLED2_WriteCommand
 600:./Hardware/OLED2.c **** 	OLED2_WriteCommand(0xF1);
 1490              		.loc 1 600 2
 1491 008c F120     		movs	r0, #241
 1492 008e FFF7FEFF 		bl	OLED2_WriteCommand
 601:./Hardware/OLED2.c **** 
 602:./Hardware/OLED2.c **** 	OLED2_WriteCommand(0xDB);	//设置VCOMH取消选择级别
 1493              		.loc 1 602 2
 1494 0092 DB20     		movs	r0, #219
 1495 0094 FFF7FEFF 		bl	OLED2_WriteCommand
 603:./Hardware/OLED2.c **** 	OLED2_WriteCommand(0x30);
 1496              		.loc 1 603 2
 1497 0098 3020     		movs	r0, #48
 1498 009a FFF7FEFF 		bl	OLED2_WriteCommand
 604:./Hardware/OLED2.c **** 
 605:./Hardware/OLED2.c **** 	OLED2_WriteCommand(0xA4);	//设置整个显示打开/关闭
 1499              		.loc 1 605 2
 1500 009e A420     		movs	r0, #164
 1501 00a0 FFF7FEFF 		bl	OLED2_WriteCommand
 606:./Hardware/OLED2.c **** 
 607:./Hardware/OLED2.c **** 	OLED2_WriteCommand(0xA6);	//设置正常/倒转显示
 1502              		.loc 1 607 2
 1503 00a4 A620     		movs	r0, #166
 1504 00a6 FFF7FEFF 		bl	OLED2_WriteCommand
 608:./Hardware/OLED2.c **** 
 609:./Hardware/OLED2.c **** 	OLED2_WriteCommand(0x8D);	//设置充电泵
 1505              		.loc 1 609 2
 1506 00aa 8D20     		movs	r0, #141
 1507 00ac FFF7FEFF 		bl	OLED2_WriteCommand
ARM GAS  /var/folders/yl/_q9l42k90g1g4mdhbs226msm0000gn/T//cclJZZaI.s 			page 43


 610:./Hardware/OLED2.c **** 	OLED2_WriteCommand(0x14);
 1508              		.loc 1 610 2
 1509 00b0 1420     		movs	r0, #20
 1510 00b2 FFF7FEFF 		bl	OLED2_WriteCommand
 611:./Hardware/OLED2.c **** 
 612:./Hardware/OLED2.c **** 	OLED2_WriteCommand(0xAF);	//开启显示
 1511              		.loc 1 612 2
 1512 00b6 AF20     		movs	r0, #175
 1513 00b8 FFF7FEFF 		bl	OLED2_WriteCommand
 613:./Hardware/OLED2.c **** 		
 614:./Hardware/OLED2.c **** 	OLED2_Clear();				//OLED清屏
 1514              		.loc 1 614 2
 1515 00bc FFF7FEFF 		bl	OLED2_Clear
 615:./Hardware/OLED2.c **** }
 1516              		.loc 1 615 1
 1517 00c0 00BF     		nop
 1518 00c2 0837     		adds	r7, r7, #8
 1519              	.LCFI73:
 1520              		.cfi_def_cfa_offset 8
 1521 00c4 BD46     		mov	sp, r7
 1522              	.LCFI74:
 1523              		.cfi_def_cfa_register 13
 1524              		@ sp needed
 1525 00c6 80BD     		pop	{r7, pc}
 1526              		.cfi_endproc
 1527              	.LFE138:
 1529              		.text
 1530              	.Letext0:
 1531              		.file 2 "/Applications/ARM/arm-none-eabi/include/machine/_default_types.h"
 1532              		.file 3 "/Applications/ARM/arm-none-eabi/include/sys/_stdint.h"
 1533              		.file 4 "./CORE/stm32f4xx.h"
 1534              		.file 5 "./Library/stm32f4xx_gpio.h"
ARM GAS  /var/folders/yl/_q9l42k90g1g4mdhbs226msm0000gn/T//cclJZZaI.s 			page 44

