ARM GAS  /var/folders/yl/_q9l42k90g1g4mdhbs226msm0000gn/T//ccTuw3OI.s 			page 1


   1              		.cpu cortex-m4
   2              		.arch armv7e-m
   3              		.fpu fpv4-sp-d16
   4              		.eabi_attribute 27, 1
   5              		.eabi_attribute 28, 1
   6              		.eabi_attribute 20, 1
   7              		.eabi_attribute 21, 1
   8              		.eabi_attribute 23, 3
   9              		.eabi_attribute 24, 1
  10              		.eabi_attribute 25, 1
  11              		.eabi_attribute 26, 1
  12              		.eabi_attribute 30, 6
  13              		.eabi_attribute 34, 1
  14              		.eabi_attribute 18, 4
  15              		.file	"os_dbg_r.c"
  16              		.text
  17              	.Ltext0:
  18              		.cfi_sections	.debug_frame
  19              		.global	OSDebugEn
  20              		.section	.rodata.OSDebugEn,"a"
  21              		.align	1
  24              	OSDebugEn:
  25 0000 0100     		.short	1
  26              		.global	OSEndiannessTest
  27              		.section	.rodata.OSEndiannessTest,"a"
  28              		.align	2
  31              	OSEndiannessTest:
  32 0000 78563412 		.word	305419896
  33              		.global	OSEventEn
  34              		.section	.rodata.OSEventEn,"a"
  35              		.align	1
  38              	OSEventEn:
  39 0000 0100     		.short	1
  40              		.global	OSEventMax
  41              		.section	.rodata.OSEventMax,"a"
  42              		.align	1
  45              	OSEventMax:
  46 0000 0A00     		.short	10
  47              		.global	OSEventNameEn
  48              		.section	.rodata.OSEventNameEn,"a"
  49              		.align	1
  52              	OSEventNameEn:
  53 0000 0100     		.short	1
  54              		.global	OSEventSize
  55              		.section	.rodata.OSEventSize,"a"
  56              		.align	1
  59              	OSEventSize:
  60 0000 1800     		.short	24
  61              		.global	OSEventTblSize
  62              		.section	.rodata.OSEventTblSize,"a"
  63              		.align	1
  66              	OSEventTblSize:
  67 0000 F000     		.short	240
  68              		.global	OSEventMultiEn
  69              		.section	.rodata.OSEventMultiEn,"a"
  70              		.align	1
  73              	OSEventMultiEn:
ARM GAS  /var/folders/yl/_q9l42k90g1g4mdhbs226msm0000gn/T//ccTuw3OI.s 			page 2


  74 0000 0100     		.short	1
  75              		.global	OSFlagEn
  76              		.section	.rodata.OSFlagEn,"a"
  77              		.align	1
  80              	OSFlagEn:
  81 0000 0100     		.short	1
  82              		.global	OSFlagGrpSize
  83              		.section	.rodata.OSFlagGrpSize,"a"
  84              		.align	1
  87              	OSFlagGrpSize:
  88 0000 1000     		.short	16
  89              		.global	OSFlagNodeSize
  90              		.section	.rodata.OSFlagNodeSize,"a"
  91              		.align	1
  94              	OSFlagNodeSize:
  95 0000 1400     		.short	20
  96              		.global	OSFlagWidth
  97              		.section	.rodata.OSFlagWidth,"a"
  98              		.align	1
 101              	OSFlagWidth:
 102 0000 0200     		.short	2
 103              		.global	OSFlagMax
 104              		.section	.rodata.OSFlagMax,"a"
 105              		.align	1
 108              	OSFlagMax:
 109 0000 0500     		.short	5
 110              		.global	OSFlagNameEn
 111              		.section	.rodata.OSFlagNameEn,"a"
 112              		.align	1
 115              	OSFlagNameEn:
 116 0000 0100     		.short	1
 117              		.global	OSLowestPrio
 118              		.section	.rodata.OSLowestPrio,"a"
 119              		.align	1
 122              	OSLowestPrio:
 123 0000 3F00     		.short	63
 124              		.global	OSMboxEn
 125              		.section	.rodata.OSMboxEn,"a"
 126              		.align	1
 129              	OSMboxEn:
 130 0000 0100     		.short	1
 131              		.global	OSMemEn
 132              		.section	.rodata.OSMemEn,"a"
 133              		.align	1
 136              	OSMemEn:
 137 0000 0100     		.short	1
 138              		.global	OSMemMax
 139              		.section	.rodata.OSMemMax,"a"
 140              		.align	1
 143              	OSMemMax:
 144 0000 0500     		.short	5
 145              		.global	OSMemNameEn
 146              		.section	.rodata.OSMemNameEn,"a"
 147              		.align	1
 150              	OSMemNameEn:
 151 0000 0100     		.short	1
 152              		.global	OSMemSize
ARM GAS  /var/folders/yl/_q9l42k90g1g4mdhbs226msm0000gn/T//ccTuw3OI.s 			page 3


 153              		.section	.rodata.OSMemSize,"a"
 154              		.align	1
 157              	OSMemSize:
 158 0000 1800     		.short	24
 159              		.global	OSMemTblSize
 160              		.section	.rodata.OSMemTblSize,"a"
 161              		.align	1
 164              	OSMemTblSize:
 165 0000 7800     		.short	120
 166              		.global	OSMutexEn
 167              		.section	.rodata.OSMutexEn,"a"
 168              		.align	1
 171              	OSMutexEn:
 172 0000 0100     		.short	1
 173              		.global	OSPtrSize
 174              		.section	.rodata.OSPtrSize,"a"
 175              		.align	1
 178              	OSPtrSize:
 179 0000 0400     		.short	4
 180              		.global	OSQEn
 181              		.section	.rodata.OSQEn,"a"
 182              		.align	1
 185              	OSQEn:
 186 0000 0100     		.short	1
 187              		.global	OSQMax
 188              		.section	.rodata.OSQMax,"a"
 189              		.align	1
 192              	OSQMax:
 193 0000 0400     		.short	4
 194              		.global	OSQSize
 195              		.section	.rodata.OSQSize,"a"
 196              		.align	1
 199              	OSQSize:
 200 0000 1800     		.short	24
 201              		.global	OSRdyTblSize
 202              		.section	.rodata.OSRdyTblSize,"a"
 203              		.align	1
 206              	OSRdyTblSize:
 207 0000 0800     		.short	8
 208              		.global	OSSemEn
 209              		.section	.rodata.OSSemEn,"a"
 210              		.align	1
 213              	OSSemEn:
 214 0000 0100     		.short	1
 215              		.global	OSStkWidth
 216              		.section	.rodata.OSStkWidth,"a"
 217              		.align	1
 220              	OSStkWidth:
 221 0000 0400     		.short	4
 222              		.global	OSTaskCreateEn
 223              		.section	.rodata.OSTaskCreateEn,"a"
 224              		.align	1
 227              	OSTaskCreateEn:
 228 0000 0100     		.short	1
 229              		.global	OSTaskCreateExtEn
 230              		.section	.rodata.OSTaskCreateExtEn,"a"
 231              		.align	1
ARM GAS  /var/folders/yl/_q9l42k90g1g4mdhbs226msm0000gn/T//ccTuw3OI.s 			page 4


 234              	OSTaskCreateExtEn:
 235 0000 0100     		.short	1
 236              		.global	OSTaskDelEn
 237              		.section	.rodata.OSTaskDelEn,"a"
 238              		.align	1
 241              	OSTaskDelEn:
 242 0000 0100     		.short	1
 243              		.global	OSTaskIdleStkSize
 244              		.section	.rodata.OSTaskIdleStkSize,"a"
 245              		.align	1
 248              	OSTaskIdleStkSize:
 249 0000 8000     		.short	128
 250              		.global	OSTaskProfileEn
 251              		.section	.rodata.OSTaskProfileEn,"a"
 252              		.align	1
 255              	OSTaskProfileEn:
 256 0000 0100     		.short	1
 257              		.global	OSTaskMax
 258              		.section	.rodata.OSTaskMax,"a"
 259              		.align	1
 262              	OSTaskMax:
 263 0000 1600     		.short	22
 264              		.global	OSTaskNameEn
 265              		.section	.rodata.OSTaskNameEn,"a"
 266              		.align	1
 269              	OSTaskNameEn:
 270 0000 0100     		.short	1
 271              		.global	OSTaskStatEn
 272              		.section	.rodata.OSTaskStatEn,"a"
 273              		.align	1
 276              	OSTaskStatEn:
 277 0000 0100     		.short	1
 278              		.global	OSTaskStatStkSize
 279              		.section	.rodata.OSTaskStatStkSize,"a"
 280              		.align	1
 283              	OSTaskStatStkSize:
 284 0000 8000     		.short	128
 285              		.global	OSTaskStatStkChkEn
 286              		.section	.rodata.OSTaskStatStkChkEn,"a"
 287              		.align	1
 290              	OSTaskStatStkChkEn:
 291 0000 0100     		.short	1
 292              		.global	OSTaskSwHookEn
 293              		.section	.rodata.OSTaskSwHookEn,"a"
 294              		.align	1
 297              	OSTaskSwHookEn:
 298 0000 0100     		.short	1
 299              		.global	OSTaskRegTblSize
 300              		.section	.rodata.OSTaskRegTblSize,"a"
 301              		.align	1
 304              	OSTaskRegTblSize:
 305 0000 0100     		.short	1
 306              		.global	OSTCBPrioTblMax
 307              		.section	.rodata.OSTCBPrioTblMax,"a"
 308              		.align	1
 311              	OSTCBPrioTblMax:
 312 0000 4000     		.short	64
ARM GAS  /var/folders/yl/_q9l42k90g1g4mdhbs226msm0000gn/T//ccTuw3OI.s 			page 5


 313              		.global	OSTCBSize
 314              		.section	.rodata.OSTCBSize,"a"
 315              		.align	1
 318              	OSTCBSize:
 319 0000 5C00     		.short	92
 320              		.global	OSTicksPerSec
 321              		.section	.rodata.OSTicksPerSec,"a"
 322              		.align	1
 325              	OSTicksPerSec:
 326 0000 6400     		.short	100
 327              		.global	OSTimeTickHookEn
 328              		.section	.rodata.OSTimeTickHookEn,"a"
 329              		.align	1
 332              	OSTimeTickHookEn:
 333 0000 0100     		.short	1
 334              		.global	OSVersionNbr
 335              		.section	.rodata.OSVersionNbr,"a"
 336              		.align	1
 339              	OSVersionNbr:
 340 0000 7472     		.short	29300
 341              		.global	OS_TLS_TblSize
 342              		.section	.rodata.OS_TLS_TblSize,"a"
 343              		.align	1
 346              	OS_TLS_TblSize:
 347 0000 0000     		.space	2
 348              		.global	OSTmrEn
 349              		.section	.rodata.OSTmrEn,"a"
 350              		.align	1
 353              	OSTmrEn:
 354 0000 0100     		.short	1
 355              		.global	OSTmrCfgMax
 356              		.section	.rodata.OSTmrCfgMax,"a"
 357              		.align	1
 360              	OSTmrCfgMax:
 361 0000 1000     		.short	16
 362              		.global	OSTmrCfgNameEn
 363              		.section	.rodata.OSTmrCfgNameEn,"a"
 364              		.align	1
 367              	OSTmrCfgNameEn:
 368 0000 0100     		.short	1
 369              		.global	OSTmrCfgWheelSize
 370              		.section	.rodata.OSTmrCfgWheelSize,"a"
 371              		.align	1
 374              	OSTmrCfgWheelSize:
 375 0000 0700     		.short	7
 376              		.global	OSTmrCfgTicksPerSec
 377              		.section	.rodata.OSTmrCfgTicksPerSec,"a"
 378              		.align	1
 381              	OSTmrCfgTicksPerSec:
 382 0000 0A00     		.short	10
 383              		.global	OSTmrSize
 384              		.section	.rodata.OSTmrSize,"a"
 385              		.align	1
 388              	OSTmrSize:
 389 0000 2800     		.short	40
 390              		.global	OSTmrTblSize
 391              		.section	.rodata.OSTmrTblSize,"a"
ARM GAS  /var/folders/yl/_q9l42k90g1g4mdhbs226msm0000gn/T//ccTuw3OI.s 			page 6


 392              		.align	1
 395              	OSTmrTblSize:
 396 0000 8002     		.short	640
 397              		.global	OSTmrWheelSize
 398              		.section	.rodata.OSTmrWheelSize,"a"
 399              		.align	1
 402              	OSTmrWheelSize:
 403 0000 0800     		.short	8
 404              		.global	OSTmrWheelTblSize
 405              		.section	.rodata.OSTmrWheelTblSize,"a"
 406              		.align	1
 409              	OSTmrWheelTblSize:
 410 0000 3800     		.short	56
 411              		.global	OSDataSize
 412              		.section	.rodata.OSDataSize,"a"
 413              		.align	1
 416              	OSDataSize:
 417 0000 1314     		.short	5139
 418              		.section	.text.OSDebugInit,"ax",%progbits
 419              		.align	1
 420              		.global	OSDebugInit
 421              		.syntax unified
 422              		.thumb
 423              		.thumb_func
 425              	OSDebugInit:
 426              	.LFB3:
 427              		.file 1 "./ucOSII/Port/os_dbg_r.c"
   1:./ucOSII/Port/os_dbg_r.c **** /*
   2:./ucOSII/Port/os_dbg_r.c **** ***************************************************************************************************
   3:./ucOSII/Port/os_dbg_r.c **** *                                              uC/OS-II
   4:./ucOSII/Port/os_dbg_r.c **** *                                        The Real-Time Kernel
   5:./ucOSII/Port/os_dbg_r.c **** *
   6:./ucOSII/Port/os_dbg_r.c **** *                    Copyright 1992-2021 Silicon Laboratories Inc. www.silabs.com
   7:./ucOSII/Port/os_dbg_r.c **** *
   8:./ucOSII/Port/os_dbg_r.c **** *                                 SPDX-License-Identifier: APACHE-2.0
   9:./ucOSII/Port/os_dbg_r.c **** *
  10:./ucOSII/Port/os_dbg_r.c **** *               This software is subject to an open source license and is distributed by
  11:./ucOSII/Port/os_dbg_r.c **** *                Silicon Laboratories Inc. pursuant to the terms of the Apache License,
  12:./ucOSII/Port/os_dbg_r.c **** *                    Version 2.0 available at www.apache.org/licenses/LICENSE-2.0.
  13:./ucOSII/Port/os_dbg_r.c **** *
  14:./ucOSII/Port/os_dbg_r.c **** ***************************************************************************************************
  15:./ucOSII/Port/os_dbg_r.c **** */
  16:./ucOSII/Port/os_dbg_r.c **** 
  17:./ucOSII/Port/os_dbg_r.c **** 
  18:./ucOSII/Port/os_dbg_r.c **** /*
  19:./ucOSII/Port/os_dbg_r.c **** ***************************************************************************************************
  20:./ucOSII/Port/os_dbg_r.c **** *
  21:./ucOSII/Port/os_dbg_r.c **** *                                          DEBUGGER CONSTANTS
  22:./ucOSII/Port/os_dbg_r.c **** *
  23:./ucOSII/Port/os_dbg_r.c **** * Filename : os_dbg_r.c
  24:./ucOSII/Port/os_dbg_r.c **** * Version  : V2.93.01
  25:./ucOSII/Port/os_dbg_r.c **** ***************************************************************************************************
  26:./ucOSII/Port/os_dbg_r.c **** */
  27:./ucOSII/Port/os_dbg_r.c **** 
  28:./ucOSII/Port/os_dbg_r.c **** #define  MICRIUM_SOURCE
  29:./ucOSII/Port/os_dbg_r.c **** 
  30:./ucOSII/Port/os_dbg_r.c **** #include <ucos_ii.h>
ARM GAS  /var/folders/yl/_q9l42k90g1g4mdhbs226msm0000gn/T//ccTuw3OI.s 			page 7


  31:./ucOSII/Port/os_dbg_r.c **** 
  32:./ucOSII/Port/os_dbg_r.c **** /*
  33:./ucOSII/Port/os_dbg_r.c **** ***************************************************************************************************
  34:./ucOSII/Port/os_dbg_r.c **** *                                             DEBUG DATA
  35:./ucOSII/Port/os_dbg_r.c **** ***************************************************************************************************
  36:./ucOSII/Port/os_dbg_r.c **** */
  37:./ucOSII/Port/os_dbg_r.c **** 
  38:./ucOSII/Port/os_dbg_r.c **** INT16U  const  OSDebugEn             = OS_DEBUG_EN;             /* Debug constants are defined belo
  39:./ucOSII/Port/os_dbg_r.c **** 
  40:./ucOSII/Port/os_dbg_r.c **** #if OS_DEBUG_EN > 0u
  41:./ucOSII/Port/os_dbg_r.c **** 
  42:./ucOSII/Port/os_dbg_r.c **** INT32U  const  OSEndiannessTest      = 0x12345678uL;            /* Variable to test CPU endianness 
  43:./ucOSII/Port/os_dbg_r.c **** 
  44:./ucOSII/Port/os_dbg_r.c **** INT16U  const  OSEventEn             = OS_EVENT_EN;
  45:./ucOSII/Port/os_dbg_r.c **** INT16U  const  OSEventMax            = OS_MAX_EVENTS;           /* Number of event control blocks  
  46:./ucOSII/Port/os_dbg_r.c **** INT16U  const  OSEventNameEn         = OS_EVENT_NAME_EN;
  47:./ucOSII/Port/os_dbg_r.c **** #if (OS_EVENT_EN) && (OS_MAX_EVENTS > 0u)
  48:./ucOSII/Port/os_dbg_r.c **** INT16U  const  OSEventSize           = sizeof(OS_EVENT);        /* Size in Bytes of OS_EVENT       
  49:./ucOSII/Port/os_dbg_r.c **** INT16U  const  OSEventTblSize        = sizeof(OSEventTbl);      /* Size of OSEventTbl[] in bytes   
  50:./ucOSII/Port/os_dbg_r.c **** #else
  51:./ucOSII/Port/os_dbg_r.c **** INT16U  const  OSEventSize           = 0u;
  52:./ucOSII/Port/os_dbg_r.c **** INT16U  const  OSEventTblSize        = 0u;
  53:./ucOSII/Port/os_dbg_r.c **** #endif
  54:./ucOSII/Port/os_dbg_r.c **** INT16U  const  OSEventMultiEn        = OS_EVENT_MULTI_EN;
  55:./ucOSII/Port/os_dbg_r.c **** 
  56:./ucOSII/Port/os_dbg_r.c **** 
  57:./ucOSII/Port/os_dbg_r.c **** INT16U  const  OSFlagEn              = OS_FLAG_EN;
  58:./ucOSII/Port/os_dbg_r.c **** #if (OS_FLAG_EN > 0u) && (OS_MAX_FLAGS > 0u)
  59:./ucOSII/Port/os_dbg_r.c **** INT16U  const  OSFlagGrpSize         = sizeof(OS_FLAG_GRP);     /* Size in Bytes of OS_FLAG_GRP    
  60:./ucOSII/Port/os_dbg_r.c **** INT16U  const  OSFlagNodeSize        = sizeof(OS_FLAG_NODE);    /* Size in Bytes of OS_FLAG_NODE   
  61:./ucOSII/Port/os_dbg_r.c **** INT16U  const  OSFlagWidth           = sizeof(OS_FLAGS);        /* Width (in bytes) of OS_FLAGS    
  62:./ucOSII/Port/os_dbg_r.c **** #else
  63:./ucOSII/Port/os_dbg_r.c **** INT16U  const  OSFlagGrpSize         = 0u;
  64:./ucOSII/Port/os_dbg_r.c **** INT16U  const  OSFlagNodeSize        = 0u;
  65:./ucOSII/Port/os_dbg_r.c **** INT16U  const  OSFlagWidth           = 0u;
  66:./ucOSII/Port/os_dbg_r.c **** #endif
  67:./ucOSII/Port/os_dbg_r.c **** INT16U  const  OSFlagMax             = OS_MAX_FLAGS;
  68:./ucOSII/Port/os_dbg_r.c **** INT16U  const  OSFlagNameEn          = OS_FLAG_NAME_EN;
  69:./ucOSII/Port/os_dbg_r.c **** 
  70:./ucOSII/Port/os_dbg_r.c **** INT16U  const  OSLowestPrio          = OS_LOWEST_PRIO;
  71:./ucOSII/Port/os_dbg_r.c **** 
  72:./ucOSII/Port/os_dbg_r.c **** INT16U  const  OSMboxEn              = OS_MBOX_EN;
  73:./ucOSII/Port/os_dbg_r.c **** 
  74:./ucOSII/Port/os_dbg_r.c **** INT16U  const  OSMemEn               = OS_MEM_EN;
  75:./ucOSII/Port/os_dbg_r.c **** INT16U  const  OSMemMax              = OS_MAX_MEM_PART;         /* Number of memory partitions     
  76:./ucOSII/Port/os_dbg_r.c **** INT16U  const  OSMemNameEn           = OS_MEM_NAME_EN;
  77:./ucOSII/Port/os_dbg_r.c **** #if (OS_MEM_EN > 0u) && (OS_MAX_MEM_PART > 0u)
  78:./ucOSII/Port/os_dbg_r.c **** INT16U  const  OSMemSize             = sizeof(OS_MEM);          /* Mem. Partition header sine (byte
  79:./ucOSII/Port/os_dbg_r.c **** INT16U  const  OSMemTblSize          = sizeof(OSMemTbl);
  80:./ucOSII/Port/os_dbg_r.c **** #else
  81:./ucOSII/Port/os_dbg_r.c **** INT16U  const  OSMemSize             = 0u;
  82:./ucOSII/Port/os_dbg_r.c **** INT16U  const  OSMemTblSize          = 0u;
  83:./ucOSII/Port/os_dbg_r.c **** #endif
  84:./ucOSII/Port/os_dbg_r.c **** INT16U  const  OSMutexEn             = OS_MUTEX_EN;
  85:./ucOSII/Port/os_dbg_r.c **** 
  86:./ucOSII/Port/os_dbg_r.c **** INT16U  const  OSPtrSize             = sizeof(void *);          /* Size in Bytes of a pointer      
  87:./ucOSII/Port/os_dbg_r.c **** 
ARM GAS  /var/folders/yl/_q9l42k90g1g4mdhbs226msm0000gn/T//ccTuw3OI.s 			page 8


  88:./ucOSII/Port/os_dbg_r.c **** INT16U  const  OSQEn                 = OS_Q_EN;
  89:./ucOSII/Port/os_dbg_r.c **** INT16U  const  OSQMax                = OS_MAX_QS;               /* Number of queues                
  90:./ucOSII/Port/os_dbg_r.c **** #if (OS_Q_EN > 0u) && (OS_MAX_QS > 0u)
  91:./ucOSII/Port/os_dbg_r.c **** INT16U  const  OSQSize               = sizeof(OS_Q);            /* Size in bytes of OS_Q structure 
  92:./ucOSII/Port/os_dbg_r.c **** #else
  93:./ucOSII/Port/os_dbg_r.c **** INT16U  const  OSQSize               = 0u;
  94:./ucOSII/Port/os_dbg_r.c **** #endif
  95:./ucOSII/Port/os_dbg_r.c **** 
  96:./ucOSII/Port/os_dbg_r.c **** INT16U  const  OSRdyTblSize          = OS_RDY_TBL_SIZE;         /* Number of bytes in the ready tab
  97:./ucOSII/Port/os_dbg_r.c **** 
  98:./ucOSII/Port/os_dbg_r.c **** INT16U  const  OSSemEn               = OS_SEM_EN;
  99:./ucOSII/Port/os_dbg_r.c **** 
 100:./ucOSII/Port/os_dbg_r.c **** INT16U  const  OSStkWidth            = sizeof(OS_STK);          /* Size in Bytes of a stack entry  
 101:./ucOSII/Port/os_dbg_r.c **** 
 102:./ucOSII/Port/os_dbg_r.c **** INT16U  const  OSTaskCreateEn        = OS_TASK_CREATE_EN;
 103:./ucOSII/Port/os_dbg_r.c **** INT16U  const  OSTaskCreateExtEn     = OS_TASK_CREATE_EXT_EN;
 104:./ucOSII/Port/os_dbg_r.c **** INT16U  const  OSTaskDelEn           = OS_TASK_DEL_EN;
 105:./ucOSII/Port/os_dbg_r.c **** INT16U  const  OSTaskIdleStkSize     = OS_TASK_IDLE_STK_SIZE;
 106:./ucOSII/Port/os_dbg_r.c **** INT16U  const  OSTaskProfileEn       = OS_TASK_PROFILE_EN;
 107:./ucOSII/Port/os_dbg_r.c **** INT16U  const  OSTaskMax             = OS_MAX_TASKS + OS_N_SYS_TASKS; /* Total max. number of tasks
 108:./ucOSII/Port/os_dbg_r.c **** INT16U  const  OSTaskNameEn          = OS_TASK_NAME_EN;
 109:./ucOSII/Port/os_dbg_r.c **** INT16U  const  OSTaskStatEn          = OS_TASK_STAT_EN;
 110:./ucOSII/Port/os_dbg_r.c **** INT16U  const  OSTaskStatStkSize     = OS_TASK_STAT_STK_SIZE;
 111:./ucOSII/Port/os_dbg_r.c **** INT16U  const  OSTaskStatStkChkEn    = OS_TASK_STAT_STK_CHK_EN;
 112:./ucOSII/Port/os_dbg_r.c **** INT16U  const  OSTaskSwHookEn        = OS_TASK_SW_HOOK_EN;
 113:./ucOSII/Port/os_dbg_r.c **** INT16U  const  OSTaskRegTblSize      = OS_TASK_REG_TBL_SIZE;
 114:./ucOSII/Port/os_dbg_r.c **** 
 115:./ucOSII/Port/os_dbg_r.c **** INT16U  const  OSTCBPrioTblMax       = OS_LOWEST_PRIO + 1u;     /* Number of entries in OSTCBPrioTb
 116:./ucOSII/Port/os_dbg_r.c **** INT16U  const  OSTCBSize             = sizeof(OS_TCB);          /* Size in Bytes of OS_TCB         
 117:./ucOSII/Port/os_dbg_r.c **** INT16U  const  OSTicksPerSec         = OS_TICKS_PER_SEC;
 118:./ucOSII/Port/os_dbg_r.c **** INT16U  const  OSTimeTickHookEn      = OS_TIME_TICK_HOOK_EN;
 119:./ucOSII/Port/os_dbg_r.c **** INT16U  const  OSVersionNbr          = OS_VERSION;
 120:./ucOSII/Port/os_dbg_r.c **** 
 121:./ucOSII/Port/os_dbg_r.c **** #if OS_TASK_CREATE_EXT_EN > 0u
 122:./ucOSII/Port/os_dbg_r.c **** #if defined(OS_TLS_TBL_SIZE) && (OS_TLS_TBL_SIZE > 0u)
 123:./ucOSII/Port/os_dbg_r.c **** INT16U  const  OS_TLS_TblSize        = OS_TLS_TBL_SIZE * sizeof(OS_TLS);
 124:./ucOSII/Port/os_dbg_r.c **** #else
 125:./ucOSII/Port/os_dbg_r.c **** INT16U  const  OS_TLS_TblSize        = 0u;
 126:./ucOSII/Port/os_dbg_r.c **** #endif
 127:./ucOSII/Port/os_dbg_r.c **** #endif
 128:./ucOSII/Port/os_dbg_r.c **** 
 129:./ucOSII/Port/os_dbg_r.c **** INT16U  const  OSTmrEn               = OS_TMR_EN;
 130:./ucOSII/Port/os_dbg_r.c **** INT16U  const  OSTmrCfgMax           = OS_TMR_CFG_MAX;
 131:./ucOSII/Port/os_dbg_r.c **** INT16U  const  OSTmrCfgNameEn        = OS_TMR_CFG_NAME_EN;
 132:./ucOSII/Port/os_dbg_r.c **** INT16U  const  OSTmrCfgWheelSize     = OS_TMR_CFG_WHEEL_SIZE;
 133:./ucOSII/Port/os_dbg_r.c **** INT16U  const  OSTmrCfgTicksPerSec   = OS_TMR_CFG_TICKS_PER_SEC;
 134:./ucOSII/Port/os_dbg_r.c **** 
 135:./ucOSII/Port/os_dbg_r.c **** #if (OS_TMR_EN > 0u) && (OS_TMR_CFG_MAX > 0u)
 136:./ucOSII/Port/os_dbg_r.c **** INT16U  const  OSTmrSize             = sizeof(OS_TMR);
 137:./ucOSII/Port/os_dbg_r.c **** INT16U  const  OSTmrTblSize          = sizeof(OSTmrTbl);
 138:./ucOSII/Port/os_dbg_r.c **** INT16U  const  OSTmrWheelSize        = sizeof(OS_TMR_WHEEL);
 139:./ucOSII/Port/os_dbg_r.c **** INT16U  const  OSTmrWheelTblSize     = sizeof(OSTmrWheelTbl);
 140:./ucOSII/Port/os_dbg_r.c **** #else
 141:./ucOSII/Port/os_dbg_r.c **** INT16U  const  OSTmrSize             = 0u;
 142:./ucOSII/Port/os_dbg_r.c **** INT16U  const  OSTmrTblSize          = 0u;
 143:./ucOSII/Port/os_dbg_r.c **** INT16U  const  OSTmrWheelSize        = 0u;
 144:./ucOSII/Port/os_dbg_r.c **** INT16U  const  OSTmrWheelTblSize     = 0u;
ARM GAS  /var/folders/yl/_q9l42k90g1g4mdhbs226msm0000gn/T//ccTuw3OI.s 			page 9


 145:./ucOSII/Port/os_dbg_r.c **** #endif
 146:./ucOSII/Port/os_dbg_r.c **** 
 147:./ucOSII/Port/os_dbg_r.c **** #endif
 148:./ucOSII/Port/os_dbg_r.c **** 
 149:./ucOSII/Port/os_dbg_r.c **** 
 150:./ucOSII/Port/os_dbg_r.c **** /*
 151:./ucOSII/Port/os_dbg_r.c **** ***************************************************************************************************
 152:./ucOSII/Port/os_dbg_r.c **** *                                             DEBUG DATA
 153:./ucOSII/Port/os_dbg_r.c **** *                            TOTAL DATA SPACE (i.e. RAM) USED BY uC/OS-II
 154:./ucOSII/Port/os_dbg_r.c **** ***************************************************************************************************
 155:./ucOSII/Port/os_dbg_r.c **** */
 156:./ucOSII/Port/os_dbg_r.c **** #if OS_DEBUG_EN > 0u
 157:./ucOSII/Port/os_dbg_r.c **** 
 158:./ucOSII/Port/os_dbg_r.c **** INT16U  const  OSDataSize = sizeof(OSCtxSwCtr)
 159:./ucOSII/Port/os_dbg_r.c **** #if (OS_EVENT_EN) && (OS_MAX_EVENTS > 0u)
 160:./ucOSII/Port/os_dbg_r.c ****                           + sizeof(OSEventFreeList)
 161:./ucOSII/Port/os_dbg_r.c ****                           + sizeof(OSEventTbl)
 162:./ucOSII/Port/os_dbg_r.c **** #endif
 163:./ucOSII/Port/os_dbg_r.c **** 
 164:./ucOSII/Port/os_dbg_r.c **** #if (OS_FLAG_EN > 0u) && (OS_MAX_FLAGS > 0u)
 165:./ucOSII/Port/os_dbg_r.c ****                           + sizeof(OSFlagTbl)
 166:./ucOSII/Port/os_dbg_r.c ****                           + sizeof(OSFlagFreeList)
 167:./ucOSII/Port/os_dbg_r.c **** #endif
 168:./ucOSII/Port/os_dbg_r.c **** 
 169:./ucOSII/Port/os_dbg_r.c **** #if OS_TASK_STAT_EN > 0u
 170:./ucOSII/Port/os_dbg_r.c ****                           + sizeof(OSCPUUsage)
 171:./ucOSII/Port/os_dbg_r.c ****                           + sizeof(OSIdleCtrMax)
 172:./ucOSII/Port/os_dbg_r.c ****                           + sizeof(OSIdleCtrRun)
 173:./ucOSII/Port/os_dbg_r.c ****                           + sizeof(OSStatRdy)
 174:./ucOSII/Port/os_dbg_r.c ****                           + sizeof(OSTaskStatStk)
 175:./ucOSII/Port/os_dbg_r.c **** #endif
 176:./ucOSII/Port/os_dbg_r.c **** 
 177:./ucOSII/Port/os_dbg_r.c **** #if OS_TICK_STEP_EN > 0u
 178:./ucOSII/Port/os_dbg_r.c ****                           + sizeof(OSTickStepState)
 179:./ucOSII/Port/os_dbg_r.c **** #endif
 180:./ucOSII/Port/os_dbg_r.c **** 
 181:./ucOSII/Port/os_dbg_r.c **** #if (OS_MEM_EN > 0u) && (OS_MAX_MEM_PART > 0u)
 182:./ucOSII/Port/os_dbg_r.c ****                           + sizeof(OSMemFreeList)
 183:./ucOSII/Port/os_dbg_r.c ****                           + sizeof(OSMemTbl)
 184:./ucOSII/Port/os_dbg_r.c **** #endif
 185:./ucOSII/Port/os_dbg_r.c **** 
 186:./ucOSII/Port/os_dbg_r.c **** #ifdef OS_SAFETY_CRITICAL_IEC61508
 187:./ucOSII/Port/os_dbg_r.c ****                           + sizeof(OSSafetyCriticalStartFlag)
 188:./ucOSII/Port/os_dbg_r.c **** #endif
 189:./ucOSII/Port/os_dbg_r.c **** 
 190:./ucOSII/Port/os_dbg_r.c **** #if (OS_Q_EN > 0u) && (OS_MAX_QS > 0u)
 191:./ucOSII/Port/os_dbg_r.c ****                           + sizeof(OSQFreeList)
 192:./ucOSII/Port/os_dbg_r.c ****                           + sizeof(OSQTbl)
 193:./ucOSII/Port/os_dbg_r.c **** #endif
 194:./ucOSII/Port/os_dbg_r.c **** 
 195:./ucOSII/Port/os_dbg_r.c **** #if OS_TASK_REG_TBL_SIZE > 0u
 196:./ucOSII/Port/os_dbg_r.c ****                           + sizeof(OSTaskRegNextAvailID)
 197:./ucOSII/Port/os_dbg_r.c **** #endif
 198:./ucOSII/Port/os_dbg_r.c **** 
 199:./ucOSII/Port/os_dbg_r.c **** #if OS_TIME_GET_SET_EN > 0u
 200:./ucOSII/Port/os_dbg_r.c ****                           + sizeof(OSTime)
 201:./ucOSII/Port/os_dbg_r.c **** #endif
ARM GAS  /var/folders/yl/_q9l42k90g1g4mdhbs226msm0000gn/T//ccTuw3OI.s 			page 10


 202:./ucOSII/Port/os_dbg_r.c **** 
 203:./ucOSII/Port/os_dbg_r.c **** #if (OS_TMR_EN > 0u) && (OS_TMR_CFG_MAX > 0u)
 204:./ucOSII/Port/os_dbg_r.c ****                           + sizeof(OSTmrFree)
 205:./ucOSII/Port/os_dbg_r.c ****                           + sizeof(OSTmrUsed)
 206:./ucOSII/Port/os_dbg_r.c ****                           + sizeof(OSTmrTime)
 207:./ucOSII/Port/os_dbg_r.c ****                           + sizeof(OSTmrSem)
 208:./ucOSII/Port/os_dbg_r.c ****                           + sizeof(OSTmrSemSignal)
 209:./ucOSII/Port/os_dbg_r.c ****                           + sizeof(OSTmrTbl)
 210:./ucOSII/Port/os_dbg_r.c ****                           + sizeof(OSTmrFreeList)
 211:./ucOSII/Port/os_dbg_r.c ****                           + sizeof(OSTmrTaskStk)
 212:./ucOSII/Port/os_dbg_r.c ****                           + sizeof(OSTmrWheelTbl)
 213:./ucOSII/Port/os_dbg_r.c **** #endif
 214:./ucOSII/Port/os_dbg_r.c ****                           + sizeof(OSIntNesting)
 215:./ucOSII/Port/os_dbg_r.c ****                           + sizeof(OSLockNesting)
 216:./ucOSII/Port/os_dbg_r.c ****                           + sizeof(OSPrioCur)
 217:./ucOSII/Port/os_dbg_r.c ****                           + sizeof(OSPrioHighRdy)
 218:./ucOSII/Port/os_dbg_r.c ****                           + sizeof(OSRdyGrp)
 219:./ucOSII/Port/os_dbg_r.c ****                           + sizeof(OSRdyTbl)
 220:./ucOSII/Port/os_dbg_r.c ****                           + sizeof(OSRunning)
 221:./ucOSII/Port/os_dbg_r.c ****                           + sizeof(OSTaskCtr)
 222:./ucOSII/Port/os_dbg_r.c ****                           + sizeof(OSIdleCtr)
 223:./ucOSII/Port/os_dbg_r.c ****                           + sizeof(OSTaskIdleStk)
 224:./ucOSII/Port/os_dbg_r.c ****                           + sizeof(OSTCBCur)
 225:./ucOSII/Port/os_dbg_r.c ****                           + sizeof(OSTCBFreeList)
 226:./ucOSII/Port/os_dbg_r.c ****                           + sizeof(OSTCBHighRdy)
 227:./ucOSII/Port/os_dbg_r.c ****                           + sizeof(OSTCBList)
 228:./ucOSII/Port/os_dbg_r.c ****                           + sizeof(OSTCBPrioTbl)
 229:./ucOSII/Port/os_dbg_r.c ****                           + sizeof(OSTCBTbl);
 230:./ucOSII/Port/os_dbg_r.c **** 
 231:./ucOSII/Port/os_dbg_r.c **** #endif
 232:./ucOSII/Port/os_dbg_r.c **** 
 233:./ucOSII/Port/os_dbg_r.c **** 
 234:./ucOSII/Port/os_dbg_r.c **** /*
 235:./ucOSII/Port/os_dbg_r.c **** ***************************************************************************************************
 236:./ucOSII/Port/os_dbg_r.c **** *                                       OS DEBUG INITIALIZATION
 237:./ucOSII/Port/os_dbg_r.c **** *
 238:./ucOSII/Port/os_dbg_r.c **** * Description: This function is used to make sure that debug variables that are unused in the appli
 239:./ucOSII/Port/os_dbg_r.c **** *              are not optimized away.  This function might not be necessary for all compilers.  In
 240:./ucOSII/Port/os_dbg_r.c **** *              case, you should simply DELETE the code in this function while still leaving the dec
 241:./ucOSII/Port/os_dbg_r.c **** *              of the function itself.
 242:./ucOSII/Port/os_dbg_r.c **** *
 243:./ucOSII/Port/os_dbg_r.c **** * Arguments  : none
 244:./ucOSII/Port/os_dbg_r.c **** *
 245:./ucOSII/Port/os_dbg_r.c **** * Returns    : none
 246:./ucOSII/Port/os_dbg_r.c **** *
 247:./ucOSII/Port/os_dbg_r.c **** * Note(s)    : (1) This code doesn't do anything, it simply prevents the compiler from optimizing o
 248:./ucOSII/Port/os_dbg_r.c **** *                  the 'const' variables which are declared in this file.
 249:./ucOSII/Port/os_dbg_r.c **** *              (2) You may decide to 'compile out' the code (by using #if 0/#endif) INSIDE the func
 250:./ucOSII/Port/os_dbg_r.c **** *                  if your compiler DOES NOT optimize out the 'const' variables above.
 251:./ucOSII/Port/os_dbg_r.c **** ***************************************************************************************************
 252:./ucOSII/Port/os_dbg_r.c **** */
 253:./ucOSII/Port/os_dbg_r.c **** 
 254:./ucOSII/Port/os_dbg_r.c **** #if OS_DEBUG_EN > 0u
 255:./ucOSII/Port/os_dbg_r.c **** void  OSDebugInit (void)
 256:./ucOSII/Port/os_dbg_r.c **** {
 428              		.loc 1 256 1
 429              		.cfi_startproc
ARM GAS  /var/folders/yl/_q9l42k90g1g4mdhbs226msm0000gn/T//ccTuw3OI.s 			page 11


 430              		@ args = 0, pretend = 0, frame = 8
 431              		@ frame_needed = 1, uses_anonymous_args = 0
 432              		@ link register save eliminated.
 433 0000 80B4     		push	{r7}
 434              	.LCFI0:
 435              		.cfi_def_cfa_offset 4
 436              		.cfi_offset 7, -4
 437 0002 83B0     		sub	sp, sp, #12
 438              	.LCFI1:
 439              		.cfi_def_cfa_offset 16
 440 0004 00AF     		add	r7, sp, #0
 441              	.LCFI2:
 442              		.cfi_def_cfa_register 7
 257:./ucOSII/Port/os_dbg_r.c ****     void  const  *ptemp;
 258:./ucOSII/Port/os_dbg_r.c **** 
 259:./ucOSII/Port/os_dbg_r.c **** 
 260:./ucOSII/Port/os_dbg_r.c ****     ptemp = (void const *)&OSDebugEn;
 443              		.loc 1 260 11
 444 0006 3C4B     		ldr	r3, .L2
 445 0008 7B60     		str	r3, [r7, #4]
 261:./ucOSII/Port/os_dbg_r.c **** 
 262:./ucOSII/Port/os_dbg_r.c ****     ptemp = (void const *)&OSEndiannessTest;
 446              		.loc 1 262 11
 447 000a 3C4B     		ldr	r3, .L2+4
 448 000c 7B60     		str	r3, [r7, #4]
 263:./ucOSII/Port/os_dbg_r.c **** 
 264:./ucOSII/Port/os_dbg_r.c ****     ptemp = (void const *)&OSEventMax;
 449              		.loc 1 264 11
 450 000e 3C4B     		ldr	r3, .L2+8
 451 0010 7B60     		str	r3, [r7, #4]
 265:./ucOSII/Port/os_dbg_r.c ****     ptemp = (void const *)&OSEventNameEn;
 452              		.loc 1 265 11
 453 0012 3C4B     		ldr	r3, .L2+12
 454 0014 7B60     		str	r3, [r7, #4]
 266:./ucOSII/Port/os_dbg_r.c ****     ptemp = (void const *)&OSEventEn;
 455              		.loc 1 266 11
 456 0016 3C4B     		ldr	r3, .L2+16
 457 0018 7B60     		str	r3, [r7, #4]
 267:./ucOSII/Port/os_dbg_r.c ****     ptemp = (void const *)&OSEventSize;
 458              		.loc 1 267 11
 459 001a 3C4B     		ldr	r3, .L2+20
 460 001c 7B60     		str	r3, [r7, #4]
 268:./ucOSII/Port/os_dbg_r.c ****     ptemp = (void const *)&OSEventTblSize;
 461              		.loc 1 268 11
 462 001e 3C4B     		ldr	r3, .L2+24
 463 0020 7B60     		str	r3, [r7, #4]
 269:./ucOSII/Port/os_dbg_r.c ****     ptemp = (void const *)&OSEventMultiEn;
 464              		.loc 1 269 11
 465 0022 3C4B     		ldr	r3, .L2+28
 466 0024 7B60     		str	r3, [r7, #4]
 270:./ucOSII/Port/os_dbg_r.c **** 
 271:./ucOSII/Port/os_dbg_r.c ****     ptemp = (void const *)&OSFlagEn;
 467              		.loc 1 271 11
 468 0026 3C4B     		ldr	r3, .L2+32
 469 0028 7B60     		str	r3, [r7, #4]
 272:./ucOSII/Port/os_dbg_r.c ****     ptemp = (void const *)&OSFlagGrpSize;
 470              		.loc 1 272 11
ARM GAS  /var/folders/yl/_q9l42k90g1g4mdhbs226msm0000gn/T//ccTuw3OI.s 			page 12


 471 002a 3C4B     		ldr	r3, .L2+36
 472 002c 7B60     		str	r3, [r7, #4]
 273:./ucOSII/Port/os_dbg_r.c ****     ptemp = (void const *)&OSFlagNodeSize;
 473              		.loc 1 273 11
 474 002e 3C4B     		ldr	r3, .L2+40
 475 0030 7B60     		str	r3, [r7, #4]
 274:./ucOSII/Port/os_dbg_r.c ****     ptemp = (void const *)&OSFlagWidth;
 476              		.loc 1 274 11
 477 0032 3C4B     		ldr	r3, .L2+44
 478 0034 7B60     		str	r3, [r7, #4]
 275:./ucOSII/Port/os_dbg_r.c ****     ptemp = (void const *)&OSFlagMax;
 479              		.loc 1 275 11
 480 0036 3C4B     		ldr	r3, .L2+48
 481 0038 7B60     		str	r3, [r7, #4]
 276:./ucOSII/Port/os_dbg_r.c ****     ptemp = (void const *)&OSFlagNameEn;
 482              		.loc 1 276 11
 483 003a 3C4B     		ldr	r3, .L2+52
 484 003c 7B60     		str	r3, [r7, #4]
 277:./ucOSII/Port/os_dbg_r.c **** 
 278:./ucOSII/Port/os_dbg_r.c ****     ptemp = (void const *)&OSLowestPrio;
 485              		.loc 1 278 11
 486 003e 3C4B     		ldr	r3, .L2+56
 487 0040 7B60     		str	r3, [r7, #4]
 279:./ucOSII/Port/os_dbg_r.c **** 
 280:./ucOSII/Port/os_dbg_r.c ****     ptemp = (void const *)&OSMboxEn;
 488              		.loc 1 280 11
 489 0042 3C4B     		ldr	r3, .L2+60
 490 0044 7B60     		str	r3, [r7, #4]
 281:./ucOSII/Port/os_dbg_r.c **** 
 282:./ucOSII/Port/os_dbg_r.c ****     ptemp = (void const *)&OSMemEn;
 491              		.loc 1 282 11
 492 0046 3C4B     		ldr	r3, .L2+64
 493 0048 7B60     		str	r3, [r7, #4]
 283:./ucOSII/Port/os_dbg_r.c ****     ptemp = (void const *)&OSMemMax;
 494              		.loc 1 283 11
 495 004a 3C4B     		ldr	r3, .L2+68
 496 004c 7B60     		str	r3, [r7, #4]
 284:./ucOSII/Port/os_dbg_r.c ****     ptemp = (void const *)&OSMemNameEn;
 497              		.loc 1 284 11
 498 004e 3C4B     		ldr	r3, .L2+72
 499 0050 7B60     		str	r3, [r7, #4]
 285:./ucOSII/Port/os_dbg_r.c ****     ptemp = (void const *)&OSMemSize;
 500              		.loc 1 285 11
 501 0052 3C4B     		ldr	r3, .L2+76
 502 0054 7B60     		str	r3, [r7, #4]
 286:./ucOSII/Port/os_dbg_r.c ****     ptemp = (void const *)&OSMemTblSize;
 503              		.loc 1 286 11
 504 0056 3C4B     		ldr	r3, .L2+80
 505 0058 7B60     		str	r3, [r7, #4]
 287:./ucOSII/Port/os_dbg_r.c **** 
 288:./ucOSII/Port/os_dbg_r.c ****     ptemp = (void const *)&OSMutexEn;
 506              		.loc 1 288 11
 507 005a 3C4B     		ldr	r3, .L2+84
 508 005c 7B60     		str	r3, [r7, #4]
 289:./ucOSII/Port/os_dbg_r.c **** 
 290:./ucOSII/Port/os_dbg_r.c ****     ptemp = (void const *)&OSPtrSize;
 509              		.loc 1 290 11
ARM GAS  /var/folders/yl/_q9l42k90g1g4mdhbs226msm0000gn/T//ccTuw3OI.s 			page 13


 510 005e 3C4B     		ldr	r3, .L2+88
 511 0060 7B60     		str	r3, [r7, #4]
 291:./ucOSII/Port/os_dbg_r.c **** 
 292:./ucOSII/Port/os_dbg_r.c ****     ptemp = (void const *)&OSQEn;
 512              		.loc 1 292 11
 513 0062 3C4B     		ldr	r3, .L2+92
 514 0064 7B60     		str	r3, [r7, #4]
 293:./ucOSII/Port/os_dbg_r.c ****     ptemp = (void const *)&OSQMax;
 515              		.loc 1 293 11
 516 0066 3C4B     		ldr	r3, .L2+96
 517 0068 7B60     		str	r3, [r7, #4]
 294:./ucOSII/Port/os_dbg_r.c ****     ptemp = (void const *)&OSQSize;
 518              		.loc 1 294 11
 519 006a 3C4B     		ldr	r3, .L2+100
 520 006c 7B60     		str	r3, [r7, #4]
 295:./ucOSII/Port/os_dbg_r.c **** 
 296:./ucOSII/Port/os_dbg_r.c ****     ptemp = (void const *)&OSRdyTblSize;
 521              		.loc 1 296 11
 522 006e 3C4B     		ldr	r3, .L2+104
 523 0070 7B60     		str	r3, [r7, #4]
 297:./ucOSII/Port/os_dbg_r.c **** 
 298:./ucOSII/Port/os_dbg_r.c ****     ptemp = (void const *)&OSSemEn;
 524              		.loc 1 298 11
 525 0072 3C4B     		ldr	r3, .L2+108
 526 0074 7B60     		str	r3, [r7, #4]
 299:./ucOSII/Port/os_dbg_r.c **** 
 300:./ucOSII/Port/os_dbg_r.c ****     ptemp = (void const *)&OSStkWidth;
 527              		.loc 1 300 11
 528 0076 3C4B     		ldr	r3, .L2+112
 529 0078 7B60     		str	r3, [r7, #4]
 301:./ucOSII/Port/os_dbg_r.c **** 
 302:./ucOSII/Port/os_dbg_r.c ****     ptemp = (void const *)&OSTaskCreateEn;
 530              		.loc 1 302 11
 531 007a 3C4B     		ldr	r3, .L2+116
 532 007c 7B60     		str	r3, [r7, #4]
 303:./ucOSII/Port/os_dbg_r.c ****     ptemp = (void const *)&OSTaskCreateExtEn;
 533              		.loc 1 303 11
 534 007e 3C4B     		ldr	r3, .L2+120
 535 0080 7B60     		str	r3, [r7, #4]
 304:./ucOSII/Port/os_dbg_r.c ****     ptemp = (void const *)&OSTaskDelEn;
 536              		.loc 1 304 11
 537 0082 3C4B     		ldr	r3, .L2+124
 538 0084 7B60     		str	r3, [r7, #4]
 305:./ucOSII/Port/os_dbg_r.c ****     ptemp = (void const *)&OSTaskIdleStkSize;
 539              		.loc 1 305 11
 540 0086 3C4B     		ldr	r3, .L2+128
 541 0088 7B60     		str	r3, [r7, #4]
 306:./ucOSII/Port/os_dbg_r.c ****     ptemp = (void const *)&OSTaskProfileEn;
 542              		.loc 1 306 11
 543 008a 3C4B     		ldr	r3, .L2+132
 544 008c 7B60     		str	r3, [r7, #4]
 307:./ucOSII/Port/os_dbg_r.c ****     ptemp = (void const *)&OSTaskMax;
 545              		.loc 1 307 11
 546 008e 3C4B     		ldr	r3, .L2+136
 547 0090 7B60     		str	r3, [r7, #4]
 308:./ucOSII/Port/os_dbg_r.c ****     ptemp = (void const *)&OSTaskNameEn;
 548              		.loc 1 308 11
ARM GAS  /var/folders/yl/_q9l42k90g1g4mdhbs226msm0000gn/T//ccTuw3OI.s 			page 14


 549 0092 3C4B     		ldr	r3, .L2+140
 550 0094 7B60     		str	r3, [r7, #4]
 309:./ucOSII/Port/os_dbg_r.c ****     ptemp = (void const *)&OSTaskStatEn;
 551              		.loc 1 309 11
 552 0096 3C4B     		ldr	r3, .L2+144
 553 0098 7B60     		str	r3, [r7, #4]
 310:./ucOSII/Port/os_dbg_r.c ****     ptemp = (void const *)&OSTaskStatStkSize;
 554              		.loc 1 310 11
 555 009a 3C4B     		ldr	r3, .L2+148
 556 009c 7B60     		str	r3, [r7, #4]
 311:./ucOSII/Port/os_dbg_r.c ****     ptemp = (void const *)&OSTaskStatStkChkEn;
 557              		.loc 1 311 11
 558 009e 3C4B     		ldr	r3, .L2+152
 559 00a0 7B60     		str	r3, [r7, #4]
 312:./ucOSII/Port/os_dbg_r.c ****     ptemp = (void const *)&OSTaskSwHookEn;
 560              		.loc 1 312 11
 561 00a2 3C4B     		ldr	r3, .L2+156
 562 00a4 7B60     		str	r3, [r7, #4]
 313:./ucOSII/Port/os_dbg_r.c **** 
 314:./ucOSII/Port/os_dbg_r.c ****     ptemp = (void const *)&OSTCBPrioTblMax;
 563              		.loc 1 314 11
 564 00a6 3C4B     		ldr	r3, .L2+160
 565 00a8 7B60     		str	r3, [r7, #4]
 315:./ucOSII/Port/os_dbg_r.c ****     ptemp = (void const *)&OSTCBSize;
 566              		.loc 1 315 11
 567 00aa 3C4B     		ldr	r3, .L2+164
 568 00ac 7B60     		str	r3, [r7, #4]
 316:./ucOSII/Port/os_dbg_r.c **** 
 317:./ucOSII/Port/os_dbg_r.c ****     ptemp = (void const *)&OSTicksPerSec;
 569              		.loc 1 317 11
 570 00ae 3C4B     		ldr	r3, .L2+168
 571 00b0 7B60     		str	r3, [r7, #4]
 318:./ucOSII/Port/os_dbg_r.c ****     ptemp = (void const *)&OSTimeTickHookEn;
 572              		.loc 1 318 11
 573 00b2 3C4B     		ldr	r3, .L2+172
 574 00b4 7B60     		str	r3, [r7, #4]
 319:./ucOSII/Port/os_dbg_r.c **** 
 320:./ucOSII/Port/os_dbg_r.c **** #if OS_TMR_EN > 0u
 321:./ucOSII/Port/os_dbg_r.c ****     ptemp = (void const *)&OSTmrTbl[0];
 575              		.loc 1 321 11
 576 00b6 3C4B     		ldr	r3, .L2+176
 577 00b8 7B60     		str	r3, [r7, #4]
 322:./ucOSII/Port/os_dbg_r.c ****     ptemp = (void const *)&OSTmrWheelTbl[0];
 578              		.loc 1 322 11
 579 00ba 3C4B     		ldr	r3, .L2+180
 580 00bc 7B60     		str	r3, [r7, #4]
 323:./ucOSII/Port/os_dbg_r.c **** 
 324:./ucOSII/Port/os_dbg_r.c ****     ptemp = (void const *)&OSTmrEn;
 581              		.loc 1 324 11
 582 00be 3C4B     		ldr	r3, .L2+184
 583 00c0 7B60     		str	r3, [r7, #4]
 325:./ucOSII/Port/os_dbg_r.c ****     ptemp = (void const *)&OSTmrCfgMax;
 584              		.loc 1 325 11
 585 00c2 3C4B     		ldr	r3, .L2+188
 586 00c4 7B60     		str	r3, [r7, #4]
 326:./ucOSII/Port/os_dbg_r.c ****     ptemp = (void const *)&OSTmrCfgNameEn;
 587              		.loc 1 326 11
ARM GAS  /var/folders/yl/_q9l42k90g1g4mdhbs226msm0000gn/T//ccTuw3OI.s 			page 15


 588 00c6 3C4B     		ldr	r3, .L2+192
 589 00c8 7B60     		str	r3, [r7, #4]
 327:./ucOSII/Port/os_dbg_r.c ****     ptemp = (void const *)&OSTmrCfgWheelSize;
 590              		.loc 1 327 11
 591 00ca 3C4B     		ldr	r3, .L2+196
 592 00cc 7B60     		str	r3, [r7, #4]
 328:./ucOSII/Port/os_dbg_r.c ****     ptemp = (void const *)&OSTmrCfgTicksPerSec;
 593              		.loc 1 328 11
 594 00ce 3C4B     		ldr	r3, .L2+200
 595 00d0 7B60     		str	r3, [r7, #4]
 329:./ucOSII/Port/os_dbg_r.c ****     ptemp = (void const *)&OSTmrSize;
 596              		.loc 1 329 11
 597 00d2 3C4B     		ldr	r3, .L2+204
 598 00d4 7B60     		str	r3, [r7, #4]
 330:./ucOSII/Port/os_dbg_r.c ****     ptemp = (void const *)&OSTmrTblSize;
 599              		.loc 1 330 11
 600 00d6 3C4B     		ldr	r3, .L2+208
 601 00d8 7B60     		str	r3, [r7, #4]
 331:./ucOSII/Port/os_dbg_r.c **** 
 332:./ucOSII/Port/os_dbg_r.c ****     ptemp = (void const *)&OSTmrWheelSize;
 602              		.loc 1 332 11
 603 00da 3C4B     		ldr	r3, .L2+212
 604 00dc 7B60     		str	r3, [r7, #4]
 333:./ucOSII/Port/os_dbg_r.c ****     ptemp = (void const *)&OSTmrWheelTblSize;
 605              		.loc 1 333 11
 606 00de 3C4B     		ldr	r3, .L2+216
 607 00e0 7B60     		str	r3, [r7, #4]
 334:./ucOSII/Port/os_dbg_r.c **** #endif
 335:./ucOSII/Port/os_dbg_r.c **** 
 336:./ucOSII/Port/os_dbg_r.c ****     ptemp = (void const *)&OSVersionNbr;
 608              		.loc 1 336 11
 609 00e2 3C4B     		ldr	r3, .L2+220
 610 00e4 7B60     		str	r3, [r7, #4]
 337:./ucOSII/Port/os_dbg_r.c **** 
 338:./ucOSII/Port/os_dbg_r.c ****     ptemp = (void const *)&OSDataSize;
 611              		.loc 1 338 11
 612 00e6 3C4B     		ldr	r3, .L2+224
 613 00e8 7B60     		str	r3, [r7, #4]
 339:./ucOSII/Port/os_dbg_r.c **** 
 340:./ucOSII/Port/os_dbg_r.c ****     ptemp = ptemp;                             /* Prevent compiler warning for 'ptemp' not being us
 341:./ucOSII/Port/os_dbg_r.c **** }
 614              		.loc 1 341 1
 615 00ea 00BF     		nop
 616 00ec 0C37     		adds	r7, r7, #12
 617              	.LCFI3:
 618              		.cfi_def_cfa_offset 4
 619 00ee BD46     		mov	sp, r7
 620              	.LCFI4:
 621              		.cfi_def_cfa_register 13
 622              		@ sp needed
 623 00f0 5DF8047B 		ldr	r7, [sp], #4
 624              	.LCFI5:
 625              		.cfi_restore 7
 626              		.cfi_def_cfa_offset 0
 627 00f4 7047     		bx	lr
 628              	.L3:
 629 00f6 00BF     		.align	2
ARM GAS  /var/folders/yl/_q9l42k90g1g4mdhbs226msm0000gn/T//ccTuw3OI.s 			page 16


 630              	.L2:
 631 00f8 00000000 		.word	OSDebugEn
 632 00fc 00000000 		.word	OSEndiannessTest
 633 0100 00000000 		.word	OSEventMax
 634 0104 00000000 		.word	OSEventNameEn
 635 0108 00000000 		.word	OSEventEn
 636 010c 00000000 		.word	OSEventSize
 637 0110 00000000 		.word	OSEventTblSize
 638 0114 00000000 		.word	OSEventMultiEn
 639 0118 00000000 		.word	OSFlagEn
 640 011c 00000000 		.word	OSFlagGrpSize
 641 0120 00000000 		.word	OSFlagNodeSize
 642 0124 00000000 		.word	OSFlagWidth
 643 0128 00000000 		.word	OSFlagMax
 644 012c 00000000 		.word	OSFlagNameEn
 645 0130 00000000 		.word	OSLowestPrio
 646 0134 00000000 		.word	OSMboxEn
 647 0138 00000000 		.word	OSMemEn
 648 013c 00000000 		.word	OSMemMax
 649 0140 00000000 		.word	OSMemNameEn
 650 0144 00000000 		.word	OSMemSize
 651 0148 00000000 		.word	OSMemTblSize
 652 014c 00000000 		.word	OSMutexEn
 653 0150 00000000 		.word	OSPtrSize
 654 0154 00000000 		.word	OSQEn
 655 0158 00000000 		.word	OSQMax
 656 015c 00000000 		.word	OSQSize
 657 0160 00000000 		.word	OSRdyTblSize
 658 0164 00000000 		.word	OSSemEn
 659 0168 00000000 		.word	OSStkWidth
 660 016c 00000000 		.word	OSTaskCreateEn
 661 0170 00000000 		.word	OSTaskCreateExtEn
 662 0174 00000000 		.word	OSTaskDelEn
 663 0178 00000000 		.word	OSTaskIdleStkSize
 664 017c 00000000 		.word	OSTaskProfileEn
 665 0180 00000000 		.word	OSTaskMax
 666 0184 00000000 		.word	OSTaskNameEn
 667 0188 00000000 		.word	OSTaskStatEn
 668 018c 00000000 		.word	OSTaskStatStkSize
 669 0190 00000000 		.word	OSTaskStatStkChkEn
 670 0194 00000000 		.word	OSTaskSwHookEn
 671 0198 00000000 		.word	OSTCBPrioTblMax
 672 019c 00000000 		.word	OSTCBSize
 673 01a0 00000000 		.word	OSTicksPerSec
 674 01a4 00000000 		.word	OSTimeTickHookEn
 675 01a8 00000000 		.word	OSTmrTbl
 676 01ac 00000000 		.word	OSTmrWheelTbl
 677 01b0 00000000 		.word	OSTmrEn
 678 01b4 00000000 		.word	OSTmrCfgMax
 679 01b8 00000000 		.word	OSTmrCfgNameEn
 680 01bc 00000000 		.word	OSTmrCfgWheelSize
 681 01c0 00000000 		.word	OSTmrCfgTicksPerSec
 682 01c4 00000000 		.word	OSTmrSize
 683 01c8 00000000 		.word	OSTmrTblSize
 684 01cc 00000000 		.word	OSTmrWheelSize
 685 01d0 00000000 		.word	OSTmrWheelTblSize
 686 01d4 00000000 		.word	OSVersionNbr
ARM GAS  /var/folders/yl/_q9l42k90g1g4mdhbs226msm0000gn/T//ccTuw3OI.s 			page 17


 687 01d8 00000000 		.word	OSDataSize
 688              		.cfi_endproc
 689              	.LFE3:
 691              		.text
 692              	.Letext0:
 693              		.file 2 "./ucOSII/Port/os_cpu.h"
 694              		.file 3 "./ucOSII/Core/ucos_ii.h"
ARM GAS  /var/folders/yl/_q9l42k90g1g4mdhbs226msm0000gn/T//ccTuw3OI.s 			page 18

