ARM GAS  /var/folders/yl/_q9l42k90g1g4mdhbs226msm0000gn/T//ccrGDprE.s 			page 1


   1              		.cpu cortex-m4
   2              		.arch armv7e-m
   3              		.fpu fpv4-sp-d16
   4              		.eabi_attribute 27, 1
   5              		.eabi_attribute 28, 1
   6              		.eabi_attribute 20, 1
   7              		.eabi_attribute 21, 1
   8              		.eabi_attribute 23, 3
   9              		.eabi_attribute 24, 1
  10              		.eabi_attribute 25, 1
  11              		.eabi_attribute 26, 1
  12              		.eabi_attribute 30, 6
  13              		.eabi_attribute 34, 1
  14              		.eabi_attribute 18, 4
  15              		.file	"PWM.c"
  16              		.text
  17              	.Ltext0:
  18              		.cfi_sections	.debug_frame
  19              		.section	.text.PWM_Init,"ax",%progbits
  20              		.align	1
  21              		.global	PWM_Init
  22              		.syntax unified
  23              		.thumb
  24              		.thumb_func
  26              	PWM_Init:
  27              	.LFB126:
  28              		.file 1 "./Hardware/PWM.c"
   1:./Hardware/PWM.c **** #include "PWM.h"
   2:./Hardware/PWM.c **** 
   3:./Hardware/PWM.c **** 
   4:./Hardware/PWM.c **** /******************************************
   5:./Hardware/PWM.c ****  *PWM的初始化，包括TIM3的设定与对应CH1的GPIO口设置
   6:./Hardware/PWM.c ****  *****************************************/
   7:./Hardware/PWM.c **** void PWM_Init()
   8:./Hardware/PWM.c **** {
  29              		.loc 1 8 1
  30              		.cfi_startproc
  31              		@ args = 0, pretend = 0, frame = 40
  32              		@ frame_needed = 1, uses_anonymous_args = 0
  33 0000 80B5     		push	{r7, lr}
  34              	.LCFI0:
  35              		.cfi_def_cfa_offset 8
  36              		.cfi_offset 7, -8
  37              		.cfi_offset 14, -4
  38 0002 8AB0     		sub	sp, sp, #40
  39              	.LCFI1:
  40              		.cfi_def_cfa_offset 48
  41 0004 00AF     		add	r7, sp, #0
  42              	.LCFI2:
  43              		.cfi_def_cfa_register 7
   9:./Hardware/PWM.c **** 	//开启对应时钟
  10:./Hardware/PWM.c **** 	RCC_AHB1PeriphClockCmd(RCC_AHB1Periph_GPIOA,  ENABLE);
  44              		.loc 1 10 2
  45 0006 0121     		movs	r1, #1
  46 0008 0120     		movs	r0, #1
  47 000a FFF7FEFF 		bl	RCC_AHB1PeriphClockCmd
  11:./Hardware/PWM.c **** 	RCC_AHB1PeriphClockCmd(RCC_AHB1Periph_GPIOB,  ENABLE);
ARM GAS  /var/folders/yl/_q9l42k90g1g4mdhbs226msm0000gn/T//ccrGDprE.s 			page 2


  48              		.loc 1 11 2
  49 000e 0121     		movs	r1, #1
  50 0010 0220     		movs	r0, #2
  51 0012 FFF7FEFF 		bl	RCC_AHB1PeriphClockCmd
  12:./Hardware/PWM.c **** 	RCC_APB1PeriphClockCmd(RCC_APB1Periph_TIM3,   ENABLE);
  52              		.loc 1 12 2
  53 0016 0121     		movs	r1, #1
  54 0018 0220     		movs	r0, #2
  55 001a FFF7FEFF 		bl	RCC_APB1PeriphClockCmd
  13:./Hardware/PWM.c **** 	//初始化PA6PA7
  14:./Hardware/PWM.c **** 	GPIO_InitTypeDef GPIO_InitStructure;
  15:./Hardware/PWM.c **** 	GPIO_InitStructure.GPIO_Pin = GPIO_Pin_6 | GPIO_Pin_7;
  56              		.loc 1 15 30
  57 001e C023     		movs	r3, #192
  58 0020 3B62     		str	r3, [r7, #32]
  16:./Hardware/PWM.c **** 	GPIO_InitStructure.GPIO_Mode = GPIO_Mode_AF;
  59              		.loc 1 16 31
  60 0022 0223     		movs	r3, #2
  61 0024 87F82430 		strb	r3, [r7, #36]
  17:./Hardware/PWM.c **** 	GPIO_InitStructure.GPIO_OType = GPIO_OType_PP;
  62              		.loc 1 17 32
  63 0028 0023     		movs	r3, #0
  64 002a 87F82630 		strb	r3, [r7, #38]
  18:./Hardware/PWM.c **** 	GPIO_InitStructure.GPIO_Speed = GPIO_Speed_100MHz;
  65              		.loc 1 18 32
  66 002e 0323     		movs	r3, #3
  67 0030 87F82530 		strb	r3, [r7, #37]
  19:./Hardware/PWM.c **** 	GPIO_InitStructure.GPIO_PuPd = GPIO_PuPd_UP;
  68              		.loc 1 19 31
  69 0034 0123     		movs	r3, #1
  70 0036 87F82730 		strb	r3, [r7, #39]
  20:./Hardware/PWM.c **** 	GPIO_Init(GPIOA,&GPIO_InitStructure);
  71              		.loc 1 20 2
  72 003a 07F12003 		add	r3, r7, #32
  73 003e 1946     		mov	r1, r3
  74 0040 3748     		ldr	r0, .L2
  75 0042 FFF7FEFF 		bl	GPIO_Init
  21:./Hardware/PWM.c **** 	GPIO_PinAFConfig(GPIOA,GPIO_PinSource6,GPIO_AF_TIM3);
  76              		.loc 1 21 2
  77 0046 0222     		movs	r2, #2
  78 0048 0621     		movs	r1, #6
  79 004a 3548     		ldr	r0, .L2
  80 004c FFF7FEFF 		bl	GPIO_PinAFConfig
  22:./Hardware/PWM.c **** 	GPIO_PinAFConfig(GPIOA,GPIO_PinSource7,GPIO_AF_TIM3);
  81              		.loc 1 22 2
  82 0050 0222     		movs	r2, #2
  83 0052 0721     		movs	r1, #7
  84 0054 3248     		ldr	r0, .L2
  85 0056 FFF7FEFF 		bl	GPIO_PinAFConfig
  23:./Hardware/PWM.c **** 	//初始化PB0PB1
  24:./Hardware/PWM.c **** 	GPIO_InitStructure.GPIO_Pin = GPIO_Pin_0 | GPIO_Pin_1;
  86              		.loc 1 24 30
  87 005a 0323     		movs	r3, #3
  88 005c 3B62     		str	r3, [r7, #32]
  25:./Hardware/PWM.c **** 	GPIO_InitStructure.GPIO_Mode = GPIO_Mode_AF;
  89              		.loc 1 25 31
  90 005e 0223     		movs	r3, #2
ARM GAS  /var/folders/yl/_q9l42k90g1g4mdhbs226msm0000gn/T//ccrGDprE.s 			page 3


  91 0060 87F82430 		strb	r3, [r7, #36]
  26:./Hardware/PWM.c **** 	GPIO_InitStructure.GPIO_OType = GPIO_OType_PP;
  92              		.loc 1 26 32
  93 0064 0023     		movs	r3, #0
  94 0066 87F82630 		strb	r3, [r7, #38]
  27:./Hardware/PWM.c **** 	GPIO_InitStructure.GPIO_Speed = GPIO_Speed_100MHz;
  95              		.loc 1 27 32
  96 006a 0323     		movs	r3, #3
  97 006c 87F82530 		strb	r3, [r7, #37]
  28:./Hardware/PWM.c **** 	GPIO_InitStructure.GPIO_PuPd = GPIO_PuPd_UP;
  98              		.loc 1 28 31
  99 0070 0123     		movs	r3, #1
 100 0072 87F82730 		strb	r3, [r7, #39]
  29:./Hardware/PWM.c **** 	GPIO_Init(GPIOB,&GPIO_InitStructure);
 101              		.loc 1 29 2
 102 0076 07F12003 		add	r3, r7, #32
 103 007a 1946     		mov	r1, r3
 104 007c 2948     		ldr	r0, .L2+4
 105 007e FFF7FEFF 		bl	GPIO_Init
  30:./Hardware/PWM.c **** 	GPIO_PinAFConfig(GPIOB,GPIO_PinSource0,GPIO_AF_TIM3);
 106              		.loc 1 30 2
 107 0082 0222     		movs	r2, #2
 108 0084 0021     		movs	r1, #0
 109 0086 2748     		ldr	r0, .L2+4
 110 0088 FFF7FEFF 		bl	GPIO_PinAFConfig
  31:./Hardware/PWM.c **** 	GPIO_PinAFConfig(GPIOB,GPIO_PinSource1,GPIO_AF_TIM3);
 111              		.loc 1 31 2
 112 008c 0222     		movs	r2, #2
 113 008e 0121     		movs	r1, #1
 114 0090 2448     		ldr	r0, .L2+4
 115 0092 FFF7FEFF 		bl	GPIO_PinAFConfig
  32:./Hardware/PWM.c **** 	//初始化TIM3的时基单元,PWM周期为20ms，即50Hz频率.每0.02秒计数2000下
  33:./Hardware/PWM.c **** 	TIM_TimeBaseInitTypeDef TIM_TimeBaseStructure;
  34:./Hardware/PWM.c **** 	TIM_TimeBaseStructure.TIM_Prescaler = 161 -1;
 116              		.loc 1 34 38
 117 0096 A023     		movs	r3, #160
 118 0098 BB82     		strh	r3, [r7, #20]	@ movhi
  35:./Hardware/PWM.c **** 	TIM_TimeBaseStructure.TIM_CounterMode = TIM_CounterMode_Up;
 119              		.loc 1 35 40
 120 009a 0023     		movs	r3, #0
 121 009c FB82     		strh	r3, [r7, #22]	@ movhi
  36:./Hardware/PWM.c **** 	TIM_TimeBaseStructure.TIM_Period = 2000 -1;
 122              		.loc 1 36 35
 123 009e 40F2CF73 		movw	r3, #1999
 124 00a2 BB61     		str	r3, [r7, #24]
  37:./Hardware/PWM.c **** 	TIM_TimeBaseStructure.TIM_ClockDivision = 0;
 125              		.loc 1 37 42
 126 00a4 0023     		movs	r3, #0
 127 00a6 BB83     		strh	r3, [r7, #28]	@ movhi
  38:./Hardware/PWM.c **** 	TIM_TimeBaseInit(TIM3,&TIM_TimeBaseStructure);
 128              		.loc 1 38 2
 129 00a8 07F11403 		add	r3, r7, #20
 130 00ac 1946     		mov	r1, r3
 131 00ae 1E48     		ldr	r0, .L2+8
 132 00b0 FFF7FEFF 		bl	TIM_TimeBaseInit
  39:./Hardware/PWM.c **** 	//初始化TIM3CH1~4的PWM输出模式
  40:./Hardware/PWM.c **** 	TIM_OCInitTypeDef TIM_OCInitStructure;
ARM GAS  /var/folders/yl/_q9l42k90g1g4mdhbs226msm0000gn/T//ccrGDprE.s 			page 4


  41:./Hardware/PWM.c **** 	TIM_OCInitStructure.TIM_OCMode = TIM_OCMode_PWM1;
 133              		.loc 1 41 33
 134 00b4 6023     		movs	r3, #96
 135 00b6 3B80     		strh	r3, [r7]	@ movhi
  42:./Hardware/PWM.c **** 	TIM_OCInitStructure.TIM_OutputState = TIM_OutputState_Enable;
 136              		.loc 1 42 38
 137 00b8 0123     		movs	r3, #1
 138 00ba 7B80     		strh	r3, [r7, #2]	@ movhi
  43:./Hardware/PWM.c **** 	TIM_OCInitStructure.TIM_OCPolarity = TIM_OCPolarity_High;
 139              		.loc 1 43 37
 140 00bc 0023     		movs	r3, #0
 141 00be BB81     		strh	r3, [r7, #12]	@ movhi
  44:./Hardware/PWM.c **** 	TIM_OC1Init(TIM3,&TIM_OCInitStructure);
 142              		.loc 1 44 2
 143 00c0 3B46     		mov	r3, r7
 144 00c2 1946     		mov	r1, r3
 145 00c4 1848     		ldr	r0, .L2+8
 146 00c6 FFF7FEFF 		bl	TIM_OC1Init
  45:./Hardware/PWM.c **** 	TIM_OC2Init(TIM3,&TIM_OCInitStructure);
 147              		.loc 1 45 2
 148 00ca 3B46     		mov	r3, r7
 149 00cc 1946     		mov	r1, r3
 150 00ce 1648     		ldr	r0, .L2+8
 151 00d0 FFF7FEFF 		bl	TIM_OC2Init
  46:./Hardware/PWM.c **** 	TIM_OC3Init(TIM3,&TIM_OCInitStructure);
 152              		.loc 1 46 2
 153 00d4 3B46     		mov	r3, r7
 154 00d6 1946     		mov	r1, r3
 155 00d8 1348     		ldr	r0, .L2+8
 156 00da FFF7FEFF 		bl	TIM_OC3Init
  47:./Hardware/PWM.c **** 	TIM_OC4Init(TIM3,&TIM_OCInitStructure);
 157              		.loc 1 47 2
 158 00de 3B46     		mov	r3, r7
 159 00e0 1946     		mov	r1, r3
 160 00e2 1148     		ldr	r0, .L2+8
 161 00e4 FFF7FEFF 		bl	TIM_OC4Init
  48:./Hardware/PWM.c **** 	//使能预装载器
  49:./Hardware/PWM.c **** 	TIM_OC1PreloadConfig(TIM3,TIM_OCPreload_Enable);
 162              		.loc 1 49 2
 163 00e8 0821     		movs	r1, #8
 164 00ea 0F48     		ldr	r0, .L2+8
 165 00ec FFF7FEFF 		bl	TIM_OC1PreloadConfig
  50:./Hardware/PWM.c **** 	TIM_OC2PreloadConfig(TIM3,TIM_OCPreload_Enable);
 166              		.loc 1 50 2
 167 00f0 0821     		movs	r1, #8
 168 00f2 0D48     		ldr	r0, .L2+8
 169 00f4 FFF7FEFF 		bl	TIM_OC2PreloadConfig
  51:./Hardware/PWM.c **** 	TIM_OC3PreloadConfig(TIM3,TIM_OCPreload_Enable);
 170              		.loc 1 51 2
 171 00f8 0821     		movs	r1, #8
 172 00fa 0B48     		ldr	r0, .L2+8
 173 00fc FFF7FEFF 		bl	TIM_OC3PreloadConfig
  52:./Hardware/PWM.c **** 	TIM_OC4PreloadConfig(TIM3,TIM_OCPreload_Enable);
 174              		.loc 1 52 2
 175 0100 0821     		movs	r1, #8
 176 0102 0948     		ldr	r0, .L2+8
 177 0104 FFF7FEFF 		bl	TIM_OC4PreloadConfig
ARM GAS  /var/folders/yl/_q9l42k90g1g4mdhbs226msm0000gn/T//ccrGDprE.s 			page 5


  53:./Hardware/PWM.c **** 	TIM_ARRPreloadConfig(TIM3,ENABLE);
 178              		.loc 1 53 2
 179 0108 0121     		movs	r1, #1
 180 010a 0748     		ldr	r0, .L2+8
 181 010c FFF7FEFF 		bl	TIM_ARRPreloadConfig
  54:./Hardware/PWM.c **** 	
  55:./Hardware/PWM.c **** 	TIM_Cmd(TIM3,ENABLE);
 182              		.loc 1 55 2
 183 0110 0121     		movs	r1, #1
 184 0112 0548     		ldr	r0, .L2+8
 185 0114 FFF7FEFF 		bl	TIM_Cmd
  56:./Hardware/PWM.c **** 
  57:./Hardware/PWM.c **** }
 186              		.loc 1 57 1
 187 0118 00BF     		nop
 188 011a 2837     		adds	r7, r7, #40
 189              	.LCFI3:
 190              		.cfi_def_cfa_offset 8
 191 011c BD46     		mov	sp, r7
 192              	.LCFI4:
 193              		.cfi_def_cfa_register 13
 194              		@ sp needed
 195 011e 80BD     		pop	{r7, pc}
 196              	.L3:
 197              		.align	2
 198              	.L2:
 199 0120 00000240 		.word	1073872896
 200 0124 00040240 		.word	1073873920
 201 0128 00040040 		.word	1073742848
 202              		.cfi_endproc
 203              	.LFE126:
 205              		.section	.text.PWM_SetCompareAll,"ax",%progbits
 206              		.align	1
 207              		.global	PWM_SetCompareAll
 208              		.syntax unified
 209              		.thumb
 210              		.thumb_func
 212              	PWM_SetCompareAll:
 213              	.LFB127:
  58:./Hardware/PWM.c **** 
  59:./Hardware/PWM.c **** void PWM_SetCompareAll(uint16_t Compare)
  60:./Hardware/PWM.c **** {
 214              		.loc 1 60 1
 215              		.cfi_startproc
 216              		@ args = 0, pretend = 0, frame = 8
 217              		@ frame_needed = 1, uses_anonymous_args = 0
 218 0000 80B5     		push	{r7, lr}
 219              	.LCFI5:
 220              		.cfi_def_cfa_offset 8
 221              		.cfi_offset 7, -8
 222              		.cfi_offset 14, -4
 223 0002 82B0     		sub	sp, sp, #8
 224              	.LCFI6:
 225              		.cfi_def_cfa_offset 16
 226 0004 00AF     		add	r7, sp, #0
 227              	.LCFI7:
 228              		.cfi_def_cfa_register 7
ARM GAS  /var/folders/yl/_q9l42k90g1g4mdhbs226msm0000gn/T//ccrGDprE.s 			page 6


 229 0006 0346     		mov	r3, r0
 230 0008 FB80     		strh	r3, [r7, #6]	@ movhi
  61:./Hardware/PWM.c **** 	TIM_SetCompare1(TIM3, Compare);
 231              		.loc 1 61 2
 232 000a FB88     		ldrh	r3, [r7, #6]
 233 000c 1946     		mov	r1, r3
 234 000e 0B48     		ldr	r0, .L5
 235 0010 FFF7FEFF 		bl	TIM_SetCompare1
  62:./Hardware/PWM.c **** 	TIM_SetCompare2(TIM3, Compare);
 236              		.loc 1 62 2
 237 0014 FB88     		ldrh	r3, [r7, #6]
 238 0016 1946     		mov	r1, r3
 239 0018 0848     		ldr	r0, .L5
 240 001a FFF7FEFF 		bl	TIM_SetCompare2
  63:./Hardware/PWM.c **** 	TIM_SetCompare3(TIM3, Compare);
 241              		.loc 1 63 2
 242 001e FB88     		ldrh	r3, [r7, #6]
 243 0020 1946     		mov	r1, r3
 244 0022 0648     		ldr	r0, .L5
 245 0024 FFF7FEFF 		bl	TIM_SetCompare3
  64:./Hardware/PWM.c **** 	TIM_SetCompare4(TIM3, Compare);
 246              		.loc 1 64 2
 247 0028 FB88     		ldrh	r3, [r7, #6]
 248 002a 1946     		mov	r1, r3
 249 002c 0348     		ldr	r0, .L5
 250 002e FFF7FEFF 		bl	TIM_SetCompare4
  65:./Hardware/PWM.c **** }
 251              		.loc 1 65 1
 252 0032 00BF     		nop
 253 0034 0837     		adds	r7, r7, #8
 254              	.LCFI8:
 255              		.cfi_def_cfa_offset 8
 256 0036 BD46     		mov	sp, r7
 257              	.LCFI9:
 258              		.cfi_def_cfa_register 13
 259              		@ sp needed
 260 0038 80BD     		pop	{r7, pc}
 261              	.L6:
 262 003a 00BF     		.align	2
 263              	.L5:
 264 003c 00040040 		.word	1073742848
 265              		.cfi_endproc
 266              	.LFE127:
 268              		.section	.text.Motor_Init,"ax",%progbits
 269              		.align	1
 270              		.global	Motor_Init
 271              		.syntax unified
 272              		.thumb
 273              		.thumb_func
 275              	Motor_Init:
 276              	.LFB128:
  66:./Hardware/PWM.c **** 
  67:./Hardware/PWM.c **** 
  68:./Hardware/PWM.c **** void Motor_Init()
  69:./Hardware/PWM.c **** {
 277              		.loc 1 69 1
 278              		.cfi_startproc
ARM GAS  /var/folders/yl/_q9l42k90g1g4mdhbs226msm0000gn/T//ccrGDprE.s 			page 7


 279              		@ args = 0, pretend = 0, frame = 0
 280              		@ frame_needed = 1, uses_anonymous_args = 0
 281 0000 80B5     		push	{r7, lr}
 282              	.LCFI10:
 283              		.cfi_def_cfa_offset 8
 284              		.cfi_offset 7, -8
 285              		.cfi_offset 14, -4
 286 0002 00AF     		add	r7, sp, #0
 287              	.LCFI11:
 288              		.cfi_def_cfa_register 7
  70:./Hardware/PWM.c **** 	PWM_Init();
 289              		.loc 1 70 2
 290 0004 FFF7FEFF 		bl	PWM_Init
  71:./Hardware/PWM.c **** }
 291              		.loc 1 71 1
 292 0008 00BF     		nop
 293 000a 80BD     		pop	{r7, pc}
 294              		.cfi_endproc
 295              	.LFE128:
 297              		.section	.text.Motor_SetSpeed_All,"ax",%progbits
 298              		.align	1
 299              		.global	Motor_SetSpeed_All
 300              		.syntax unified
 301              		.thumb
 302              		.thumb_func
 304              	Motor_SetSpeed_All:
 305              	.LFB129:
  72:./Hardware/PWM.c **** 
  73:./Hardware/PWM.c **** void Motor_SetSpeed_All(int8_t speed)
  74:./Hardware/PWM.c **** {
 306              		.loc 1 74 1
 307              		.cfi_startproc
 308              		@ args = 0, pretend = 0, frame = 8
 309              		@ frame_needed = 1, uses_anonymous_args = 0
 310 0000 80B5     		push	{r7, lr}
 311              	.LCFI12:
 312              		.cfi_def_cfa_offset 8
 313              		.cfi_offset 7, -8
 314              		.cfi_offset 14, -4
 315 0002 82B0     		sub	sp, sp, #8
 316              	.LCFI13:
 317              		.cfi_def_cfa_offset 16
 318 0004 00AF     		add	r7, sp, #0
 319              	.LCFI14:
 320              		.cfi_def_cfa_register 7
 321 0006 0346     		mov	r3, r0
 322 0008 FB71     		strb	r3, [r7, #7]
  75:./Hardware/PWM.c **** 	speed = speed < 100 ? (speed > 0 ? speed : 0) : 100;
 323              		.loc 1 75 8
 324 000a 97F90730 		ldrsb	r3, [r7, #7]
 325 000e 632B     		cmp	r3, #99
 326 0010 05DC     		bgt	.L9
 327              		.loc 1 75 8 is_stmt 0 discriminator 1
 328 0012 97F90730 		ldrsb	r3, [r7, #7]
 329 0016 23EAE373 		bic	r3, r3, r3, asr #31
 330 001a 5BB2     		sxtb	r3, r3
 331 001c 00E0     		b	.L10
ARM GAS  /var/folders/yl/_q9l42k90g1g4mdhbs226msm0000gn/T//ccrGDprE.s 			page 8


 332              	.L9:
 333              		.loc 1 75 8 discriminator 2
 334 001e 6423     		movs	r3, #100
 335              	.L10:
 336              		.loc 1 75 8 discriminator 4
 337 0020 FB71     		strb	r3, [r7, #7]
  76:./Hardware/PWM.c **** 	PWM_SetCompareAll(speed+100);
 338              		.loc 1 76 2 is_stmt 1 discriminator 4
 339 0022 97F90730 		ldrsb	r3, [r7, #7]
 340 0026 9BB2     		uxth	r3, r3
 341 0028 6433     		adds	r3, r3, #100
 342 002a 9BB2     		uxth	r3, r3
 343 002c 1846     		mov	r0, r3
 344 002e FFF7FEFF 		bl	PWM_SetCompareAll
  77:./Hardware/PWM.c **** }	
 345              		.loc 1 77 1 discriminator 4
 346 0032 00BF     		nop
 347 0034 0837     		adds	r7, r7, #8
 348              	.LCFI15:
 349              		.cfi_def_cfa_offset 8
 350 0036 BD46     		mov	sp, r7
 351              	.LCFI16:
 352              		.cfi_def_cfa_register 13
 353              		@ sp needed
 354 0038 80BD     		pop	{r7, pc}
 355              		.cfi_endproc
 356              	.LFE129:
 358              		.text
 359              	.Letext0:
 360              		.file 2 "/Applications/ARM/arm-none-eabi/include/machine/_default_types.h"
 361              		.file 3 "/Applications/ARM/arm-none-eabi/include/sys/_stdint.h"
 362              		.file 4 "./CORE/stm32f4xx.h"
 363              		.file 5 "./Library/stm32f4xx_gpio.h"
 364              		.file 6 "./Library/stm32f4xx_tim.h"
ARM GAS  /var/folders/yl/_q9l42k90g1g4mdhbs226msm0000gn/T//ccrGDprE.s 			page 9

