ARM GAS  /var/folders/yl/_q9l42k90g1g4mdhbs226msm0000gn/T//ccDtV1qt.s 			page 1


   1              		.cpu cortex-m4
   2              		.arch armv7e-m
   3              		.fpu fpv4-sp-d16
   4              		.eabi_attribute 27, 1
   5              		.eabi_attribute 28, 1
   6              		.eabi_attribute 20, 1
   7              		.eabi_attribute 21, 1
   8              		.eabi_attribute 23, 3
   9              		.eabi_attribute 24, 1
  10              		.eabi_attribute 25, 1
  11              		.eabi_attribute 26, 1
  12              		.eabi_attribute 30, 6
  13              		.eabi_attribute 34, 1
  14              		.eabi_attribute 18, 4
  15              		.file	"stm32f4xx_cryp.c"
  16              		.text
  17              	.Ltext0:
  18              		.cfi_sections	.debug_frame
  19              		.section	.text.CRYP_DeInit,"ax",%progbits
  20              		.align	1
  21              		.global	CRYP_DeInit
  22              		.syntax unified
  23              		.thumb
  24              		.thumb_func
  26              	CRYP_DeInit:
  27              	.LFB123:
  28              		.file 1 "./Library/stm32f4xx_cryp.c"
   1:./Library/stm32f4xx_cryp.c **** /**
   2:./Library/stm32f4xx_cryp.c ****   ******************************************************************************
   3:./Library/stm32f4xx_cryp.c ****   * @file    stm32f4xx_cryp.c
   4:./Library/stm32f4xx_cryp.c ****   * @author  MCD Application Team
   5:./Library/stm32f4xx_cryp.c ****   * @version V1.8.1
   6:./Library/stm32f4xx_cryp.c ****   * @date    27-January-2022
   7:./Library/stm32f4xx_cryp.c ****   * @brief   This file provides firmware functions to manage the following 
   8:./Library/stm32f4xx_cryp.c ****   *          functionalities of the  Cryptographic processor (CRYP) peripheral:
   9:./Library/stm32f4xx_cryp.c ****   *           + Initialization and Configuration functions
  10:./Library/stm32f4xx_cryp.c ****   *           + Data treatment functions 
  11:./Library/stm32f4xx_cryp.c ****   *           + Context swapping functions     
  12:./Library/stm32f4xx_cryp.c ****   *           + DMA interface function       
  13:./Library/stm32f4xx_cryp.c ****   *           + Interrupts and flags management       
  14:./Library/stm32f4xx_cryp.c ****   *
  15:./Library/stm32f4xx_cryp.c **** @verbatim
  16:./Library/stm32f4xx_cryp.c ****  ===================================================================      
  17:./Library/stm32f4xx_cryp.c ****                  ##### How to use this driver #####
  18:./Library/stm32f4xx_cryp.c ****  =================================================================== 
  19:./Library/stm32f4xx_cryp.c ****  [..]
  20:./Library/stm32f4xx_cryp.c ****    (#) Enable the CRYP controller clock using 
  21:./Library/stm32f4xx_cryp.c ****        RCC_AHB2PeriphClockCmd(RCC_AHB2Periph_CRYP, ENABLE); function.
  22:./Library/stm32f4xx_cryp.c ****   
  23:./Library/stm32f4xx_cryp.c ****    (#) Initialize the CRYP using CRYP_Init(), CRYP_KeyInit() and if needed 
  24:./Library/stm32f4xx_cryp.c ****        CRYP_IVInit(). 
  25:./Library/stm32f4xx_cryp.c ****   
  26:./Library/stm32f4xx_cryp.c ****    (#) Flush the IN and OUT FIFOs by using CRYP_FIFOFlush() function.
  27:./Library/stm32f4xx_cryp.c ****   
  28:./Library/stm32f4xx_cryp.c ****    (#) Enable the CRYP controller using the CRYP_Cmd() function. 
  29:./Library/stm32f4xx_cryp.c ****   
  30:./Library/stm32f4xx_cryp.c ****    (#) If using DMA for Data input and output transfer, activate the needed DMA 
ARM GAS  /var/folders/yl/_q9l42k90g1g4mdhbs226msm0000gn/T//ccDtV1qt.s 			page 2


  31:./Library/stm32f4xx_cryp.c ****        Requests using CRYP_DMACmd() function 
  32:./Library/stm32f4xx_cryp.c ****   
  33:./Library/stm32f4xx_cryp.c ****    (#) If DMA is not used for data transfer, use CRYP_DataIn() and  CRYP_DataOut() 
  34:./Library/stm32f4xx_cryp.c ****        functions to enter data to IN FIFO and get result from OUT FIFO.
  35:./Library/stm32f4xx_cryp.c ****   
  36:./Library/stm32f4xx_cryp.c ****    (#) To control CRYP events you can use one of the following two methods:
  37:./Library/stm32f4xx_cryp.c ****        (++) Check on CRYP flags using the CRYP_GetFlagStatus() function.  
  38:./Library/stm32f4xx_cryp.c ****        (++) Use CRYP interrupts through the function CRYP_ITConfig() at 
  39:./Library/stm32f4xx_cryp.c ****             initialization phase and CRYP_GetITStatus() function into interrupt 
  40:./Library/stm32f4xx_cryp.c ****             routines in processing phase.
  41:./Library/stm32f4xx_cryp.c ****          
  42:./Library/stm32f4xx_cryp.c ****    (#) Save and restore Cryptographic processor context using CRYP_SaveContext() 
  43:./Library/stm32f4xx_cryp.c ****        and CRYP_RestoreContext() functions.     
  44:./Library/stm32f4xx_cryp.c ****   
  45:./Library/stm32f4xx_cryp.c ****   
  46:./Library/stm32f4xx_cryp.c ****  *** Procedure to perform an encryption or a decryption ***
  47:./Library/stm32f4xx_cryp.c ****  ========================================================== 
  48:./Library/stm32f4xx_cryp.c ****   
  49:./Library/stm32f4xx_cryp.c ****  *** Initialization ***
  50:./Library/stm32f4xx_cryp.c ****  ====================== 
  51:./Library/stm32f4xx_cryp.c ****  [..] 
  52:./Library/stm32f4xx_cryp.c ****    (#) Initialize the peripheral using CRYP_Init(), CRYP_KeyInit() and CRYP_IVInit 
  53:./Library/stm32f4xx_cryp.c ****        functions:
  54:./Library/stm32f4xx_cryp.c ****        (++) Configure the key size (128-, 192- or 256-bit, in the AES only) 
  55:./Library/stm32f4xx_cryp.c ****        (++) Enter the symmetric key 
  56:./Library/stm32f4xx_cryp.c ****        (++) Configure the data type
  57:./Library/stm32f4xx_cryp.c ****        (++) In case of decryption in AES-ECB or AES-CBC, you must prepare 
  58:./Library/stm32f4xx_cryp.c ****             the key: configure the key preparation mode. Then Enable the CRYP 
  59:./Library/stm32f4xx_cryp.c ****             peripheral using CRYP_Cmd() function: the BUSY flag is set. 
  60:./Library/stm32f4xx_cryp.c ****             Wait until BUSY flag is reset : the key is prepared for decryption
  61:./Library/stm32f4xx_cryp.c ****        (++) Configure the algorithm and chaining (the DES/TDES in ECB/CBC, the 
  62:./Library/stm32f4xx_cryp.c ****             AES in ECB/CBC/CTR) 
  63:./Library/stm32f4xx_cryp.c ****        (++) Configure the direction (encryption/decryption).
  64:./Library/stm32f4xx_cryp.c ****        (++) Write the initialization vectors (in CBC or CTR modes only)
  65:./Library/stm32f4xx_cryp.c ****   
  66:./Library/stm32f4xx_cryp.c ****    (#) Flush the IN and OUT FIFOs using the CRYP_FIFOFlush() function
  67:./Library/stm32f4xx_cryp.c ****   
  68:./Library/stm32f4xx_cryp.c ****   
  69:./Library/stm32f4xx_cryp.c ****   *** Basic Processing mode (polling mode) *** 
  70:./Library/stm32f4xx_cryp.c ****   ============================================  
  71:./Library/stm32f4xx_cryp.c ****   [..]
  72:./Library/stm32f4xx_cryp.c ****     (#) Enable the cryptographic processor using CRYP_Cmd() function.
  73:./Library/stm32f4xx_cryp.c ****   
  74:./Library/stm32f4xx_cryp.c ****     (#) Write the first blocks in the input FIFO (2 to 8 words) using 
  75:./Library/stm32f4xx_cryp.c ****         CRYP_DataIn() function.
  76:./Library/stm32f4xx_cryp.c ****   
  77:./Library/stm32f4xx_cryp.c ****     (#) Repeat the following sequence until the complete message has been 
  78:./Library/stm32f4xx_cryp.c ****         processed:
  79:./Library/stm32f4xx_cryp.c ****   
  80:./Library/stm32f4xx_cryp.c ****         (++) Wait for flag CRYP_FLAG_OFNE occurs (using CRYP_GetFlagStatus() 
  81:./Library/stm32f4xx_cryp.c ****             function), then read the OUT-FIFO using CRYP_DataOut() function
  82:./Library/stm32f4xx_cryp.c ****             (1 block or until the FIFO is empty)
  83:./Library/stm32f4xx_cryp.c ****   
  84:./Library/stm32f4xx_cryp.c ****          (++) Wait for flag CRYP_FLAG_IFNF occurs, (using CRYP_GetFlagStatus() 
  85:./Library/stm32f4xx_cryp.c ****             function then write the IN FIFO using CRYP_DataIn() function 
  86:./Library/stm32f4xx_cryp.c ****             (1 block or until the FIFO is full)
  87:./Library/stm32f4xx_cryp.c ****   
ARM GAS  /var/folders/yl/_q9l42k90g1g4mdhbs226msm0000gn/T//ccDtV1qt.s 			page 3


  88:./Library/stm32f4xx_cryp.c ****     (#) At the end of the processing, CRYP_FLAG_BUSY flag will be reset and 
  89:./Library/stm32f4xx_cryp.c ****           both FIFOs are empty (CRYP_FLAG_IFEM is set and CRYP_FLAG_OFNE is 
  90:./Library/stm32f4xx_cryp.c ****           reset). You can disable the peripheral using CRYP_Cmd() function.
  91:./Library/stm32f4xx_cryp.c ****   
  92:./Library/stm32f4xx_cryp.c ****  *** Interrupts Processing mode *** 
  93:./Library/stm32f4xx_cryp.c ****  ==================================
  94:./Library/stm32f4xx_cryp.c ****  [..] In this mode, Processing is done when the data are transferred by the 
  95:./Library/stm32f4xx_cryp.c ****       CPU during interrupts.
  96:./Library/stm32f4xx_cryp.c ****   
  97:./Library/stm32f4xx_cryp.c ****     (#) Enable the interrupts CRYP_IT_INI and CRYP_IT_OUTI using CRYP_ITConfig()
  98:./Library/stm32f4xx_cryp.c ****         function.
  99:./Library/stm32f4xx_cryp.c ****   
 100:./Library/stm32f4xx_cryp.c ****     (#) Enable the cryptographic processor using CRYP_Cmd() function.
 101:./Library/stm32f4xx_cryp.c ****   
 102:./Library/stm32f4xx_cryp.c ****     (#) In the CRYP_IT_INI interrupt handler : load the input message into the 
 103:./Library/stm32f4xx_cryp.c ****          IN FIFO using CRYP_DataIn() function . You can load 2 or 4 words at a 
 104:./Library/stm32f4xx_cryp.c ****          time, or load data until the IN FIFO is full. When the last word of
 105:./Library/stm32f4xx_cryp.c ****          the message has been entered into the IN FIFO, disable the CRYP_IT_INI 
 106:./Library/stm32f4xx_cryp.c ****          interrupt (using CRYP_ITConfig() function).
 107:./Library/stm32f4xx_cryp.c ****   
 108:./Library/stm32f4xx_cryp.c ****     (#) In the CRYP_IT_OUTI interrupt handler : read the output message from 
 109:./Library/stm32f4xx_cryp.c ****          the OUT FIFO using CRYP_DataOut() function. You can read 1 block (2 or 
 110:./Library/stm32f4xx_cryp.c ****          4 words) at a time or read data until the FIFO is empty.
 111:./Library/stm32f4xx_cryp.c ****          When the last word has been read, INIM=0, BUSY=0 and both FIFOs are 
 112:./Library/stm32f4xx_cryp.c ****          empty (CRYP_FLAG_IFEM is set and CRYP_FLAG_OFNE is reset). 
 113:./Library/stm32f4xx_cryp.c ****          You can disable the CRYP_IT_OUTI interrupt (using CRYP_ITConfig() 
 114:./Library/stm32f4xx_cryp.c ****          function) and you can disable the peripheral using CRYP_Cmd() function.
 115:./Library/stm32f4xx_cryp.c ****   
 116:./Library/stm32f4xx_cryp.c ****  *** DMA Processing mode *** 
 117:./Library/stm32f4xx_cryp.c ****  ===========================
 118:./Library/stm32f4xx_cryp.c ****  [..] In this mode, Processing is done when the DMA is used to transfer the 
 119:./Library/stm32f4xx_cryp.c ****       data from/to the memory.
 120:./Library/stm32f4xx_cryp.c ****   
 121:./Library/stm32f4xx_cryp.c ****     (#) Configure the DMA controller to transfer the input data from the 
 122:./Library/stm32f4xx_cryp.c ****          memory using DMA_Init() function. 
 123:./Library/stm32f4xx_cryp.c ****          The transfer length is the length of the message. 
 124:./Library/stm32f4xx_cryp.c ****          As message padding is not managed by the peripheral, the message 
 125:./Library/stm32f4xx_cryp.c ****          length must be an entire number of blocks. The data are transferred 
 126:./Library/stm32f4xx_cryp.c ****          in burst mode. The burst length is 4 words in the AES and 2 or 4 
 127:./Library/stm32f4xx_cryp.c ****          words in the DES/TDES. The DMA should be configured to set an 
 128:./Library/stm32f4xx_cryp.c ****          interrupt on transfer completion of the output data to indicate that 
 129:./Library/stm32f4xx_cryp.c ****          the processing is finished. 
 130:./Library/stm32f4xx_cryp.c ****          Refer to DMA peripheral driver for more details.  
 131:./Library/stm32f4xx_cryp.c ****   
 132:./Library/stm32f4xx_cryp.c ****      (#) Enable the cryptographic processor using CRYP_Cmd() function. 
 133:./Library/stm32f4xx_cryp.c ****          Enable the DMA requests CRYP_DMAReq_DataIN and CRYP_DMAReq_DataOUT 
 134:./Library/stm32f4xx_cryp.c ****          using CRYP_DMACmd() function.
 135:./Library/stm32f4xx_cryp.c ****   
 136:./Library/stm32f4xx_cryp.c ****      (#) All the transfers and processing are managed by the DMA and the 
 137:./Library/stm32f4xx_cryp.c ****          cryptographic processor. The DMA transfer complete interrupt indicates 
 138:./Library/stm32f4xx_cryp.c ****          that the processing is complete. Both FIFOs are normally empty and 
 139:./Library/stm32f4xx_cryp.c ****          CRYP_FLAG_BUSY flag is reset.
 140:./Library/stm32f4xx_cryp.c ****   
 141:./Library/stm32f4xx_cryp.c ****     @endverbatim
 142:./Library/stm32f4xx_cryp.c ****   *
 143:./Library/stm32f4xx_cryp.c ****   ******************************************************************************
 144:./Library/stm32f4xx_cryp.c ****   * @attention
ARM GAS  /var/folders/yl/_q9l42k90g1g4mdhbs226msm0000gn/T//ccDtV1qt.s 			page 4


 145:./Library/stm32f4xx_cryp.c ****   *
 146:./Library/stm32f4xx_cryp.c ****   * Copyright (c) 2016 STMicroelectronics.
 147:./Library/stm32f4xx_cryp.c ****   * All rights reserved.
 148:./Library/stm32f4xx_cryp.c ****   *
 149:./Library/stm32f4xx_cryp.c ****   * This software is licensed under terms that can be found in the LICENSE file
 150:./Library/stm32f4xx_cryp.c ****   * in the root directory of this software component.
 151:./Library/stm32f4xx_cryp.c ****   * If no LICENSE file comes with this software, it is provided AS-IS.
 152:./Library/stm32f4xx_cryp.c ****   *
 153:./Library/stm32f4xx_cryp.c ****   ******************************************************************************
 154:./Library/stm32f4xx_cryp.c ****   */
 155:./Library/stm32f4xx_cryp.c **** 
 156:./Library/stm32f4xx_cryp.c **** /* Includes ------------------------------------------------------------------*/
 157:./Library/stm32f4xx_cryp.c **** #include "stm32f4xx_cryp.h"
 158:./Library/stm32f4xx_cryp.c **** #include "stm32f4xx_rcc.h"
 159:./Library/stm32f4xx_cryp.c **** 
 160:./Library/stm32f4xx_cryp.c **** /** @addtogroup STM32F4xx_StdPeriph_Driver
 161:./Library/stm32f4xx_cryp.c ****   * @{
 162:./Library/stm32f4xx_cryp.c ****   */
 163:./Library/stm32f4xx_cryp.c **** 
 164:./Library/stm32f4xx_cryp.c **** /** @defgroup CRYP 
 165:./Library/stm32f4xx_cryp.c ****   * @brief CRYP driver modules
 166:./Library/stm32f4xx_cryp.c ****   * @{
 167:./Library/stm32f4xx_cryp.c ****   */ 
 168:./Library/stm32f4xx_cryp.c **** 
 169:./Library/stm32f4xx_cryp.c **** /* Private typedef -----------------------------------------------------------*/
 170:./Library/stm32f4xx_cryp.c **** /* Private define ------------------------------------------------------------*/
 171:./Library/stm32f4xx_cryp.c **** #define FLAG_MASK     ((uint8_t)0x20)
 172:./Library/stm32f4xx_cryp.c **** #define MAX_TIMEOUT   ((uint16_t)0xFFFF)
 173:./Library/stm32f4xx_cryp.c **** 
 174:./Library/stm32f4xx_cryp.c **** /* Private macro -------------------------------------------------------------*/
 175:./Library/stm32f4xx_cryp.c **** /* Private variables ---------------------------------------------------------*/
 176:./Library/stm32f4xx_cryp.c **** /* Private function prototypes -----------------------------------------------*/
 177:./Library/stm32f4xx_cryp.c **** /* Private functions ---------------------------------------------------------*/
 178:./Library/stm32f4xx_cryp.c **** 
 179:./Library/stm32f4xx_cryp.c **** /** @defgroup CRYP_Private_Functions
 180:./Library/stm32f4xx_cryp.c ****   * @{
 181:./Library/stm32f4xx_cryp.c ****   */ 
 182:./Library/stm32f4xx_cryp.c **** 
 183:./Library/stm32f4xx_cryp.c **** /** @defgroup CRYP_Group1 Initialization and Configuration functions
 184:./Library/stm32f4xx_cryp.c ****  *  @brief    Initialization and Configuration functions 
 185:./Library/stm32f4xx_cryp.c ****  *
 186:./Library/stm32f4xx_cryp.c **** @verbatim    
 187:./Library/stm32f4xx_cryp.c ****  ===============================================================================
 188:./Library/stm32f4xx_cryp.c ****              ##### Initialization and Configuration functions #####
 189:./Library/stm32f4xx_cryp.c ****  ===============================================================================  
 190:./Library/stm32f4xx_cryp.c ****  [..] This section provides functions allowing to 
 191:./Library/stm32f4xx_cryp.c ****    (+) Initialize the cryptographic Processor using CRYP_Init() function 
 192:./Library/stm32f4xx_cryp.c ****        (++)  Encrypt or Decrypt 
 193:./Library/stm32f4xx_cryp.c ****        (++)  mode : TDES-ECB, TDES-CBC, 
 194:./Library/stm32f4xx_cryp.c ****                     DES-ECB, DES-CBC, 
 195:./Library/stm32f4xx_cryp.c ****                     AES-ECB, AES-CBC, AES-CTR, AES-Key, AES-GCM, AES-CCM 
 196:./Library/stm32f4xx_cryp.c ****        (++) DataType :  32-bit data, 16-bit data, bit data or bit-string
 197:./Library/stm32f4xx_cryp.c ****        (++) Key Size (only in AES modes)
 198:./Library/stm32f4xx_cryp.c ****    (+) Configure the Encrypt or Decrypt Key using CRYP_KeyInit() function 
 199:./Library/stm32f4xx_cryp.c ****    (+) Configure the Initialization Vectors(IV) for CBC and CTR modes using 
 200:./Library/stm32f4xx_cryp.c ****        CRYP_IVInit() function.  
 201:./Library/stm32f4xx_cryp.c ****    (+) Flushes the IN and OUT FIFOs : using CRYP_FIFOFlush() function.                         
ARM GAS  /var/folders/yl/_q9l42k90g1g4mdhbs226msm0000gn/T//ccDtV1qt.s 			page 5


 202:./Library/stm32f4xx_cryp.c ****    (+) Enable or disable the CRYP Processor using CRYP_Cmd() function 
 203:./Library/stm32f4xx_cryp.c ****        
 204:./Library/stm32f4xx_cryp.c **** @endverbatim
 205:./Library/stm32f4xx_cryp.c ****   * @{
 206:./Library/stm32f4xx_cryp.c ****   */
 207:./Library/stm32f4xx_cryp.c **** /**
 208:./Library/stm32f4xx_cryp.c ****   * @brief  Deinitializes the CRYP peripheral registers to their default reset values
 209:./Library/stm32f4xx_cryp.c ****   * @param  None
 210:./Library/stm32f4xx_cryp.c ****   * @retval None
 211:./Library/stm32f4xx_cryp.c ****   */
 212:./Library/stm32f4xx_cryp.c **** void CRYP_DeInit(void)
 213:./Library/stm32f4xx_cryp.c **** {
  29              		.loc 1 213 1
  30              		.cfi_startproc
  31              		@ args = 0, pretend = 0, frame = 0
  32              		@ frame_needed = 1, uses_anonymous_args = 0
  33 0000 80B5     		push	{r7, lr}
  34              	.LCFI0:
  35              		.cfi_def_cfa_offset 8
  36              		.cfi_offset 7, -8
  37              		.cfi_offset 14, -4
  38 0002 00AF     		add	r7, sp, #0
  39              	.LCFI1:
  40              		.cfi_def_cfa_register 7
 214:./Library/stm32f4xx_cryp.c ****   /* Enable CRYP reset state */
 215:./Library/stm32f4xx_cryp.c ****   RCC_AHB2PeriphResetCmd(RCC_AHB2Periph_CRYP, ENABLE);
  41              		.loc 1 215 3
  42 0004 0121     		movs	r1, #1
  43 0006 1020     		movs	r0, #16
  44 0008 FFF7FEFF 		bl	RCC_AHB2PeriphResetCmd
 216:./Library/stm32f4xx_cryp.c **** 
 217:./Library/stm32f4xx_cryp.c ****   /* Release CRYP from reset state */
 218:./Library/stm32f4xx_cryp.c ****   RCC_AHB2PeriphResetCmd(RCC_AHB2Periph_CRYP, DISABLE);
  45              		.loc 1 218 3
  46 000c 0021     		movs	r1, #0
  47 000e 1020     		movs	r0, #16
  48 0010 FFF7FEFF 		bl	RCC_AHB2PeriphResetCmd
 219:./Library/stm32f4xx_cryp.c **** }
  49              		.loc 1 219 1
  50 0014 00BF     		nop
  51 0016 80BD     		pop	{r7, pc}
  52              		.cfi_endproc
  53              	.LFE123:
  55              		.section	.text.CRYP_Init,"ax",%progbits
  56              		.align	1
  57              		.global	CRYP_Init
  58              		.syntax unified
  59              		.thumb
  60              		.thumb_func
  62              	CRYP_Init:
  63              	.LFB124:
 220:./Library/stm32f4xx_cryp.c **** 
 221:./Library/stm32f4xx_cryp.c **** /**
 222:./Library/stm32f4xx_cryp.c ****   * @brief  Initializes the CRYP peripheral according to the specified parameters
 223:./Library/stm32f4xx_cryp.c ****   *         in the CRYP_InitStruct.
 224:./Library/stm32f4xx_cryp.c ****   * @param  CRYP_InitStruct: pointer to a CRYP_InitTypeDef structure that contains
 225:./Library/stm32f4xx_cryp.c ****   *         the configuration information for the CRYP peripheral.
ARM GAS  /var/folders/yl/_q9l42k90g1g4mdhbs226msm0000gn/T//ccDtV1qt.s 			page 6


 226:./Library/stm32f4xx_cryp.c ****   * @retval None
 227:./Library/stm32f4xx_cryp.c ****   */
 228:./Library/stm32f4xx_cryp.c **** void CRYP_Init(CRYP_InitTypeDef* CRYP_InitStruct)
 229:./Library/stm32f4xx_cryp.c **** {
  64              		.loc 1 229 1
  65              		.cfi_startproc
  66              		@ args = 0, pretend = 0, frame = 8
  67              		@ frame_needed = 1, uses_anonymous_args = 0
  68              		@ link register save eliminated.
  69 0000 80B4     		push	{r7}
  70              	.LCFI2:
  71              		.cfi_def_cfa_offset 4
  72              		.cfi_offset 7, -4
  73 0002 83B0     		sub	sp, sp, #12
  74              	.LCFI3:
  75              		.cfi_def_cfa_offset 16
  76 0004 00AF     		add	r7, sp, #0
  77              	.LCFI4:
  78              		.cfi_def_cfa_register 7
  79 0006 7860     		str	r0, [r7, #4]
 230:./Library/stm32f4xx_cryp.c ****   /* Check the parameters */
 231:./Library/stm32f4xx_cryp.c ****   assert_param(IS_CRYP_ALGOMODE(CRYP_InitStruct->CRYP_AlgoMode));
 232:./Library/stm32f4xx_cryp.c ****   assert_param(IS_CRYP_DATATYPE(CRYP_InitStruct->CRYP_DataType));
 233:./Library/stm32f4xx_cryp.c ****   assert_param(IS_CRYP_ALGODIR(CRYP_InitStruct->CRYP_AlgoDir));
 234:./Library/stm32f4xx_cryp.c **** 
 235:./Library/stm32f4xx_cryp.c ****   /* Select Algorithm mode*/  
 236:./Library/stm32f4xx_cryp.c ****   CRYP->CR &= ~CRYP_CR_ALGOMODE;
  80              		.loc 1 236 12
  81 0008 254B     		ldr	r3, .L4
  82 000a 1B68     		ldr	r3, [r3]
  83 000c 244A     		ldr	r2, .L4
  84 000e 23F40023 		bic	r3, r3, #524288
  85 0012 23F03803 		bic	r3, r3, #56
  86 0016 1360     		str	r3, [r2]
 237:./Library/stm32f4xx_cryp.c ****   CRYP->CR |= CRYP_InitStruct->CRYP_AlgoMode;
  87              		.loc 1 237 12
  88 0018 214B     		ldr	r3, .L4
  89 001a 1A68     		ldr	r2, [r3]
  90              		.loc 1 237 30
  91 001c 7B68     		ldr	r3, [r7, #4]
  92 001e 5B68     		ldr	r3, [r3, #4]
  93              		.loc 1 237 12
  94 0020 1F49     		ldr	r1, .L4
  95 0022 1343     		orrs	r3, r3, r2
  96 0024 0B60     		str	r3, [r1]
 238:./Library/stm32f4xx_cryp.c **** 
 239:./Library/stm32f4xx_cryp.c ****   /* Select dataType */ 
 240:./Library/stm32f4xx_cryp.c ****   CRYP->CR &= ~CRYP_CR_DATATYPE;
  97              		.loc 1 240 12
  98 0026 1E4B     		ldr	r3, .L4
  99 0028 1B68     		ldr	r3, [r3]
 100 002a 1D4A     		ldr	r2, .L4
 101 002c 23F0C003 		bic	r3, r3, #192
 102 0030 1360     		str	r3, [r2]
 241:./Library/stm32f4xx_cryp.c ****   CRYP->CR |= CRYP_InitStruct->CRYP_DataType;
 103              		.loc 1 241 12
 104 0032 1B4B     		ldr	r3, .L4
ARM GAS  /var/folders/yl/_q9l42k90g1g4mdhbs226msm0000gn/T//ccDtV1qt.s 			page 7


 105 0034 1A68     		ldr	r2, [r3]
 106              		.loc 1 241 30
 107 0036 7B68     		ldr	r3, [r7, #4]
 108 0038 9B68     		ldr	r3, [r3, #8]
 109              		.loc 1 241 12
 110 003a 1949     		ldr	r1, .L4
 111 003c 1343     		orrs	r3, r3, r2
 112 003e 0B60     		str	r3, [r1]
 242:./Library/stm32f4xx_cryp.c **** 
 243:./Library/stm32f4xx_cryp.c ****   /* select Key size (used only with AES algorithm) */
 244:./Library/stm32f4xx_cryp.c ****   if ((CRYP_InitStruct->CRYP_AlgoMode != CRYP_AlgoMode_TDES_ECB) &&
 113              		.loc 1 244 23
 114 0040 7B68     		ldr	r3, [r7, #4]
 115 0042 5B68     		ldr	r3, [r3, #4]
 116              		.loc 1 244 6
 117 0044 002B     		cmp	r3, #0
 118 0046 18D0     		beq	.L3
 245:./Library/stm32f4xx_cryp.c ****       (CRYP_InitStruct->CRYP_AlgoMode != CRYP_AlgoMode_TDES_CBC) &&
 119              		.loc 1 245 23 discriminator 1
 120 0048 7B68     		ldr	r3, [r7, #4]
 121 004a 5B68     		ldr	r3, [r3, #4]
 244:./Library/stm32f4xx_cryp.c ****       (CRYP_InitStruct->CRYP_AlgoMode != CRYP_AlgoMode_TDES_CBC) &&
 122              		.loc 1 244 66 discriminator 1
 123 004c 082B     		cmp	r3, #8
 124 004e 14D0     		beq	.L3
 246:./Library/stm32f4xx_cryp.c ****       (CRYP_InitStruct->CRYP_AlgoMode != CRYP_AlgoMode_DES_ECB) &&
 125              		.loc 1 246 23
 126 0050 7B68     		ldr	r3, [r7, #4]
 127 0052 5B68     		ldr	r3, [r3, #4]
 245:./Library/stm32f4xx_cryp.c ****       (CRYP_InitStruct->CRYP_AlgoMode != CRYP_AlgoMode_TDES_CBC) &&
 128              		.loc 1 245 66
 129 0054 102B     		cmp	r3, #16
 130 0056 10D0     		beq	.L3
 247:./Library/stm32f4xx_cryp.c ****       (CRYP_InitStruct->CRYP_AlgoMode != CRYP_AlgoMode_DES_CBC))
 131              		.loc 1 247 23
 132 0058 7B68     		ldr	r3, [r7, #4]
 133 005a 5B68     		ldr	r3, [r3, #4]
 246:./Library/stm32f4xx_cryp.c ****       (CRYP_InitStruct->CRYP_AlgoMode != CRYP_AlgoMode_DES_ECB) &&
 134              		.loc 1 246 65
 135 005c 182B     		cmp	r3, #24
 136 005e 0CD0     		beq	.L3
 248:./Library/stm32f4xx_cryp.c ****   {
 249:./Library/stm32f4xx_cryp.c ****     assert_param(IS_CRYP_KEYSIZE(CRYP_InitStruct->CRYP_KeySize));
 250:./Library/stm32f4xx_cryp.c ****     CRYP->CR &= ~CRYP_CR_KEYSIZE;
 137              		.loc 1 250 14
 138 0060 0F4B     		ldr	r3, .L4
 139 0062 1B68     		ldr	r3, [r3]
 140 0064 0E4A     		ldr	r2, .L4
 141 0066 23F44073 		bic	r3, r3, #768
 142 006a 1360     		str	r3, [r2]
 251:./Library/stm32f4xx_cryp.c ****     CRYP->CR |= CRYP_InitStruct->CRYP_KeySize; /* Key size and value must be 
 143              		.loc 1 251 14
 144 006c 0C4B     		ldr	r3, .L4
 145 006e 1A68     		ldr	r2, [r3]
 146              		.loc 1 251 32
 147 0070 7B68     		ldr	r3, [r7, #4]
 148 0072 DB68     		ldr	r3, [r3, #12]
ARM GAS  /var/folders/yl/_q9l42k90g1g4mdhbs226msm0000gn/T//ccDtV1qt.s 			page 8


 149              		.loc 1 251 14
 150 0074 0A49     		ldr	r1, .L4
 151 0076 1343     		orrs	r3, r3, r2
 152 0078 0B60     		str	r3, [r1]
 153              	.L3:
 252:./Library/stm32f4xx_cryp.c ****                                                   configured once the key has 
 253:./Library/stm32f4xx_cryp.c ****                                                   been prepared */
 254:./Library/stm32f4xx_cryp.c ****   }
 255:./Library/stm32f4xx_cryp.c **** 
 256:./Library/stm32f4xx_cryp.c ****   /* Select data Direction */ 
 257:./Library/stm32f4xx_cryp.c ****   CRYP->CR &= ~CRYP_CR_ALGODIR;
 154              		.loc 1 257 12
 155 007a 094B     		ldr	r3, .L4
 156 007c 1B68     		ldr	r3, [r3]
 157 007e 084A     		ldr	r2, .L4
 158 0080 23F00403 		bic	r3, r3, #4
 159 0084 1360     		str	r3, [r2]
 258:./Library/stm32f4xx_cryp.c ****   CRYP->CR |= CRYP_InitStruct->CRYP_AlgoDir;
 160              		.loc 1 258 12
 161 0086 064B     		ldr	r3, .L4
 162 0088 1A68     		ldr	r2, [r3]
 163              		.loc 1 258 30
 164 008a 7B68     		ldr	r3, [r7, #4]
 165 008c 1B68     		ldr	r3, [r3]
 166              		.loc 1 258 12
 167 008e 0449     		ldr	r1, .L4
 168 0090 1343     		orrs	r3, r3, r2
 169 0092 0B60     		str	r3, [r1]
 259:./Library/stm32f4xx_cryp.c **** }
 170              		.loc 1 259 1
 171 0094 00BF     		nop
 172 0096 0C37     		adds	r7, r7, #12
 173              	.LCFI5:
 174              		.cfi_def_cfa_offset 4
 175 0098 BD46     		mov	sp, r7
 176              	.LCFI6:
 177              		.cfi_def_cfa_register 13
 178              		@ sp needed
 179 009a 5DF8047B 		ldr	r7, [sp], #4
 180              	.LCFI7:
 181              		.cfi_restore 7
 182              		.cfi_def_cfa_offset 0
 183 009e 7047     		bx	lr
 184              	.L5:
 185              		.align	2
 186              	.L4:
 187 00a0 00000650 		.word	1342570496
 188              		.cfi_endproc
 189              	.LFE124:
 191              		.section	.text.CRYP_StructInit,"ax",%progbits
 192              		.align	1
 193              		.global	CRYP_StructInit
 194              		.syntax unified
 195              		.thumb
 196              		.thumb_func
 198              	CRYP_StructInit:
 199              	.LFB125:
ARM GAS  /var/folders/yl/_q9l42k90g1g4mdhbs226msm0000gn/T//ccDtV1qt.s 			page 9


 260:./Library/stm32f4xx_cryp.c **** 
 261:./Library/stm32f4xx_cryp.c **** /**
 262:./Library/stm32f4xx_cryp.c ****   * @brief  Fills each CRYP_InitStruct member with its default value.
 263:./Library/stm32f4xx_cryp.c ****   * @param  CRYP_InitStruct: pointer to a CRYP_InitTypeDef structure which will
 264:./Library/stm32f4xx_cryp.c ****   *         be initialized.
 265:./Library/stm32f4xx_cryp.c ****   * @retval None
 266:./Library/stm32f4xx_cryp.c ****   */
 267:./Library/stm32f4xx_cryp.c **** void CRYP_StructInit(CRYP_InitTypeDef* CRYP_InitStruct)
 268:./Library/stm32f4xx_cryp.c **** {
 200              		.loc 1 268 1
 201              		.cfi_startproc
 202              		@ args = 0, pretend = 0, frame = 8
 203              		@ frame_needed = 1, uses_anonymous_args = 0
 204              		@ link register save eliminated.
 205 0000 80B4     		push	{r7}
 206              	.LCFI8:
 207              		.cfi_def_cfa_offset 4
 208              		.cfi_offset 7, -4
 209 0002 83B0     		sub	sp, sp, #12
 210              	.LCFI9:
 211              		.cfi_def_cfa_offset 16
 212 0004 00AF     		add	r7, sp, #0
 213              	.LCFI10:
 214              		.cfi_def_cfa_register 7
 215 0006 7860     		str	r0, [r7, #4]
 269:./Library/stm32f4xx_cryp.c ****   /* Initialize the CRYP_AlgoDir member */
 270:./Library/stm32f4xx_cryp.c ****   CRYP_InitStruct->CRYP_AlgoDir = CRYP_AlgoDir_Encrypt;
 216              		.loc 1 270 33
 217 0008 7B68     		ldr	r3, [r7, #4]
 218 000a 0022     		movs	r2, #0
 219 000c 1A60     		str	r2, [r3]
 271:./Library/stm32f4xx_cryp.c **** 
 272:./Library/stm32f4xx_cryp.c ****   /* initialize the CRYP_AlgoMode member */
 273:./Library/stm32f4xx_cryp.c ****   CRYP_InitStruct->CRYP_AlgoMode = CRYP_AlgoMode_TDES_ECB;
 220              		.loc 1 273 34
 221 000e 7B68     		ldr	r3, [r7, #4]
 222 0010 0022     		movs	r2, #0
 223 0012 5A60     		str	r2, [r3, #4]
 274:./Library/stm32f4xx_cryp.c **** 
 275:./Library/stm32f4xx_cryp.c ****   /* initialize the CRYP_DataType member */
 276:./Library/stm32f4xx_cryp.c ****   CRYP_InitStruct->CRYP_DataType = CRYP_DataType_32b;
 224              		.loc 1 276 34
 225 0014 7B68     		ldr	r3, [r7, #4]
 226 0016 0022     		movs	r2, #0
 227 0018 9A60     		str	r2, [r3, #8]
 277:./Library/stm32f4xx_cryp.c ****   
 278:./Library/stm32f4xx_cryp.c ****   /* Initialize the CRYP_KeySize member */
 279:./Library/stm32f4xx_cryp.c ****   CRYP_InitStruct->CRYP_KeySize = CRYP_KeySize_128b;
 228              		.loc 1 279 33
 229 001a 7B68     		ldr	r3, [r7, #4]
 230 001c 0022     		movs	r2, #0
 231 001e DA60     		str	r2, [r3, #12]
 280:./Library/stm32f4xx_cryp.c **** }
 232              		.loc 1 280 1
 233 0020 00BF     		nop
 234 0022 0C37     		adds	r7, r7, #12
 235              	.LCFI11:
ARM GAS  /var/folders/yl/_q9l42k90g1g4mdhbs226msm0000gn/T//ccDtV1qt.s 			page 10


 236              		.cfi_def_cfa_offset 4
 237 0024 BD46     		mov	sp, r7
 238              	.LCFI12:
 239              		.cfi_def_cfa_register 13
 240              		@ sp needed
 241 0026 5DF8047B 		ldr	r7, [sp], #4
 242              	.LCFI13:
 243              		.cfi_restore 7
 244              		.cfi_def_cfa_offset 0
 245 002a 7047     		bx	lr
 246              		.cfi_endproc
 247              	.LFE125:
 249              		.section	.text.CRYP_KeyInit,"ax",%progbits
 250              		.align	1
 251              		.global	CRYP_KeyInit
 252              		.syntax unified
 253              		.thumb
 254              		.thumb_func
 256              	CRYP_KeyInit:
 257              	.LFB126:
 281:./Library/stm32f4xx_cryp.c **** 
 282:./Library/stm32f4xx_cryp.c **** /**
 283:./Library/stm32f4xx_cryp.c ****   * @brief  Initializes the CRYP Keys according to the specified parameters in
 284:./Library/stm32f4xx_cryp.c ****   *         the CRYP_KeyInitStruct.
 285:./Library/stm32f4xx_cryp.c ****   * @param  CRYP_KeyInitStruct: pointer to a CRYP_KeyInitTypeDef structure that
 286:./Library/stm32f4xx_cryp.c ****   *         contains the configuration information for the CRYP Keys.
 287:./Library/stm32f4xx_cryp.c ****   * @retval None
 288:./Library/stm32f4xx_cryp.c ****   */
 289:./Library/stm32f4xx_cryp.c **** void CRYP_KeyInit(CRYP_KeyInitTypeDef* CRYP_KeyInitStruct)
 290:./Library/stm32f4xx_cryp.c **** {
 258              		.loc 1 290 1
 259              		.cfi_startproc
 260              		@ args = 0, pretend = 0, frame = 8
 261              		@ frame_needed = 1, uses_anonymous_args = 0
 262              		@ link register save eliminated.
 263 0000 80B4     		push	{r7}
 264              	.LCFI14:
 265              		.cfi_def_cfa_offset 4
 266              		.cfi_offset 7, -4
 267 0002 83B0     		sub	sp, sp, #12
 268              	.LCFI15:
 269              		.cfi_def_cfa_offset 16
 270 0004 00AF     		add	r7, sp, #0
 271              	.LCFI16:
 272              		.cfi_def_cfa_register 7
 273 0006 7860     		str	r0, [r7, #4]
 291:./Library/stm32f4xx_cryp.c ****   /* Key Initialisation */
 292:./Library/stm32f4xx_cryp.c ****   CRYP->K0LR = CRYP_KeyInitStruct->CRYP_Key0Left;
 274              		.loc 1 292 7
 275 0008 124A     		ldr	r2, .L8
 276              		.loc 1 292 34
 277 000a 7B68     		ldr	r3, [r7, #4]
 278 000c 1B68     		ldr	r3, [r3]
 279              		.loc 1 292 14
 280 000e 1362     		str	r3, [r2, #32]
 293:./Library/stm32f4xx_cryp.c ****   CRYP->K0RR = CRYP_KeyInitStruct->CRYP_Key0Right;
 281              		.loc 1 293 7
ARM GAS  /var/folders/yl/_q9l42k90g1g4mdhbs226msm0000gn/T//ccDtV1qt.s 			page 11


 282 0010 104A     		ldr	r2, .L8
 283              		.loc 1 293 34
 284 0012 7B68     		ldr	r3, [r7, #4]
 285 0014 5B68     		ldr	r3, [r3, #4]
 286              		.loc 1 293 14
 287 0016 5362     		str	r3, [r2, #36]
 294:./Library/stm32f4xx_cryp.c ****   CRYP->K1LR = CRYP_KeyInitStruct->CRYP_Key1Left;
 288              		.loc 1 294 7
 289 0018 0E4A     		ldr	r2, .L8
 290              		.loc 1 294 34
 291 001a 7B68     		ldr	r3, [r7, #4]
 292 001c 9B68     		ldr	r3, [r3, #8]
 293              		.loc 1 294 14
 294 001e 9362     		str	r3, [r2, #40]
 295:./Library/stm32f4xx_cryp.c ****   CRYP->K1RR = CRYP_KeyInitStruct->CRYP_Key1Right;
 295              		.loc 1 295 7
 296 0020 0C4A     		ldr	r2, .L8
 297              		.loc 1 295 34
 298 0022 7B68     		ldr	r3, [r7, #4]
 299 0024 DB68     		ldr	r3, [r3, #12]
 300              		.loc 1 295 14
 301 0026 D362     		str	r3, [r2, #44]
 296:./Library/stm32f4xx_cryp.c ****   CRYP->K2LR = CRYP_KeyInitStruct->CRYP_Key2Left;
 302              		.loc 1 296 7
 303 0028 0A4A     		ldr	r2, .L8
 304              		.loc 1 296 34
 305 002a 7B68     		ldr	r3, [r7, #4]
 306 002c 1B69     		ldr	r3, [r3, #16]
 307              		.loc 1 296 14
 308 002e 1363     		str	r3, [r2, #48]
 297:./Library/stm32f4xx_cryp.c ****   CRYP->K2RR = CRYP_KeyInitStruct->CRYP_Key2Right;
 309              		.loc 1 297 7
 310 0030 084A     		ldr	r2, .L8
 311              		.loc 1 297 34
 312 0032 7B68     		ldr	r3, [r7, #4]
 313 0034 5B69     		ldr	r3, [r3, #20]
 314              		.loc 1 297 14
 315 0036 5363     		str	r3, [r2, #52]
 298:./Library/stm32f4xx_cryp.c ****   CRYP->K3LR = CRYP_KeyInitStruct->CRYP_Key3Left;
 316              		.loc 1 298 7
 317 0038 064A     		ldr	r2, .L8
 318              		.loc 1 298 34
 319 003a 7B68     		ldr	r3, [r7, #4]
 320 003c 9B69     		ldr	r3, [r3, #24]
 321              		.loc 1 298 14
 322 003e 9363     		str	r3, [r2, #56]
 299:./Library/stm32f4xx_cryp.c ****   CRYP->K3RR = CRYP_KeyInitStruct->CRYP_Key3Right;
 323              		.loc 1 299 7
 324 0040 044A     		ldr	r2, .L8
 325              		.loc 1 299 34
 326 0042 7B68     		ldr	r3, [r7, #4]
 327 0044 DB69     		ldr	r3, [r3, #28]
 328              		.loc 1 299 14
 329 0046 D363     		str	r3, [r2, #60]
 300:./Library/stm32f4xx_cryp.c **** }
 330              		.loc 1 300 1
 331 0048 00BF     		nop
ARM GAS  /var/folders/yl/_q9l42k90g1g4mdhbs226msm0000gn/T//ccDtV1qt.s 			page 12


 332 004a 0C37     		adds	r7, r7, #12
 333              	.LCFI17:
 334              		.cfi_def_cfa_offset 4
 335 004c BD46     		mov	sp, r7
 336              	.LCFI18:
 337              		.cfi_def_cfa_register 13
 338              		@ sp needed
 339 004e 5DF8047B 		ldr	r7, [sp], #4
 340              	.LCFI19:
 341              		.cfi_restore 7
 342              		.cfi_def_cfa_offset 0
 343 0052 7047     		bx	lr
 344              	.L9:
 345              		.align	2
 346              	.L8:
 347 0054 00000650 		.word	1342570496
 348              		.cfi_endproc
 349              	.LFE126:
 351              		.section	.text.CRYP_KeyStructInit,"ax",%progbits
 352              		.align	1
 353              		.global	CRYP_KeyStructInit
 354              		.syntax unified
 355              		.thumb
 356              		.thumb_func
 358              	CRYP_KeyStructInit:
 359              	.LFB127:
 301:./Library/stm32f4xx_cryp.c **** 
 302:./Library/stm32f4xx_cryp.c **** /**
 303:./Library/stm32f4xx_cryp.c ****   * @brief  Fills each CRYP_KeyInitStruct member with its default value.
 304:./Library/stm32f4xx_cryp.c ****   * @param  CRYP_KeyInitStruct: pointer to a CRYP_KeyInitTypeDef structure 
 305:./Library/stm32f4xx_cryp.c ****   *         which will be initialized.
 306:./Library/stm32f4xx_cryp.c ****   * @retval None
 307:./Library/stm32f4xx_cryp.c ****   */
 308:./Library/stm32f4xx_cryp.c **** void CRYP_KeyStructInit(CRYP_KeyInitTypeDef* CRYP_KeyInitStruct)
 309:./Library/stm32f4xx_cryp.c **** {
 360              		.loc 1 309 1
 361              		.cfi_startproc
 362              		@ args = 0, pretend = 0, frame = 8
 363              		@ frame_needed = 1, uses_anonymous_args = 0
 364              		@ link register save eliminated.
 365 0000 80B4     		push	{r7}
 366              	.LCFI20:
 367              		.cfi_def_cfa_offset 4
 368              		.cfi_offset 7, -4
 369 0002 83B0     		sub	sp, sp, #12
 370              	.LCFI21:
 371              		.cfi_def_cfa_offset 16
 372 0004 00AF     		add	r7, sp, #0
 373              	.LCFI22:
 374              		.cfi_def_cfa_register 7
 375 0006 7860     		str	r0, [r7, #4]
 310:./Library/stm32f4xx_cryp.c ****   CRYP_KeyInitStruct->CRYP_Key0Left  = 0;
 376              		.loc 1 310 38
 377 0008 7B68     		ldr	r3, [r7, #4]
 378 000a 0022     		movs	r2, #0
 379 000c 1A60     		str	r2, [r3]
 311:./Library/stm32f4xx_cryp.c ****   CRYP_KeyInitStruct->CRYP_Key0Right = 0;
ARM GAS  /var/folders/yl/_q9l42k90g1g4mdhbs226msm0000gn/T//ccDtV1qt.s 			page 13


 380              		.loc 1 311 38
 381 000e 7B68     		ldr	r3, [r7, #4]
 382 0010 0022     		movs	r2, #0
 383 0012 5A60     		str	r2, [r3, #4]
 312:./Library/stm32f4xx_cryp.c ****   CRYP_KeyInitStruct->CRYP_Key1Left  = 0;
 384              		.loc 1 312 38
 385 0014 7B68     		ldr	r3, [r7, #4]
 386 0016 0022     		movs	r2, #0
 387 0018 9A60     		str	r2, [r3, #8]
 313:./Library/stm32f4xx_cryp.c ****   CRYP_KeyInitStruct->CRYP_Key1Right = 0;
 388              		.loc 1 313 38
 389 001a 7B68     		ldr	r3, [r7, #4]
 390 001c 0022     		movs	r2, #0
 391 001e DA60     		str	r2, [r3, #12]
 314:./Library/stm32f4xx_cryp.c ****   CRYP_KeyInitStruct->CRYP_Key2Left  = 0;
 392              		.loc 1 314 38
 393 0020 7B68     		ldr	r3, [r7, #4]
 394 0022 0022     		movs	r2, #0
 395 0024 1A61     		str	r2, [r3, #16]
 315:./Library/stm32f4xx_cryp.c ****   CRYP_KeyInitStruct->CRYP_Key2Right = 0;
 396              		.loc 1 315 38
 397 0026 7B68     		ldr	r3, [r7, #4]
 398 0028 0022     		movs	r2, #0
 399 002a 5A61     		str	r2, [r3, #20]
 316:./Library/stm32f4xx_cryp.c ****   CRYP_KeyInitStruct->CRYP_Key3Left  = 0;
 400              		.loc 1 316 38
 401 002c 7B68     		ldr	r3, [r7, #4]
 402 002e 0022     		movs	r2, #0
 403 0030 9A61     		str	r2, [r3, #24]
 317:./Library/stm32f4xx_cryp.c ****   CRYP_KeyInitStruct->CRYP_Key3Right = 0;
 404              		.loc 1 317 38
 405 0032 7B68     		ldr	r3, [r7, #4]
 406 0034 0022     		movs	r2, #0
 407 0036 DA61     		str	r2, [r3, #28]
 318:./Library/stm32f4xx_cryp.c **** }
 408              		.loc 1 318 1
 409 0038 00BF     		nop
 410 003a 0C37     		adds	r7, r7, #12
 411              	.LCFI23:
 412              		.cfi_def_cfa_offset 4
 413 003c BD46     		mov	sp, r7
 414              	.LCFI24:
 415              		.cfi_def_cfa_register 13
 416              		@ sp needed
 417 003e 5DF8047B 		ldr	r7, [sp], #4
 418              	.LCFI25:
 419              		.cfi_restore 7
 420              		.cfi_def_cfa_offset 0
 421 0042 7047     		bx	lr
 422              		.cfi_endproc
 423              	.LFE127:
 425              		.section	.text.CRYP_IVInit,"ax",%progbits
 426              		.align	1
 427              		.global	CRYP_IVInit
 428              		.syntax unified
 429              		.thumb
 430              		.thumb_func
ARM GAS  /var/folders/yl/_q9l42k90g1g4mdhbs226msm0000gn/T//ccDtV1qt.s 			page 14


 432              	CRYP_IVInit:
 433              	.LFB128:
 319:./Library/stm32f4xx_cryp.c **** /**
 320:./Library/stm32f4xx_cryp.c ****   * @brief  Initializes the CRYP Initialization Vectors(IV) according to the
 321:./Library/stm32f4xx_cryp.c ****   *         specified parameters in the CRYP_IVInitStruct.
 322:./Library/stm32f4xx_cryp.c ****   * @param  CRYP_IVInitStruct: pointer to a CRYP_IVInitTypeDef structure that contains
 323:./Library/stm32f4xx_cryp.c ****   *         the configuration information for the CRYP Initialization Vectors(IV).
 324:./Library/stm32f4xx_cryp.c ****   * @retval None
 325:./Library/stm32f4xx_cryp.c ****   */
 326:./Library/stm32f4xx_cryp.c **** void CRYP_IVInit(CRYP_IVInitTypeDef* CRYP_IVInitStruct)
 327:./Library/stm32f4xx_cryp.c **** {
 434              		.loc 1 327 1
 435              		.cfi_startproc
 436              		@ args = 0, pretend = 0, frame = 8
 437              		@ frame_needed = 1, uses_anonymous_args = 0
 438              		@ link register save eliminated.
 439 0000 80B4     		push	{r7}
 440              	.LCFI26:
 441              		.cfi_def_cfa_offset 4
 442              		.cfi_offset 7, -4
 443 0002 83B0     		sub	sp, sp, #12
 444              	.LCFI27:
 445              		.cfi_def_cfa_offset 16
 446 0004 00AF     		add	r7, sp, #0
 447              	.LCFI28:
 448              		.cfi_def_cfa_register 7
 449 0006 7860     		str	r0, [r7, #4]
 328:./Library/stm32f4xx_cryp.c ****   CRYP->IV0LR = CRYP_IVInitStruct->CRYP_IV0Left;
 450              		.loc 1 328 7
 451 0008 0A4A     		ldr	r2, .L12
 452              		.loc 1 328 34
 453 000a 7B68     		ldr	r3, [r7, #4]
 454 000c 1B68     		ldr	r3, [r3]
 455              		.loc 1 328 15
 456 000e 1364     		str	r3, [r2, #64]
 329:./Library/stm32f4xx_cryp.c ****   CRYP->IV0RR = CRYP_IVInitStruct->CRYP_IV0Right;
 457              		.loc 1 329 7
 458 0010 084A     		ldr	r2, .L12
 459              		.loc 1 329 34
 460 0012 7B68     		ldr	r3, [r7, #4]
 461 0014 5B68     		ldr	r3, [r3, #4]
 462              		.loc 1 329 15
 463 0016 5364     		str	r3, [r2, #68]
 330:./Library/stm32f4xx_cryp.c ****   CRYP->IV1LR = CRYP_IVInitStruct->CRYP_IV1Left;
 464              		.loc 1 330 7
 465 0018 064A     		ldr	r2, .L12
 466              		.loc 1 330 34
 467 001a 7B68     		ldr	r3, [r7, #4]
 468 001c 9B68     		ldr	r3, [r3, #8]
 469              		.loc 1 330 15
 470 001e 9364     		str	r3, [r2, #72]
 331:./Library/stm32f4xx_cryp.c ****   CRYP->IV1RR = CRYP_IVInitStruct->CRYP_IV1Right;
 471              		.loc 1 331 7
 472 0020 044A     		ldr	r2, .L12
 473              		.loc 1 331 34
 474 0022 7B68     		ldr	r3, [r7, #4]
 475 0024 DB68     		ldr	r3, [r3, #12]
ARM GAS  /var/folders/yl/_q9l42k90g1g4mdhbs226msm0000gn/T//ccDtV1qt.s 			page 15


 476              		.loc 1 331 15
 477 0026 D364     		str	r3, [r2, #76]
 332:./Library/stm32f4xx_cryp.c **** }
 478              		.loc 1 332 1
 479 0028 00BF     		nop
 480 002a 0C37     		adds	r7, r7, #12
 481              	.LCFI29:
 482              		.cfi_def_cfa_offset 4
 483 002c BD46     		mov	sp, r7
 484              	.LCFI30:
 485              		.cfi_def_cfa_register 13
 486              		@ sp needed
 487 002e 5DF8047B 		ldr	r7, [sp], #4
 488              	.LCFI31:
 489              		.cfi_restore 7
 490              		.cfi_def_cfa_offset 0
 491 0032 7047     		bx	lr
 492              	.L13:
 493              		.align	2
 494              	.L12:
 495 0034 00000650 		.word	1342570496
 496              		.cfi_endproc
 497              	.LFE128:
 499              		.section	.text.CRYP_IVStructInit,"ax",%progbits
 500              		.align	1
 501              		.global	CRYP_IVStructInit
 502              		.syntax unified
 503              		.thumb
 504              		.thumb_func
 506              	CRYP_IVStructInit:
 507              	.LFB129:
 333:./Library/stm32f4xx_cryp.c **** 
 334:./Library/stm32f4xx_cryp.c **** /**
 335:./Library/stm32f4xx_cryp.c ****   * @brief  Fills each CRYP_IVInitStruct member with its default value.
 336:./Library/stm32f4xx_cryp.c ****   * @param  CRYP_IVInitStruct: pointer to a CRYP_IVInitTypeDef Initialization 
 337:./Library/stm32f4xx_cryp.c ****   *         Vectors(IV) structure which will be initialized.
 338:./Library/stm32f4xx_cryp.c ****   * @retval None
 339:./Library/stm32f4xx_cryp.c ****   */
 340:./Library/stm32f4xx_cryp.c **** void CRYP_IVStructInit(CRYP_IVInitTypeDef* CRYP_IVInitStruct)
 341:./Library/stm32f4xx_cryp.c **** {
 508              		.loc 1 341 1
 509              		.cfi_startproc
 510              		@ args = 0, pretend = 0, frame = 8
 511              		@ frame_needed = 1, uses_anonymous_args = 0
 512              		@ link register save eliminated.
 513 0000 80B4     		push	{r7}
 514              	.LCFI32:
 515              		.cfi_def_cfa_offset 4
 516              		.cfi_offset 7, -4
 517 0002 83B0     		sub	sp, sp, #12
 518              	.LCFI33:
 519              		.cfi_def_cfa_offset 16
 520 0004 00AF     		add	r7, sp, #0
 521              	.LCFI34:
 522              		.cfi_def_cfa_register 7
 523 0006 7860     		str	r0, [r7, #4]
 342:./Library/stm32f4xx_cryp.c ****   CRYP_IVInitStruct->CRYP_IV0Left  = 0;
ARM GAS  /var/folders/yl/_q9l42k90g1g4mdhbs226msm0000gn/T//ccDtV1qt.s 			page 16


 524              		.loc 1 342 36
 525 0008 7B68     		ldr	r3, [r7, #4]
 526 000a 0022     		movs	r2, #0
 527 000c 1A60     		str	r2, [r3]
 343:./Library/stm32f4xx_cryp.c ****   CRYP_IVInitStruct->CRYP_IV0Right = 0;
 528              		.loc 1 343 36
 529 000e 7B68     		ldr	r3, [r7, #4]
 530 0010 0022     		movs	r2, #0
 531 0012 5A60     		str	r2, [r3, #4]
 344:./Library/stm32f4xx_cryp.c ****   CRYP_IVInitStruct->CRYP_IV1Left  = 0;
 532              		.loc 1 344 36
 533 0014 7B68     		ldr	r3, [r7, #4]
 534 0016 0022     		movs	r2, #0
 535 0018 9A60     		str	r2, [r3, #8]
 345:./Library/stm32f4xx_cryp.c ****   CRYP_IVInitStruct->CRYP_IV1Right = 0;
 536              		.loc 1 345 36
 537 001a 7B68     		ldr	r3, [r7, #4]
 538 001c 0022     		movs	r2, #0
 539 001e DA60     		str	r2, [r3, #12]
 346:./Library/stm32f4xx_cryp.c **** }
 540              		.loc 1 346 1
 541 0020 00BF     		nop
 542 0022 0C37     		adds	r7, r7, #12
 543              	.LCFI35:
 544              		.cfi_def_cfa_offset 4
 545 0024 BD46     		mov	sp, r7
 546              	.LCFI36:
 547              		.cfi_def_cfa_register 13
 548              		@ sp needed
 549 0026 5DF8047B 		ldr	r7, [sp], #4
 550              	.LCFI37:
 551              		.cfi_restore 7
 552              		.cfi_def_cfa_offset 0
 553 002a 7047     		bx	lr
 554              		.cfi_endproc
 555              	.LFE129:
 557              		.section	.text.CRYP_PhaseConfig,"ax",%progbits
 558              		.align	1
 559              		.global	CRYP_PhaseConfig
 560              		.syntax unified
 561              		.thumb
 562              		.thumb_func
 564              	CRYP_PhaseConfig:
 565              	.LFB130:
 347:./Library/stm32f4xx_cryp.c **** 
 348:./Library/stm32f4xx_cryp.c **** /**
 349:./Library/stm32f4xx_cryp.c ****   * @brief  Configures the AES-CCM and AES-GCM phases
 350:./Library/stm32f4xx_cryp.c ****   * @note   This function is used only with AES-CCM or AES-GCM Algorithms  
 351:./Library/stm32f4xx_cryp.c ****   * @param  CRYP_Phase: specifies the CRYP AES-CCM and AES-GCM phase to be configured.
 352:./Library/stm32f4xx_cryp.c ****   *           This parameter can be one of the following values:
 353:./Library/stm32f4xx_cryp.c ****   *            @arg CRYP_Phase_Init: Initialization phase
 354:./Library/stm32f4xx_cryp.c ****   *            @arg CRYP_Phase_Header: Header phase
 355:./Library/stm32f4xx_cryp.c ****   *            @arg CRYP_Phase_Payload: Payload phase
 356:./Library/stm32f4xx_cryp.c ****   *            @arg CRYP_Phase_Final: Final phase 
 357:./Library/stm32f4xx_cryp.c ****   * @retval None
 358:./Library/stm32f4xx_cryp.c ****   */
 359:./Library/stm32f4xx_cryp.c **** void CRYP_PhaseConfig(uint32_t CRYP_Phase)
ARM GAS  /var/folders/yl/_q9l42k90g1g4mdhbs226msm0000gn/T//ccDtV1qt.s 			page 17


 360:./Library/stm32f4xx_cryp.c **** { uint32_t tempcr = 0;
 566              		.loc 1 360 1
 567              		.cfi_startproc
 568              		@ args = 0, pretend = 0, frame = 16
 569              		@ frame_needed = 1, uses_anonymous_args = 0
 570              		@ link register save eliminated.
 571 0000 80B4     		push	{r7}
 572              	.LCFI38:
 573              		.cfi_def_cfa_offset 4
 574              		.cfi_offset 7, -4
 575 0002 85B0     		sub	sp, sp, #20
 576              	.LCFI39:
 577              		.cfi_def_cfa_offset 24
 578 0004 00AF     		add	r7, sp, #0
 579              	.LCFI40:
 580              		.cfi_def_cfa_register 7
 581 0006 7860     		str	r0, [r7, #4]
 582              		.loc 1 360 12
 583 0008 0023     		movs	r3, #0
 584 000a FB60     		str	r3, [r7, #12]
 361:./Library/stm32f4xx_cryp.c **** 
 362:./Library/stm32f4xx_cryp.c ****   /* Check the parameter */
 363:./Library/stm32f4xx_cryp.c ****   assert_param(IS_CRYP_PHASE(CRYP_Phase));
 364:./Library/stm32f4xx_cryp.c **** 
 365:./Library/stm32f4xx_cryp.c ****   /* Get the CR register */
 366:./Library/stm32f4xx_cryp.c ****   tempcr = CRYP->CR;
 585              		.loc 1 366 16
 586 000c 094B     		ldr	r3, .L16
 587              		.loc 1 366 10
 588 000e 1B68     		ldr	r3, [r3]
 589 0010 FB60     		str	r3, [r7, #12]
 367:./Library/stm32f4xx_cryp.c ****   
 368:./Library/stm32f4xx_cryp.c ****   /* Reset the phase configuration bits: GCMP_CCMPH */
 369:./Library/stm32f4xx_cryp.c ****   tempcr &= (uint32_t)(~CRYP_CR_GCM_CCMPH);
 590              		.loc 1 369 10
 591 0012 FB68     		ldr	r3, [r7, #12]
 592 0014 23F44033 		bic	r3, r3, #196608
 593 0018 FB60     		str	r3, [r7, #12]
 370:./Library/stm32f4xx_cryp.c ****   /* Set the selected phase */
 371:./Library/stm32f4xx_cryp.c ****   tempcr |= (uint32_t)CRYP_Phase;
 594              		.loc 1 371 10
 595 001a FA68     		ldr	r2, [r7, #12]
 596 001c 7B68     		ldr	r3, [r7, #4]
 597 001e 1343     		orrs	r3, r3, r2
 598 0020 FB60     		str	r3, [r7, #12]
 372:./Library/stm32f4xx_cryp.c **** 
 373:./Library/stm32f4xx_cryp.c ****   /* Set the CR register */ 
 374:./Library/stm32f4xx_cryp.c ****   CRYP->CR = tempcr;    
 599              		.loc 1 374 7
 600 0022 044A     		ldr	r2, .L16
 601              		.loc 1 374 12
 602 0024 FB68     		ldr	r3, [r7, #12]
 603 0026 1360     		str	r3, [r2]
 375:./Library/stm32f4xx_cryp.c **** }
 604              		.loc 1 375 1
 605 0028 00BF     		nop
 606 002a 1437     		adds	r7, r7, #20
ARM GAS  /var/folders/yl/_q9l42k90g1g4mdhbs226msm0000gn/T//ccDtV1qt.s 			page 18


 607              	.LCFI41:
 608              		.cfi_def_cfa_offset 4
 609 002c BD46     		mov	sp, r7
 610              	.LCFI42:
 611              		.cfi_def_cfa_register 13
 612              		@ sp needed
 613 002e 5DF8047B 		ldr	r7, [sp], #4
 614              	.LCFI43:
 615              		.cfi_restore 7
 616              		.cfi_def_cfa_offset 0
 617 0032 7047     		bx	lr
 618              	.L17:
 619              		.align	2
 620              	.L16:
 621 0034 00000650 		.word	1342570496
 622              		.cfi_endproc
 623              	.LFE130:
 625              		.section	.text.CRYP_FIFOFlush,"ax",%progbits
 626              		.align	1
 627              		.global	CRYP_FIFOFlush
 628              		.syntax unified
 629              		.thumb
 630              		.thumb_func
 632              	CRYP_FIFOFlush:
 633              	.LFB131:
 376:./Library/stm32f4xx_cryp.c **** 
 377:./Library/stm32f4xx_cryp.c **** /**
 378:./Library/stm32f4xx_cryp.c ****   * @brief  Flushes the IN and OUT FIFOs (that is read and write pointers of the 
 379:./Library/stm32f4xx_cryp.c ****   *         FIFOs are reset)
 380:./Library/stm32f4xx_cryp.c ****   * @note   The FIFOs must be flushed only when BUSY flag is reset.  
 381:./Library/stm32f4xx_cryp.c ****   * @param  None
 382:./Library/stm32f4xx_cryp.c ****   * @retval None
 383:./Library/stm32f4xx_cryp.c ****   */
 384:./Library/stm32f4xx_cryp.c **** void CRYP_FIFOFlush(void)
 385:./Library/stm32f4xx_cryp.c **** {
 634              		.loc 1 385 1
 635              		.cfi_startproc
 636              		@ args = 0, pretend = 0, frame = 0
 637              		@ frame_needed = 1, uses_anonymous_args = 0
 638              		@ link register save eliminated.
 639 0000 80B4     		push	{r7}
 640              	.LCFI44:
 641              		.cfi_def_cfa_offset 4
 642              		.cfi_offset 7, -4
 643 0002 00AF     		add	r7, sp, #0
 644              	.LCFI45:
 645              		.cfi_def_cfa_register 7
 386:./Library/stm32f4xx_cryp.c ****   /* Reset the read and write pointers of the FIFOs */
 387:./Library/stm32f4xx_cryp.c ****   CRYP->CR |= CRYP_CR_FFLUSH;
 646              		.loc 1 387 12
 647 0004 054B     		ldr	r3, .L19
 648 0006 1B68     		ldr	r3, [r3]
 649 0008 044A     		ldr	r2, .L19
 650 000a 43F48043 		orr	r3, r3, #16384
 651 000e 1360     		str	r3, [r2]
 388:./Library/stm32f4xx_cryp.c **** }
 652              		.loc 1 388 1
ARM GAS  /var/folders/yl/_q9l42k90g1g4mdhbs226msm0000gn/T//ccDtV1qt.s 			page 19


 653 0010 00BF     		nop
 654 0012 BD46     		mov	sp, r7
 655              	.LCFI46:
 656              		.cfi_def_cfa_register 13
 657              		@ sp needed
 658 0014 5DF8047B 		ldr	r7, [sp], #4
 659              	.LCFI47:
 660              		.cfi_restore 7
 661              		.cfi_def_cfa_offset 0
 662 0018 7047     		bx	lr
 663              	.L20:
 664 001a 00BF     		.align	2
 665              	.L19:
 666 001c 00000650 		.word	1342570496
 667              		.cfi_endproc
 668              	.LFE131:
 670              		.section	.text.CRYP_Cmd,"ax",%progbits
 671              		.align	1
 672              		.global	CRYP_Cmd
 673              		.syntax unified
 674              		.thumb
 675              		.thumb_func
 677              	CRYP_Cmd:
 678              	.LFB132:
 389:./Library/stm32f4xx_cryp.c **** 
 390:./Library/stm32f4xx_cryp.c **** /**
 391:./Library/stm32f4xx_cryp.c ****   * @brief  Enables or disables the CRYP peripheral.
 392:./Library/stm32f4xx_cryp.c ****   * @param  NewState: new state of the CRYP peripheral.
 393:./Library/stm32f4xx_cryp.c ****   *          This parameter can be: ENABLE or DISABLE.
 394:./Library/stm32f4xx_cryp.c ****   * @retval None
 395:./Library/stm32f4xx_cryp.c ****   */
 396:./Library/stm32f4xx_cryp.c **** void CRYP_Cmd(FunctionalState NewState)
 397:./Library/stm32f4xx_cryp.c **** {
 679              		.loc 1 397 1
 680              		.cfi_startproc
 681              		@ args = 0, pretend = 0, frame = 8
 682              		@ frame_needed = 1, uses_anonymous_args = 0
 683              		@ link register save eliminated.
 684 0000 80B4     		push	{r7}
 685              	.LCFI48:
 686              		.cfi_def_cfa_offset 4
 687              		.cfi_offset 7, -4
 688 0002 83B0     		sub	sp, sp, #12
 689              	.LCFI49:
 690              		.cfi_def_cfa_offset 16
 691 0004 00AF     		add	r7, sp, #0
 692              	.LCFI50:
 693              		.cfi_def_cfa_register 7
 694 0006 0346     		mov	r3, r0
 695 0008 FB71     		strb	r3, [r7, #7]
 398:./Library/stm32f4xx_cryp.c ****   /* Check the parameters */
 399:./Library/stm32f4xx_cryp.c ****   assert_param(IS_FUNCTIONAL_STATE(NewState));
 400:./Library/stm32f4xx_cryp.c **** 
 401:./Library/stm32f4xx_cryp.c ****   if (NewState != DISABLE)
 696              		.loc 1 401 6
 697 000a FB79     		ldrb	r3, [r7, #7]	@ zero_extendqisi2
 698 000c 002B     		cmp	r3, #0
ARM GAS  /var/folders/yl/_q9l42k90g1g4mdhbs226msm0000gn/T//ccDtV1qt.s 			page 20


 699 000e 06D0     		beq	.L22
 402:./Library/stm32f4xx_cryp.c ****   {
 403:./Library/stm32f4xx_cryp.c ****     /* Enable the Cryptographic processor */
 404:./Library/stm32f4xx_cryp.c ****     CRYP->CR |= CRYP_CR_CRYPEN;
 700              		.loc 1 404 14
 701 0010 094B     		ldr	r3, .L25
 702 0012 1B68     		ldr	r3, [r3]
 703 0014 084A     		ldr	r2, .L25
 704 0016 43F40043 		orr	r3, r3, #32768
 705 001a 1360     		str	r3, [r2]
 405:./Library/stm32f4xx_cryp.c ****   }
 406:./Library/stm32f4xx_cryp.c ****   else
 407:./Library/stm32f4xx_cryp.c ****   {
 408:./Library/stm32f4xx_cryp.c ****     /* Disable the Cryptographic processor */
 409:./Library/stm32f4xx_cryp.c ****     CRYP->CR &= ~CRYP_CR_CRYPEN;
 410:./Library/stm32f4xx_cryp.c ****   }
 411:./Library/stm32f4xx_cryp.c **** }
 706              		.loc 1 411 1
 707 001c 05E0     		b	.L24
 708              	.L22:
 409:./Library/stm32f4xx_cryp.c ****   }
 709              		.loc 1 409 14
 710 001e 064B     		ldr	r3, .L25
 711 0020 1B68     		ldr	r3, [r3]
 712 0022 054A     		ldr	r2, .L25
 713 0024 23F40043 		bic	r3, r3, #32768
 714 0028 1360     		str	r3, [r2]
 715              	.L24:
 716              		.loc 1 411 1
 717 002a 00BF     		nop
 718 002c 0C37     		adds	r7, r7, #12
 719              	.LCFI51:
 720              		.cfi_def_cfa_offset 4
 721 002e BD46     		mov	sp, r7
 722              	.LCFI52:
 723              		.cfi_def_cfa_register 13
 724              		@ sp needed
 725 0030 5DF8047B 		ldr	r7, [sp], #4
 726              	.LCFI53:
 727              		.cfi_restore 7
 728              		.cfi_def_cfa_offset 0
 729 0034 7047     		bx	lr
 730              	.L26:
 731 0036 00BF     		.align	2
 732              	.L25:
 733 0038 00000650 		.word	1342570496
 734              		.cfi_endproc
 735              	.LFE132:
 737              		.section	.text.CRYP_DataIn,"ax",%progbits
 738              		.align	1
 739              		.global	CRYP_DataIn
 740              		.syntax unified
 741              		.thumb
 742              		.thumb_func
 744              	CRYP_DataIn:
 745              	.LFB133:
 412:./Library/stm32f4xx_cryp.c **** /**
ARM GAS  /var/folders/yl/_q9l42k90g1g4mdhbs226msm0000gn/T//ccDtV1qt.s 			page 21


 413:./Library/stm32f4xx_cryp.c ****   * @}
 414:./Library/stm32f4xx_cryp.c ****   */
 415:./Library/stm32f4xx_cryp.c ****   
 416:./Library/stm32f4xx_cryp.c **** /** @defgroup CRYP_Group2 CRYP Data processing functions
 417:./Library/stm32f4xx_cryp.c ****  *  @brief    CRYP Data processing functions
 418:./Library/stm32f4xx_cryp.c ****  *
 419:./Library/stm32f4xx_cryp.c **** @verbatim    
 420:./Library/stm32f4xx_cryp.c ****  ===============================================================================
 421:./Library/stm32f4xx_cryp.c ****                     ##### CRYP Data processing functions #####
 422:./Library/stm32f4xx_cryp.c ****  ===============================================================================  
 423:./Library/stm32f4xx_cryp.c ****  [..] This section provides functions allowing the encryption and decryption 
 424:./Library/stm32f4xx_cryp.c ****       operations: 
 425:./Library/stm32f4xx_cryp.c ****    (+) Enter data to be treated in the IN FIFO : using CRYP_DataIn() function.
 426:./Library/stm32f4xx_cryp.c ****    (+) Get the data result from the OUT FIFO : using CRYP_DataOut() function.
 427:./Library/stm32f4xx_cryp.c **** 
 428:./Library/stm32f4xx_cryp.c **** @endverbatim
 429:./Library/stm32f4xx_cryp.c ****   * @{
 430:./Library/stm32f4xx_cryp.c ****   */
 431:./Library/stm32f4xx_cryp.c **** 
 432:./Library/stm32f4xx_cryp.c **** /**
 433:./Library/stm32f4xx_cryp.c ****   * @brief  Writes data in the Data Input register (DIN).
 434:./Library/stm32f4xx_cryp.c ****   * @note   After the DIN register has been read once or several times, 
 435:./Library/stm32f4xx_cryp.c ****   *         the FIFO must be flushed (using CRYP_FIFOFlush() function).  
 436:./Library/stm32f4xx_cryp.c ****   * @param  Data: data to write in Data Input register
 437:./Library/stm32f4xx_cryp.c ****   * @retval None
 438:./Library/stm32f4xx_cryp.c ****   */
 439:./Library/stm32f4xx_cryp.c **** void CRYP_DataIn(uint32_t Data)
 440:./Library/stm32f4xx_cryp.c **** {
 746              		.loc 1 440 1
 747              		.cfi_startproc
 748              		@ args = 0, pretend = 0, frame = 8
 749              		@ frame_needed = 1, uses_anonymous_args = 0
 750              		@ link register save eliminated.
 751 0000 80B4     		push	{r7}
 752              	.LCFI54:
 753              		.cfi_def_cfa_offset 4
 754              		.cfi_offset 7, -4
 755 0002 83B0     		sub	sp, sp, #12
 756              	.LCFI55:
 757              		.cfi_def_cfa_offset 16
 758 0004 00AF     		add	r7, sp, #0
 759              	.LCFI56:
 760              		.cfi_def_cfa_register 7
 761 0006 7860     		str	r0, [r7, #4]
 441:./Library/stm32f4xx_cryp.c ****   CRYP->DR = Data;
 762              		.loc 1 441 7
 763 0008 044A     		ldr	r2, .L28
 764              		.loc 1 441 12
 765 000a 7B68     		ldr	r3, [r7, #4]
 766 000c 9360     		str	r3, [r2, #8]
 442:./Library/stm32f4xx_cryp.c **** }
 767              		.loc 1 442 1
 768 000e 00BF     		nop
 769 0010 0C37     		adds	r7, r7, #12
 770              	.LCFI57:
 771              		.cfi_def_cfa_offset 4
 772 0012 BD46     		mov	sp, r7
ARM GAS  /var/folders/yl/_q9l42k90g1g4mdhbs226msm0000gn/T//ccDtV1qt.s 			page 22


 773              	.LCFI58:
 774              		.cfi_def_cfa_register 13
 775              		@ sp needed
 776 0014 5DF8047B 		ldr	r7, [sp], #4
 777              	.LCFI59:
 778              		.cfi_restore 7
 779              		.cfi_def_cfa_offset 0
 780 0018 7047     		bx	lr
 781              	.L29:
 782 001a 00BF     		.align	2
 783              	.L28:
 784 001c 00000650 		.word	1342570496
 785              		.cfi_endproc
 786              	.LFE133:
 788              		.section	.text.CRYP_DataOut,"ax",%progbits
 789              		.align	1
 790              		.global	CRYP_DataOut
 791              		.syntax unified
 792              		.thumb
 793              		.thumb_func
 795              	CRYP_DataOut:
 796              	.LFB134:
 443:./Library/stm32f4xx_cryp.c **** 
 444:./Library/stm32f4xx_cryp.c **** /**
 445:./Library/stm32f4xx_cryp.c ****   * @brief  Returns the last data entered into the output FIFO.
 446:./Library/stm32f4xx_cryp.c ****   * @param  None
 447:./Library/stm32f4xx_cryp.c ****   * @retval Last data entered into the output FIFO.
 448:./Library/stm32f4xx_cryp.c ****   */
 449:./Library/stm32f4xx_cryp.c **** uint32_t CRYP_DataOut(void)
 450:./Library/stm32f4xx_cryp.c **** {
 797              		.loc 1 450 1
 798              		.cfi_startproc
 799              		@ args = 0, pretend = 0, frame = 0
 800              		@ frame_needed = 1, uses_anonymous_args = 0
 801              		@ link register save eliminated.
 802 0000 80B4     		push	{r7}
 803              	.LCFI60:
 804              		.cfi_def_cfa_offset 4
 805              		.cfi_offset 7, -4
 806 0002 00AF     		add	r7, sp, #0
 807              	.LCFI61:
 808              		.cfi_def_cfa_register 7
 451:./Library/stm32f4xx_cryp.c ****   return CRYP->DOUT;
 809              		.loc 1 451 14
 810 0004 034B     		ldr	r3, .L32
 811 0006 DB68     		ldr	r3, [r3, #12]
 452:./Library/stm32f4xx_cryp.c **** }
 812              		.loc 1 452 1
 813 0008 1846     		mov	r0, r3
 814 000a BD46     		mov	sp, r7
 815              	.LCFI62:
 816              		.cfi_def_cfa_register 13
 817              		@ sp needed
 818 000c 5DF8047B 		ldr	r7, [sp], #4
 819              	.LCFI63:
 820              		.cfi_restore 7
 821              		.cfi_def_cfa_offset 0
ARM GAS  /var/folders/yl/_q9l42k90g1g4mdhbs226msm0000gn/T//ccDtV1qt.s 			page 23


 822 0010 7047     		bx	lr
 823              	.L33:
 824 0012 00BF     		.align	2
 825              	.L32:
 826 0014 00000650 		.word	1342570496
 827              		.cfi_endproc
 828              	.LFE134:
 830              		.section	.text.CRYP_SaveContext,"ax",%progbits
 831              		.align	1
 832              		.global	CRYP_SaveContext
 833              		.syntax unified
 834              		.thumb
 835              		.thumb_func
 837              	CRYP_SaveContext:
 838              	.LFB135:
 453:./Library/stm32f4xx_cryp.c **** /**
 454:./Library/stm32f4xx_cryp.c ****   * @}
 455:./Library/stm32f4xx_cryp.c ****   */
 456:./Library/stm32f4xx_cryp.c ****   
 457:./Library/stm32f4xx_cryp.c **** /** @defgroup CRYP_Group3 Context swapping functions
 458:./Library/stm32f4xx_cryp.c ****  *  @brief   Context swapping functions
 459:./Library/stm32f4xx_cryp.c ****  *
 460:./Library/stm32f4xx_cryp.c **** @verbatim   
 461:./Library/stm32f4xx_cryp.c ****  ===============================================================================
 462:./Library/stm32f4xx_cryp.c ****                       ##### Context swapping functions #####
 463:./Library/stm32f4xx_cryp.c ****  ===============================================================================  
 464:./Library/stm32f4xx_cryp.c ****  [..] This section provides functions allowing to save and store CRYP Context
 465:./Library/stm32f4xx_cryp.c **** 
 466:./Library/stm32f4xx_cryp.c ****  [..] It is possible to interrupt an encryption/ decryption/ key generation process 
 467:./Library/stm32f4xx_cryp.c ****       to perform another processing with a higher priority, and to complete the 
 468:./Library/stm32f4xx_cryp.c ****       interrupted process later on, when the higher-priority task is complete. To do 
 469:./Library/stm32f4xx_cryp.c ****       so, the context of the interrupted task must be saved from the CRYP registers 
 470:./Library/stm32f4xx_cryp.c ****       to memory, and then be restored from memory to the CRYP registers.
 471:./Library/stm32f4xx_cryp.c ****    
 472:./Library/stm32f4xx_cryp.c ****    (#) To save the current context, use CRYP_SaveContext() function
 473:./Library/stm32f4xx_cryp.c ****    (#) To restore the saved context, use CRYP_RestoreContext() function 
 474:./Library/stm32f4xx_cryp.c **** 
 475:./Library/stm32f4xx_cryp.c **** @endverbatim
 476:./Library/stm32f4xx_cryp.c ****   * @{
 477:./Library/stm32f4xx_cryp.c ****   */
 478:./Library/stm32f4xx_cryp.c ****   
 479:./Library/stm32f4xx_cryp.c **** /**
 480:./Library/stm32f4xx_cryp.c ****   * @brief  Saves the CRYP peripheral Context. 
 481:./Library/stm32f4xx_cryp.c ****   * @note   This function stops DMA transfer before to save the context. After 
 482:./Library/stm32f4xx_cryp.c ****   *         restoring the context, you have to enable the DMA again (if the DMA
 483:./Library/stm32f4xx_cryp.c ****   *         was previously used).
 484:./Library/stm32f4xx_cryp.c ****   * @param  CRYP_ContextSave: pointer to a CRYP_Context structure that contains
 485:./Library/stm32f4xx_cryp.c ****   *         the repository for current context.
 486:./Library/stm32f4xx_cryp.c ****   * @param  CRYP_KeyInitStruct: pointer to a CRYP_KeyInitTypeDef structure that 
 487:./Library/stm32f4xx_cryp.c ****   *         contains the configuration information for the CRYP Keys.  
 488:./Library/stm32f4xx_cryp.c ****   * @retval None
 489:./Library/stm32f4xx_cryp.c ****   */
 490:./Library/stm32f4xx_cryp.c **** ErrorStatus CRYP_SaveContext(CRYP_Context* CRYP_ContextSave,
 491:./Library/stm32f4xx_cryp.c ****                              CRYP_KeyInitTypeDef* CRYP_KeyInitStruct)
 492:./Library/stm32f4xx_cryp.c **** {
 839              		.loc 1 492 1
 840              		.cfi_startproc
ARM GAS  /var/folders/yl/_q9l42k90g1g4mdhbs226msm0000gn/T//ccDtV1qt.s 			page 24


 841              		@ args = 0, pretend = 0, frame = 24
 842              		@ frame_needed = 1, uses_anonymous_args = 0
 843              		@ link register save eliminated.
 844 0000 80B4     		push	{r7}
 845              	.LCFI64:
 846              		.cfi_def_cfa_offset 4
 847              		.cfi_offset 7, -4
 848 0002 87B0     		sub	sp, sp, #28
 849              	.LCFI65:
 850              		.cfi_def_cfa_offset 32
 851 0004 00AF     		add	r7, sp, #0
 852              	.LCFI66:
 853              		.cfi_def_cfa_register 7
 854 0006 7860     		str	r0, [r7, #4]
 855 0008 3960     		str	r1, [r7]
 493:./Library/stm32f4xx_cryp.c ****   __IO uint32_t timeout = 0;
 856              		.loc 1 493 17
 857 000a 0023     		movs	r3, #0
 858 000c BB60     		str	r3, [r7, #8]
 494:./Library/stm32f4xx_cryp.c ****   uint32_t ckeckmask = 0, bitstatus;    
 859              		.loc 1 494 12
 860 000e 0023     		movs	r3, #0
 861 0010 7B61     		str	r3, [r7, #20]
 495:./Library/stm32f4xx_cryp.c ****   ErrorStatus status = ERROR;
 862              		.loc 1 495 15
 863 0012 0023     		movs	r3, #0
 864 0014 FB74     		strb	r3, [r7, #19]
 496:./Library/stm32f4xx_cryp.c **** 
 497:./Library/stm32f4xx_cryp.c ****   /* Stop DMA transfers on the IN FIFO by clearing the DIEN bit in the CRYP_DMACR */
 498:./Library/stm32f4xx_cryp.c ****   CRYP->DMACR &= ~(uint32_t)CRYP_DMACR_DIEN;
 865              		.loc 1 498 15
 866 0016 5C4B     		ldr	r3, .L42
 867 0018 1B69     		ldr	r3, [r3, #16]
 868 001a 5B4A     		ldr	r2, .L42
 869 001c 23F00103 		bic	r3, r3, #1
 870 0020 1361     		str	r3, [r2, #16]
 499:./Library/stm32f4xx_cryp.c ****     
 500:./Library/stm32f4xx_cryp.c ****   /* Wait until both the IN and OUT FIFOs are empty  
 501:./Library/stm32f4xx_cryp.c ****     (IFEM=1 and OFNE=0 in the CRYP_SR register) and the 
 502:./Library/stm32f4xx_cryp.c ****      BUSY bit is cleared. */
 503:./Library/stm32f4xx_cryp.c **** 
 504:./Library/stm32f4xx_cryp.c ****   if ((CRYP->CR & (uint32_t)(CRYP_CR_ALGOMODE_TDES_ECB | CRYP_CR_ALGOMODE_TDES_CBC)) != (uint32_t)0
 871              		.loc 1 504 12
 872 0022 594B     		ldr	r3, .L42
 873 0024 1B68     		ldr	r3, [r3]
 874              		.loc 1 504 17
 875 0026 03F00803 		and	r3, r3, #8
 876              		.loc 1 504 6
 877 002a 002B     		cmp	r3, #0
 878 002c 02D0     		beq	.L35
 505:./Library/stm32f4xx_cryp.c ****   { 
 506:./Library/stm32f4xx_cryp.c ****     ckeckmask =  CRYP_SR_IFEM | CRYP_SR_BUSY ;
 879              		.loc 1 506 15
 880 002e 1123     		movs	r3, #17
 881 0030 7B61     		str	r3, [r7, #20]
 882 0032 01E0     		b	.L38
 883              	.L35:
ARM GAS  /var/folders/yl/_q9l42k90g1g4mdhbs226msm0000gn/T//ccDtV1qt.s 			page 25


 507:./Library/stm32f4xx_cryp.c ****   }
 508:./Library/stm32f4xx_cryp.c ****   else /* AES or DES */
 509:./Library/stm32f4xx_cryp.c ****   {
 510:./Library/stm32f4xx_cryp.c ****     ckeckmask =  CRYP_SR_IFEM | CRYP_SR_BUSY | CRYP_SR_OFNE;
 884              		.loc 1 510 15
 885 0034 1523     		movs	r3, #21
 886 0036 7B61     		str	r3, [r7, #20]
 887              	.L38:
 511:./Library/stm32f4xx_cryp.c ****   }           
 512:./Library/stm32f4xx_cryp.c ****    
 513:./Library/stm32f4xx_cryp.c ****   do 
 514:./Library/stm32f4xx_cryp.c ****   {
 515:./Library/stm32f4xx_cryp.c ****     bitstatus = CRYP->SR & ckeckmask;
 888              		.loc 1 515 21 discriminator 2
 889 0038 534B     		ldr	r3, .L42
 890 003a 5B68     		ldr	r3, [r3, #4]
 891              		.loc 1 515 15 discriminator 2
 892 003c 7A69     		ldr	r2, [r7, #20]
 893 003e 1340     		ands	r3, r3, r2
 894 0040 FB60     		str	r3, [r7, #12]
 516:./Library/stm32f4xx_cryp.c ****     timeout++;
 895              		.loc 1 516 12 discriminator 2
 896 0042 BB68     		ldr	r3, [r7, #8]
 897 0044 0133     		adds	r3, r3, #1
 898 0046 BB60     		str	r3, [r7, #8]
 517:./Library/stm32f4xx_cryp.c ****   }
 518:./Library/stm32f4xx_cryp.c ****   while ((timeout != MAX_TIMEOUT) && (bitstatus != CRYP_SR_IFEM));
 899              		.loc 1 518 19 discriminator 2
 900 0048 BB68     		ldr	r3, [r7, #8]
 901              		.loc 1 518 3 discriminator 2
 902 004a 4FF6FF72 		movw	r2, #65535
 903 004e 9342     		cmp	r3, r2
 904 0050 02D0     		beq	.L37
 905              		.loc 1 518 35 discriminator 1
 906 0052 FB68     		ldr	r3, [r7, #12]
 907 0054 012B     		cmp	r3, #1
 908 0056 EFD1     		bne	.L38
 909              	.L37:
 519:./Library/stm32f4xx_cryp.c ****      
 520:./Library/stm32f4xx_cryp.c ****   if ((CRYP->SR & ckeckmask) != CRYP_SR_IFEM)
 910              		.loc 1 520 12
 911 0058 4B4B     		ldr	r3, .L42
 912 005a 5A68     		ldr	r2, [r3, #4]
 913              		.loc 1 520 17
 914 005c 7B69     		ldr	r3, [r7, #20]
 915 005e 1340     		ands	r3, r3, r2
 916              		.loc 1 520 6
 917 0060 012B     		cmp	r3, #1
 918 0062 02D0     		beq	.L39
 521:./Library/stm32f4xx_cryp.c ****   {
 522:./Library/stm32f4xx_cryp.c ****     status = ERROR;
 919              		.loc 1 522 12
 920 0064 0023     		movs	r3, #0
 921 0066 FB74     		strb	r3, [r7, #19]
 922 0068 87E0     		b	.L40
 923              	.L39:
 523:./Library/stm32f4xx_cryp.c ****   }
ARM GAS  /var/folders/yl/_q9l42k90g1g4mdhbs226msm0000gn/T//ccDtV1qt.s 			page 26


 524:./Library/stm32f4xx_cryp.c ****   else
 525:./Library/stm32f4xx_cryp.c ****   {      
 526:./Library/stm32f4xx_cryp.c ****     /* Stop DMA transfers on the OUT FIFO by 
 527:./Library/stm32f4xx_cryp.c ****        - writing the DOEN bit to 0 in the CRYP_DMACR register 
 528:./Library/stm32f4xx_cryp.c ****        - and clear the CRYPEN bit. */
 529:./Library/stm32f4xx_cryp.c **** 
 530:./Library/stm32f4xx_cryp.c ****     CRYP->DMACR &= ~(uint32_t)CRYP_DMACR_DOEN;
 924              		.loc 1 530 17
 925 006a 474B     		ldr	r3, .L42
 926 006c 1B69     		ldr	r3, [r3, #16]
 927 006e 464A     		ldr	r2, .L42
 928 0070 23F00203 		bic	r3, r3, #2
 929 0074 1361     		str	r3, [r2, #16]
 531:./Library/stm32f4xx_cryp.c ****     CRYP->CR &= ~(uint32_t)CRYP_CR_CRYPEN;
 930              		.loc 1 531 14
 931 0076 444B     		ldr	r3, .L42
 932 0078 1B68     		ldr	r3, [r3]
 933 007a 434A     		ldr	r2, .L42
 934 007c 23F40043 		bic	r3, r3, #32768
 935 0080 1360     		str	r3, [r2]
 532:./Library/stm32f4xx_cryp.c **** 
 533:./Library/stm32f4xx_cryp.c ****     /* Save the current configuration (bit 19, bit[17:16] and bits [9:2] in the CRYP_CR register) *
 534:./Library/stm32f4xx_cryp.c ****     CRYP_ContextSave->CR_CurrentConfig  = CRYP->CR & (CRYP_CR_GCM_CCMPH |
 936              		.loc 1 534 47
 937 0082 414B     		ldr	r3, .L42
 938 0084 1A68     		ldr	r2, [r3]
 939              		.loc 1 534 52
 940 0086 414B     		ldr	r3, .L42+4
 941 0088 1340     		ands	r3, r3, r2
 942              		.loc 1 534 41
 943 008a 7A68     		ldr	r2, [r7, #4]
 944 008c 1360     		str	r3, [r2]
 535:./Library/stm32f4xx_cryp.c ****                                                       CRYP_CR_KEYSIZE  |
 536:./Library/stm32f4xx_cryp.c ****                                                       CRYP_CR_DATATYPE |
 537:./Library/stm32f4xx_cryp.c ****                                                       CRYP_CR_ALGOMODE |
 538:./Library/stm32f4xx_cryp.c ****                                                       CRYP_CR_ALGODIR);
 539:./Library/stm32f4xx_cryp.c **** 
 540:./Library/stm32f4xx_cryp.c ****     /* and, if not in ECB mode, the initialization vectors. */
 541:./Library/stm32f4xx_cryp.c ****     CRYP_ContextSave->CRYP_IV0LR = CRYP->IV0LR;
 945              		.loc 1 541 40
 946 008e 3E4B     		ldr	r3, .L42
 947 0090 1A6C     		ldr	r2, [r3, #64]
 948              		.loc 1 541 34
 949 0092 7B68     		ldr	r3, [r7, #4]
 950 0094 5A60     		str	r2, [r3, #4]
 542:./Library/stm32f4xx_cryp.c ****     CRYP_ContextSave->CRYP_IV0RR = CRYP->IV0RR;
 951              		.loc 1 542 40
 952 0096 3C4B     		ldr	r3, .L42
 953 0098 5A6C     		ldr	r2, [r3, #68]
 954              		.loc 1 542 34
 955 009a 7B68     		ldr	r3, [r7, #4]
 956 009c 9A60     		str	r2, [r3, #8]
 543:./Library/stm32f4xx_cryp.c ****     CRYP_ContextSave->CRYP_IV1LR = CRYP->IV1LR;
 957              		.loc 1 543 40
 958 009e 3A4B     		ldr	r3, .L42
 959 00a0 9A6C     		ldr	r2, [r3, #72]
 960              		.loc 1 543 34
ARM GAS  /var/folders/yl/_q9l42k90g1g4mdhbs226msm0000gn/T//ccDtV1qt.s 			page 27


 961 00a2 7B68     		ldr	r3, [r7, #4]
 962 00a4 DA60     		str	r2, [r3, #12]
 544:./Library/stm32f4xx_cryp.c ****     CRYP_ContextSave->CRYP_IV1RR = CRYP->IV1RR;
 963              		.loc 1 544 40
 964 00a6 384B     		ldr	r3, .L42
 965 00a8 DA6C     		ldr	r2, [r3, #76]
 966              		.loc 1 544 34
 967 00aa 7B68     		ldr	r3, [r7, #4]
 968 00ac 1A61     		str	r2, [r3, #16]
 545:./Library/stm32f4xx_cryp.c **** 
 546:./Library/stm32f4xx_cryp.c ****     /* save The key value */
 547:./Library/stm32f4xx_cryp.c ****     CRYP_ContextSave->CRYP_K0LR = CRYP_KeyInitStruct->CRYP_Key0Left; 
 969              		.loc 1 547 53
 970 00ae 3B68     		ldr	r3, [r7]
 971 00b0 1A68     		ldr	r2, [r3]
 972              		.loc 1 547 33
 973 00b2 7B68     		ldr	r3, [r7, #4]
 974 00b4 5A61     		str	r2, [r3, #20]
 548:./Library/stm32f4xx_cryp.c ****     CRYP_ContextSave->CRYP_K0RR = CRYP_KeyInitStruct->CRYP_Key0Right; 
 975              		.loc 1 548 53
 976 00b6 3B68     		ldr	r3, [r7]
 977 00b8 5A68     		ldr	r2, [r3, #4]
 978              		.loc 1 548 33
 979 00ba 7B68     		ldr	r3, [r7, #4]
 980 00bc 9A61     		str	r2, [r3, #24]
 549:./Library/stm32f4xx_cryp.c ****     CRYP_ContextSave->CRYP_K1LR = CRYP_KeyInitStruct->CRYP_Key1Left; 
 981              		.loc 1 549 53
 982 00be 3B68     		ldr	r3, [r7]
 983 00c0 9A68     		ldr	r2, [r3, #8]
 984              		.loc 1 549 33
 985 00c2 7B68     		ldr	r3, [r7, #4]
 986 00c4 DA61     		str	r2, [r3, #28]
 550:./Library/stm32f4xx_cryp.c ****     CRYP_ContextSave->CRYP_K1RR = CRYP_KeyInitStruct->CRYP_Key1Right; 
 987              		.loc 1 550 53
 988 00c6 3B68     		ldr	r3, [r7]
 989 00c8 DA68     		ldr	r2, [r3, #12]
 990              		.loc 1 550 33
 991 00ca 7B68     		ldr	r3, [r7, #4]
 992 00cc 1A62     		str	r2, [r3, #32]
 551:./Library/stm32f4xx_cryp.c ****     CRYP_ContextSave->CRYP_K2LR = CRYP_KeyInitStruct->CRYP_Key2Left; 
 993              		.loc 1 551 53
 994 00ce 3B68     		ldr	r3, [r7]
 995 00d0 1A69     		ldr	r2, [r3, #16]
 996              		.loc 1 551 33
 997 00d2 7B68     		ldr	r3, [r7, #4]
 998 00d4 5A62     		str	r2, [r3, #36]
 552:./Library/stm32f4xx_cryp.c ****     CRYP_ContextSave->CRYP_K2RR = CRYP_KeyInitStruct->CRYP_Key2Right; 
 999              		.loc 1 552 53
 1000 00d6 3B68     		ldr	r3, [r7]
 1001 00d8 5A69     		ldr	r2, [r3, #20]
 1002              		.loc 1 552 33
 1003 00da 7B68     		ldr	r3, [r7, #4]
 1004 00dc 9A62     		str	r2, [r3, #40]
 553:./Library/stm32f4xx_cryp.c ****     CRYP_ContextSave->CRYP_K3LR = CRYP_KeyInitStruct->CRYP_Key3Left; 
 1005              		.loc 1 553 53
 1006 00de 3B68     		ldr	r3, [r7]
 1007 00e0 9A69     		ldr	r2, [r3, #24]
ARM GAS  /var/folders/yl/_q9l42k90g1g4mdhbs226msm0000gn/T//ccDtV1qt.s 			page 28


 1008              		.loc 1 553 33
 1009 00e2 7B68     		ldr	r3, [r7, #4]
 1010 00e4 DA62     		str	r2, [r3, #44]
 554:./Library/stm32f4xx_cryp.c ****     CRYP_ContextSave->CRYP_K3RR = CRYP_KeyInitStruct->CRYP_Key3Right; 
 1011              		.loc 1 554 53
 1012 00e6 3B68     		ldr	r3, [r7]
 1013 00e8 DA69     		ldr	r2, [r3, #28]
 1014              		.loc 1 554 33
 1015 00ea 7B68     		ldr	r3, [r7, #4]
 1016 00ec 1A63     		str	r2, [r3, #48]
 555:./Library/stm32f4xx_cryp.c **** 
 556:./Library/stm32f4xx_cryp.c ****     /* Save the content of context swap registers */
 557:./Library/stm32f4xx_cryp.c ****     CRYP_ContextSave->CRYP_CSGCMCCMR[0] = CRYP->CSGCMCCM0R;
 1017              		.loc 1 557 47
 1018 00ee 264B     		ldr	r3, .L42
 1019 00f0 1A6D     		ldr	r2, [r3, #80]
 1020              		.loc 1 557 41
 1021 00f2 7B68     		ldr	r3, [r7, #4]
 1022 00f4 5A63     		str	r2, [r3, #52]
 558:./Library/stm32f4xx_cryp.c ****     CRYP_ContextSave->CRYP_CSGCMCCMR[1] = CRYP->CSGCMCCM1R;
 1023              		.loc 1 558 47
 1024 00f6 244B     		ldr	r3, .L42
 1025 00f8 5A6D     		ldr	r2, [r3, #84]
 1026              		.loc 1 558 41
 1027 00fa 7B68     		ldr	r3, [r7, #4]
 1028 00fc 9A63     		str	r2, [r3, #56]
 559:./Library/stm32f4xx_cryp.c ****     CRYP_ContextSave->CRYP_CSGCMCCMR[2] = CRYP->CSGCMCCM2R;
 1029              		.loc 1 559 47
 1030 00fe 224B     		ldr	r3, .L42
 1031 0100 9A6D     		ldr	r2, [r3, #88]
 1032              		.loc 1 559 41
 1033 0102 7B68     		ldr	r3, [r7, #4]
 1034 0104 DA63     		str	r2, [r3, #60]
 560:./Library/stm32f4xx_cryp.c ****     CRYP_ContextSave->CRYP_CSGCMCCMR[3] = CRYP->CSGCMCCM3R;
 1035              		.loc 1 560 47
 1036 0106 204B     		ldr	r3, .L42
 1037 0108 DA6D     		ldr	r2, [r3, #92]
 1038              		.loc 1 560 41
 1039 010a 7B68     		ldr	r3, [r7, #4]
 1040 010c 1A64     		str	r2, [r3, #64]
 561:./Library/stm32f4xx_cryp.c ****     CRYP_ContextSave->CRYP_CSGCMCCMR[4] = CRYP->CSGCMCCM4R;
 1041              		.loc 1 561 47
 1042 010e 1E4B     		ldr	r3, .L42
 1043 0110 1A6E     		ldr	r2, [r3, #96]
 1044              		.loc 1 561 41
 1045 0112 7B68     		ldr	r3, [r7, #4]
 1046 0114 5A64     		str	r2, [r3, #68]
 562:./Library/stm32f4xx_cryp.c ****     CRYP_ContextSave->CRYP_CSGCMCCMR[5] = CRYP->CSGCMCCM5R;
 1047              		.loc 1 562 47
 1048 0116 1C4B     		ldr	r3, .L42
 1049 0118 5A6E     		ldr	r2, [r3, #100]
 1050              		.loc 1 562 41
 1051 011a 7B68     		ldr	r3, [r7, #4]
 1052 011c 9A64     		str	r2, [r3, #72]
 563:./Library/stm32f4xx_cryp.c ****     CRYP_ContextSave->CRYP_CSGCMCCMR[6] = CRYP->CSGCMCCM6R;
 1053              		.loc 1 563 47
 1054 011e 1A4B     		ldr	r3, .L42
ARM GAS  /var/folders/yl/_q9l42k90g1g4mdhbs226msm0000gn/T//ccDtV1qt.s 			page 29


 1055 0120 9A6E     		ldr	r2, [r3, #104]
 1056              		.loc 1 563 41
 1057 0122 7B68     		ldr	r3, [r7, #4]
 1058 0124 DA64     		str	r2, [r3, #76]
 564:./Library/stm32f4xx_cryp.c ****     CRYP_ContextSave->CRYP_CSGCMCCMR[7] = CRYP->CSGCMCCM7R;
 1059              		.loc 1 564 47
 1060 0126 184B     		ldr	r3, .L42
 1061 0128 DA6E     		ldr	r2, [r3, #108]
 1062              		.loc 1 564 41
 1063 012a 7B68     		ldr	r3, [r7, #4]
 1064 012c 1A65     		str	r2, [r3, #80]
 565:./Library/stm32f4xx_cryp.c ****     
 566:./Library/stm32f4xx_cryp.c ****     CRYP_ContextSave->CRYP_CSGCMR[0] = CRYP->CSGCM0R;
 1065              		.loc 1 566 44
 1066 012e 164B     		ldr	r3, .L42
 1067 0130 1A6F     		ldr	r2, [r3, #112]
 1068              		.loc 1 566 38
 1069 0132 7B68     		ldr	r3, [r7, #4]
 1070 0134 5A65     		str	r2, [r3, #84]
 567:./Library/stm32f4xx_cryp.c ****     CRYP_ContextSave->CRYP_CSGCMR[1] = CRYP->CSGCM1R;
 1071              		.loc 1 567 44
 1072 0136 144B     		ldr	r3, .L42
 1073 0138 5A6F     		ldr	r2, [r3, #116]
 1074              		.loc 1 567 38
 1075 013a 7B68     		ldr	r3, [r7, #4]
 1076 013c 9A65     		str	r2, [r3, #88]
 568:./Library/stm32f4xx_cryp.c ****     CRYP_ContextSave->CRYP_CSGCMR[2] = CRYP->CSGCM2R;
 1077              		.loc 1 568 44
 1078 013e 124B     		ldr	r3, .L42
 1079 0140 9A6F     		ldr	r2, [r3, #120]
 1080              		.loc 1 568 38
 1081 0142 7B68     		ldr	r3, [r7, #4]
 1082 0144 DA65     		str	r2, [r3, #92]
 569:./Library/stm32f4xx_cryp.c ****     CRYP_ContextSave->CRYP_CSGCMR[3] = CRYP->CSGCM3R;
 1083              		.loc 1 569 44
 1084 0146 104B     		ldr	r3, .L42
 1085 0148 DA6F     		ldr	r2, [r3, #124]
 1086              		.loc 1 569 38
 1087 014a 7B68     		ldr	r3, [r7, #4]
 1088 014c 1A66     		str	r2, [r3, #96]
 570:./Library/stm32f4xx_cryp.c ****     CRYP_ContextSave->CRYP_CSGCMR[4] = CRYP->CSGCM4R;
 1089              		.loc 1 570 44
 1090 014e 0E4B     		ldr	r3, .L42
 1091 0150 D3F88020 		ldr	r2, [r3, #128]
 1092              		.loc 1 570 38
 1093 0154 7B68     		ldr	r3, [r7, #4]
 1094 0156 5A66     		str	r2, [r3, #100]
 571:./Library/stm32f4xx_cryp.c ****     CRYP_ContextSave->CRYP_CSGCMR[5] = CRYP->CSGCM5R;
 1095              		.loc 1 571 44
 1096 0158 0B4B     		ldr	r3, .L42
 1097 015a D3F88420 		ldr	r2, [r3, #132]
 1098              		.loc 1 571 38
 1099 015e 7B68     		ldr	r3, [r7, #4]
 1100 0160 9A66     		str	r2, [r3, #104]
 572:./Library/stm32f4xx_cryp.c ****     CRYP_ContextSave->CRYP_CSGCMR[6] = CRYP->CSGCM6R;
 1101              		.loc 1 572 44
 1102 0162 094B     		ldr	r3, .L42
ARM GAS  /var/folders/yl/_q9l42k90g1g4mdhbs226msm0000gn/T//ccDtV1qt.s 			page 30


 1103 0164 D3F88820 		ldr	r2, [r3, #136]
 1104              		.loc 1 572 38
 1105 0168 7B68     		ldr	r3, [r7, #4]
 1106 016a DA66     		str	r2, [r3, #108]
 573:./Library/stm32f4xx_cryp.c ****     CRYP_ContextSave->CRYP_CSGCMR[7] = CRYP->CSGCM7R;
 1107              		.loc 1 573 44
 1108 016c 064B     		ldr	r3, .L42
 1109 016e D3F88C20 		ldr	r2, [r3, #140]
 1110              		.loc 1 573 38
 1111 0172 7B68     		ldr	r3, [r7, #4]
 1112 0174 1A67     		str	r2, [r3, #112]
 574:./Library/stm32f4xx_cryp.c ****     
 575:./Library/stm32f4xx_cryp.c ****    /* When needed, save the DMA status (pointers for IN and OUT messages, 
 576:./Library/stm32f4xx_cryp.c ****       number of remaining bytes, etc.) */
 577:./Library/stm32f4xx_cryp.c ****      
 578:./Library/stm32f4xx_cryp.c ****     status = SUCCESS;
 1113              		.loc 1 578 12
 1114 0176 0123     		movs	r3, #1
 1115 0178 FB74     		strb	r3, [r7, #19]
 1116              	.L40:
 579:./Library/stm32f4xx_cryp.c ****   }
 580:./Library/stm32f4xx_cryp.c **** 
 581:./Library/stm32f4xx_cryp.c ****    return status;
 1117              		.loc 1 581 11
 1118 017a FB7C     		ldrb	r3, [r7, #19]	@ zero_extendqisi2
 582:./Library/stm32f4xx_cryp.c **** }
 1119              		.loc 1 582 1
 1120 017c 1846     		mov	r0, r3
 1121 017e 1C37     		adds	r7, r7, #28
 1122              	.LCFI67:
 1123              		.cfi_def_cfa_offset 4
 1124 0180 BD46     		mov	sp, r7
 1125              	.LCFI68:
 1126              		.cfi_def_cfa_register 13
 1127              		@ sp needed
 1128 0182 5DF8047B 		ldr	r7, [sp], #4
 1129              	.LCFI69:
 1130              		.cfi_restore 7
 1131              		.cfi_def_cfa_offset 0
 1132 0186 7047     		bx	lr
 1133              	.L43:
 1134              		.align	2
 1135              	.L42:
 1136 0188 00000650 		.word	1342570496
 1137 018c FC030B00 		.word	721916
 1138              		.cfi_endproc
 1139              	.LFE135:
 1141              		.section	.text.CRYP_RestoreContext,"ax",%progbits
 1142              		.align	1
 1143              		.global	CRYP_RestoreContext
 1144              		.syntax unified
 1145              		.thumb
 1146              		.thumb_func
 1148              	CRYP_RestoreContext:
 1149              	.LFB136:
 583:./Library/stm32f4xx_cryp.c **** 
 584:./Library/stm32f4xx_cryp.c **** /**
ARM GAS  /var/folders/yl/_q9l42k90g1g4mdhbs226msm0000gn/T//ccDtV1qt.s 			page 31


 585:./Library/stm32f4xx_cryp.c ****   * @brief  Restores the CRYP peripheral Context.
 586:./Library/stm32f4xx_cryp.c ****   * @note   Since the DMA transfer is stopped in CRYP_SaveContext() function,
 587:./Library/stm32f4xx_cryp.c ****   *         after restoring the context, you have to enable the DMA again (if the
 588:./Library/stm32f4xx_cryp.c ****   *         DMA was previously used).  
 589:./Library/stm32f4xx_cryp.c ****   * @param  CRYP_ContextRestore: pointer to a CRYP_Context structure that contains
 590:./Library/stm32f4xx_cryp.c ****   *         the repository for saved context.
 591:./Library/stm32f4xx_cryp.c ****   * @note   The data that were saved during context saving must be rewritten into
 592:./Library/stm32f4xx_cryp.c ****   *         the IN FIFO.
 593:./Library/stm32f4xx_cryp.c ****   * @retval None
 594:./Library/stm32f4xx_cryp.c ****   */
 595:./Library/stm32f4xx_cryp.c **** void CRYP_RestoreContext(CRYP_Context* CRYP_ContextRestore)  
 596:./Library/stm32f4xx_cryp.c **** {
 1150              		.loc 1 596 1
 1151              		.cfi_startproc
 1152              		@ args = 0, pretend = 0, frame = 8
 1153              		@ frame_needed = 1, uses_anonymous_args = 0
 1154              		@ link register save eliminated.
 1155 0000 80B4     		push	{r7}
 1156              	.LCFI70:
 1157              		.cfi_def_cfa_offset 4
 1158              		.cfi_offset 7, -4
 1159 0002 83B0     		sub	sp, sp, #12
 1160              	.LCFI71:
 1161              		.cfi_def_cfa_offset 16
 1162 0004 00AF     		add	r7, sp, #0
 1163              	.LCFI72:
 1164              		.cfi_def_cfa_register 7
 1165 0006 7860     		str	r0, [r7, #4]
 597:./Library/stm32f4xx_cryp.c **** 
 598:./Library/stm32f4xx_cryp.c ****   /* Configure the processor with the saved configuration */
 599:./Library/stm32f4xx_cryp.c ****   CRYP->CR = CRYP_ContextRestore->CR_CurrentConfig;
 1166              		.loc 1 599 7
 1167 0008 414A     		ldr	r2, .L45
 1168              		.loc 1 599 33
 1169 000a 7B68     		ldr	r3, [r7, #4]
 1170 000c 1B68     		ldr	r3, [r3]
 1171              		.loc 1 599 12
 1172 000e 1360     		str	r3, [r2]
 600:./Library/stm32f4xx_cryp.c **** 
 601:./Library/stm32f4xx_cryp.c ****   /* restore The key value */
 602:./Library/stm32f4xx_cryp.c ****   CRYP->K0LR = CRYP_ContextRestore->CRYP_K0LR; 
 1173              		.loc 1 602 7
 1174 0010 3F4A     		ldr	r2, .L45
 1175              		.loc 1 602 35
 1176 0012 7B68     		ldr	r3, [r7, #4]
 1177 0014 5B69     		ldr	r3, [r3, #20]
 1178              		.loc 1 602 14
 1179 0016 1362     		str	r3, [r2, #32]
 603:./Library/stm32f4xx_cryp.c ****   CRYP->K0RR = CRYP_ContextRestore->CRYP_K0RR;
 1180              		.loc 1 603 7
 1181 0018 3D4A     		ldr	r2, .L45
 1182              		.loc 1 603 35
 1183 001a 7B68     		ldr	r3, [r7, #4]
 1184 001c 9B69     		ldr	r3, [r3, #24]
 1185              		.loc 1 603 14
 1186 001e 5362     		str	r3, [r2, #36]
 604:./Library/stm32f4xx_cryp.c ****   CRYP->K1LR = CRYP_ContextRestore->CRYP_K1LR;
ARM GAS  /var/folders/yl/_q9l42k90g1g4mdhbs226msm0000gn/T//ccDtV1qt.s 			page 32


 1187              		.loc 1 604 7
 1188 0020 3B4A     		ldr	r2, .L45
 1189              		.loc 1 604 35
 1190 0022 7B68     		ldr	r3, [r7, #4]
 1191 0024 DB69     		ldr	r3, [r3, #28]
 1192              		.loc 1 604 14
 1193 0026 9362     		str	r3, [r2, #40]
 605:./Library/stm32f4xx_cryp.c ****   CRYP->K1RR = CRYP_ContextRestore->CRYP_K1RR;
 1194              		.loc 1 605 7
 1195 0028 394A     		ldr	r2, .L45
 1196              		.loc 1 605 35
 1197 002a 7B68     		ldr	r3, [r7, #4]
 1198 002c 1B6A     		ldr	r3, [r3, #32]
 1199              		.loc 1 605 14
 1200 002e D362     		str	r3, [r2, #44]
 606:./Library/stm32f4xx_cryp.c ****   CRYP->K2LR = CRYP_ContextRestore->CRYP_K2LR;
 1201              		.loc 1 606 7
 1202 0030 374A     		ldr	r2, .L45
 1203              		.loc 1 606 35
 1204 0032 7B68     		ldr	r3, [r7, #4]
 1205 0034 5B6A     		ldr	r3, [r3, #36]
 1206              		.loc 1 606 14
 1207 0036 1363     		str	r3, [r2, #48]
 607:./Library/stm32f4xx_cryp.c ****   CRYP->K2RR = CRYP_ContextRestore->CRYP_K2RR;
 1208              		.loc 1 607 7
 1209 0038 354A     		ldr	r2, .L45
 1210              		.loc 1 607 35
 1211 003a 7B68     		ldr	r3, [r7, #4]
 1212 003c 9B6A     		ldr	r3, [r3, #40]
 1213              		.loc 1 607 14
 1214 003e 5363     		str	r3, [r2, #52]
 608:./Library/stm32f4xx_cryp.c ****   CRYP->K3LR = CRYP_ContextRestore->CRYP_K3LR;
 1215              		.loc 1 608 7
 1216 0040 334A     		ldr	r2, .L45
 1217              		.loc 1 608 35
 1218 0042 7B68     		ldr	r3, [r7, #4]
 1219 0044 DB6A     		ldr	r3, [r3, #44]
 1220              		.loc 1 608 14
 1221 0046 9363     		str	r3, [r2, #56]
 609:./Library/stm32f4xx_cryp.c ****   CRYP->K3RR = CRYP_ContextRestore->CRYP_K3RR;
 1222              		.loc 1 609 7
 1223 0048 314A     		ldr	r2, .L45
 1224              		.loc 1 609 35
 1225 004a 7B68     		ldr	r3, [r7, #4]
 1226 004c 1B6B     		ldr	r3, [r3, #48]
 1227              		.loc 1 609 14
 1228 004e D363     		str	r3, [r2, #60]
 610:./Library/stm32f4xx_cryp.c **** 
 611:./Library/stm32f4xx_cryp.c ****   /* and the initialization vectors. */
 612:./Library/stm32f4xx_cryp.c ****   CRYP->IV0LR = CRYP_ContextRestore->CRYP_IV0LR;
 1229              		.loc 1 612 7
 1230 0050 2F4A     		ldr	r2, .L45
 1231              		.loc 1 612 36
 1232 0052 7B68     		ldr	r3, [r7, #4]
 1233 0054 5B68     		ldr	r3, [r3, #4]
 1234              		.loc 1 612 15
 1235 0056 1364     		str	r3, [r2, #64]
ARM GAS  /var/folders/yl/_q9l42k90g1g4mdhbs226msm0000gn/T//ccDtV1qt.s 			page 33


 613:./Library/stm32f4xx_cryp.c ****   CRYP->IV0RR = CRYP_ContextRestore->CRYP_IV0RR;
 1236              		.loc 1 613 7
 1237 0058 2D4A     		ldr	r2, .L45
 1238              		.loc 1 613 36
 1239 005a 7B68     		ldr	r3, [r7, #4]
 1240 005c 9B68     		ldr	r3, [r3, #8]
 1241              		.loc 1 613 15
 1242 005e 5364     		str	r3, [r2, #68]
 614:./Library/stm32f4xx_cryp.c ****   CRYP->IV1LR = CRYP_ContextRestore->CRYP_IV1LR;
 1243              		.loc 1 614 7
 1244 0060 2B4A     		ldr	r2, .L45
 1245              		.loc 1 614 36
 1246 0062 7B68     		ldr	r3, [r7, #4]
 1247 0064 DB68     		ldr	r3, [r3, #12]
 1248              		.loc 1 614 15
 1249 0066 9364     		str	r3, [r2, #72]
 615:./Library/stm32f4xx_cryp.c ****   CRYP->IV1RR = CRYP_ContextRestore->CRYP_IV1RR;
 1250              		.loc 1 615 7
 1251 0068 294A     		ldr	r2, .L45
 1252              		.loc 1 615 36
 1253 006a 7B68     		ldr	r3, [r7, #4]
 1254 006c 1B69     		ldr	r3, [r3, #16]
 1255              		.loc 1 615 15
 1256 006e D364     		str	r3, [r2, #76]
 616:./Library/stm32f4xx_cryp.c **** 
 617:./Library/stm32f4xx_cryp.c ****   /* Restore the content of context swap registers */
 618:./Library/stm32f4xx_cryp.c ****   CRYP->CSGCMCCM0R = CRYP_ContextRestore->CRYP_CSGCMCCMR[0];
 1257              		.loc 1 618 7
 1258 0070 274A     		ldr	r2, .L45
 1259              		.loc 1 618 57
 1260 0072 7B68     		ldr	r3, [r7, #4]
 1261 0074 5B6B     		ldr	r3, [r3, #52]
 1262              		.loc 1 618 20
 1263 0076 1365     		str	r3, [r2, #80]
 619:./Library/stm32f4xx_cryp.c ****   CRYP->CSGCMCCM1R = CRYP_ContextRestore->CRYP_CSGCMCCMR[1];
 1264              		.loc 1 619 7
 1265 0078 254A     		ldr	r2, .L45
 1266              		.loc 1 619 57
 1267 007a 7B68     		ldr	r3, [r7, #4]
 1268 007c 9B6B     		ldr	r3, [r3, #56]
 1269              		.loc 1 619 20
 1270 007e 5365     		str	r3, [r2, #84]
 620:./Library/stm32f4xx_cryp.c ****   CRYP->CSGCMCCM2R = CRYP_ContextRestore->CRYP_CSGCMCCMR[2];
 1271              		.loc 1 620 7
 1272 0080 234A     		ldr	r2, .L45
 1273              		.loc 1 620 57
 1274 0082 7B68     		ldr	r3, [r7, #4]
 1275 0084 DB6B     		ldr	r3, [r3, #60]
 1276              		.loc 1 620 20
 1277 0086 9365     		str	r3, [r2, #88]
 621:./Library/stm32f4xx_cryp.c ****   CRYP->CSGCMCCM3R = CRYP_ContextRestore->CRYP_CSGCMCCMR[3];
 1278              		.loc 1 621 7
 1279 0088 214A     		ldr	r2, .L45
 1280              		.loc 1 621 57
 1281 008a 7B68     		ldr	r3, [r7, #4]
 1282 008c 1B6C     		ldr	r3, [r3, #64]
 1283              		.loc 1 621 20
ARM GAS  /var/folders/yl/_q9l42k90g1g4mdhbs226msm0000gn/T//ccDtV1qt.s 			page 34


 1284 008e D365     		str	r3, [r2, #92]
 622:./Library/stm32f4xx_cryp.c ****   CRYP->CSGCMCCM4R = CRYP_ContextRestore->CRYP_CSGCMCCMR[4];
 1285              		.loc 1 622 7
 1286 0090 1F4A     		ldr	r2, .L45
 1287              		.loc 1 622 57
 1288 0092 7B68     		ldr	r3, [r7, #4]
 1289 0094 5B6C     		ldr	r3, [r3, #68]
 1290              		.loc 1 622 20
 1291 0096 1366     		str	r3, [r2, #96]
 623:./Library/stm32f4xx_cryp.c ****   CRYP->CSGCMCCM5R = CRYP_ContextRestore->CRYP_CSGCMCCMR[5];
 1292              		.loc 1 623 7
 1293 0098 1D4A     		ldr	r2, .L45
 1294              		.loc 1 623 57
 1295 009a 7B68     		ldr	r3, [r7, #4]
 1296 009c 9B6C     		ldr	r3, [r3, #72]
 1297              		.loc 1 623 20
 1298 009e 5366     		str	r3, [r2, #100]
 624:./Library/stm32f4xx_cryp.c ****   CRYP->CSGCMCCM6R = CRYP_ContextRestore->CRYP_CSGCMCCMR[6];
 1299              		.loc 1 624 7
 1300 00a0 1B4A     		ldr	r2, .L45
 1301              		.loc 1 624 57
 1302 00a2 7B68     		ldr	r3, [r7, #4]
 1303 00a4 DB6C     		ldr	r3, [r3, #76]
 1304              		.loc 1 624 20
 1305 00a6 9366     		str	r3, [r2, #104]
 625:./Library/stm32f4xx_cryp.c ****   CRYP->CSGCMCCM7R = CRYP_ContextRestore->CRYP_CSGCMCCMR[7];
 1306              		.loc 1 625 7
 1307 00a8 194A     		ldr	r2, .L45
 1308              		.loc 1 625 57
 1309 00aa 7B68     		ldr	r3, [r7, #4]
 1310 00ac 1B6D     		ldr	r3, [r3, #80]
 1311              		.loc 1 625 20
 1312 00ae D366     		str	r3, [r2, #108]
 626:./Library/stm32f4xx_cryp.c ****   
 627:./Library/stm32f4xx_cryp.c ****   CRYP->CSGCM0R = CRYP_ContextRestore->CRYP_CSGCMR[0];
 1313              		.loc 1 627 7
 1314 00b0 174A     		ldr	r2, .L45
 1315              		.loc 1 627 51
 1316 00b2 7B68     		ldr	r3, [r7, #4]
 1317 00b4 5B6D     		ldr	r3, [r3, #84]
 1318              		.loc 1 627 17
 1319 00b6 1367     		str	r3, [r2, #112]
 628:./Library/stm32f4xx_cryp.c ****   CRYP->CSGCM1R = CRYP_ContextRestore->CRYP_CSGCMR[1];
 1320              		.loc 1 628 7
 1321 00b8 154A     		ldr	r2, .L45
 1322              		.loc 1 628 51
 1323 00ba 7B68     		ldr	r3, [r7, #4]
 1324 00bc 9B6D     		ldr	r3, [r3, #88]
 1325              		.loc 1 628 17
 1326 00be 5367     		str	r3, [r2, #116]
 629:./Library/stm32f4xx_cryp.c ****   CRYP->CSGCM2R = CRYP_ContextRestore->CRYP_CSGCMR[2];
 1327              		.loc 1 629 7
 1328 00c0 134A     		ldr	r2, .L45
 1329              		.loc 1 629 51
 1330 00c2 7B68     		ldr	r3, [r7, #4]
 1331 00c4 DB6D     		ldr	r3, [r3, #92]
 1332              		.loc 1 629 17
ARM GAS  /var/folders/yl/_q9l42k90g1g4mdhbs226msm0000gn/T//ccDtV1qt.s 			page 35


 1333 00c6 9367     		str	r3, [r2, #120]
 630:./Library/stm32f4xx_cryp.c ****   CRYP->CSGCM3R = CRYP_ContextRestore->CRYP_CSGCMR[3];
 1334              		.loc 1 630 7
 1335 00c8 114A     		ldr	r2, .L45
 1336              		.loc 1 630 51
 1337 00ca 7B68     		ldr	r3, [r7, #4]
 1338 00cc 1B6E     		ldr	r3, [r3, #96]
 1339              		.loc 1 630 17
 1340 00ce D367     		str	r3, [r2, #124]
 631:./Library/stm32f4xx_cryp.c ****   CRYP->CSGCM4R = CRYP_ContextRestore->CRYP_CSGCMR[4];
 1341              		.loc 1 631 7
 1342 00d0 0F4A     		ldr	r2, .L45
 1343              		.loc 1 631 51
 1344 00d2 7B68     		ldr	r3, [r7, #4]
 1345 00d4 5B6E     		ldr	r3, [r3, #100]
 1346              		.loc 1 631 17
 1347 00d6 C2F88030 		str	r3, [r2, #128]
 632:./Library/stm32f4xx_cryp.c ****   CRYP->CSGCM5R = CRYP_ContextRestore->CRYP_CSGCMR[5];
 1348              		.loc 1 632 7
 1349 00da 0D4A     		ldr	r2, .L45
 1350              		.loc 1 632 51
 1351 00dc 7B68     		ldr	r3, [r7, #4]
 1352 00de 9B6E     		ldr	r3, [r3, #104]
 1353              		.loc 1 632 17
 1354 00e0 C2F88430 		str	r3, [r2, #132]
 633:./Library/stm32f4xx_cryp.c ****   CRYP->CSGCM6R = CRYP_ContextRestore->CRYP_CSGCMR[6];
 1355              		.loc 1 633 7
 1356 00e4 0A4A     		ldr	r2, .L45
 1357              		.loc 1 633 51
 1358 00e6 7B68     		ldr	r3, [r7, #4]
 1359 00e8 DB6E     		ldr	r3, [r3, #108]
 1360              		.loc 1 633 17
 1361 00ea C2F88830 		str	r3, [r2, #136]
 634:./Library/stm32f4xx_cryp.c ****   CRYP->CSGCM7R = CRYP_ContextRestore->CRYP_CSGCMR[7];
 1362              		.loc 1 634 7
 1363 00ee 084A     		ldr	r2, .L45
 1364              		.loc 1 634 51
 1365 00f0 7B68     		ldr	r3, [r7, #4]
 1366 00f2 1B6F     		ldr	r3, [r3, #112]
 1367              		.loc 1 634 17
 1368 00f4 C2F88C30 		str	r3, [r2, #140]
 635:./Library/stm32f4xx_cryp.c ****   
 636:./Library/stm32f4xx_cryp.c ****   /* Enable the cryptographic processor */
 637:./Library/stm32f4xx_cryp.c ****   CRYP->CR |= CRYP_CR_CRYPEN;
 1369              		.loc 1 637 12
 1370 00f8 054B     		ldr	r3, .L45
 1371 00fa 1B68     		ldr	r3, [r3]
 1372 00fc 044A     		ldr	r2, .L45
 1373 00fe 43F40043 		orr	r3, r3, #32768
 1374 0102 1360     		str	r3, [r2]
 638:./Library/stm32f4xx_cryp.c **** }
 1375              		.loc 1 638 1
 1376 0104 00BF     		nop
 1377 0106 0C37     		adds	r7, r7, #12
 1378              	.LCFI73:
 1379              		.cfi_def_cfa_offset 4
 1380 0108 BD46     		mov	sp, r7
ARM GAS  /var/folders/yl/_q9l42k90g1g4mdhbs226msm0000gn/T//ccDtV1qt.s 			page 36


 1381              	.LCFI74:
 1382              		.cfi_def_cfa_register 13
 1383              		@ sp needed
 1384 010a 5DF8047B 		ldr	r7, [sp], #4
 1385              	.LCFI75:
 1386              		.cfi_restore 7
 1387              		.cfi_def_cfa_offset 0
 1388 010e 7047     		bx	lr
 1389              	.L46:
 1390              		.align	2
 1391              	.L45:
 1392 0110 00000650 		.word	1342570496
 1393              		.cfi_endproc
 1394              	.LFE136:
 1396              		.section	.text.CRYP_DMACmd,"ax",%progbits
 1397              		.align	1
 1398              		.global	CRYP_DMACmd
 1399              		.syntax unified
 1400              		.thumb
 1401              		.thumb_func
 1403              	CRYP_DMACmd:
 1404              	.LFB137:
 639:./Library/stm32f4xx_cryp.c **** /**
 640:./Library/stm32f4xx_cryp.c ****   * @}
 641:./Library/stm32f4xx_cryp.c ****   */
 642:./Library/stm32f4xx_cryp.c **** 
 643:./Library/stm32f4xx_cryp.c **** /** @defgroup CRYP_Group4 CRYP's DMA interface Configuration function
 644:./Library/stm32f4xx_cryp.c ****  *  @brief   CRYP's DMA interface Configuration function 
 645:./Library/stm32f4xx_cryp.c ****  *
 646:./Library/stm32f4xx_cryp.c **** @verbatim   
 647:./Library/stm32f4xx_cryp.c ****  ===============================================================================
 648:./Library/stm32f4xx_cryp.c ****              ##### CRYP's DMA interface Configuration function #####
 649:./Library/stm32f4xx_cryp.c ****  ===============================================================================  
 650:./Library/stm32f4xx_cryp.c ****  [..] This section provides functions allowing to configure the DMA interface for 
 651:./Library/stm32f4xx_cryp.c ****       CRYP data input and output transfer.
 652:./Library/stm32f4xx_cryp.c ****    
 653:./Library/stm32f4xx_cryp.c ****  [..] When the DMA mode is enabled (using the CRYP_DMACmd() function), data can be 
 654:./Library/stm32f4xx_cryp.c ****       transferred:
 655:./Library/stm32f4xx_cryp.c ****    (+) From memory to the CRYP IN FIFO using the DMA peripheral by enabling 
 656:./Library/stm32f4xx_cryp.c ****        the CRYP_DMAReq_DataIN request.
 657:./Library/stm32f4xx_cryp.c ****    (+) From the CRYP OUT FIFO to the memory using the DMA peripheral by enabling 
 658:./Library/stm32f4xx_cryp.c ****        the CRYP_DMAReq_DataOUT request.
 659:./Library/stm32f4xx_cryp.c **** 
 660:./Library/stm32f4xx_cryp.c **** @endverbatim
 661:./Library/stm32f4xx_cryp.c ****   * @{
 662:./Library/stm32f4xx_cryp.c ****   */
 663:./Library/stm32f4xx_cryp.c **** 
 664:./Library/stm32f4xx_cryp.c **** /**
 665:./Library/stm32f4xx_cryp.c ****   * @brief  Enables or disables the CRYP DMA interface.
 666:./Library/stm32f4xx_cryp.c ****   * @param  CRYP_DMAReq: specifies the CRYP DMA transfer request to be enabled or disabled.
 667:./Library/stm32f4xx_cryp.c ****   *           This parameter can be any combination of the following values:
 668:./Library/stm32f4xx_cryp.c ****   *            @arg CRYP_DMAReq_DataOUT: DMA for outgoing(Tx) data transfer
 669:./Library/stm32f4xx_cryp.c ****   *            @arg CRYP_DMAReq_DataIN: DMA for incoming(Rx) data transfer
 670:./Library/stm32f4xx_cryp.c ****   * @param  NewState: new state of the selected CRYP DMA transfer request.
 671:./Library/stm32f4xx_cryp.c ****   *          This parameter can be: ENABLE or DISABLE.
 672:./Library/stm32f4xx_cryp.c ****   * @retval None
 673:./Library/stm32f4xx_cryp.c ****   */
ARM GAS  /var/folders/yl/_q9l42k90g1g4mdhbs226msm0000gn/T//ccDtV1qt.s 			page 37


 674:./Library/stm32f4xx_cryp.c **** void CRYP_DMACmd(uint8_t CRYP_DMAReq, FunctionalState NewState)
 675:./Library/stm32f4xx_cryp.c **** {
 1405              		.loc 1 675 1
 1406              		.cfi_startproc
 1407              		@ args = 0, pretend = 0, frame = 8
 1408              		@ frame_needed = 1, uses_anonymous_args = 0
 1409              		@ link register save eliminated.
 1410 0000 80B4     		push	{r7}
 1411              	.LCFI76:
 1412              		.cfi_def_cfa_offset 4
 1413              		.cfi_offset 7, -4
 1414 0002 83B0     		sub	sp, sp, #12
 1415              	.LCFI77:
 1416              		.cfi_def_cfa_offset 16
 1417 0004 00AF     		add	r7, sp, #0
 1418              	.LCFI78:
 1419              		.cfi_def_cfa_register 7
 1420 0006 0346     		mov	r3, r0
 1421 0008 0A46     		mov	r2, r1
 1422 000a FB71     		strb	r3, [r7, #7]
 1423 000c 1346     		mov	r3, r2
 1424 000e BB71     		strb	r3, [r7, #6]
 676:./Library/stm32f4xx_cryp.c ****   /* Check the parameters */
 677:./Library/stm32f4xx_cryp.c ****   assert_param(IS_CRYP_DMAREQ(CRYP_DMAReq));
 678:./Library/stm32f4xx_cryp.c ****   assert_param(IS_FUNCTIONAL_STATE(NewState));
 679:./Library/stm32f4xx_cryp.c **** 
 680:./Library/stm32f4xx_cryp.c ****   if (NewState != DISABLE)
 1425              		.loc 1 680 6
 1426 0010 BB79     		ldrb	r3, [r7, #6]	@ zero_extendqisi2
 1427 0012 002B     		cmp	r3, #0
 1428 0014 06D0     		beq	.L48
 681:./Library/stm32f4xx_cryp.c ****   {
 682:./Library/stm32f4xx_cryp.c ****     /* Enable the selected CRYP DMA request */
 683:./Library/stm32f4xx_cryp.c ****     CRYP->DMACR |= CRYP_DMAReq;
 1429              		.loc 1 683 17
 1430 0016 0B4B     		ldr	r3, .L51
 1431 0018 1A69     		ldr	r2, [r3, #16]
 1432 001a FB79     		ldrb	r3, [r7, #7]	@ zero_extendqisi2
 1433 001c 0949     		ldr	r1, .L51
 1434 001e 1343     		orrs	r3, r3, r2
 1435 0020 0B61     		str	r3, [r1, #16]
 684:./Library/stm32f4xx_cryp.c ****   }
 685:./Library/stm32f4xx_cryp.c ****   else
 686:./Library/stm32f4xx_cryp.c ****   {
 687:./Library/stm32f4xx_cryp.c ****     /* Disable the selected CRYP DMA request */
 688:./Library/stm32f4xx_cryp.c ****     CRYP->DMACR &= (uint8_t)~CRYP_DMAReq;
 689:./Library/stm32f4xx_cryp.c ****   }
 690:./Library/stm32f4xx_cryp.c **** }
 1436              		.loc 1 690 1
 1437 0022 08E0     		b	.L50
 1438              	.L48:
 688:./Library/stm32f4xx_cryp.c ****   }
 1439              		.loc 1 688 17
 1440 0024 074B     		ldr	r3, .L51
 1441 0026 1B69     		ldr	r3, [r3, #16]
 688:./Library/stm32f4xx_cryp.c ****   }
 1442              		.loc 1 688 20
ARM GAS  /var/folders/yl/_q9l42k90g1g4mdhbs226msm0000gn/T//ccDtV1qt.s 			page 38


 1443 0028 FA79     		ldrb	r2, [r7, #7]
 1444 002a D243     		mvns	r2, r2
 1445 002c D2B2     		uxtb	r2, r2
 1446 002e 1146     		mov	r1, r2
 688:./Library/stm32f4xx_cryp.c ****   }
 1447              		.loc 1 688 17
 1448 0030 044A     		ldr	r2, .L51
 1449 0032 0B40     		ands	r3, r3, r1
 1450 0034 1361     		str	r3, [r2, #16]
 1451              	.L50:
 1452              		.loc 1 690 1
 1453 0036 00BF     		nop
 1454 0038 0C37     		adds	r7, r7, #12
 1455              	.LCFI79:
 1456              		.cfi_def_cfa_offset 4
 1457 003a BD46     		mov	sp, r7
 1458              	.LCFI80:
 1459              		.cfi_def_cfa_register 13
 1460              		@ sp needed
 1461 003c 5DF8047B 		ldr	r7, [sp], #4
 1462              	.LCFI81:
 1463              		.cfi_restore 7
 1464              		.cfi_def_cfa_offset 0
 1465 0040 7047     		bx	lr
 1466              	.L52:
 1467 0042 00BF     		.align	2
 1468              	.L51:
 1469 0044 00000650 		.word	1342570496
 1470              		.cfi_endproc
 1471              	.LFE137:
 1473              		.section	.text.CRYP_ITConfig,"ax",%progbits
 1474              		.align	1
 1475              		.global	CRYP_ITConfig
 1476              		.syntax unified
 1477              		.thumb
 1478              		.thumb_func
 1480              	CRYP_ITConfig:
 1481              	.LFB138:
 691:./Library/stm32f4xx_cryp.c **** /**
 692:./Library/stm32f4xx_cryp.c ****   * @}
 693:./Library/stm32f4xx_cryp.c ****   */
 694:./Library/stm32f4xx_cryp.c **** 
 695:./Library/stm32f4xx_cryp.c **** /** @defgroup CRYP_Group5 Interrupts and flags management functions
 696:./Library/stm32f4xx_cryp.c ****  *  @brief   Interrupts and flags management functions
 697:./Library/stm32f4xx_cryp.c ****  *
 698:./Library/stm32f4xx_cryp.c **** @verbatim   
 699:./Library/stm32f4xx_cryp.c ****  ===============================================================================
 700:./Library/stm32f4xx_cryp.c ****               ##### Interrupts and flags management functions #####
 701:./Library/stm32f4xx_cryp.c ****  ===============================================================================  
 702:./Library/stm32f4xx_cryp.c ****  
 703:./Library/stm32f4xx_cryp.c ****  [..] This section provides functions allowing to configure the CRYP Interrupts and 
 704:./Library/stm32f4xx_cryp.c ****       to get the status and Interrupts pending bits.
 705:./Library/stm32f4xx_cryp.c **** 
 706:./Library/stm32f4xx_cryp.c ****  [..] The CRYP provides 2 Interrupts sources and 7 Flags:
 707:./Library/stm32f4xx_cryp.c **** 
 708:./Library/stm32f4xx_cryp.c ****  *** Flags : ***
 709:./Library/stm32f4xx_cryp.c ****  ===============
ARM GAS  /var/folders/yl/_q9l42k90g1g4mdhbs226msm0000gn/T//ccDtV1qt.s 			page 39


 710:./Library/stm32f4xx_cryp.c ****  [..] 
 711:./Library/stm32f4xx_cryp.c ****    (#) CRYP_FLAG_IFEM :  Set when Input FIFO is empty. This Flag is cleared only
 712:./Library/stm32f4xx_cryp.c ****        by hardware.
 713:./Library/stm32f4xx_cryp.c ****       
 714:./Library/stm32f4xx_cryp.c ****    (#) CRYP_FLAG_IFNF :  Set when Input FIFO is not full. This Flag is cleared 
 715:./Library/stm32f4xx_cryp.c ****        only by hardware.
 716:./Library/stm32f4xx_cryp.c **** 
 717:./Library/stm32f4xx_cryp.c **** 
 718:./Library/stm32f4xx_cryp.c ****    (#) CRYP_FLAG_INRIS  : Set when Input FIFO Raw interrupt is pending it gives 
 719:./Library/stm32f4xx_cryp.c ****        the raw interrupt state prior to masking of the input FIFO service interrupt.
 720:./Library/stm32f4xx_cryp.c ****        This Flag is cleared only by hardware.
 721:./Library/stm32f4xx_cryp.c ****      
 722:./Library/stm32f4xx_cryp.c ****    (#) CRYP_FLAG_OFNE   : Set when Output FIFO not empty. This Flag is cleared 
 723:./Library/stm32f4xx_cryp.c ****        only by hardware.
 724:./Library/stm32f4xx_cryp.c ****         
 725:./Library/stm32f4xx_cryp.c ****    (#) CRYP_FLAG_OFFU   : Set when Output FIFO is full. This Flag is cleared only 
 726:./Library/stm32f4xx_cryp.c ****        by hardware.
 727:./Library/stm32f4xx_cryp.c ****                            
 728:./Library/stm32f4xx_cryp.c ****    (#) CRYP_FLAG_OUTRIS : Set when Output FIFO Raw interrupt is pending it gives 
 729:./Library/stm32f4xx_cryp.c ****        the raw interrupt state prior to masking of the output FIFO service interrupt.
 730:./Library/stm32f4xx_cryp.c ****        This Flag is cleared only by hardware.
 731:./Library/stm32f4xx_cryp.c ****                                
 732:./Library/stm32f4xx_cryp.c ****    (#) CRYP_FLAG_BUSY   : Set when the CRYP core is currently processing a block 
 733:./Library/stm32f4xx_cryp.c ****        of data or a key preparation (for AES decryption). This Flag is cleared 
 734:./Library/stm32f4xx_cryp.c ****        only by hardware. To clear it, the CRYP core must be disabled and the last
 735:./Library/stm32f4xx_cryp.c ****        processing has completed. 
 736:./Library/stm32f4xx_cryp.c **** 
 737:./Library/stm32f4xx_cryp.c ****  *** Interrupts : ***
 738:./Library/stm32f4xx_cryp.c ****  ====================
 739:./Library/stm32f4xx_cryp.c ****  [..]
 740:./Library/stm32f4xx_cryp.c ****    (#) CRYP_IT_INI   : The input FIFO service interrupt is asserted when there 
 741:./Library/stm32f4xx_cryp.c ****       are less than 4 words in the input FIFO. This interrupt is associated to 
 742:./Library/stm32f4xx_cryp.c ****       CRYP_FLAG_INRIS flag.
 743:./Library/stm32f4xx_cryp.c **** 
 744:./Library/stm32f4xx_cryp.c ****       -@- This interrupt is cleared by performing write operations to the input FIFO 
 745:./Library/stm32f4xx_cryp.c ****           until it holds 4 or more words. The input FIFO service interrupt INMIS is 
 746:./Library/stm32f4xx_cryp.c ****           enabled with the CRYP enable bit. Consequently, when CRYP is disabled, the 
 747:./Library/stm32f4xx_cryp.c ****           INMIS signal is low even if the input FIFO is empty.
 748:./Library/stm32f4xx_cryp.c **** 
 749:./Library/stm32f4xx_cryp.c **** 
 750:./Library/stm32f4xx_cryp.c **** 
 751:./Library/stm32f4xx_cryp.c ****    (#) CRYP_IT_OUTI  : The output FIFO service interrupt is asserted when there 
 752:./Library/stm32f4xx_cryp.c ****        is one or more (32-bit word) data items in the output FIFO. This interrupt 
 753:./Library/stm32f4xx_cryp.c ****        is associated to CRYP_FLAG_OUTRIS flag.
 754:./Library/stm32f4xx_cryp.c **** 
 755:./Library/stm32f4xx_cryp.c ****        -@- This interrupt is cleared by reading data from the output FIFO until there 
 756:./Library/stm32f4xx_cryp.c ****            is no valid (32-bit) word left (that is, the interrupt follows the state 
 757:./Library/stm32f4xx_cryp.c ****            of the OFNE (output FIFO not empty) flag).
 758:./Library/stm32f4xx_cryp.c **** 
 759:./Library/stm32f4xx_cryp.c ****  *** Managing the CRYP controller events : ***
 760:./Library/stm32f4xx_cryp.c ****  =============================================
 761:./Library/stm32f4xx_cryp.c ****  [..] The user should identify which mode will be used in his application to manage 
 762:./Library/stm32f4xx_cryp.c ****       the CRYP controller events: Polling mode or Interrupt mode.
 763:./Library/stm32f4xx_cryp.c **** 
 764:./Library/stm32f4xx_cryp.c ****    (#) In the Polling Mode it is advised to use the following functions:
 765:./Library/stm32f4xx_cryp.c ****        (++) CRYP_GetFlagStatus() : to check if flags events occur. 
 766:./Library/stm32f4xx_cryp.c **** 
ARM GAS  /var/folders/yl/_q9l42k90g1g4mdhbs226msm0000gn/T//ccDtV1qt.s 			page 40


 767:./Library/stm32f4xx_cryp.c ****        -@@- The CRYPT flags do not need to be cleared since they are cleared as 
 768:./Library/stm32f4xx_cryp.c ****             soon as the associated event are reset.   
 769:./Library/stm32f4xx_cryp.c **** 
 770:./Library/stm32f4xx_cryp.c **** 
 771:./Library/stm32f4xx_cryp.c ****    (#) In the Interrupt Mode it is advised to use the following functions:
 772:./Library/stm32f4xx_cryp.c ****        (++) CRYP_ITConfig()       : to enable or disable the interrupt source.
 773:./Library/stm32f4xx_cryp.c ****        (++) CRYP_GetITStatus()    : to check if Interrupt occurs.
 774:./Library/stm32f4xx_cryp.c **** 
 775:./Library/stm32f4xx_cryp.c ****        -@@- The CRYPT interrupts have no pending bits, the interrupt is cleared as 
 776:./Library/stm32f4xx_cryp.c ****              soon as the associated event is reset. 
 777:./Library/stm32f4xx_cryp.c **** 
 778:./Library/stm32f4xx_cryp.c **** @endverbatim
 779:./Library/stm32f4xx_cryp.c ****   * @{
 780:./Library/stm32f4xx_cryp.c ****   */ 
 781:./Library/stm32f4xx_cryp.c **** 
 782:./Library/stm32f4xx_cryp.c **** /**
 783:./Library/stm32f4xx_cryp.c ****   * @brief  Enables or disables the specified CRYP interrupts.
 784:./Library/stm32f4xx_cryp.c ****   * @param  CRYP_IT: specifies the CRYP interrupt source to be enabled or disabled.
 785:./Library/stm32f4xx_cryp.c ****   *          This parameter can be any combination of the following values:
 786:./Library/stm32f4xx_cryp.c ****   *            @arg CRYP_IT_INI: Input FIFO interrupt
 787:./Library/stm32f4xx_cryp.c ****   *            @arg CRYP_IT_OUTI: Output FIFO interrupt
 788:./Library/stm32f4xx_cryp.c ****   * @param  NewState: new state of the specified CRYP interrupt.
 789:./Library/stm32f4xx_cryp.c ****   *           This parameter can be: ENABLE or DISABLE.
 790:./Library/stm32f4xx_cryp.c ****   * @retval None
 791:./Library/stm32f4xx_cryp.c ****   */
 792:./Library/stm32f4xx_cryp.c **** void CRYP_ITConfig(uint8_t CRYP_IT, FunctionalState NewState)
 793:./Library/stm32f4xx_cryp.c **** {
 1482              		.loc 1 793 1
 1483              		.cfi_startproc
 1484              		@ args = 0, pretend = 0, frame = 8
 1485              		@ frame_needed = 1, uses_anonymous_args = 0
 1486              		@ link register save eliminated.
 1487 0000 80B4     		push	{r7}
 1488              	.LCFI82:
 1489              		.cfi_def_cfa_offset 4
 1490              		.cfi_offset 7, -4
 1491 0002 83B0     		sub	sp, sp, #12
 1492              	.LCFI83:
 1493              		.cfi_def_cfa_offset 16
 1494 0004 00AF     		add	r7, sp, #0
 1495              	.LCFI84:
 1496              		.cfi_def_cfa_register 7
 1497 0006 0346     		mov	r3, r0
 1498 0008 0A46     		mov	r2, r1
 1499 000a FB71     		strb	r3, [r7, #7]
 1500 000c 1346     		mov	r3, r2
 1501 000e BB71     		strb	r3, [r7, #6]
 794:./Library/stm32f4xx_cryp.c ****   /* Check the parameters */
 795:./Library/stm32f4xx_cryp.c ****   assert_param(IS_CRYP_CONFIG_IT(CRYP_IT));
 796:./Library/stm32f4xx_cryp.c ****   assert_param(IS_FUNCTIONAL_STATE(NewState));
 797:./Library/stm32f4xx_cryp.c **** 
 798:./Library/stm32f4xx_cryp.c ****   if (NewState != DISABLE)
 1502              		.loc 1 798 6
 1503 0010 BB79     		ldrb	r3, [r7, #6]	@ zero_extendqisi2
 1504 0012 002B     		cmp	r3, #0
 1505 0014 06D0     		beq	.L54
 799:./Library/stm32f4xx_cryp.c ****   {
ARM GAS  /var/folders/yl/_q9l42k90g1g4mdhbs226msm0000gn/T//ccDtV1qt.s 			page 41


 800:./Library/stm32f4xx_cryp.c ****     /* Enable the selected CRYP interrupt */
 801:./Library/stm32f4xx_cryp.c ****     CRYP->IMSCR |= CRYP_IT;
 1506              		.loc 1 801 17
 1507 0016 0B4B     		ldr	r3, .L57
 1508 0018 5A69     		ldr	r2, [r3, #20]
 1509 001a FB79     		ldrb	r3, [r7, #7]	@ zero_extendqisi2
 1510 001c 0949     		ldr	r1, .L57
 1511 001e 1343     		orrs	r3, r3, r2
 1512 0020 4B61     		str	r3, [r1, #20]
 802:./Library/stm32f4xx_cryp.c ****   }
 803:./Library/stm32f4xx_cryp.c ****   else
 804:./Library/stm32f4xx_cryp.c ****   {
 805:./Library/stm32f4xx_cryp.c ****     /* Disable the selected CRYP interrupt */
 806:./Library/stm32f4xx_cryp.c ****     CRYP->IMSCR &= (uint8_t)~CRYP_IT;
 807:./Library/stm32f4xx_cryp.c ****   }
 808:./Library/stm32f4xx_cryp.c **** }
 1513              		.loc 1 808 1
 1514 0022 08E0     		b	.L56
 1515              	.L54:
 806:./Library/stm32f4xx_cryp.c ****   }
 1516              		.loc 1 806 17
 1517 0024 074B     		ldr	r3, .L57
 1518 0026 5B69     		ldr	r3, [r3, #20]
 806:./Library/stm32f4xx_cryp.c ****   }
 1519              		.loc 1 806 20
 1520 0028 FA79     		ldrb	r2, [r7, #7]
 1521 002a D243     		mvns	r2, r2
 1522 002c D2B2     		uxtb	r2, r2
 1523 002e 1146     		mov	r1, r2
 806:./Library/stm32f4xx_cryp.c ****   }
 1524              		.loc 1 806 17
 1525 0030 044A     		ldr	r2, .L57
 1526 0032 0B40     		ands	r3, r3, r1
 1527 0034 5361     		str	r3, [r2, #20]
 1528              	.L56:
 1529              		.loc 1 808 1
 1530 0036 00BF     		nop
 1531 0038 0C37     		adds	r7, r7, #12
 1532              	.LCFI85:
 1533              		.cfi_def_cfa_offset 4
 1534 003a BD46     		mov	sp, r7
 1535              	.LCFI86:
 1536              		.cfi_def_cfa_register 13
 1537              		@ sp needed
 1538 003c 5DF8047B 		ldr	r7, [sp], #4
 1539              	.LCFI87:
 1540              		.cfi_restore 7
 1541              		.cfi_def_cfa_offset 0
 1542 0040 7047     		bx	lr
 1543              	.L58:
 1544 0042 00BF     		.align	2
 1545              	.L57:
 1546 0044 00000650 		.word	1342570496
 1547              		.cfi_endproc
 1548              	.LFE138:
 1550              		.section	.text.CRYP_GetITStatus,"ax",%progbits
 1551              		.align	1
ARM GAS  /var/folders/yl/_q9l42k90g1g4mdhbs226msm0000gn/T//ccDtV1qt.s 			page 42


 1552              		.global	CRYP_GetITStatus
 1553              		.syntax unified
 1554              		.thumb
 1555              		.thumb_func
 1557              	CRYP_GetITStatus:
 1558              	.LFB139:
 809:./Library/stm32f4xx_cryp.c **** 
 810:./Library/stm32f4xx_cryp.c **** /**
 811:./Library/stm32f4xx_cryp.c ****   * @brief  Checks whether the specified CRYP interrupt has occurred or not.
 812:./Library/stm32f4xx_cryp.c ****   * @note   This function checks the status of the masked interrupt (i.e the 
 813:./Library/stm32f4xx_cryp.c ****   *         interrupt should be previously enabled).     
 814:./Library/stm32f4xx_cryp.c ****   * @param  CRYP_IT: specifies the CRYP (masked) interrupt source to check.
 815:./Library/stm32f4xx_cryp.c ****   *           This parameter can be one of the following values:
 816:./Library/stm32f4xx_cryp.c ****   *            @arg CRYP_IT_INI: Input FIFO interrupt
 817:./Library/stm32f4xx_cryp.c ****   *            @arg CRYP_IT_OUTI: Output FIFO interrupt
 818:./Library/stm32f4xx_cryp.c ****   * @retval The new state of CRYP_IT (SET or RESET).
 819:./Library/stm32f4xx_cryp.c ****   */
 820:./Library/stm32f4xx_cryp.c **** ITStatus CRYP_GetITStatus(uint8_t CRYP_IT)
 821:./Library/stm32f4xx_cryp.c **** {
 1559              		.loc 1 821 1
 1560              		.cfi_startproc
 1561              		@ args = 0, pretend = 0, frame = 16
 1562              		@ frame_needed = 1, uses_anonymous_args = 0
 1563              		@ link register save eliminated.
 1564 0000 80B4     		push	{r7}
 1565              	.LCFI88:
 1566              		.cfi_def_cfa_offset 4
 1567              		.cfi_offset 7, -4
 1568 0002 85B0     		sub	sp, sp, #20
 1569              	.LCFI89:
 1570              		.cfi_def_cfa_offset 24
 1571 0004 00AF     		add	r7, sp, #0
 1572              	.LCFI90:
 1573              		.cfi_def_cfa_register 7
 1574 0006 0346     		mov	r3, r0
 1575 0008 FB71     		strb	r3, [r7, #7]
 822:./Library/stm32f4xx_cryp.c ****   ITStatus bitstatus = RESET;
 1576              		.loc 1 822 12
 1577 000a 0023     		movs	r3, #0
 1578 000c FB73     		strb	r3, [r7, #15]
 823:./Library/stm32f4xx_cryp.c ****   /* Check the parameters */
 824:./Library/stm32f4xx_cryp.c ****   assert_param(IS_CRYP_GET_IT(CRYP_IT));
 825:./Library/stm32f4xx_cryp.c **** 
 826:./Library/stm32f4xx_cryp.c ****   /* Check the status of the specified CRYP interrupt */
 827:./Library/stm32f4xx_cryp.c ****   if ((CRYP->MISR &  CRYP_IT) != (uint8_t)RESET)
 1579              		.loc 1 827 12
 1580 000e 094B     		ldr	r3, .L63
 1581 0010 DA69     		ldr	r2, [r3, #28]
 1582              		.loc 1 827 19
 1583 0012 FB79     		ldrb	r3, [r7, #7]	@ zero_extendqisi2
 1584 0014 1340     		ands	r3, r3, r2
 1585              		.loc 1 827 6
 1586 0016 002B     		cmp	r3, #0
 1587 0018 02D0     		beq	.L60
 828:./Library/stm32f4xx_cryp.c ****   {
 829:./Library/stm32f4xx_cryp.c ****     /* CRYP_IT is set */
 830:./Library/stm32f4xx_cryp.c ****     bitstatus = SET;
ARM GAS  /var/folders/yl/_q9l42k90g1g4mdhbs226msm0000gn/T//ccDtV1qt.s 			page 43


 1588              		.loc 1 830 15
 1589 001a 0123     		movs	r3, #1
 1590 001c FB73     		strb	r3, [r7, #15]
 1591 001e 01E0     		b	.L61
 1592              	.L60:
 831:./Library/stm32f4xx_cryp.c ****   }
 832:./Library/stm32f4xx_cryp.c ****   else
 833:./Library/stm32f4xx_cryp.c ****   {
 834:./Library/stm32f4xx_cryp.c ****     /* CRYP_IT is reset */
 835:./Library/stm32f4xx_cryp.c ****     bitstatus = RESET;
 1593              		.loc 1 835 15
 1594 0020 0023     		movs	r3, #0
 1595 0022 FB73     		strb	r3, [r7, #15]
 1596              	.L61:
 836:./Library/stm32f4xx_cryp.c ****   }
 837:./Library/stm32f4xx_cryp.c ****   /* Return the CRYP_IT status */
 838:./Library/stm32f4xx_cryp.c ****   return bitstatus;
 1597              		.loc 1 838 10
 1598 0024 FB7B     		ldrb	r3, [r7, #15]	@ zero_extendqisi2
 839:./Library/stm32f4xx_cryp.c **** }
 1599              		.loc 1 839 1
 1600 0026 1846     		mov	r0, r3
 1601 0028 1437     		adds	r7, r7, #20
 1602              	.LCFI91:
 1603              		.cfi_def_cfa_offset 4
 1604 002a BD46     		mov	sp, r7
 1605              	.LCFI92:
 1606              		.cfi_def_cfa_register 13
 1607              		@ sp needed
 1608 002c 5DF8047B 		ldr	r7, [sp], #4
 1609              	.LCFI93:
 1610              		.cfi_restore 7
 1611              		.cfi_def_cfa_offset 0
 1612 0030 7047     		bx	lr
 1613              	.L64:
 1614 0032 00BF     		.align	2
 1615              	.L63:
 1616 0034 00000650 		.word	1342570496
 1617              		.cfi_endproc
 1618              	.LFE139:
 1620              		.section	.text.CRYP_GetCmdStatus,"ax",%progbits
 1621              		.align	1
 1622              		.global	CRYP_GetCmdStatus
 1623              		.syntax unified
 1624              		.thumb
 1625              		.thumb_func
 1627              	CRYP_GetCmdStatus:
 1628              	.LFB140:
 840:./Library/stm32f4xx_cryp.c **** 
 841:./Library/stm32f4xx_cryp.c **** /**
 842:./Library/stm32f4xx_cryp.c ****   * @brief  Returns whether CRYP peripheral is enabled or disabled.
 843:./Library/stm32f4xx_cryp.c ****   * @param  none.
 844:./Library/stm32f4xx_cryp.c ****   * @retval Current state of the CRYP peripheral (ENABLE or DISABLE).
 845:./Library/stm32f4xx_cryp.c ****   */
 846:./Library/stm32f4xx_cryp.c **** FunctionalState CRYP_GetCmdStatus(void)
 847:./Library/stm32f4xx_cryp.c **** {
 1629              		.loc 1 847 1
ARM GAS  /var/folders/yl/_q9l42k90g1g4mdhbs226msm0000gn/T//ccDtV1qt.s 			page 44


 1630              		.cfi_startproc
 1631              		@ args = 0, pretend = 0, frame = 8
 1632              		@ frame_needed = 1, uses_anonymous_args = 0
 1633              		@ link register save eliminated.
 1634 0000 80B4     		push	{r7}
 1635              	.LCFI94:
 1636              		.cfi_def_cfa_offset 4
 1637              		.cfi_offset 7, -4
 1638 0002 83B0     		sub	sp, sp, #12
 1639              	.LCFI95:
 1640              		.cfi_def_cfa_offset 16
 1641 0004 00AF     		add	r7, sp, #0
 1642              	.LCFI96:
 1643              		.cfi_def_cfa_register 7
 848:./Library/stm32f4xx_cryp.c ****   FunctionalState state = DISABLE;
 1644              		.loc 1 848 19
 1645 0006 0023     		movs	r3, #0
 1646 0008 FB71     		strb	r3, [r7, #7]
 849:./Library/stm32f4xx_cryp.c **** 
 850:./Library/stm32f4xx_cryp.c ****   if ((CRYP->CR & CRYP_CR_CRYPEN) != 0)
 1647              		.loc 1 850 12
 1648 000a 094B     		ldr	r3, .L69
 1649 000c 1B68     		ldr	r3, [r3]
 1650              		.loc 1 850 17
 1651 000e 03F40043 		and	r3, r3, #32768
 1652              		.loc 1 850 6
 1653 0012 002B     		cmp	r3, #0
 1654 0014 02D0     		beq	.L66
 851:./Library/stm32f4xx_cryp.c ****   {
 852:./Library/stm32f4xx_cryp.c ****     /* CRYPEN bit is set */
 853:./Library/stm32f4xx_cryp.c ****     state = ENABLE;
 1655              		.loc 1 853 11
 1656 0016 0123     		movs	r3, #1
 1657 0018 FB71     		strb	r3, [r7, #7]
 1658 001a 01E0     		b	.L67
 1659              	.L66:
 854:./Library/stm32f4xx_cryp.c ****   }
 855:./Library/stm32f4xx_cryp.c ****   else
 856:./Library/stm32f4xx_cryp.c ****   {
 857:./Library/stm32f4xx_cryp.c ****     /* CRYPEN bit is reset */
 858:./Library/stm32f4xx_cryp.c ****     state = DISABLE;
 1660              		.loc 1 858 11
 1661 001c 0023     		movs	r3, #0
 1662 001e FB71     		strb	r3, [r7, #7]
 1663              	.L67:
 859:./Library/stm32f4xx_cryp.c ****   }
 860:./Library/stm32f4xx_cryp.c ****   return state;
 1664              		.loc 1 860 10
 1665 0020 FB79     		ldrb	r3, [r7, #7]	@ zero_extendqisi2
 861:./Library/stm32f4xx_cryp.c **** }
 1666              		.loc 1 861 1
 1667 0022 1846     		mov	r0, r3
 1668 0024 0C37     		adds	r7, r7, #12
 1669              	.LCFI97:
 1670              		.cfi_def_cfa_offset 4
 1671 0026 BD46     		mov	sp, r7
 1672              	.LCFI98:
ARM GAS  /var/folders/yl/_q9l42k90g1g4mdhbs226msm0000gn/T//ccDtV1qt.s 			page 45


 1673              		.cfi_def_cfa_register 13
 1674              		@ sp needed
 1675 0028 5DF8047B 		ldr	r7, [sp], #4
 1676              	.LCFI99:
 1677              		.cfi_restore 7
 1678              		.cfi_def_cfa_offset 0
 1679 002c 7047     		bx	lr
 1680              	.L70:
 1681 002e 00BF     		.align	2
 1682              	.L69:
 1683 0030 00000650 		.word	1342570496
 1684              		.cfi_endproc
 1685              	.LFE140:
 1687              		.section	.text.CRYP_GetFlagStatus,"ax",%progbits
 1688              		.align	1
 1689              		.global	CRYP_GetFlagStatus
 1690              		.syntax unified
 1691              		.thumb
 1692              		.thumb_func
 1694              	CRYP_GetFlagStatus:
 1695              	.LFB141:
 862:./Library/stm32f4xx_cryp.c **** 
 863:./Library/stm32f4xx_cryp.c **** /**
 864:./Library/stm32f4xx_cryp.c ****   * @brief  Checks whether the specified CRYP flag is set or not.
 865:./Library/stm32f4xx_cryp.c ****   * @param  CRYP_FLAG: specifies the CRYP flag to check.
 866:./Library/stm32f4xx_cryp.c ****   *          This parameter can be one of the following values:
 867:./Library/stm32f4xx_cryp.c ****   *            @arg CRYP_FLAG_IFEM: Input FIFO Empty flag.
 868:./Library/stm32f4xx_cryp.c ****   *            @arg CRYP_FLAG_IFNF: Input FIFO Not Full flag.
 869:./Library/stm32f4xx_cryp.c ****   *            @arg CRYP_FLAG_OFNE: Output FIFO Not Empty flag.
 870:./Library/stm32f4xx_cryp.c ****   *            @arg CRYP_FLAG_OFFU: Output FIFO Full flag.
 871:./Library/stm32f4xx_cryp.c ****   *            @arg CRYP_FLAG_BUSY: Busy flag.
 872:./Library/stm32f4xx_cryp.c ****   *            @arg CRYP_FLAG_OUTRIS: Output FIFO raw interrupt flag.
 873:./Library/stm32f4xx_cryp.c ****   *            @arg CRYP_FLAG_INRIS: Input FIFO raw interrupt flag.
 874:./Library/stm32f4xx_cryp.c ****   * @retval The new state of CRYP_FLAG (SET or RESET).
 875:./Library/stm32f4xx_cryp.c ****   */
 876:./Library/stm32f4xx_cryp.c **** FlagStatus CRYP_GetFlagStatus(uint8_t CRYP_FLAG)
 877:./Library/stm32f4xx_cryp.c **** {
 1696              		.loc 1 877 1
 1697              		.cfi_startproc
 1698              		@ args = 0, pretend = 0, frame = 16
 1699              		@ frame_needed = 1, uses_anonymous_args = 0
 1700              		@ link register save eliminated.
 1701 0000 80B4     		push	{r7}
 1702              	.LCFI100:
 1703              		.cfi_def_cfa_offset 4
 1704              		.cfi_offset 7, -4
 1705 0002 85B0     		sub	sp, sp, #20
 1706              	.LCFI101:
 1707              		.cfi_def_cfa_offset 24
 1708 0004 00AF     		add	r7, sp, #0
 1709              	.LCFI102:
 1710              		.cfi_def_cfa_register 7
 1711 0006 0346     		mov	r3, r0
 1712 0008 FB71     		strb	r3, [r7, #7]
 878:./Library/stm32f4xx_cryp.c ****   FlagStatus bitstatus = RESET;
 1713              		.loc 1 878 14
 1714 000a 0023     		movs	r3, #0
ARM GAS  /var/folders/yl/_q9l42k90g1g4mdhbs226msm0000gn/T//ccDtV1qt.s 			page 46


 1715 000c FB73     		strb	r3, [r7, #15]
 879:./Library/stm32f4xx_cryp.c ****   uint32_t tempreg = 0;
 1716              		.loc 1 879 12
 1717 000e 0023     		movs	r3, #0
 1718 0010 BB60     		str	r3, [r7, #8]
 880:./Library/stm32f4xx_cryp.c **** 
 881:./Library/stm32f4xx_cryp.c ****   /* Check the parameters */
 882:./Library/stm32f4xx_cryp.c ****   assert_param(IS_CRYP_GET_FLAG(CRYP_FLAG));
 883:./Library/stm32f4xx_cryp.c **** 
 884:./Library/stm32f4xx_cryp.c ****   /* check if the FLAG is in RISR register */
 885:./Library/stm32f4xx_cryp.c ****   if ((CRYP_FLAG & FLAG_MASK) != 0x00) 
 1719              		.loc 1 885 18
 1720 0012 FB79     		ldrb	r3, [r7, #7]	@ zero_extendqisi2
 1721 0014 03F02003 		and	r3, r3, #32
 1722              		.loc 1 885 6
 1723 0018 002B     		cmp	r3, #0
 1724 001a 03D0     		beq	.L72
 886:./Library/stm32f4xx_cryp.c ****   {
 887:./Library/stm32f4xx_cryp.c ****     tempreg = CRYP->RISR;
 1725              		.loc 1 887 19
 1726 001c 0B4B     		ldr	r3, .L77
 1727              		.loc 1 887 13
 1728 001e 9B69     		ldr	r3, [r3, #24]
 1729 0020 BB60     		str	r3, [r7, #8]
 1730 0022 02E0     		b	.L73
 1731              	.L72:
 888:./Library/stm32f4xx_cryp.c ****   }
 889:./Library/stm32f4xx_cryp.c ****   else  /* The FLAG is in SR register */
 890:./Library/stm32f4xx_cryp.c ****   {
 891:./Library/stm32f4xx_cryp.c ****     tempreg = CRYP->SR;
 1732              		.loc 1 891 19
 1733 0024 094B     		ldr	r3, .L77
 1734              		.loc 1 891 13
 1735 0026 5B68     		ldr	r3, [r3, #4]
 1736 0028 BB60     		str	r3, [r7, #8]
 1737              	.L73:
 892:./Library/stm32f4xx_cryp.c ****   }
 893:./Library/stm32f4xx_cryp.c **** 
 894:./Library/stm32f4xx_cryp.c **** 
 895:./Library/stm32f4xx_cryp.c ****   /* Check the status of the specified CRYP flag */
 896:./Library/stm32f4xx_cryp.c ****   if ((tempreg & CRYP_FLAG ) != (uint8_t)RESET)
 1738              		.loc 1 896 16
 1739 002a FA79     		ldrb	r2, [r7, #7]	@ zero_extendqisi2
 1740 002c BB68     		ldr	r3, [r7, #8]
 1741 002e 1340     		ands	r3, r3, r2
 1742              		.loc 1 896 6
 1743 0030 002B     		cmp	r3, #0
 1744 0032 02D0     		beq	.L74
 897:./Library/stm32f4xx_cryp.c ****   {
 898:./Library/stm32f4xx_cryp.c ****     /* CRYP_FLAG is set */
 899:./Library/stm32f4xx_cryp.c ****     bitstatus = SET;
 1745              		.loc 1 899 15
 1746 0034 0123     		movs	r3, #1
 1747 0036 FB73     		strb	r3, [r7, #15]
 1748 0038 01E0     		b	.L75
 1749              	.L74:
 900:./Library/stm32f4xx_cryp.c ****   }
ARM GAS  /var/folders/yl/_q9l42k90g1g4mdhbs226msm0000gn/T//ccDtV1qt.s 			page 47


 901:./Library/stm32f4xx_cryp.c ****   else
 902:./Library/stm32f4xx_cryp.c ****   {
 903:./Library/stm32f4xx_cryp.c ****     /* CRYP_FLAG is reset */
 904:./Library/stm32f4xx_cryp.c ****     bitstatus = RESET;
 1750              		.loc 1 904 15
 1751 003a 0023     		movs	r3, #0
 1752 003c FB73     		strb	r3, [r7, #15]
 1753              	.L75:
 905:./Library/stm32f4xx_cryp.c ****   }
 906:./Library/stm32f4xx_cryp.c **** 
 907:./Library/stm32f4xx_cryp.c ****   /* Return the CRYP_FLAG status */
 908:./Library/stm32f4xx_cryp.c ****   return  bitstatus;
 1754              		.loc 1 908 11
 1755 003e FB7B     		ldrb	r3, [r7, #15]	@ zero_extendqisi2
 909:./Library/stm32f4xx_cryp.c **** }
 1756              		.loc 1 909 1
 1757 0040 1846     		mov	r0, r3
 1758 0042 1437     		adds	r7, r7, #20
 1759              	.LCFI103:
 1760              		.cfi_def_cfa_offset 4
 1761 0044 BD46     		mov	sp, r7
 1762              	.LCFI104:
 1763              		.cfi_def_cfa_register 13
 1764              		@ sp needed
 1765 0046 5DF8047B 		ldr	r7, [sp], #4
 1766              	.LCFI105:
 1767              		.cfi_restore 7
 1768              		.cfi_def_cfa_offset 0
 1769 004a 7047     		bx	lr
 1770              	.L78:
 1771              		.align	2
 1772              	.L77:
 1773 004c 00000650 		.word	1342570496
 1774              		.cfi_endproc
 1775              	.LFE141:
 1777              		.text
 1778              	.Letext0:
 1779              		.file 2 "/Applications/ARM/arm-none-eabi/include/machine/_default_types.h"
 1780              		.file 3 "/Applications/ARM/arm-none-eabi/include/sys/_stdint.h"
 1781              		.file 4 "./CORE/stm32f4xx.h"
 1782              		.file 5 "./Library/stm32f4xx_cryp.h"
ARM GAS  /var/folders/yl/_q9l42k90g1g4mdhbs226msm0000gn/T//ccDtV1qt.s 			page 48


DEFINED SYMBOLS
                            *ABS*:0000000000000000 stm32f4xx_cryp.c
/var/folders/yl/_q9l42k90g1g4mdhbs226msm0000gn/T//ccDtV1qt.s:20     .text.CRYP_DeInit:0000000000000000 $t
/var/folders/yl/_q9l42k90g1g4mdhbs226msm0000gn/T//ccDtV1qt.s:26     .text.CRYP_DeInit:0000000000000000 CRYP_DeInit
/var/folders/yl/_q9l42k90g1g4mdhbs226msm0000gn/T//ccDtV1qt.s:56     .text.CRYP_Init:0000000000000000 $t
/var/folders/yl/_q9l42k90g1g4mdhbs226msm0000gn/T//ccDtV1qt.s:62     .text.CRYP_Init:0000000000000000 CRYP_Init
/var/folders/yl/_q9l42k90g1g4mdhbs226msm0000gn/T//ccDtV1qt.s:187    .text.CRYP_Init:00000000000000a0 $d
/var/folders/yl/_q9l42k90g1g4mdhbs226msm0000gn/T//ccDtV1qt.s:192    .text.CRYP_StructInit:0000000000000000 $t
/var/folders/yl/_q9l42k90g1g4mdhbs226msm0000gn/T//ccDtV1qt.s:198    .text.CRYP_StructInit:0000000000000000 CRYP_StructInit
/var/folders/yl/_q9l42k90g1g4mdhbs226msm0000gn/T//ccDtV1qt.s:250    .text.CRYP_KeyInit:0000000000000000 $t
/var/folders/yl/_q9l42k90g1g4mdhbs226msm0000gn/T//ccDtV1qt.s:256    .text.CRYP_KeyInit:0000000000000000 CRYP_KeyInit
/var/folders/yl/_q9l42k90g1g4mdhbs226msm0000gn/T//ccDtV1qt.s:347    .text.CRYP_KeyInit:0000000000000054 $d
/var/folders/yl/_q9l42k90g1g4mdhbs226msm0000gn/T//ccDtV1qt.s:352    .text.CRYP_KeyStructInit:0000000000000000 $t
/var/folders/yl/_q9l42k90g1g4mdhbs226msm0000gn/T//ccDtV1qt.s:358    .text.CRYP_KeyStructInit:0000000000000000 CRYP_KeyStructInit
/var/folders/yl/_q9l42k90g1g4mdhbs226msm0000gn/T//ccDtV1qt.s:426    .text.CRYP_IVInit:0000000000000000 $t
/var/folders/yl/_q9l42k90g1g4mdhbs226msm0000gn/T//ccDtV1qt.s:432    .text.CRYP_IVInit:0000000000000000 CRYP_IVInit
/var/folders/yl/_q9l42k90g1g4mdhbs226msm0000gn/T//ccDtV1qt.s:495    .text.CRYP_IVInit:0000000000000034 $d
/var/folders/yl/_q9l42k90g1g4mdhbs226msm0000gn/T//ccDtV1qt.s:500    .text.CRYP_IVStructInit:0000000000000000 $t
/var/folders/yl/_q9l42k90g1g4mdhbs226msm0000gn/T//ccDtV1qt.s:506    .text.CRYP_IVStructInit:0000000000000000 CRYP_IVStructInit
/var/folders/yl/_q9l42k90g1g4mdhbs226msm0000gn/T//ccDtV1qt.s:558    .text.CRYP_PhaseConfig:0000000000000000 $t
/var/folders/yl/_q9l42k90g1g4mdhbs226msm0000gn/T//ccDtV1qt.s:564    .text.CRYP_PhaseConfig:0000000000000000 CRYP_PhaseConfig
/var/folders/yl/_q9l42k90g1g4mdhbs226msm0000gn/T//ccDtV1qt.s:621    .text.CRYP_PhaseConfig:0000000000000034 $d
/var/folders/yl/_q9l42k90g1g4mdhbs226msm0000gn/T//ccDtV1qt.s:626    .text.CRYP_FIFOFlush:0000000000000000 $t
/var/folders/yl/_q9l42k90g1g4mdhbs226msm0000gn/T//ccDtV1qt.s:632    .text.CRYP_FIFOFlush:0000000000000000 CRYP_FIFOFlush
/var/folders/yl/_q9l42k90g1g4mdhbs226msm0000gn/T//ccDtV1qt.s:666    .text.CRYP_FIFOFlush:000000000000001c $d
/var/folders/yl/_q9l42k90g1g4mdhbs226msm0000gn/T//ccDtV1qt.s:671    .text.CRYP_Cmd:0000000000000000 $t
/var/folders/yl/_q9l42k90g1g4mdhbs226msm0000gn/T//ccDtV1qt.s:677    .text.CRYP_Cmd:0000000000000000 CRYP_Cmd
/var/folders/yl/_q9l42k90g1g4mdhbs226msm0000gn/T//ccDtV1qt.s:733    .text.CRYP_Cmd:0000000000000038 $d
/var/folders/yl/_q9l42k90g1g4mdhbs226msm0000gn/T//ccDtV1qt.s:738    .text.CRYP_DataIn:0000000000000000 $t
/var/folders/yl/_q9l42k90g1g4mdhbs226msm0000gn/T//ccDtV1qt.s:744    .text.CRYP_DataIn:0000000000000000 CRYP_DataIn
/var/folders/yl/_q9l42k90g1g4mdhbs226msm0000gn/T//ccDtV1qt.s:784    .text.CRYP_DataIn:000000000000001c $d
/var/folders/yl/_q9l42k90g1g4mdhbs226msm0000gn/T//ccDtV1qt.s:789    .text.CRYP_DataOut:0000000000000000 $t
/var/folders/yl/_q9l42k90g1g4mdhbs226msm0000gn/T//ccDtV1qt.s:795    .text.CRYP_DataOut:0000000000000000 CRYP_DataOut
/var/folders/yl/_q9l42k90g1g4mdhbs226msm0000gn/T//ccDtV1qt.s:826    .text.CRYP_DataOut:0000000000000014 $d
/var/folders/yl/_q9l42k90g1g4mdhbs226msm0000gn/T//ccDtV1qt.s:831    .text.CRYP_SaveContext:0000000000000000 $t
/var/folders/yl/_q9l42k90g1g4mdhbs226msm0000gn/T//ccDtV1qt.s:837    .text.CRYP_SaveContext:0000000000000000 CRYP_SaveContext
/var/folders/yl/_q9l42k90g1g4mdhbs226msm0000gn/T//ccDtV1qt.s:1136   .text.CRYP_SaveContext:0000000000000188 $d
/var/folders/yl/_q9l42k90g1g4mdhbs226msm0000gn/T//ccDtV1qt.s:1142   .text.CRYP_RestoreContext:0000000000000000 $t
/var/folders/yl/_q9l42k90g1g4mdhbs226msm0000gn/T//ccDtV1qt.s:1148   .text.CRYP_RestoreContext:0000000000000000 CRYP_RestoreContext
/var/folders/yl/_q9l42k90g1g4mdhbs226msm0000gn/T//ccDtV1qt.s:1392   .text.CRYP_RestoreContext:0000000000000110 $d
/var/folders/yl/_q9l42k90g1g4mdhbs226msm0000gn/T//ccDtV1qt.s:1397   .text.CRYP_DMACmd:0000000000000000 $t
/var/folders/yl/_q9l42k90g1g4mdhbs226msm0000gn/T//ccDtV1qt.s:1403   .text.CRYP_DMACmd:0000000000000000 CRYP_DMACmd
/var/folders/yl/_q9l42k90g1g4mdhbs226msm0000gn/T//ccDtV1qt.s:1469   .text.CRYP_DMACmd:0000000000000044 $d
/var/folders/yl/_q9l42k90g1g4mdhbs226msm0000gn/T//ccDtV1qt.s:1474   .text.CRYP_ITConfig:0000000000000000 $t
/var/folders/yl/_q9l42k90g1g4mdhbs226msm0000gn/T//ccDtV1qt.s:1480   .text.CRYP_ITConfig:0000000000000000 CRYP_ITConfig
/var/folders/yl/_q9l42k90g1g4mdhbs226msm0000gn/T//ccDtV1qt.s:1546   .text.CRYP_ITConfig:0000000000000044 $d
/var/folders/yl/_q9l42k90g1g4mdhbs226msm0000gn/T//ccDtV1qt.s:1551   .text.CRYP_GetITStatus:0000000000000000 $t
/var/folders/yl/_q9l42k90g1g4mdhbs226msm0000gn/T//ccDtV1qt.s:1557   .text.CRYP_GetITStatus:0000000000000000 CRYP_GetITStatus
/var/folders/yl/_q9l42k90g1g4mdhbs226msm0000gn/T//ccDtV1qt.s:1616   .text.CRYP_GetITStatus:0000000000000034 $d
/var/folders/yl/_q9l42k90g1g4mdhbs226msm0000gn/T//ccDtV1qt.s:1621   .text.CRYP_GetCmdStatus:0000000000000000 $t
/var/folders/yl/_q9l42k90g1g4mdhbs226msm0000gn/T//ccDtV1qt.s:1627   .text.CRYP_GetCmdStatus:0000000000000000 CRYP_GetCmdStatus
/var/folders/yl/_q9l42k90g1g4mdhbs226msm0000gn/T//ccDtV1qt.s:1683   .text.CRYP_GetCmdStatus:0000000000000030 $d
/var/folders/yl/_q9l42k90g1g4mdhbs226msm0000gn/T//ccDtV1qt.s:1688   .text.CRYP_GetFlagStatus:0000000000000000 $t
/var/folders/yl/_q9l42k90g1g4mdhbs226msm0000gn/T//ccDtV1qt.s:1694   .text.CRYP_GetFlagStatus:0000000000000000 CRYP_GetFlagStatus
/var/folders/yl/_q9l42k90g1g4mdhbs226msm0000gn/T//ccDtV1qt.s:1773   .text.CRYP_GetFlagStatus:000000000000004c $d

UNDEFINED SYMBOLS
ARM GAS  /var/folders/yl/_q9l42k90g1g4mdhbs226msm0000gn/T//ccDtV1qt.s 			page 49


RCC_AHB2PeriphResetCmd
