ARM GAS  /var/folders/yl/_q9l42k90g1g4mdhbs226msm0000gn/T//ccC3IXiS.s 			page 1


   1              		.cpu cortex-m4
   2              		.arch armv7e-m
   3              		.fpu fpv4-sp-d16
   4              		.eabi_attribute 27, 1
   5              		.eabi_attribute 28, 1
   6              		.eabi_attribute 20, 1
   7              		.eabi_attribute 21, 1
   8              		.eabi_attribute 23, 3
   9              		.eabi_attribute 24, 1
  10              		.eabi_attribute 25, 1
  11              		.eabi_attribute 26, 1
  12              		.eabi_attribute 30, 1
  13              		.eabi_attribute 34, 1
  14              		.eabi_attribute 18, 4
  15              		.file	"stm32f4xx_adc.c"
  16              		.text
  17              	.Ltext0:
  18              		.cfi_sections	.debug_frame
  19              		.section	.text.ADC_DeInit,"ax",%progbits
  20              		.align	1
  21              		.global	ADC_DeInit
  22              		.syntax unified
  23              		.thumb
  24              		.thumb_func
  26              	ADC_DeInit:
  27              	.LFB123:
  28              		.file 1 "./Library/stm32f4xx_adc.c"
   1:./Library/stm32f4xx_adc.c **** /**
   2:./Library/stm32f4xx_adc.c ****   ******************************************************************************
   3:./Library/stm32f4xx_adc.c ****   * @file    stm32f4xx_adc.c
   4:./Library/stm32f4xx_adc.c ****   * @author  MCD Application Team
   5:./Library/stm32f4xx_adc.c ****   * @version V1.8.1
   6:./Library/stm32f4xx_adc.c ****   * @date    27-January-2022
   7:./Library/stm32f4xx_adc.c ****   * @brief   This file provides firmware functions to manage the following 
   8:./Library/stm32f4xx_adc.c ****   *          functionalities of the Analog to Digital Convertor (ADC) peripheral:
   9:./Library/stm32f4xx_adc.c ****   *           + Initialization and Configuration (in addition to ADC multi mode 
  10:./Library/stm32f4xx_adc.c ****   *             selection)
  11:./Library/stm32f4xx_adc.c ****   *           + Analog Watchdog configuration
  12:./Library/stm32f4xx_adc.c ****   *           + Temperature Sensor & Vrefint (Voltage Reference internal) & VBAT
  13:./Library/stm32f4xx_adc.c ****   *             management 
  14:./Library/stm32f4xx_adc.c ****   *           + Regular Channels Configuration
  15:./Library/stm32f4xx_adc.c ****   *           + Regular Channels DMA Configuration
  16:./Library/stm32f4xx_adc.c ****   *           + Injected channels Configuration
  17:./Library/stm32f4xx_adc.c ****   *           + Interrupts and flags management
  18:./Library/stm32f4xx_adc.c ****   *         
  19:./Library/stm32f4xx_adc.c ****   @verbatim
  20:./Library/stm32f4xx_adc.c ****  ===============================================================================
  21:./Library/stm32f4xx_adc.c ****                      ##### How to use this driver #####
  22:./Library/stm32f4xx_adc.c ****  ===============================================================================
  23:./Library/stm32f4xx_adc.c ****     [..]
  24:./Library/stm32f4xx_adc.c ****     (#) Enable the ADC interface clock using 
  25:./Library/stm32f4xx_adc.c ****         RCC_APB2PeriphClockCmd(RCC_APB2Periph_ADCx, ENABLE); 
  26:./Library/stm32f4xx_adc.c ****        
  27:./Library/stm32f4xx_adc.c ****     (#) ADC pins configuration
  28:./Library/stm32f4xx_adc.c ****          (++) Enable the clock for the ADC GPIOs using the following function:
  29:./Library/stm32f4xx_adc.c ****              RCC_AHB1PeriphClockCmd(RCC_AHB1Periph_GPIOx, ENABLE);   
  30:./Library/stm32f4xx_adc.c ****          (++) Configure these ADC pins in analog mode using GPIO_Init();  
ARM GAS  /var/folders/yl/_q9l42k90g1g4mdhbs226msm0000gn/T//ccC3IXiS.s 			page 2


  31:./Library/stm32f4xx_adc.c ****   
  32:./Library/stm32f4xx_adc.c ****      (#) Configure the ADC Prescaler, conversion resolution and data 
  33:./Library/stm32f4xx_adc.c ****          alignment using the ADC_Init() function.
  34:./Library/stm32f4xx_adc.c ****      (#) Activate the ADC peripheral using ADC_Cmd() function.
  35:./Library/stm32f4xx_adc.c ****   
  36:./Library/stm32f4xx_adc.c ****      *** Regular channels group configuration ***
  37:./Library/stm32f4xx_adc.c ****      ============================================
  38:./Library/stm32f4xx_adc.c ****      [..]    
  39:./Library/stm32f4xx_adc.c ****        (+) To configure the ADC regular channels group features, use 
  40:./Library/stm32f4xx_adc.c ****            ADC_Init() and ADC_RegularChannelConfig() functions.
  41:./Library/stm32f4xx_adc.c ****        (+) To activate the continuous mode, use the ADC_continuousModeCmd()
  42:./Library/stm32f4xx_adc.c ****            function.
  43:./Library/stm32f4xx_adc.c ****        (+) To configurate and activate the Discontinuous mode, use the 
  44:./Library/stm32f4xx_adc.c ****            ADC_DiscModeChannelCountConfig() and ADC_DiscModeCmd() functions.
  45:./Library/stm32f4xx_adc.c ****        (+) To read the ADC converted values, use the ADC_GetConversionValue()
  46:./Library/stm32f4xx_adc.c ****            function.
  47:./Library/stm32f4xx_adc.c ****   
  48:./Library/stm32f4xx_adc.c ****      *** Multi mode ADCs Regular channels configuration ***
  49:./Library/stm32f4xx_adc.c ****      ======================================================
  50:./Library/stm32f4xx_adc.c ****      [..]
  51:./Library/stm32f4xx_adc.c ****        (+) Refer to "Regular channels group configuration" description to
  52:./Library/stm32f4xx_adc.c ****            configure the ADC1, ADC2 and ADC3 regular channels.        
  53:./Library/stm32f4xx_adc.c ****        (+) Select the Multi mode ADC regular channels features (dual or 
  54:./Library/stm32f4xx_adc.c ****            triple mode) using ADC_CommonInit() function and configure 
  55:./Library/stm32f4xx_adc.c ****            the DMA mode using ADC_MultiModeDMARequestAfterLastTransferCmd() 
  56:./Library/stm32f4xx_adc.c ****            functions.        
  57:./Library/stm32f4xx_adc.c ****        (+) Read the ADCs converted values using the 
  58:./Library/stm32f4xx_adc.c ****            ADC_GetMultiModeConversionValue() function.
  59:./Library/stm32f4xx_adc.c ****   
  60:./Library/stm32f4xx_adc.c ****      *** DMA for Regular channels group features configuration ***
  61:./Library/stm32f4xx_adc.c ****      ============================================================= 
  62:./Library/stm32f4xx_adc.c ****      [..]
  63:./Library/stm32f4xx_adc.c ****        (+) To enable the DMA mode for regular channels group, use the 
  64:./Library/stm32f4xx_adc.c ****            ADC_DMACmd() function.
  65:./Library/stm32f4xx_adc.c ****        (+) To enable the generation of DMA requests continuously at the end
  66:./Library/stm32f4xx_adc.c ****            of the last DMA transfer, use the ADC_DMARequestAfterLastTransferCmd() 
  67:./Library/stm32f4xx_adc.c ****            function.
  68:./Library/stm32f4xx_adc.c ****   
  69:./Library/stm32f4xx_adc.c ****      *** Injected channels group configuration ***
  70:./Library/stm32f4xx_adc.c ****      =============================================    
  71:./Library/stm32f4xx_adc.c ****      [..]
  72:./Library/stm32f4xx_adc.c ****        (+) To configure the ADC Injected channels group features, use 
  73:./Library/stm32f4xx_adc.c ****            ADC_InjectedChannelConfig() and  ADC_InjectedSequencerLengthConfig()
  74:./Library/stm32f4xx_adc.c ****            functions.
  75:./Library/stm32f4xx_adc.c ****        (+) To activate the continuous mode, use the ADC_continuousModeCmd()
  76:./Library/stm32f4xx_adc.c ****            function.
  77:./Library/stm32f4xx_adc.c ****        (+) To activate the Injected Discontinuous mode, use the 
  78:./Library/stm32f4xx_adc.c ****            ADC_InjectedDiscModeCmd() function.  
  79:./Library/stm32f4xx_adc.c ****        (+) To activate the AutoInjected mode, use the ADC_AutoInjectedConvCmd() 
  80:./Library/stm32f4xx_adc.c ****            function.        
  81:./Library/stm32f4xx_adc.c ****        (+) To read the ADC converted values, use the ADC_GetInjectedConversionValue() 
  82:./Library/stm32f4xx_adc.c ****            function.
  83:./Library/stm32f4xx_adc.c ****   
  84:./Library/stm32f4xx_adc.c ****     @endverbatim
  85:./Library/stm32f4xx_adc.c ****   ******************************************************************************
  86:./Library/stm32f4xx_adc.c ****   * @attention
  87:./Library/stm32f4xx_adc.c ****   *
ARM GAS  /var/folders/yl/_q9l42k90g1g4mdhbs226msm0000gn/T//ccC3IXiS.s 			page 3


  88:./Library/stm32f4xx_adc.c ****   * Copyright (c) 2016 STMicroelectronics.
  89:./Library/stm32f4xx_adc.c ****   * All rights reserved.
  90:./Library/stm32f4xx_adc.c ****   *
  91:./Library/stm32f4xx_adc.c ****   * This software is licensed under terms that can be found in the LICENSE file
  92:./Library/stm32f4xx_adc.c ****   * in the root directory of this software component.
  93:./Library/stm32f4xx_adc.c ****   * If no LICENSE file comes with this software, it is provided AS-IS.
  94:./Library/stm32f4xx_adc.c ****   *
  95:./Library/stm32f4xx_adc.c ****   ******************************************************************************
  96:./Library/stm32f4xx_adc.c ****   */
  97:./Library/stm32f4xx_adc.c **** 
  98:./Library/stm32f4xx_adc.c **** /* Includes ------------------------------------------------------------------*/
  99:./Library/stm32f4xx_adc.c **** #include "stm32f4xx_adc.h"
 100:./Library/stm32f4xx_adc.c **** #include "stm32f4xx_rcc.h"
 101:./Library/stm32f4xx_adc.c **** 
 102:./Library/stm32f4xx_adc.c **** /** @addtogroup STM32F4xx_StdPeriph_Driver
 103:./Library/stm32f4xx_adc.c ****   * @{
 104:./Library/stm32f4xx_adc.c ****   */
 105:./Library/stm32f4xx_adc.c **** 
 106:./Library/stm32f4xx_adc.c **** /** @defgroup ADC 
 107:./Library/stm32f4xx_adc.c ****   * @brief ADC driver modules
 108:./Library/stm32f4xx_adc.c ****   * @{
 109:./Library/stm32f4xx_adc.c ****   */ 
 110:./Library/stm32f4xx_adc.c **** 
 111:./Library/stm32f4xx_adc.c **** /* Private typedef -----------------------------------------------------------*/
 112:./Library/stm32f4xx_adc.c **** /* Private define ------------------------------------------------------------*/ 
 113:./Library/stm32f4xx_adc.c **** 
 114:./Library/stm32f4xx_adc.c **** /* ADC DISCNUM mask */
 115:./Library/stm32f4xx_adc.c **** #define CR1_DISCNUM_RESET         ((uint32_t)0xFFFF1FFF)
 116:./Library/stm32f4xx_adc.c **** 
 117:./Library/stm32f4xx_adc.c **** /* ADC AWDCH mask */
 118:./Library/stm32f4xx_adc.c **** #define CR1_AWDCH_RESET           ((uint32_t)0xFFFFFFE0)   
 119:./Library/stm32f4xx_adc.c **** 
 120:./Library/stm32f4xx_adc.c **** /* ADC Analog watchdog enable mode mask */
 121:./Library/stm32f4xx_adc.c **** #define CR1_AWDMode_RESET         ((uint32_t)0xFF3FFDFF)   
 122:./Library/stm32f4xx_adc.c **** 
 123:./Library/stm32f4xx_adc.c **** /* CR1 register Mask */
 124:./Library/stm32f4xx_adc.c **** #define CR1_CLEAR_MASK            ((uint32_t)0xFCFFFEFF)
 125:./Library/stm32f4xx_adc.c **** 
 126:./Library/stm32f4xx_adc.c **** /* ADC EXTEN mask */
 127:./Library/stm32f4xx_adc.c **** #define CR2_EXTEN_RESET           ((uint32_t)0xCFFFFFFF)  
 128:./Library/stm32f4xx_adc.c **** 
 129:./Library/stm32f4xx_adc.c **** /* ADC JEXTEN mask */
 130:./Library/stm32f4xx_adc.c **** #define CR2_JEXTEN_RESET          ((uint32_t)0xFFCFFFFF)  
 131:./Library/stm32f4xx_adc.c **** 
 132:./Library/stm32f4xx_adc.c **** /* ADC JEXTSEL mask */
 133:./Library/stm32f4xx_adc.c **** #define CR2_JEXTSEL_RESET         ((uint32_t)0xFFF0FFFF)  
 134:./Library/stm32f4xx_adc.c **** 
 135:./Library/stm32f4xx_adc.c **** /* CR2 register Mask */
 136:./Library/stm32f4xx_adc.c **** #define CR2_CLEAR_MASK            ((uint32_t)0xC0FFF7FD)
 137:./Library/stm32f4xx_adc.c **** 
 138:./Library/stm32f4xx_adc.c **** /* ADC SQx mask */
 139:./Library/stm32f4xx_adc.c **** #define SQR3_SQ_SET               ((uint32_t)0x0000001F)  
 140:./Library/stm32f4xx_adc.c **** #define SQR2_SQ_SET               ((uint32_t)0x0000001F)  
 141:./Library/stm32f4xx_adc.c **** #define SQR1_SQ_SET               ((uint32_t)0x0000001F)  
 142:./Library/stm32f4xx_adc.c **** 
 143:./Library/stm32f4xx_adc.c **** /* ADC L Mask */
 144:./Library/stm32f4xx_adc.c **** #define SQR1_L_RESET              ((uint32_t)0xFF0FFFFF) 
ARM GAS  /var/folders/yl/_q9l42k90g1g4mdhbs226msm0000gn/T//ccC3IXiS.s 			page 4


 145:./Library/stm32f4xx_adc.c **** 
 146:./Library/stm32f4xx_adc.c **** /* ADC JSQx mask */
 147:./Library/stm32f4xx_adc.c **** #define JSQR_JSQ_SET              ((uint32_t)0x0000001F) 
 148:./Library/stm32f4xx_adc.c **** 
 149:./Library/stm32f4xx_adc.c **** /* ADC JL mask */
 150:./Library/stm32f4xx_adc.c **** #define JSQR_JL_SET               ((uint32_t)0x00300000) 
 151:./Library/stm32f4xx_adc.c **** #define JSQR_JL_RESET             ((uint32_t)0xFFCFFFFF) 
 152:./Library/stm32f4xx_adc.c **** 
 153:./Library/stm32f4xx_adc.c **** /* ADC SMPx mask */
 154:./Library/stm32f4xx_adc.c **** #define SMPR1_SMP_SET             ((uint32_t)0x00000007)  
 155:./Library/stm32f4xx_adc.c **** #define SMPR2_SMP_SET             ((uint32_t)0x00000007) 
 156:./Library/stm32f4xx_adc.c **** 
 157:./Library/stm32f4xx_adc.c **** /* ADC JDRx registers offset */
 158:./Library/stm32f4xx_adc.c **** #define JDR_OFFSET                ((uint8_t)0x28) 
 159:./Library/stm32f4xx_adc.c **** 
 160:./Library/stm32f4xx_adc.c **** /* ADC CDR register base address */
 161:./Library/stm32f4xx_adc.c **** #define CDR_ADDRESS               ((uint32_t)0x40012308)   
 162:./Library/stm32f4xx_adc.c **** 
 163:./Library/stm32f4xx_adc.c **** /* ADC CCR register Mask */
 164:./Library/stm32f4xx_adc.c **** #define CR_CLEAR_MASK             ((uint32_t)0xFFFC30E0)  
 165:./Library/stm32f4xx_adc.c **** 
 166:./Library/stm32f4xx_adc.c **** /* Private macro -------------------------------------------------------------*/
 167:./Library/stm32f4xx_adc.c **** /* Private variables ---------------------------------------------------------*/
 168:./Library/stm32f4xx_adc.c **** /* Private function prototypes -----------------------------------------------*/
 169:./Library/stm32f4xx_adc.c **** /* Private functions ---------------------------------------------------------*/
 170:./Library/stm32f4xx_adc.c **** 
 171:./Library/stm32f4xx_adc.c **** /** @defgroup ADC_Private_Functions
 172:./Library/stm32f4xx_adc.c ****   * @{
 173:./Library/stm32f4xx_adc.c ****   */ 
 174:./Library/stm32f4xx_adc.c **** 
 175:./Library/stm32f4xx_adc.c **** /** @defgroup ADC_Group1 Initialization and Configuration functions
 176:./Library/stm32f4xx_adc.c ****  *  @brief    Initialization and Configuration functions 
 177:./Library/stm32f4xx_adc.c ****  *
 178:./Library/stm32f4xx_adc.c **** @verbatim    
 179:./Library/stm32f4xx_adc.c ****  ===============================================================================
 180:./Library/stm32f4xx_adc.c ****               ##### Initialization and Configuration functions #####
 181:./Library/stm32f4xx_adc.c ****  ===============================================================================
 182:./Library/stm32f4xx_adc.c ****     [..]  This section provides functions allowing to:
 183:./Library/stm32f4xx_adc.c ****       (+) Initialize and configure the ADC Prescaler
 184:./Library/stm32f4xx_adc.c ****       (+) ADC Conversion Resolution (12bit..6bit)
 185:./Library/stm32f4xx_adc.c ****       (+) Scan Conversion Mode (multichannel or one channel) for regular group
 186:./Library/stm32f4xx_adc.c ****       (+) ADC Continuous Conversion Mode (Continuous or Single conversion) for 
 187:./Library/stm32f4xx_adc.c ****           regular group
 188:./Library/stm32f4xx_adc.c ****       (+) External trigger Edge and source of regular group, 
 189:./Library/stm32f4xx_adc.c ****       (+) Converted data alignment (left or right)
 190:./Library/stm32f4xx_adc.c ****       (+) The number of ADC conversions that will be done using the sequencer for 
 191:./Library/stm32f4xx_adc.c ****           regular channel group
 192:./Library/stm32f4xx_adc.c ****       (+) Multi ADC mode selection
 193:./Library/stm32f4xx_adc.c ****       (+) Direct memory access mode selection for multi ADC mode  
 194:./Library/stm32f4xx_adc.c ****       (+) Delay between 2 sampling phases (used in dual or triple interleaved modes)
 195:./Library/stm32f4xx_adc.c ****       (+) Enable or disable the ADC peripheral   
 196:./Library/stm32f4xx_adc.c **** @endverbatim
 197:./Library/stm32f4xx_adc.c ****   * @{
 198:./Library/stm32f4xx_adc.c ****   */
 199:./Library/stm32f4xx_adc.c **** 
 200:./Library/stm32f4xx_adc.c **** /**
 201:./Library/stm32f4xx_adc.c ****   * @brief  Deinitializes all ADCs peripherals registers to their default reset 
ARM GAS  /var/folders/yl/_q9l42k90g1g4mdhbs226msm0000gn/T//ccC3IXiS.s 			page 5


 202:./Library/stm32f4xx_adc.c ****   *         values.
 203:./Library/stm32f4xx_adc.c ****   * @param  None
 204:./Library/stm32f4xx_adc.c ****   * @retval None
 205:./Library/stm32f4xx_adc.c ****   */
 206:./Library/stm32f4xx_adc.c **** void ADC_DeInit(void)
 207:./Library/stm32f4xx_adc.c **** {
  29              		.loc 1 207 1 view -0
  30              		.cfi_startproc
  31              		@ args = 0, pretend = 0, frame = 0
  32              		@ frame_needed = 0, uses_anonymous_args = 0
  33 0000 08B5     		push	{r3, lr}
  34              	.LCFI0:
  35              		.cfi_def_cfa_offset 8
  36              		.cfi_offset 3, -8
  37              		.cfi_offset 14, -4
 208:./Library/stm32f4xx_adc.c ****   /* Enable all ADCs reset state */
 209:./Library/stm32f4xx_adc.c ****   RCC_APB2PeriphResetCmd(RCC_APB2Periph_ADC, ENABLE);
  38              		.loc 1 209 3 view .LVU1
  39 0002 0121     		movs	r1, #1
  40 0004 4FF48070 		mov	r0, #256
  41 0008 FFF7FEFF 		bl	RCC_APB2PeriphResetCmd
  42              	.LVL0:
 210:./Library/stm32f4xx_adc.c ****   
 211:./Library/stm32f4xx_adc.c ****   /* Release all ADCs from reset state */
 212:./Library/stm32f4xx_adc.c ****   RCC_APB2PeriphResetCmd(RCC_APB2Periph_ADC, DISABLE);
  43              		.loc 1 212 3 view .LVU2
  44 000c 0021     		movs	r1, #0
  45 000e 4FF48070 		mov	r0, #256
  46 0012 FFF7FEFF 		bl	RCC_APB2PeriphResetCmd
  47              	.LVL1:
 213:./Library/stm32f4xx_adc.c **** }
  48              		.loc 1 213 1 is_stmt 0 view .LVU3
  49 0016 08BD     		pop	{r3, pc}
  50              		.cfi_endproc
  51              	.LFE123:
  53              		.section	.text.ADC_Init,"ax",%progbits
  54              		.align	1
  55              		.global	ADC_Init
  56              		.syntax unified
  57              		.thumb
  58              		.thumb_func
  60              	ADC_Init:
  61              	.LVL2:
  62              	.LFB124:
 214:./Library/stm32f4xx_adc.c **** 
 215:./Library/stm32f4xx_adc.c **** /**
 216:./Library/stm32f4xx_adc.c ****   * @brief  Initializes the ADCx peripheral according to the specified parameters 
 217:./Library/stm32f4xx_adc.c ****   *         in the ADC_InitStruct.
 218:./Library/stm32f4xx_adc.c ****   * @note   This function is used to configure the global features of the ADC ( 
 219:./Library/stm32f4xx_adc.c ****   *         Resolution and Data Alignment), however, the rest of the configuration
 220:./Library/stm32f4xx_adc.c ****   *         parameters are specific to the regular channels group (scan mode 
 221:./Library/stm32f4xx_adc.c ****   *         activation, continuous mode activation, External trigger source and 
 222:./Library/stm32f4xx_adc.c ****   *         edge, number of conversion in the regular channels group sequencer).  
 223:./Library/stm32f4xx_adc.c ****   * @param  ADCx: where x can be 1, 2 or 3 to select the ADC peripheral.
 224:./Library/stm32f4xx_adc.c ****   * @param  ADC_InitStruct: pointer to an ADC_InitTypeDef structure that contains
 225:./Library/stm32f4xx_adc.c ****   *         the configuration information for the specified ADC peripheral.
 226:./Library/stm32f4xx_adc.c ****   * @retval None
ARM GAS  /var/folders/yl/_q9l42k90g1g4mdhbs226msm0000gn/T//ccC3IXiS.s 			page 6


 227:./Library/stm32f4xx_adc.c ****   */
 228:./Library/stm32f4xx_adc.c **** void ADC_Init(ADC_TypeDef* ADCx, ADC_InitTypeDef* ADC_InitStruct)
 229:./Library/stm32f4xx_adc.c **** {
  63              		.loc 1 229 1 is_stmt 1 view -0
  64              		.cfi_startproc
  65              		@ args = 0, pretend = 0, frame = 0
  66              		@ frame_needed = 0, uses_anonymous_args = 0
  67              		@ link register save eliminated.
  68              		.loc 1 229 1 is_stmt 0 view .LVU5
  69 0000 10B4     		push	{r4}
  70              	.LCFI1:
  71              		.cfi_def_cfa_offset 4
  72              		.cfi_offset 4, -4
 230:./Library/stm32f4xx_adc.c ****   uint32_t tmpreg1 = 0;
  73              		.loc 1 230 3 is_stmt 1 view .LVU6
  74              	.LVL3:
 231:./Library/stm32f4xx_adc.c ****   uint8_t tmpreg2 = 0;
  75              		.loc 1 231 3 view .LVU7
 232:./Library/stm32f4xx_adc.c ****   /* Check the parameters */
 233:./Library/stm32f4xx_adc.c ****   assert_param(IS_ADC_ALL_PERIPH(ADCx));
  76              		.loc 1 233 3 view .LVU8
 234:./Library/stm32f4xx_adc.c ****   assert_param(IS_ADC_RESOLUTION(ADC_InitStruct->ADC_Resolution)); 
  77              		.loc 1 234 3 view .LVU9
 235:./Library/stm32f4xx_adc.c ****   assert_param(IS_FUNCTIONAL_STATE(ADC_InitStruct->ADC_ScanConvMode));
  78              		.loc 1 235 3 view .LVU10
 236:./Library/stm32f4xx_adc.c ****   assert_param(IS_FUNCTIONAL_STATE(ADC_InitStruct->ADC_ContinuousConvMode)); 
  79              		.loc 1 236 3 view .LVU11
 237:./Library/stm32f4xx_adc.c ****   assert_param(IS_ADC_EXT_TRIG_EDGE(ADC_InitStruct->ADC_ExternalTrigConvEdge)); 
  80              		.loc 1 237 3 view .LVU12
 238:./Library/stm32f4xx_adc.c ****   assert_param(IS_ADC_EXT_TRIG(ADC_InitStruct->ADC_ExternalTrigConv));    
  81              		.loc 1 238 3 view .LVU13
 239:./Library/stm32f4xx_adc.c ****   assert_param(IS_ADC_DATA_ALIGN(ADC_InitStruct->ADC_DataAlign)); 
  82              		.loc 1 239 3 view .LVU14
 240:./Library/stm32f4xx_adc.c ****   assert_param(IS_ADC_REGULAR_LENGTH(ADC_InitStruct->ADC_NbrOfConversion));
  83              		.loc 1 240 3 view .LVU15
 241:./Library/stm32f4xx_adc.c ****   
 242:./Library/stm32f4xx_adc.c ****   /*---------------------------- ADCx CR1 Configuration -----------------*/
 243:./Library/stm32f4xx_adc.c ****   /* Get the ADCx CR1 value */
 244:./Library/stm32f4xx_adc.c ****   tmpreg1 = ADCx->CR1;
  84              		.loc 1 244 3 view .LVU16
  85              		.loc 1 244 11 is_stmt 0 view .LVU17
  86 0002 4268     		ldr	r2, [r0, #4]
  87              	.LVL4:
 245:./Library/stm32f4xx_adc.c ****   
 246:./Library/stm32f4xx_adc.c ****   /* Clear RES and SCAN bits */
 247:./Library/stm32f4xx_adc.c ****   tmpreg1 &= CR1_CLEAR_MASK;
  88              		.loc 1 247 3 is_stmt 1 view .LVU18
  89              		.loc 1 247 11 is_stmt 0 view .LVU19
  90 0004 22F04072 		bic	r2, r2, #50331648
  91              	.LVL5:
  92              		.loc 1 247 11 view .LVU20
  93 0008 22F48072 		bic	r2, r2, #256
  94              	.LVL6:
 248:./Library/stm32f4xx_adc.c ****   
 249:./Library/stm32f4xx_adc.c ****   /* Configure ADCx: scan conversion mode and resolution */
 250:./Library/stm32f4xx_adc.c ****   /* Set SCAN bit according to ADC_ScanConvMode value */
 251:./Library/stm32f4xx_adc.c ****   /* Set RES bit according to ADC_Resolution value */ 
ARM GAS  /var/folders/yl/_q9l42k90g1g4mdhbs226msm0000gn/T//ccC3IXiS.s 			page 7


 252:./Library/stm32f4xx_adc.c ****   tmpreg1 |= (uint32_t)(((uint32_t)ADC_InitStruct->ADC_ScanConvMode << 8) | \
  95              		.loc 1 252 3 is_stmt 1 view .LVU21
  96              		.loc 1 252 50 is_stmt 0 view .LVU22
  97 000c 91F804C0 		ldrb	ip, [r1, #4]	@ zero_extendqisi2
 253:./Library/stm32f4xx_adc.c ****                                    ADC_InitStruct->ADC_Resolution);
  98              		.loc 1 253 50 view .LVU23
  99 0010 0B68     		ldr	r3, [r1]
 252:./Library/stm32f4xx_adc.c ****                                    ADC_InitStruct->ADC_Resolution);
 100              		.loc 1 252 14 view .LVU24
 101 0012 43EA0C23 		orr	r3, r3, ip, lsl #8
 252:./Library/stm32f4xx_adc.c ****                                    ADC_InitStruct->ADC_Resolution);
 102              		.loc 1 252 11 view .LVU25
 103 0016 1343     		orrs	r3, r3, r2
 104              	.LVL7:
 254:./Library/stm32f4xx_adc.c ****   /* Write to ADCx CR1 */
 255:./Library/stm32f4xx_adc.c ****   ADCx->CR1 = tmpreg1;
 105              		.loc 1 255 3 is_stmt 1 view .LVU26
 106              		.loc 1 255 13 is_stmt 0 view .LVU27
 107 0018 4360     		str	r3, [r0, #4]
 256:./Library/stm32f4xx_adc.c ****   /*---------------------------- ADCx CR2 Configuration -----------------*/
 257:./Library/stm32f4xx_adc.c ****   /* Get the ADCx CR2 value */
 258:./Library/stm32f4xx_adc.c ****   tmpreg1 = ADCx->CR2;
 108              		.loc 1 258 3 is_stmt 1 view .LVU28
 109              		.loc 1 258 11 is_stmt 0 view .LVU29
 110 001a 8368     		ldr	r3, [r0, #8]
 111              	.LVL8:
 259:./Library/stm32f4xx_adc.c ****   
 260:./Library/stm32f4xx_adc.c ****   /* Clear CONT, ALIGN, EXTEN and EXTSEL bits */
 261:./Library/stm32f4xx_adc.c ****   tmpreg1 &= CR2_CLEAR_MASK;
 112              		.loc 1 261 3 is_stmt 1 view .LVU30
 113              		.loc 1 261 11 is_stmt 0 view .LVU31
 114 001c 0C4A     		ldr	r2, .L5
 115 001e 1A40     		ands	r2, r2, r3
 116              	.LVL9:
 262:./Library/stm32f4xx_adc.c ****   
 263:./Library/stm32f4xx_adc.c ****   /* Configure ADCx: external trigger event and edge, data alignment and 
 264:./Library/stm32f4xx_adc.c ****      continuous conversion mode */
 265:./Library/stm32f4xx_adc.c ****   /* Set ALIGN bit according to ADC_DataAlign value */
 266:./Library/stm32f4xx_adc.c ****   /* Set EXTEN bits according to ADC_ExternalTrigConvEdge value */ 
 267:./Library/stm32f4xx_adc.c ****   /* Set EXTSEL bits according to ADC_ExternalTrigConv value */
 268:./Library/stm32f4xx_adc.c ****   /* Set CONT bit according to ADC_ContinuousConvMode value */
 269:./Library/stm32f4xx_adc.c ****   tmpreg1 |= (uint32_t)(ADC_InitStruct->ADC_DataAlign | \
 117              		.loc 1 269 3 is_stmt 1 view .LVU32
 118              		.loc 1 269 39 is_stmt 0 view .LVU33
 119 0020 0B69     		ldr	r3, [r1, #16]
 120              		.loc 1 269 55 view .LVU34
 121 0022 CC68     		ldr	r4, [r1, #12]
 122 0024 2343     		orrs	r3, r3, r4
 270:./Library/stm32f4xx_adc.c ****                         ADC_InitStruct->ADC_ExternalTrigConv | 
 123              		.loc 1 270 62 view .LVU35
 124 0026 8C68     		ldr	r4, [r1, #8]
 125 0028 2343     		orrs	r3, r3, r4
 271:./Library/stm32f4xx_adc.c ****                         ADC_InitStruct->ADC_ExternalTrigConvEdge | \
 272:./Library/stm32f4xx_adc.c ****                         ((uint32_t)ADC_InitStruct->ADC_ContinuousConvMode << 1));
 126              		.loc 1 272 50 view .LVU36
 127 002a 91F805C0 		ldrb	ip, [r1, #5]	@ zero_extendqisi2
 269:./Library/stm32f4xx_adc.c ****                         ADC_InitStruct->ADC_ExternalTrigConv | 
ARM GAS  /var/folders/yl/_q9l42k90g1g4mdhbs226msm0000gn/T//ccC3IXiS.s 			page 8


 128              		.loc 1 269 14 view .LVU37
 129 002e 43EA4C03 		orr	r3, r3, ip, lsl #1
 269:./Library/stm32f4xx_adc.c ****                         ADC_InitStruct->ADC_ExternalTrigConv | 
 130              		.loc 1 269 11 view .LVU38
 131 0032 1343     		orrs	r3, r3, r2
 132              	.LVL10:
 273:./Library/stm32f4xx_adc.c ****                         
 274:./Library/stm32f4xx_adc.c ****   /* Write to ADCx CR2 */
 275:./Library/stm32f4xx_adc.c ****   ADCx->CR2 = tmpreg1;
 133              		.loc 1 275 3 is_stmt 1 view .LVU39
 134              		.loc 1 275 13 is_stmt 0 view .LVU40
 135 0034 8360     		str	r3, [r0, #8]
 276:./Library/stm32f4xx_adc.c ****   /*---------------------------- ADCx SQR1 Configuration -----------------*/
 277:./Library/stm32f4xx_adc.c ****   /* Get the ADCx SQR1 value */
 278:./Library/stm32f4xx_adc.c ****   tmpreg1 = ADCx->SQR1;
 136              		.loc 1 278 3 is_stmt 1 view .LVU41
 137              		.loc 1 278 11 is_stmt 0 view .LVU42
 138 0036 C36A     		ldr	r3, [r0, #44]
 139              	.LVL11:
 279:./Library/stm32f4xx_adc.c ****   
 280:./Library/stm32f4xx_adc.c ****   /* Clear L bits */
 281:./Library/stm32f4xx_adc.c ****   tmpreg1 &= SQR1_L_RESET;
 140              		.loc 1 281 3 is_stmt 1 view .LVU43
 141              		.loc 1 281 11 is_stmt 0 view .LVU44
 142 0038 23F47003 		bic	r3, r3, #15728640
 143              	.LVL12:
 282:./Library/stm32f4xx_adc.c ****   
 283:./Library/stm32f4xx_adc.c ****   /* Configure ADCx: regular channel sequence length */
 284:./Library/stm32f4xx_adc.c ****   /* Set L bits according to ADC_NbrOfConversion value */
 285:./Library/stm32f4xx_adc.c ****   tmpreg2 |= (uint8_t)(ADC_InitStruct->ADC_NbrOfConversion - (uint8_t)1);
 144              		.loc 1 285 3 is_stmt 1 view .LVU45
 145              		.loc 1 285 38 is_stmt 0 view .LVU46
 146 003c 0A7D     		ldrb	r2, [r1, #20]	@ zero_extendqisi2
 147              		.loc 1 285 14 view .LVU47
 148 003e 013A     		subs	r2, r2, #1
 149 0040 D2B2     		uxtb	r2, r2
 150              	.LVL13:
 286:./Library/stm32f4xx_adc.c ****   tmpreg1 |= ((uint32_t)tmpreg2 << 20);
 151              		.loc 1 286 3 is_stmt 1 view .LVU48
 152              		.loc 1 286 11 is_stmt 0 view .LVU49
 153 0042 43EA0253 		orr	r3, r3, r2, lsl #20
 154              	.LVL14:
 287:./Library/stm32f4xx_adc.c ****   
 288:./Library/stm32f4xx_adc.c ****   /* Write to ADCx SQR1 */
 289:./Library/stm32f4xx_adc.c ****   ADCx->SQR1 = tmpreg1;
 155              		.loc 1 289 3 is_stmt 1 view .LVU50
 156              		.loc 1 289 14 is_stmt 0 view .LVU51
 157 0046 C362     		str	r3, [r0, #44]
 290:./Library/stm32f4xx_adc.c **** }
 158              		.loc 1 290 1 view .LVU52
 159 0048 5DF8044B 		ldr	r4, [sp], #4
 160              	.LCFI2:
 161              		.cfi_restore 4
 162              		.cfi_def_cfa_offset 0
 163 004c 7047     		bx	lr
 164              	.L6:
 165 004e 00BF     		.align	2
ARM GAS  /var/folders/yl/_q9l42k90g1g4mdhbs226msm0000gn/T//ccC3IXiS.s 			page 9


 166              	.L5:
 167 0050 FDF7FFC0 		.word	-1056966659
 168              		.cfi_endproc
 169              	.LFE124:
 171              		.section	.text.ADC_StructInit,"ax",%progbits
 172              		.align	1
 173              		.global	ADC_StructInit
 174              		.syntax unified
 175              		.thumb
 176              		.thumb_func
 178              	ADC_StructInit:
 179              	.LVL15:
 180              	.LFB125:
 291:./Library/stm32f4xx_adc.c **** 
 292:./Library/stm32f4xx_adc.c **** /**
 293:./Library/stm32f4xx_adc.c ****   * @brief  Fills each ADC_InitStruct member with its default value.
 294:./Library/stm32f4xx_adc.c ****   * @note   This function is used to initialize the global features of the ADC ( 
 295:./Library/stm32f4xx_adc.c ****   *         Resolution and Data Alignment), however, the rest of the configuration
 296:./Library/stm32f4xx_adc.c ****   *         parameters are specific to the regular channels group (scan mode 
 297:./Library/stm32f4xx_adc.c ****   *         activation, continuous mode activation, External trigger source and 
 298:./Library/stm32f4xx_adc.c ****   *         edge, number of conversion in the regular channels group sequencer).  
 299:./Library/stm32f4xx_adc.c ****   * @param  ADC_InitStruct: pointer to an ADC_InitTypeDef structure which will 
 300:./Library/stm32f4xx_adc.c ****   *         be initialized.
 301:./Library/stm32f4xx_adc.c ****   * @retval None
 302:./Library/stm32f4xx_adc.c ****   */
 303:./Library/stm32f4xx_adc.c **** void ADC_StructInit(ADC_InitTypeDef* ADC_InitStruct)
 304:./Library/stm32f4xx_adc.c **** {
 181              		.loc 1 304 1 is_stmt 1 view -0
 182              		.cfi_startproc
 183              		@ args = 0, pretend = 0, frame = 0
 184              		@ frame_needed = 0, uses_anonymous_args = 0
 185              		@ link register save eliminated.
 305:./Library/stm32f4xx_adc.c ****   /* Initialize the ADC_Mode member */
 306:./Library/stm32f4xx_adc.c ****   ADC_InitStruct->ADC_Resolution = ADC_Resolution_12b;
 186              		.loc 1 306 3 view .LVU54
 187              		.loc 1 306 34 is_stmt 0 view .LVU55
 188 0000 0023     		movs	r3, #0
 189 0002 0360     		str	r3, [r0]
 307:./Library/stm32f4xx_adc.c **** 
 308:./Library/stm32f4xx_adc.c ****   /* initialize the ADC_ScanConvMode member */
 309:./Library/stm32f4xx_adc.c ****   ADC_InitStruct->ADC_ScanConvMode = DISABLE;
 190              		.loc 1 309 3 is_stmt 1 view .LVU56
 191              		.loc 1 309 36 is_stmt 0 view .LVU57
 192 0004 0371     		strb	r3, [r0, #4]
 310:./Library/stm32f4xx_adc.c **** 
 311:./Library/stm32f4xx_adc.c ****   /* Initialize the ADC_ContinuousConvMode member */
 312:./Library/stm32f4xx_adc.c ****   ADC_InitStruct->ADC_ContinuousConvMode = DISABLE;
 193              		.loc 1 312 3 is_stmt 1 view .LVU58
 194              		.loc 1 312 42 is_stmt 0 view .LVU59
 195 0006 4371     		strb	r3, [r0, #5]
 313:./Library/stm32f4xx_adc.c **** 
 314:./Library/stm32f4xx_adc.c ****   /* Initialize the ADC_ExternalTrigConvEdge member */
 315:./Library/stm32f4xx_adc.c ****   ADC_InitStruct->ADC_ExternalTrigConvEdge = ADC_ExternalTrigConvEdge_None;
 196              		.loc 1 315 3 is_stmt 1 view .LVU60
 197              		.loc 1 315 44 is_stmt 0 view .LVU61
 198 0008 8360     		str	r3, [r0, #8]
 316:./Library/stm32f4xx_adc.c **** 
ARM GAS  /var/folders/yl/_q9l42k90g1g4mdhbs226msm0000gn/T//ccC3IXiS.s 			page 10


 317:./Library/stm32f4xx_adc.c ****   /* Initialize the ADC_ExternalTrigConv member */
 318:./Library/stm32f4xx_adc.c ****   ADC_InitStruct->ADC_ExternalTrigConv = ADC_ExternalTrigConv_T1_CC1;
 199              		.loc 1 318 3 is_stmt 1 view .LVU62
 200              		.loc 1 318 40 is_stmt 0 view .LVU63
 201 000a C360     		str	r3, [r0, #12]
 319:./Library/stm32f4xx_adc.c **** 
 320:./Library/stm32f4xx_adc.c ****   /* Initialize the ADC_DataAlign member */
 321:./Library/stm32f4xx_adc.c ****   ADC_InitStruct->ADC_DataAlign = ADC_DataAlign_Right;
 202              		.loc 1 321 3 is_stmt 1 view .LVU64
 203              		.loc 1 321 33 is_stmt 0 view .LVU65
 204 000c 0361     		str	r3, [r0, #16]
 322:./Library/stm32f4xx_adc.c **** 
 323:./Library/stm32f4xx_adc.c ****   /* Initialize the ADC_NbrOfConversion member */
 324:./Library/stm32f4xx_adc.c ****   ADC_InitStruct->ADC_NbrOfConversion = 1;
 205              		.loc 1 324 3 is_stmt 1 view .LVU66
 206              		.loc 1 324 39 is_stmt 0 view .LVU67
 207 000e 0123     		movs	r3, #1
 208 0010 0375     		strb	r3, [r0, #20]
 325:./Library/stm32f4xx_adc.c **** }
 209              		.loc 1 325 1 view .LVU68
 210 0012 7047     		bx	lr
 211              		.cfi_endproc
 212              	.LFE125:
 214              		.section	.text.ADC_CommonInit,"ax",%progbits
 215              		.align	1
 216              		.global	ADC_CommonInit
 217              		.syntax unified
 218              		.thumb
 219              		.thumb_func
 221              	ADC_CommonInit:
 222              	.LVL16:
 223              	.LFB126:
 326:./Library/stm32f4xx_adc.c **** 
 327:./Library/stm32f4xx_adc.c **** /**
 328:./Library/stm32f4xx_adc.c ****   * @brief  Initializes the ADCs peripherals according to the specified parameters 
 329:./Library/stm32f4xx_adc.c ****   *         in the ADC_CommonInitStruct.
 330:./Library/stm32f4xx_adc.c ****   * @param  ADC_CommonInitStruct: pointer to an ADC_CommonInitTypeDef structure 
 331:./Library/stm32f4xx_adc.c ****   *         that contains the configuration information for  All ADCs peripherals.
 332:./Library/stm32f4xx_adc.c ****   * @retval None
 333:./Library/stm32f4xx_adc.c ****   */
 334:./Library/stm32f4xx_adc.c **** void ADC_CommonInit(ADC_CommonInitTypeDef* ADC_CommonInitStruct)
 335:./Library/stm32f4xx_adc.c **** {
 224              		.loc 1 335 1 is_stmt 1 view -0
 225              		.cfi_startproc
 226              		@ args = 0, pretend = 0, frame = 0
 227              		@ frame_needed = 0, uses_anonymous_args = 0
 228              		@ link register save eliminated.
 229              		.loc 1 335 1 is_stmt 0 view .LVU70
 230 0000 10B4     		push	{r4}
 231              	.LCFI3:
 232              		.cfi_def_cfa_offset 4
 233              		.cfi_offset 4, -4
 336:./Library/stm32f4xx_adc.c ****   uint32_t tmpreg1 = 0;
 234              		.loc 1 336 3 is_stmt 1 view .LVU71
 235              	.LVL17:
 337:./Library/stm32f4xx_adc.c ****   /* Check the parameters */
 338:./Library/stm32f4xx_adc.c ****   assert_param(IS_ADC_MODE(ADC_CommonInitStruct->ADC_Mode));
ARM GAS  /var/folders/yl/_q9l42k90g1g4mdhbs226msm0000gn/T//ccC3IXiS.s 			page 11


 236              		.loc 1 338 3 view .LVU72
 339:./Library/stm32f4xx_adc.c ****   assert_param(IS_ADC_PRESCALER(ADC_CommonInitStruct->ADC_Prescaler));
 237              		.loc 1 339 3 view .LVU73
 340:./Library/stm32f4xx_adc.c ****   assert_param(IS_ADC_DMA_ACCESS_MODE(ADC_CommonInitStruct->ADC_DMAAccessMode));
 238              		.loc 1 340 3 view .LVU74
 341:./Library/stm32f4xx_adc.c ****   assert_param(IS_ADC_SAMPLING_DELAY(ADC_CommonInitStruct->ADC_TwoSamplingDelay));
 239              		.loc 1 341 3 view .LVU75
 342:./Library/stm32f4xx_adc.c ****   /*---------------------------- ADC CCR Configuration -----------------*/
 343:./Library/stm32f4xx_adc.c ****   /* Get the ADC CCR value */
 344:./Library/stm32f4xx_adc.c ****   tmpreg1 = ADC->CCR;
 240              		.loc 1 344 3 view .LVU76
 241              		.loc 1 344 11 is_stmt 0 view .LVU77
 242 0002 0849     		ldr	r1, .L10
 243 0004 4B68     		ldr	r3, [r1, #4]
 244              	.LVL18:
 345:./Library/stm32f4xx_adc.c ****   
 346:./Library/stm32f4xx_adc.c ****   /* Clear MULTI, DELAY, DMA and ADCPRE bits */
 347:./Library/stm32f4xx_adc.c ****   tmpreg1 &= CR_CLEAR_MASK;
 245              		.loc 1 347 3 is_stmt 1 view .LVU78
 246              		.loc 1 347 11 is_stmt 0 view .LVU79
 247 0006 084A     		ldr	r2, .L10+4
 248 0008 1A40     		ands	r2, r2, r3
 249              	.LVL19:
 348:./Library/stm32f4xx_adc.c ****   
 349:./Library/stm32f4xx_adc.c ****   /* Configure ADCx: Multi mode, Delay between two sampling time, ADC prescaler,
 350:./Library/stm32f4xx_adc.c ****      and DMA access mode for multimode */
 351:./Library/stm32f4xx_adc.c ****   /* Set MULTI bits according to ADC_Mode value */
 352:./Library/stm32f4xx_adc.c ****   /* Set ADCPRE bits according to ADC_Prescaler value */
 353:./Library/stm32f4xx_adc.c ****   /* Set DMA bits according to ADC_DMAAccessMode value */
 354:./Library/stm32f4xx_adc.c ****   /* Set DELAY bits according to ADC_TwoSamplingDelay value */    
 355:./Library/stm32f4xx_adc.c ****   tmpreg1 |= (uint32_t)(ADC_CommonInitStruct->ADC_Mode | 
 250              		.loc 1 355 3 is_stmt 1 view .LVU80
 251              		.loc 1 355 45 is_stmt 0 view .LVU81
 252 000a 0368     		ldr	r3, [r0]
 253              		.loc 1 355 56 view .LVU82
 254 000c 4468     		ldr	r4, [r0, #4]
 255 000e 2343     		orrs	r3, r3, r4
 356:./Library/stm32f4xx_adc.c ****                         ADC_CommonInitStruct->ADC_Prescaler | 
 256              		.loc 1 356 61 view .LVU83
 257 0010 8468     		ldr	r4, [r0, #8]
 258 0012 2343     		orrs	r3, r3, r4
 357:./Library/stm32f4xx_adc.c ****                         ADC_CommonInitStruct->ADC_DMAAccessMode | 
 358:./Library/stm32f4xx_adc.c ****                         ADC_CommonInitStruct->ADC_TwoSamplingDelay);
 259              		.loc 1 358 45 view .LVU84
 260 0014 C068     		ldr	r0, [r0, #12]
 261              	.LVL20:
 357:./Library/stm32f4xx_adc.c ****                         ADC_CommonInitStruct->ADC_DMAAccessMode | 
 262              		.loc 1 357 65 view .LVU85
 263 0016 0343     		orrs	r3, r3, r0
 355:./Library/stm32f4xx_adc.c ****                         ADC_CommonInitStruct->ADC_Prescaler | 
 264              		.loc 1 355 11 view .LVU86
 265 0018 1343     		orrs	r3, r3, r2
 266              	.LVL21:
 359:./Library/stm32f4xx_adc.c ****                         
 360:./Library/stm32f4xx_adc.c ****   /* Write to ADC CCR */
 361:./Library/stm32f4xx_adc.c ****   ADC->CCR = tmpreg1;
 267              		.loc 1 361 3 is_stmt 1 view .LVU87
ARM GAS  /var/folders/yl/_q9l42k90g1g4mdhbs226msm0000gn/T//ccC3IXiS.s 			page 12


 268              		.loc 1 361 12 is_stmt 0 view .LVU88
 269 001a 4B60     		str	r3, [r1, #4]
 362:./Library/stm32f4xx_adc.c **** }
 270              		.loc 1 362 1 view .LVU89
 271 001c 5DF8044B 		ldr	r4, [sp], #4
 272              	.LCFI4:
 273              		.cfi_restore 4
 274              		.cfi_def_cfa_offset 0
 275 0020 7047     		bx	lr
 276              	.L11:
 277 0022 00BF     		.align	2
 278              	.L10:
 279 0024 00230140 		.word	1073816320
 280 0028 E030FCFF 		.word	-249632
 281              		.cfi_endproc
 282              	.LFE126:
 284              		.section	.text.ADC_CommonStructInit,"ax",%progbits
 285              		.align	1
 286              		.global	ADC_CommonStructInit
 287              		.syntax unified
 288              		.thumb
 289              		.thumb_func
 291              	ADC_CommonStructInit:
 292              	.LVL22:
 293              	.LFB127:
 363:./Library/stm32f4xx_adc.c **** 
 364:./Library/stm32f4xx_adc.c **** /**
 365:./Library/stm32f4xx_adc.c ****   * @brief  Fills each ADC_CommonInitStruct member with its default value.
 366:./Library/stm32f4xx_adc.c ****   * @param  ADC_CommonInitStruct: pointer to an ADC_CommonInitTypeDef structure
 367:./Library/stm32f4xx_adc.c ****   *         which will be initialized.
 368:./Library/stm32f4xx_adc.c ****   * @retval None
 369:./Library/stm32f4xx_adc.c ****   */
 370:./Library/stm32f4xx_adc.c **** void ADC_CommonStructInit(ADC_CommonInitTypeDef* ADC_CommonInitStruct)
 371:./Library/stm32f4xx_adc.c **** {
 294              		.loc 1 371 1 is_stmt 1 view -0
 295              		.cfi_startproc
 296              		@ args = 0, pretend = 0, frame = 0
 297              		@ frame_needed = 0, uses_anonymous_args = 0
 298              		@ link register save eliminated.
 372:./Library/stm32f4xx_adc.c ****   /* Initialize the ADC_Mode member */
 373:./Library/stm32f4xx_adc.c ****   ADC_CommonInitStruct->ADC_Mode = ADC_Mode_Independent;
 299              		.loc 1 373 3 view .LVU91
 300              		.loc 1 373 34 is_stmt 0 view .LVU92
 301 0000 0023     		movs	r3, #0
 302 0002 0360     		str	r3, [r0]
 374:./Library/stm32f4xx_adc.c **** 
 375:./Library/stm32f4xx_adc.c ****   /* initialize the ADC_Prescaler member */
 376:./Library/stm32f4xx_adc.c ****   ADC_CommonInitStruct->ADC_Prescaler = ADC_Prescaler_Div2;
 303              		.loc 1 376 3 is_stmt 1 view .LVU93
 304              		.loc 1 376 39 is_stmt 0 view .LVU94
 305 0004 4360     		str	r3, [r0, #4]
 377:./Library/stm32f4xx_adc.c **** 
 378:./Library/stm32f4xx_adc.c ****   /* Initialize the ADC_DMAAccessMode member */
 379:./Library/stm32f4xx_adc.c ****   ADC_CommonInitStruct->ADC_DMAAccessMode = ADC_DMAAccessMode_Disabled;
 306              		.loc 1 379 3 is_stmt 1 view .LVU95
 307              		.loc 1 379 43 is_stmt 0 view .LVU96
 308 0006 8360     		str	r3, [r0, #8]
ARM GAS  /var/folders/yl/_q9l42k90g1g4mdhbs226msm0000gn/T//ccC3IXiS.s 			page 13


 380:./Library/stm32f4xx_adc.c **** 
 381:./Library/stm32f4xx_adc.c ****   /* Initialize the ADC_TwoSamplingDelay member */
 382:./Library/stm32f4xx_adc.c ****   ADC_CommonInitStruct->ADC_TwoSamplingDelay = ADC_TwoSamplingDelay_5Cycles;
 309              		.loc 1 382 3 is_stmt 1 view .LVU97
 310              		.loc 1 382 46 is_stmt 0 view .LVU98
 311 0008 C360     		str	r3, [r0, #12]
 383:./Library/stm32f4xx_adc.c **** }
 312              		.loc 1 383 1 view .LVU99
 313 000a 7047     		bx	lr
 314              		.cfi_endproc
 315              	.LFE127:
 317              		.section	.text.ADC_Cmd,"ax",%progbits
 318              		.align	1
 319              		.global	ADC_Cmd
 320              		.syntax unified
 321              		.thumb
 322              		.thumb_func
 324              	ADC_Cmd:
 325              	.LVL23:
 326              	.LFB128:
 384:./Library/stm32f4xx_adc.c **** 
 385:./Library/stm32f4xx_adc.c **** /**
 386:./Library/stm32f4xx_adc.c ****   * @brief  Enables or disables the specified ADC peripheral.
 387:./Library/stm32f4xx_adc.c ****   * @param  ADCx: where x can be 1, 2 or 3 to select the ADC peripheral.
 388:./Library/stm32f4xx_adc.c ****   * @param  NewState: new state of the ADCx peripheral. 
 389:./Library/stm32f4xx_adc.c ****   *          This parameter can be: ENABLE or DISABLE.
 390:./Library/stm32f4xx_adc.c ****   * @retval None
 391:./Library/stm32f4xx_adc.c ****   */
 392:./Library/stm32f4xx_adc.c **** void ADC_Cmd(ADC_TypeDef* ADCx, FunctionalState NewState)
 393:./Library/stm32f4xx_adc.c **** {
 327              		.loc 1 393 1 is_stmt 1 view -0
 328              		.cfi_startproc
 329              		@ args = 0, pretend = 0, frame = 0
 330              		@ frame_needed = 0, uses_anonymous_args = 0
 331              		@ link register save eliminated.
 394:./Library/stm32f4xx_adc.c ****   /* Check the parameters */
 395:./Library/stm32f4xx_adc.c ****   assert_param(IS_ADC_ALL_PERIPH(ADCx));
 332              		.loc 1 395 3 view .LVU101
 396:./Library/stm32f4xx_adc.c ****   assert_param(IS_FUNCTIONAL_STATE(NewState));
 333              		.loc 1 396 3 view .LVU102
 397:./Library/stm32f4xx_adc.c ****   if (NewState != DISABLE)
 334              		.loc 1 397 3 view .LVU103
 335              		.loc 1 397 6 is_stmt 0 view .LVU104
 336 0000 21B1     		cbz	r1, .L14
 398:./Library/stm32f4xx_adc.c ****   {
 399:./Library/stm32f4xx_adc.c ****     /* Set the ADON bit to wake up the ADC from power down mode */
 400:./Library/stm32f4xx_adc.c ****     ADCx->CR2 |= (uint32_t)ADC_CR2_ADON;
 337              		.loc 1 400 5 is_stmt 1 view .LVU105
 338              		.loc 1 400 15 is_stmt 0 view .LVU106
 339 0002 8368     		ldr	r3, [r0, #8]
 340 0004 43F00103 		orr	r3, r3, #1
 341 0008 8360     		str	r3, [r0, #8]
 342 000a 7047     		bx	lr
 343              	.L14:
 401:./Library/stm32f4xx_adc.c ****   }
 402:./Library/stm32f4xx_adc.c ****   else
 403:./Library/stm32f4xx_adc.c ****   {
ARM GAS  /var/folders/yl/_q9l42k90g1g4mdhbs226msm0000gn/T//ccC3IXiS.s 			page 14


 404:./Library/stm32f4xx_adc.c ****     /* Disable the selected ADC peripheral */
 405:./Library/stm32f4xx_adc.c ****     ADCx->CR2 &= (uint32_t)(~ADC_CR2_ADON);
 344              		.loc 1 405 5 is_stmt 1 view .LVU107
 345              		.loc 1 405 15 is_stmt 0 view .LVU108
 346 000c 8368     		ldr	r3, [r0, #8]
 347 000e 23F00103 		bic	r3, r3, #1
 348 0012 8360     		str	r3, [r0, #8]
 406:./Library/stm32f4xx_adc.c ****   }
 407:./Library/stm32f4xx_adc.c **** }
 349              		.loc 1 407 1 view .LVU109
 350 0014 7047     		bx	lr
 351              		.cfi_endproc
 352              	.LFE128:
 354              		.section	.text.ADC_AnalogWatchdogCmd,"ax",%progbits
 355              		.align	1
 356              		.global	ADC_AnalogWatchdogCmd
 357              		.syntax unified
 358              		.thumb
 359              		.thumb_func
 361              	ADC_AnalogWatchdogCmd:
 362              	.LVL24:
 363              	.LFB129:
 408:./Library/stm32f4xx_adc.c **** /**
 409:./Library/stm32f4xx_adc.c ****   * @}
 410:./Library/stm32f4xx_adc.c ****   */
 411:./Library/stm32f4xx_adc.c **** 
 412:./Library/stm32f4xx_adc.c **** /** @defgroup ADC_Group2 Analog Watchdog configuration functions
 413:./Library/stm32f4xx_adc.c ****  *  @brief    Analog Watchdog configuration functions 
 414:./Library/stm32f4xx_adc.c ****  *
 415:./Library/stm32f4xx_adc.c **** @verbatim   
 416:./Library/stm32f4xx_adc.c ****  ===============================================================================
 417:./Library/stm32f4xx_adc.c ****              ##### Analog Watchdog configuration functions #####
 418:./Library/stm32f4xx_adc.c ****  ===============================================================================  
 419:./Library/stm32f4xx_adc.c ****     [..] This section provides functions allowing to configure the Analog Watchdog
 420:./Library/stm32f4xx_adc.c ****          (AWD) feature in the ADC.
 421:./Library/stm32f4xx_adc.c ****   
 422:./Library/stm32f4xx_adc.c ****     [..] A typical configuration Analog Watchdog is done following these steps :
 423:./Library/stm32f4xx_adc.c ****       (#) the ADC guarded channel(s) is (are) selected using the 
 424:./Library/stm32f4xx_adc.c ****           ADC_AnalogWatchdogSingleChannelConfig() function.
 425:./Library/stm32f4xx_adc.c ****       (#) The Analog watchdog lower and higher threshold are configured using the  
 426:./Library/stm32f4xx_adc.c ****           ADC_AnalogWatchdogThresholdsConfig() function.
 427:./Library/stm32f4xx_adc.c ****       (#) The Analog watchdog is enabled and configured to enable the check, on one
 428:./Library/stm32f4xx_adc.c ****           or more channels, using the  ADC_AnalogWatchdogCmd() function.
 429:./Library/stm32f4xx_adc.c **** @endverbatim
 430:./Library/stm32f4xx_adc.c ****   * @{
 431:./Library/stm32f4xx_adc.c ****   */
 432:./Library/stm32f4xx_adc.c ****   
 433:./Library/stm32f4xx_adc.c **** /**
 434:./Library/stm32f4xx_adc.c ****   * @brief  Enables or disables the analog watchdog on single/all regular or 
 435:./Library/stm32f4xx_adc.c ****   *         injected channels
 436:./Library/stm32f4xx_adc.c ****   * @param  ADCx: where x can be 1, 2 or 3 to select the ADC peripheral.
 437:./Library/stm32f4xx_adc.c ****   * @param  ADC_AnalogWatchdog: the ADC analog watchdog configuration.
 438:./Library/stm32f4xx_adc.c ****   *         This parameter can be one of the following values:
 439:./Library/stm32f4xx_adc.c ****   *            @arg ADC_AnalogWatchdog_SingleRegEnable: Analog watchdog on a single regular channel
 440:./Library/stm32f4xx_adc.c ****   *            @arg ADC_AnalogWatchdog_SingleInjecEnable: Analog watchdog on a single injected chan
 441:./Library/stm32f4xx_adc.c ****   *            @arg ADC_AnalogWatchdog_SingleRegOrInjecEnable: Analog watchdog on a single regular 
 442:./Library/stm32f4xx_adc.c ****   *            @arg ADC_AnalogWatchdog_AllRegEnable: Analog watchdog on all regular channel
ARM GAS  /var/folders/yl/_q9l42k90g1g4mdhbs226msm0000gn/T//ccC3IXiS.s 			page 15


 443:./Library/stm32f4xx_adc.c ****   *            @arg ADC_AnalogWatchdog_AllInjecEnable: Analog watchdog on all injected channel
 444:./Library/stm32f4xx_adc.c ****   *            @arg ADC_AnalogWatchdog_AllRegAllInjecEnable: Analog watchdog on all regular and inj
 445:./Library/stm32f4xx_adc.c ****   *            @arg ADC_AnalogWatchdog_None: No channel guarded by the analog watchdog
 446:./Library/stm32f4xx_adc.c ****   * @retval None	  
 447:./Library/stm32f4xx_adc.c ****   */
 448:./Library/stm32f4xx_adc.c **** void ADC_AnalogWatchdogCmd(ADC_TypeDef* ADCx, uint32_t ADC_AnalogWatchdog)
 449:./Library/stm32f4xx_adc.c **** {
 364              		.loc 1 449 1 is_stmt 1 view -0
 365              		.cfi_startproc
 366              		@ args = 0, pretend = 0, frame = 0
 367              		@ frame_needed = 0, uses_anonymous_args = 0
 368              		@ link register save eliminated.
 450:./Library/stm32f4xx_adc.c ****   uint32_t tmpreg = 0;
 369              		.loc 1 450 3 view .LVU111
 451:./Library/stm32f4xx_adc.c ****   /* Check the parameters */
 452:./Library/stm32f4xx_adc.c ****   assert_param(IS_ADC_ALL_PERIPH(ADCx));
 370              		.loc 1 452 3 view .LVU112
 453:./Library/stm32f4xx_adc.c ****   assert_param(IS_ADC_ANALOG_WATCHDOG(ADC_AnalogWatchdog));
 371              		.loc 1 453 3 view .LVU113
 454:./Library/stm32f4xx_adc.c ****   
 455:./Library/stm32f4xx_adc.c ****   /* Get the old register value */
 456:./Library/stm32f4xx_adc.c ****   tmpreg = ADCx->CR1;
 372              		.loc 1 456 3 view .LVU114
 373              		.loc 1 456 10 is_stmt 0 view .LVU115
 374 0000 4368     		ldr	r3, [r0, #4]
 375              	.LVL25:
 457:./Library/stm32f4xx_adc.c ****   
 458:./Library/stm32f4xx_adc.c ****   /* Clear AWDEN, JAWDEN and AWDSGL bits */
 459:./Library/stm32f4xx_adc.c ****   tmpreg &= CR1_AWDMode_RESET;
 376              		.loc 1 459 3 is_stmt 1 view .LVU116
 377              		.loc 1 459 10 is_stmt 0 view .LVU117
 378 0002 23F44003 		bic	r3, r3, #12582912
 379              	.LVL26:
 380              		.loc 1 459 10 view .LVU118
 381 0006 23F40073 		bic	r3, r3, #512
 382              	.LVL27:
 460:./Library/stm32f4xx_adc.c ****   
 461:./Library/stm32f4xx_adc.c ****   /* Set the analog watchdog enable mode */
 462:./Library/stm32f4xx_adc.c ****   tmpreg |= ADC_AnalogWatchdog;
 383              		.loc 1 462 3 is_stmt 1 view .LVU119
 384              		.loc 1 462 10 is_stmt 0 view .LVU120
 385 000a 0B43     		orrs	r3, r3, r1
 386              	.LVL28:
 463:./Library/stm32f4xx_adc.c ****   
 464:./Library/stm32f4xx_adc.c ****   /* Store the new register value */
 465:./Library/stm32f4xx_adc.c ****   ADCx->CR1 = tmpreg;
 387              		.loc 1 465 3 is_stmt 1 view .LVU121
 388              		.loc 1 465 13 is_stmt 0 view .LVU122
 389 000c 4360     		str	r3, [r0, #4]
 466:./Library/stm32f4xx_adc.c **** }
 390              		.loc 1 466 1 view .LVU123
 391 000e 7047     		bx	lr
 392              		.cfi_endproc
 393              	.LFE129:
 395              		.section	.text.ADC_AnalogWatchdogThresholdsConfig,"ax",%progbits
 396              		.align	1
 397              		.global	ADC_AnalogWatchdogThresholdsConfig
ARM GAS  /var/folders/yl/_q9l42k90g1g4mdhbs226msm0000gn/T//ccC3IXiS.s 			page 16


 398              		.syntax unified
 399              		.thumb
 400              		.thumb_func
 402              	ADC_AnalogWatchdogThresholdsConfig:
 403              	.LVL29:
 404              	.LFB130:
 467:./Library/stm32f4xx_adc.c **** 
 468:./Library/stm32f4xx_adc.c **** /**
 469:./Library/stm32f4xx_adc.c ****   * @brief  Configures the high and low thresholds of the analog watchdog.
 470:./Library/stm32f4xx_adc.c ****   * @param  ADCx: where x can be 1, 2 or 3 to select the ADC peripheral.
 471:./Library/stm32f4xx_adc.c ****   * @param  HighThreshold: the ADC analog watchdog High threshold value.
 472:./Library/stm32f4xx_adc.c ****   *          This parameter must be a 12-bit value.
 473:./Library/stm32f4xx_adc.c ****   * @param  LowThreshold:  the ADC analog watchdog Low threshold value.
 474:./Library/stm32f4xx_adc.c ****   *          This parameter must be a 12-bit value.
 475:./Library/stm32f4xx_adc.c ****   * @retval None
 476:./Library/stm32f4xx_adc.c ****   */
 477:./Library/stm32f4xx_adc.c **** void ADC_AnalogWatchdogThresholdsConfig(ADC_TypeDef* ADCx, uint16_t HighThreshold,
 478:./Library/stm32f4xx_adc.c ****                                         uint16_t LowThreshold)
 479:./Library/stm32f4xx_adc.c **** {
 405              		.loc 1 479 1 is_stmt 1 view -0
 406              		.cfi_startproc
 407              		@ args = 0, pretend = 0, frame = 0
 408              		@ frame_needed = 0, uses_anonymous_args = 0
 409              		@ link register save eliminated.
 480:./Library/stm32f4xx_adc.c ****   /* Check the parameters */
 481:./Library/stm32f4xx_adc.c ****   assert_param(IS_ADC_ALL_PERIPH(ADCx));
 410              		.loc 1 481 3 view .LVU125
 482:./Library/stm32f4xx_adc.c ****   assert_param(IS_ADC_THRESHOLD(HighThreshold));
 411              		.loc 1 482 3 view .LVU126
 483:./Library/stm32f4xx_adc.c ****   assert_param(IS_ADC_THRESHOLD(LowThreshold));
 412              		.loc 1 483 3 view .LVU127
 484:./Library/stm32f4xx_adc.c ****   
 485:./Library/stm32f4xx_adc.c ****   /* Set the ADCx high threshold */
 486:./Library/stm32f4xx_adc.c ****   ADCx->HTR = HighThreshold;
 413              		.loc 1 486 3 view .LVU128
 414              		.loc 1 486 13 is_stmt 0 view .LVU129
 415 0000 4162     		str	r1, [r0, #36]
 487:./Library/stm32f4xx_adc.c ****   
 488:./Library/stm32f4xx_adc.c ****   /* Set the ADCx low threshold */
 489:./Library/stm32f4xx_adc.c ****   ADCx->LTR = LowThreshold;
 416              		.loc 1 489 3 is_stmt 1 view .LVU130
 417              		.loc 1 489 13 is_stmt 0 view .LVU131
 418 0002 8262     		str	r2, [r0, #40]
 490:./Library/stm32f4xx_adc.c **** }
 419              		.loc 1 490 1 view .LVU132
 420 0004 7047     		bx	lr
 421              		.cfi_endproc
 422              	.LFE130:
 424              		.section	.text.ADC_AnalogWatchdogSingleChannelConfig,"ax",%progbits
 425              		.align	1
 426              		.global	ADC_AnalogWatchdogSingleChannelConfig
 427              		.syntax unified
 428              		.thumb
 429              		.thumb_func
 431              	ADC_AnalogWatchdogSingleChannelConfig:
 432              	.LVL30:
 433              	.LFB131:
ARM GAS  /var/folders/yl/_q9l42k90g1g4mdhbs226msm0000gn/T//ccC3IXiS.s 			page 17


 491:./Library/stm32f4xx_adc.c **** 
 492:./Library/stm32f4xx_adc.c **** /**
 493:./Library/stm32f4xx_adc.c ****   * @brief  Configures the analog watchdog guarded single channel
 494:./Library/stm32f4xx_adc.c ****   * @param  ADCx: where x can be 1, 2 or 3 to select the ADC peripheral.
 495:./Library/stm32f4xx_adc.c ****   * @param  ADC_Channel: the ADC channel to configure for the analog watchdog. 
 496:./Library/stm32f4xx_adc.c ****   *          This parameter can be one of the following values:
 497:./Library/stm32f4xx_adc.c ****   *            @arg ADC_Channel_0: ADC Channel0 selected
 498:./Library/stm32f4xx_adc.c ****   *            @arg ADC_Channel_1: ADC Channel1 selected
 499:./Library/stm32f4xx_adc.c ****   *            @arg ADC_Channel_2: ADC Channel2 selected
 500:./Library/stm32f4xx_adc.c ****   *            @arg ADC_Channel_3: ADC Channel3 selected
 501:./Library/stm32f4xx_adc.c ****   *            @arg ADC_Channel_4: ADC Channel4 selected
 502:./Library/stm32f4xx_adc.c ****   *            @arg ADC_Channel_5: ADC Channel5 selected
 503:./Library/stm32f4xx_adc.c ****   *            @arg ADC_Channel_6: ADC Channel6 selected
 504:./Library/stm32f4xx_adc.c ****   *            @arg ADC_Channel_7: ADC Channel7 selected
 505:./Library/stm32f4xx_adc.c ****   *            @arg ADC_Channel_8: ADC Channel8 selected
 506:./Library/stm32f4xx_adc.c ****   *            @arg ADC_Channel_9: ADC Channel9 selected
 507:./Library/stm32f4xx_adc.c ****   *            @arg ADC_Channel_10: ADC Channel10 selected
 508:./Library/stm32f4xx_adc.c ****   *            @arg ADC_Channel_11: ADC Channel11 selected
 509:./Library/stm32f4xx_adc.c ****   *            @arg ADC_Channel_12: ADC Channel12 selected
 510:./Library/stm32f4xx_adc.c ****   *            @arg ADC_Channel_13: ADC Channel13 selected
 511:./Library/stm32f4xx_adc.c ****   *            @arg ADC_Channel_14: ADC Channel14 selected
 512:./Library/stm32f4xx_adc.c ****   *            @arg ADC_Channel_15: ADC Channel15 selected
 513:./Library/stm32f4xx_adc.c ****   *            @arg ADC_Channel_16: ADC Channel16 selected
 514:./Library/stm32f4xx_adc.c ****   *            @arg ADC_Channel_17: ADC Channel17 selected
 515:./Library/stm32f4xx_adc.c ****   *            @arg ADC_Channel_18: ADC Channel18 selected
 516:./Library/stm32f4xx_adc.c ****   * @retval None
 517:./Library/stm32f4xx_adc.c ****   */
 518:./Library/stm32f4xx_adc.c **** void ADC_AnalogWatchdogSingleChannelConfig(ADC_TypeDef* ADCx, uint8_t ADC_Channel)
 519:./Library/stm32f4xx_adc.c **** {
 434              		.loc 1 519 1 is_stmt 1 view -0
 435              		.cfi_startproc
 436              		@ args = 0, pretend = 0, frame = 0
 437              		@ frame_needed = 0, uses_anonymous_args = 0
 438              		@ link register save eliminated.
 520:./Library/stm32f4xx_adc.c ****   uint32_t tmpreg = 0;
 439              		.loc 1 520 3 view .LVU134
 521:./Library/stm32f4xx_adc.c ****   /* Check the parameters */
 522:./Library/stm32f4xx_adc.c ****   assert_param(IS_ADC_ALL_PERIPH(ADCx));
 440              		.loc 1 522 3 view .LVU135
 523:./Library/stm32f4xx_adc.c ****   assert_param(IS_ADC_CHANNEL(ADC_Channel));
 441              		.loc 1 523 3 view .LVU136
 524:./Library/stm32f4xx_adc.c ****   
 525:./Library/stm32f4xx_adc.c ****   /* Get the old register value */
 526:./Library/stm32f4xx_adc.c ****   tmpreg = ADCx->CR1;
 442              		.loc 1 526 3 view .LVU137
 443              		.loc 1 526 10 is_stmt 0 view .LVU138
 444 0000 4368     		ldr	r3, [r0, #4]
 445              	.LVL31:
 527:./Library/stm32f4xx_adc.c ****   
 528:./Library/stm32f4xx_adc.c ****   /* Clear the Analog watchdog channel select bits */
 529:./Library/stm32f4xx_adc.c ****   tmpreg &= CR1_AWDCH_RESET;
 446              		.loc 1 529 3 is_stmt 1 view .LVU139
 447              		.loc 1 529 10 is_stmt 0 view .LVU140
 448 0002 23F01F03 		bic	r3, r3, #31
 449              	.LVL32:
 530:./Library/stm32f4xx_adc.c ****   
 531:./Library/stm32f4xx_adc.c ****   /* Set the Analog watchdog channel */
ARM GAS  /var/folders/yl/_q9l42k90g1g4mdhbs226msm0000gn/T//ccC3IXiS.s 			page 18


 532:./Library/stm32f4xx_adc.c ****   tmpreg |= ADC_Channel;
 450              		.loc 1 532 3 is_stmt 1 view .LVU141
 451              		.loc 1 532 10 is_stmt 0 view .LVU142
 452 0006 1943     		orrs	r1, r1, r3
 453              	.LVL33:
 533:./Library/stm32f4xx_adc.c ****   
 534:./Library/stm32f4xx_adc.c ****   /* Store the new register value */
 535:./Library/stm32f4xx_adc.c ****   ADCx->CR1 = tmpreg;
 454              		.loc 1 535 3 is_stmt 1 view .LVU143
 455              		.loc 1 535 13 is_stmt 0 view .LVU144
 456 0008 4160     		str	r1, [r0, #4]
 536:./Library/stm32f4xx_adc.c **** }
 457              		.loc 1 536 1 view .LVU145
 458 000a 7047     		bx	lr
 459              		.cfi_endproc
 460              	.LFE131:
 462              		.section	.text.ADC_TempSensorVrefintCmd,"ax",%progbits
 463              		.align	1
 464              		.global	ADC_TempSensorVrefintCmd
 465              		.syntax unified
 466              		.thumb
 467              		.thumb_func
 469              	ADC_TempSensorVrefintCmd:
 470              	.LVL34:
 471              	.LFB132:
 537:./Library/stm32f4xx_adc.c **** /**
 538:./Library/stm32f4xx_adc.c ****   * @}
 539:./Library/stm32f4xx_adc.c ****   */
 540:./Library/stm32f4xx_adc.c **** 
 541:./Library/stm32f4xx_adc.c **** /** @defgroup ADC_Group3 Temperature Sensor, Vrefint (Voltage Reference internal) 
 542:./Library/stm32f4xx_adc.c ****  *            and VBAT (Voltage BATtery) management functions
 543:./Library/stm32f4xx_adc.c ****  *  @brief   Temperature Sensor, Vrefint and VBAT management functions 
 544:./Library/stm32f4xx_adc.c ****  *
 545:./Library/stm32f4xx_adc.c **** @verbatim   
 546:./Library/stm32f4xx_adc.c ****  ===============================================================================
 547:./Library/stm32f4xx_adc.c ****       ##### Temperature Sensor, Vrefint and VBAT management functions #####
 548:./Library/stm32f4xx_adc.c ****  ===============================================================================  
 549:./Library/stm32f4xx_adc.c ****     [..] This section provides functions allowing to enable/ disable the internal 
 550:./Library/stm32f4xx_adc.c ****          connections between the ADC and the Temperature Sensor, the Vrefint and 
 551:./Library/stm32f4xx_adc.c ****          the Vbat sources.
 552:./Library/stm32f4xx_adc.c ****      
 553:./Library/stm32f4xx_adc.c ****     [..] A typical configuration to get the Temperature sensor and Vrefint channels 
 554:./Library/stm32f4xx_adc.c ****          voltages is done following these steps :
 555:./Library/stm32f4xx_adc.c ****       (#) Enable the internal connection of Temperature sensor and Vrefint sources 
 556:./Library/stm32f4xx_adc.c ****           with the ADC channels using ADC_TempSensorVrefintCmd() function. 
 557:./Library/stm32f4xx_adc.c ****       (#) Select the ADC_Channel_TempSensor and/or ADC_Channel_Vrefint using 
 558:./Library/stm32f4xx_adc.c ****           ADC_RegularChannelConfig() or  ADC_InjectedChannelConfig() functions 
 559:./Library/stm32f4xx_adc.c ****       (#) Get the voltage values, using ADC_GetConversionValue() or  
 560:./Library/stm32f4xx_adc.c ****           ADC_GetInjectedConversionValue().
 561:./Library/stm32f4xx_adc.c **** 
 562:./Library/stm32f4xx_adc.c ****     [..] A typical configuration to get the VBAT channel voltage is done following 
 563:./Library/stm32f4xx_adc.c ****          these steps :
 564:./Library/stm32f4xx_adc.c ****       (#) Enable the internal connection of VBAT source with the ADC channel using 
 565:./Library/stm32f4xx_adc.c ****           ADC_VBATCmd() function. 
 566:./Library/stm32f4xx_adc.c ****       (#) Select the ADC_Channel_Vbat using ADC_RegularChannelConfig() or  
 567:./Library/stm32f4xx_adc.c ****           ADC_InjectedChannelConfig() functions 
 568:./Library/stm32f4xx_adc.c ****       (#) Get the voltage value, using ADC_GetConversionValue() or  
ARM GAS  /var/folders/yl/_q9l42k90g1g4mdhbs226msm0000gn/T//ccC3IXiS.s 			page 19


 569:./Library/stm32f4xx_adc.c ****           ADC_GetInjectedConversionValue().
 570:./Library/stm32f4xx_adc.c ****  
 571:./Library/stm32f4xx_adc.c **** @endverbatim
 572:./Library/stm32f4xx_adc.c ****   * @{
 573:./Library/stm32f4xx_adc.c ****   */
 574:./Library/stm32f4xx_adc.c ****   
 575:./Library/stm32f4xx_adc.c ****   
 576:./Library/stm32f4xx_adc.c **** /**
 577:./Library/stm32f4xx_adc.c ****   * @brief  Enables or disables the temperature sensor and Vrefint channels.
 578:./Library/stm32f4xx_adc.c ****   * @param  NewState: new state of the temperature sensor and Vrefint channels.
 579:./Library/stm32f4xx_adc.c ****   *          This parameter can be: ENABLE or DISABLE.
 580:./Library/stm32f4xx_adc.c ****   * @retval None
 581:./Library/stm32f4xx_adc.c ****   */
 582:./Library/stm32f4xx_adc.c **** void ADC_TempSensorVrefintCmd(FunctionalState NewState)                
 583:./Library/stm32f4xx_adc.c **** {
 472              		.loc 1 583 1 is_stmt 1 view -0
 473              		.cfi_startproc
 474              		@ args = 0, pretend = 0, frame = 0
 475              		@ frame_needed = 0, uses_anonymous_args = 0
 476              		@ link register save eliminated.
 584:./Library/stm32f4xx_adc.c ****   /* Check the parameters */
 585:./Library/stm32f4xx_adc.c ****   assert_param(IS_FUNCTIONAL_STATE(NewState));
 477              		.loc 1 585 3 view .LVU147
 586:./Library/stm32f4xx_adc.c ****   if (NewState != DISABLE)
 478              		.loc 1 586 3 view .LVU148
 479              		.loc 1 586 6 is_stmt 0 view .LVU149
 480 0000 28B1     		cbz	r0, .L20
 587:./Library/stm32f4xx_adc.c ****   {
 588:./Library/stm32f4xx_adc.c ****     /* Enable the temperature sensor and Vrefint channel*/
 589:./Library/stm32f4xx_adc.c ****     ADC->CCR |= (uint32_t)ADC_CCR_TSVREFE;
 481              		.loc 1 589 5 is_stmt 1 view .LVU150
 482              		.loc 1 589 14 is_stmt 0 view .LVU151
 483 0002 064A     		ldr	r2, .L22
 484 0004 5368     		ldr	r3, [r2, #4]
 485 0006 43F40003 		orr	r3, r3, #8388608
 486 000a 5360     		str	r3, [r2, #4]
 487 000c 7047     		bx	lr
 488              	.L20:
 590:./Library/stm32f4xx_adc.c ****   }
 591:./Library/stm32f4xx_adc.c ****   else
 592:./Library/stm32f4xx_adc.c ****   {
 593:./Library/stm32f4xx_adc.c ****     /* Disable the temperature sensor and Vrefint channel*/
 594:./Library/stm32f4xx_adc.c ****     ADC->CCR &= (uint32_t)(~ADC_CCR_TSVREFE);
 489              		.loc 1 594 5 is_stmt 1 view .LVU152
 490              		.loc 1 594 14 is_stmt 0 view .LVU153
 491 000e 034A     		ldr	r2, .L22
 492 0010 5368     		ldr	r3, [r2, #4]
 493 0012 23F40003 		bic	r3, r3, #8388608
 494 0016 5360     		str	r3, [r2, #4]
 595:./Library/stm32f4xx_adc.c ****   }
 596:./Library/stm32f4xx_adc.c **** }
 495              		.loc 1 596 1 view .LVU154
 496 0018 7047     		bx	lr
 497              	.L23:
 498 001a 00BF     		.align	2
 499              	.L22:
 500 001c 00230140 		.word	1073816320
ARM GAS  /var/folders/yl/_q9l42k90g1g4mdhbs226msm0000gn/T//ccC3IXiS.s 			page 20


 501              		.cfi_endproc
 502              	.LFE132:
 504              		.section	.text.ADC_VBATCmd,"ax",%progbits
 505              		.align	1
 506              		.global	ADC_VBATCmd
 507              		.syntax unified
 508              		.thumb
 509              		.thumb_func
 511              	ADC_VBATCmd:
 512              	.LVL35:
 513              	.LFB133:
 597:./Library/stm32f4xx_adc.c **** 
 598:./Library/stm32f4xx_adc.c **** /**
 599:./Library/stm32f4xx_adc.c ****   * @brief  Enables or disables the VBAT (Voltage Battery) channel.
 600:./Library/stm32f4xx_adc.c ****   * 
 601:./Library/stm32f4xx_adc.c ****   * @note   the Battery voltage measured is equal to VBAT/2 on STM32F40xx and 
 602:./Library/stm32f4xx_adc.c ****   *         STM32F41xx devices and equal to VBAT/4 on STM32F42xx and STM32F43xx devices 
 603:./Library/stm32f4xx_adc.c ****   *              
 604:./Library/stm32f4xx_adc.c ****   * @param  NewState: new state of the VBAT channel.
 605:./Library/stm32f4xx_adc.c ****   *          This parameter can be: ENABLE or DISABLE.
 606:./Library/stm32f4xx_adc.c ****   * @retval None
 607:./Library/stm32f4xx_adc.c ****   */
 608:./Library/stm32f4xx_adc.c **** void ADC_VBATCmd(FunctionalState NewState)                             
 609:./Library/stm32f4xx_adc.c **** {
 514              		.loc 1 609 1 is_stmt 1 view -0
 515              		.cfi_startproc
 516              		@ args = 0, pretend = 0, frame = 0
 517              		@ frame_needed = 0, uses_anonymous_args = 0
 518              		@ link register save eliminated.
 610:./Library/stm32f4xx_adc.c ****   /* Check the parameters */
 611:./Library/stm32f4xx_adc.c ****   assert_param(IS_FUNCTIONAL_STATE(NewState));
 519              		.loc 1 611 3 view .LVU156
 612:./Library/stm32f4xx_adc.c ****   if (NewState != DISABLE)
 520              		.loc 1 612 3 view .LVU157
 521              		.loc 1 612 6 is_stmt 0 view .LVU158
 522 0000 28B1     		cbz	r0, .L25
 613:./Library/stm32f4xx_adc.c ****   {
 614:./Library/stm32f4xx_adc.c ****     /* Enable the VBAT channel*/
 615:./Library/stm32f4xx_adc.c ****     ADC->CCR |= (uint32_t)ADC_CCR_VBATE;
 523              		.loc 1 615 5 is_stmt 1 view .LVU159
 524              		.loc 1 615 14 is_stmt 0 view .LVU160
 525 0002 064A     		ldr	r2, .L27
 526 0004 5368     		ldr	r3, [r2, #4]
 527 0006 43F48003 		orr	r3, r3, #4194304
 528 000a 5360     		str	r3, [r2, #4]
 529 000c 7047     		bx	lr
 530              	.L25:
 616:./Library/stm32f4xx_adc.c ****   }
 617:./Library/stm32f4xx_adc.c ****   else
 618:./Library/stm32f4xx_adc.c ****   {
 619:./Library/stm32f4xx_adc.c ****     /* Disable the VBAT channel*/
 620:./Library/stm32f4xx_adc.c ****     ADC->CCR &= (uint32_t)(~ADC_CCR_VBATE);
 531              		.loc 1 620 5 is_stmt 1 view .LVU161
 532              		.loc 1 620 14 is_stmt 0 view .LVU162
 533 000e 034A     		ldr	r2, .L27
 534 0010 5368     		ldr	r3, [r2, #4]
 535 0012 23F48003 		bic	r3, r3, #4194304
ARM GAS  /var/folders/yl/_q9l42k90g1g4mdhbs226msm0000gn/T//ccC3IXiS.s 			page 21


 536 0016 5360     		str	r3, [r2, #4]
 621:./Library/stm32f4xx_adc.c ****   }
 622:./Library/stm32f4xx_adc.c **** }
 537              		.loc 1 622 1 view .LVU163
 538 0018 7047     		bx	lr
 539              	.L28:
 540 001a 00BF     		.align	2
 541              	.L27:
 542 001c 00230140 		.word	1073816320
 543              		.cfi_endproc
 544              	.LFE133:
 546              		.section	.text.ADC_RegularChannelConfig,"ax",%progbits
 547              		.align	1
 548              		.global	ADC_RegularChannelConfig
 549              		.syntax unified
 550              		.thumb
 551              		.thumb_func
 553              	ADC_RegularChannelConfig:
 554              	.LVL36:
 555              	.LFB134:
 623:./Library/stm32f4xx_adc.c **** 
 624:./Library/stm32f4xx_adc.c **** /**
 625:./Library/stm32f4xx_adc.c ****   * @}
 626:./Library/stm32f4xx_adc.c ****   */
 627:./Library/stm32f4xx_adc.c **** 
 628:./Library/stm32f4xx_adc.c **** /** @defgroup ADC_Group4 Regular Channels Configuration functions
 629:./Library/stm32f4xx_adc.c ****  *  @brief   Regular Channels Configuration functions 
 630:./Library/stm32f4xx_adc.c ****  *
 631:./Library/stm32f4xx_adc.c **** @verbatim   
 632:./Library/stm32f4xx_adc.c ****  ===============================================================================
 633:./Library/stm32f4xx_adc.c ****              ##### Regular Channels Configuration functions #####
 634:./Library/stm32f4xx_adc.c ****  ===============================================================================  
 635:./Library/stm32f4xx_adc.c **** 
 636:./Library/stm32f4xx_adc.c ****     [..] This section provides functions allowing to manage the ADC's regular channels,
 637:./Library/stm32f4xx_adc.c ****          it is composed of 2 sub sections : 
 638:./Library/stm32f4xx_adc.c ****   
 639:./Library/stm32f4xx_adc.c ****       (#) Configuration and management functions for regular channels: This subsection 
 640:./Library/stm32f4xx_adc.c ****           provides functions allowing to configure the ADC regular channels :    
 641:./Library/stm32f4xx_adc.c ****          (++) Configure the rank in the regular group sequencer for each channel
 642:./Library/stm32f4xx_adc.c ****          (++) Configure the sampling time for each channel
 643:./Library/stm32f4xx_adc.c ****          (++) select the conversion Trigger for regular channels
 644:./Library/stm32f4xx_adc.c ****          (++) select the desired EOC event behavior configuration
 645:./Library/stm32f4xx_adc.c ****          (++) Activate the continuous Mode  (*)
 646:./Library/stm32f4xx_adc.c ****          (++) Activate the Discontinuous Mode 
 647:./Library/stm32f4xx_adc.c ****          -@@- Please Note that the following features for regular channels 
 648:./Library/stm32f4xx_adc.c ****              are configured using the ADC_Init() function : 
 649:./Library/stm32f4xx_adc.c ****            (+@@) scan mode activation 
 650:./Library/stm32f4xx_adc.c ****            (+@@) continuous mode activation (**) 
 651:./Library/stm32f4xx_adc.c ****            (+@@) External trigger source  
 652:./Library/stm32f4xx_adc.c ****            (+@@) External trigger edge 
 653:./Library/stm32f4xx_adc.c ****            (+@@) number of conversion in the regular channels group sequencer.
 654:./Library/stm32f4xx_adc.c ****      
 655:./Library/stm32f4xx_adc.c ****          -@@- (*) and (**) are performing the same configuration
 656:./Library/stm32f4xx_adc.c ****      
 657:./Library/stm32f4xx_adc.c ****       (#) Get the conversion data: This subsection provides an important function in 
 658:./Library/stm32f4xx_adc.c ****           the ADC peripheral since it returns the converted data of the current 
 659:./Library/stm32f4xx_adc.c ****           regular channel. When the Conversion value is read, the EOC Flag is 
ARM GAS  /var/folders/yl/_q9l42k90g1g4mdhbs226msm0000gn/T//ccC3IXiS.s 			page 22


 660:./Library/stm32f4xx_adc.c ****           automatically cleared.
 661:./Library/stm32f4xx_adc.c ****      
 662:./Library/stm32f4xx_adc.c ****           -@- For multi ADC mode, the last ADC1, ADC2 and ADC3 regular conversions 
 663:./Library/stm32f4xx_adc.c ****               results data (in the selected multi mode) can be returned in the same 
 664:./Library/stm32f4xx_adc.c ****               time using ADC_GetMultiModeConversionValue() function. 
 665:./Library/stm32f4xx_adc.c ****          
 666:./Library/stm32f4xx_adc.c **** @endverbatim
 667:./Library/stm32f4xx_adc.c ****   * @{
 668:./Library/stm32f4xx_adc.c ****   */
 669:./Library/stm32f4xx_adc.c **** /**
 670:./Library/stm32f4xx_adc.c ****   * @brief  Configures for the selected ADC regular channel its corresponding
 671:./Library/stm32f4xx_adc.c ****   *         rank in the sequencer and its sample time.
 672:./Library/stm32f4xx_adc.c ****   * @param  ADCx: where x can be 1, 2 or 3 to select the ADC peripheral.
 673:./Library/stm32f4xx_adc.c ****   * @param  ADC_Channel: the ADC channel to configure. 
 674:./Library/stm32f4xx_adc.c ****   *          This parameter can be one of the following values:
 675:./Library/stm32f4xx_adc.c ****   *            @arg ADC_Channel_0: ADC Channel0 selected
 676:./Library/stm32f4xx_adc.c ****   *            @arg ADC_Channel_1: ADC Channel1 selected
 677:./Library/stm32f4xx_adc.c ****   *            @arg ADC_Channel_2: ADC Channel2 selected
 678:./Library/stm32f4xx_adc.c ****   *            @arg ADC_Channel_3: ADC Channel3 selected
 679:./Library/stm32f4xx_adc.c ****   *            @arg ADC_Channel_4: ADC Channel4 selected
 680:./Library/stm32f4xx_adc.c ****   *            @arg ADC_Channel_5: ADC Channel5 selected
 681:./Library/stm32f4xx_adc.c ****   *            @arg ADC_Channel_6: ADC Channel6 selected
 682:./Library/stm32f4xx_adc.c ****   *            @arg ADC_Channel_7: ADC Channel7 selected
 683:./Library/stm32f4xx_adc.c ****   *            @arg ADC_Channel_8: ADC Channel8 selected
 684:./Library/stm32f4xx_adc.c ****   *            @arg ADC_Channel_9: ADC Channel9 selected
 685:./Library/stm32f4xx_adc.c ****   *            @arg ADC_Channel_10: ADC Channel10 selected
 686:./Library/stm32f4xx_adc.c ****   *            @arg ADC_Channel_11: ADC Channel11 selected
 687:./Library/stm32f4xx_adc.c ****   *            @arg ADC_Channel_12: ADC Channel12 selected
 688:./Library/stm32f4xx_adc.c ****   *            @arg ADC_Channel_13: ADC Channel13 selected
 689:./Library/stm32f4xx_adc.c ****   *            @arg ADC_Channel_14: ADC Channel14 selected
 690:./Library/stm32f4xx_adc.c ****   *            @arg ADC_Channel_15: ADC Channel15 selected
 691:./Library/stm32f4xx_adc.c ****   *            @arg ADC_Channel_16: ADC Channel16 selected
 692:./Library/stm32f4xx_adc.c ****   *            @arg ADC_Channel_17: ADC Channel17 selected
 693:./Library/stm32f4xx_adc.c ****   *            @arg ADC_Channel_18: ADC Channel18 selected                       
 694:./Library/stm32f4xx_adc.c ****   * @param  Rank: The rank in the regular group sequencer.
 695:./Library/stm32f4xx_adc.c ****   *          This parameter must be between 1 to 16.
 696:./Library/stm32f4xx_adc.c ****   * @param  ADC_SampleTime: The sample time value to be set for the selected channel. 
 697:./Library/stm32f4xx_adc.c ****   *          This parameter can be one of the following values:
 698:./Library/stm32f4xx_adc.c ****   *            @arg ADC_SampleTime_3Cycles: Sample time equal to 3 cycles
 699:./Library/stm32f4xx_adc.c ****   *            @arg ADC_SampleTime_15Cycles: Sample time equal to 15 cycles
 700:./Library/stm32f4xx_adc.c ****   *            @arg ADC_SampleTime_28Cycles: Sample time equal to 28 cycles
 701:./Library/stm32f4xx_adc.c ****   *            @arg ADC_SampleTime_56Cycles: Sample time equal to 56 cycles	
 702:./Library/stm32f4xx_adc.c ****   *            @arg ADC_SampleTime_84Cycles: Sample time equal to 84 cycles	
 703:./Library/stm32f4xx_adc.c ****   *            @arg ADC_SampleTime_112Cycles: Sample time equal to 112 cycles	
 704:./Library/stm32f4xx_adc.c ****   *            @arg ADC_SampleTime_144Cycles: Sample time equal to 144 cycles	
 705:./Library/stm32f4xx_adc.c ****   *            @arg ADC_SampleTime_480Cycles: Sample time equal to 480 cycles	
 706:./Library/stm32f4xx_adc.c ****   * @retval None
 707:./Library/stm32f4xx_adc.c ****   */
 708:./Library/stm32f4xx_adc.c **** void ADC_RegularChannelConfig(ADC_TypeDef* ADCx, uint8_t ADC_Channel, uint8_t Rank, uint8_t ADC_Sam
 709:./Library/stm32f4xx_adc.c **** {
 556              		.loc 1 709 1 is_stmt 1 view -0
 557              		.cfi_startproc
 558              		@ args = 0, pretend = 0, frame = 0
 559              		@ frame_needed = 0, uses_anonymous_args = 0
 560              		.loc 1 709 1 is_stmt 0 view .LVU165
 561 0000 10B5     		push	{r4, lr}
 562              	.LCFI5:
ARM GAS  /var/folders/yl/_q9l42k90g1g4mdhbs226msm0000gn/T//ccC3IXiS.s 			page 23


 563              		.cfi_def_cfa_offset 8
 564              		.cfi_offset 4, -8
 565              		.cfi_offset 14, -4
 710:./Library/stm32f4xx_adc.c ****   uint32_t tmpreg1 = 0, tmpreg2 = 0;
 566              		.loc 1 710 3 is_stmt 1 view .LVU166
 567              	.LVL37:
 711:./Library/stm32f4xx_adc.c ****   /* Check the parameters */
 712:./Library/stm32f4xx_adc.c ****   assert_param(IS_ADC_ALL_PERIPH(ADCx));
 568              		.loc 1 712 3 view .LVU167
 713:./Library/stm32f4xx_adc.c ****   assert_param(IS_ADC_CHANNEL(ADC_Channel));
 569              		.loc 1 713 3 view .LVU168
 714:./Library/stm32f4xx_adc.c ****   assert_param(IS_ADC_REGULAR_RANK(Rank));
 570              		.loc 1 714 3 view .LVU169
 715:./Library/stm32f4xx_adc.c ****   assert_param(IS_ADC_SAMPLE_TIME(ADC_SampleTime));
 571              		.loc 1 715 3 view .LVU170
 716:./Library/stm32f4xx_adc.c ****   
 717:./Library/stm32f4xx_adc.c ****   /* if ADC_Channel_10 ... ADC_Channel_18 is selected */
 718:./Library/stm32f4xx_adc.c ****   if (ADC_Channel > ADC_Channel_9)
 572              		.loc 1 718 3 view .LVU171
 573              		.loc 1 718 6 is_stmt 0 view .LVU172
 574 0002 0929     		cmp	r1, #9
 575 0004 1DD9     		bls	.L30
 719:./Library/stm32f4xx_adc.c ****   {
 720:./Library/stm32f4xx_adc.c ****     /* Get the old register value */
 721:./Library/stm32f4xx_adc.c ****     tmpreg1 = ADCx->SMPR1;
 576              		.loc 1 721 5 is_stmt 1 view .LVU173
 577              		.loc 1 721 13 is_stmt 0 view .LVU174
 578 0006 C468     		ldr	r4, [r0, #12]
 579              	.LVL38:
 722:./Library/stm32f4xx_adc.c ****     
 723:./Library/stm32f4xx_adc.c ****     /* Calculate the mask to clear */
 724:./Library/stm32f4xx_adc.c ****     tmpreg2 = SMPR1_SMP_SET << (3 * (ADC_Channel - 10));
 580              		.loc 1 724 5 is_stmt 1 view .LVU175
 581              		.loc 1 724 50 is_stmt 0 view .LVU176
 582 0008 A1F10A0C 		sub	ip, r1, #10
 583              		.loc 1 724 35 view .LVU177
 584 000c 0CEB4C0C 		add	ip, ip, ip, lsl #1
 585              		.loc 1 724 13 view .LVU178
 586 0010 4FF0070E 		mov	lr, #7
 587 0014 0EFA0CFE 		lsl	lr, lr, ip
 588              	.LVL39:
 725:./Library/stm32f4xx_adc.c ****     
 726:./Library/stm32f4xx_adc.c ****     /* Clear the old sample time */
 727:./Library/stm32f4xx_adc.c ****     tmpreg1 &= ~tmpreg2;
 589              		.loc 1 727 5 is_stmt 1 view .LVU179
 590              		.loc 1 727 13 is_stmt 0 view .LVU180
 591 0018 24EA0E04 		bic	r4, r4, lr
 592              	.LVL40:
 728:./Library/stm32f4xx_adc.c ****     
 729:./Library/stm32f4xx_adc.c ****     /* Calculate the mask to set */
 730:./Library/stm32f4xx_adc.c ****     tmpreg2 = (uint32_t)ADC_SampleTime << (3 * (ADC_Channel - 10));
 593              		.loc 1 730 5 is_stmt 1 view .LVU181
 594              		.loc 1 730 13 is_stmt 0 view .LVU182
 595 001c 03FA0CF3 		lsl	r3, r3, ip
 596              	.LVL41:
 731:./Library/stm32f4xx_adc.c ****     
 732:./Library/stm32f4xx_adc.c ****     /* Set the new sample time */
ARM GAS  /var/folders/yl/_q9l42k90g1g4mdhbs226msm0000gn/T//ccC3IXiS.s 			page 24


 733:./Library/stm32f4xx_adc.c ****     tmpreg1 |= tmpreg2;
 597              		.loc 1 733 5 is_stmt 1 view .LVU183
 598              		.loc 1 733 13 is_stmt 0 view .LVU184
 599 0020 2343     		orrs	r3, r3, r4
 600              	.LVL42:
 734:./Library/stm32f4xx_adc.c ****     
 735:./Library/stm32f4xx_adc.c ****     /* Store the new register value */
 736:./Library/stm32f4xx_adc.c ****     ADCx->SMPR1 = tmpreg1;
 601              		.loc 1 736 5 is_stmt 1 view .LVU185
 602              		.loc 1 736 17 is_stmt 0 view .LVU186
 603 0022 C360     		str	r3, [r0, #12]
 604              	.L31:
 737:./Library/stm32f4xx_adc.c ****   }
 738:./Library/stm32f4xx_adc.c ****   else /* ADC_Channel include in ADC_Channel_[0..9] */
 739:./Library/stm32f4xx_adc.c ****   {
 740:./Library/stm32f4xx_adc.c ****     /* Get the old register value */
 741:./Library/stm32f4xx_adc.c ****     tmpreg1 = ADCx->SMPR2;
 742:./Library/stm32f4xx_adc.c ****     
 743:./Library/stm32f4xx_adc.c ****     /* Calculate the mask to clear */
 744:./Library/stm32f4xx_adc.c ****     tmpreg2 = SMPR2_SMP_SET << (3 * ADC_Channel);
 745:./Library/stm32f4xx_adc.c ****     
 746:./Library/stm32f4xx_adc.c ****     /* Clear the old sample time */
 747:./Library/stm32f4xx_adc.c ****     tmpreg1 &= ~tmpreg2;
 748:./Library/stm32f4xx_adc.c ****     
 749:./Library/stm32f4xx_adc.c ****     /* Calculate the mask to set */
 750:./Library/stm32f4xx_adc.c ****     tmpreg2 = (uint32_t)ADC_SampleTime << (3 * ADC_Channel);
 751:./Library/stm32f4xx_adc.c ****     
 752:./Library/stm32f4xx_adc.c ****     /* Set the new sample time */
 753:./Library/stm32f4xx_adc.c ****     tmpreg1 |= tmpreg2;
 754:./Library/stm32f4xx_adc.c ****     
 755:./Library/stm32f4xx_adc.c ****     /* Store the new register value */
 756:./Library/stm32f4xx_adc.c ****     ADCx->SMPR2 = tmpreg1;
 757:./Library/stm32f4xx_adc.c ****   }
 758:./Library/stm32f4xx_adc.c ****   /* For Rank 1 to 6 */
 759:./Library/stm32f4xx_adc.c ****   if (Rank < 7)
 605              		.loc 1 759 3 is_stmt 1 view .LVU187
 606              		.loc 1 759 6 is_stmt 0 view .LVU188
 607 0024 062A     		cmp	r2, #6
 608 0026 1BD8     		bhi	.L32
 760:./Library/stm32f4xx_adc.c ****   {
 761:./Library/stm32f4xx_adc.c ****     /* Get the old register value */
 762:./Library/stm32f4xx_adc.c ****     tmpreg1 = ADCx->SQR3;
 609              		.loc 1 762 5 is_stmt 1 view .LVU189
 610              		.loc 1 762 13 is_stmt 0 view .LVU190
 611 0028 436B     		ldr	r3, [r0, #52]
 612              	.LVL43:
 763:./Library/stm32f4xx_adc.c ****     
 764:./Library/stm32f4xx_adc.c ****     /* Calculate the mask to clear */
 765:./Library/stm32f4xx_adc.c ****     tmpreg2 = SQR3_SQ_SET << (5 * (Rank - 1));
 613              		.loc 1 765 5 is_stmt 1 view .LVU191
 614              		.loc 1 765 41 is_stmt 0 view .LVU192
 615 002a 013A     		subs	r2, r2, #1
 616              	.LVL44:
 617              		.loc 1 765 33 view .LVU193
 618 002c 02EB8202 		add	r2, r2, r2, lsl #2
 619              		.loc 1 765 13 view .LVU194
 620 0030 1F24     		movs	r4, #31
ARM GAS  /var/folders/yl/_q9l42k90g1g4mdhbs226msm0000gn/T//ccC3IXiS.s 			page 25


 621 0032 9440     		lsls	r4, r4, r2
 622              	.LVL45:
 766:./Library/stm32f4xx_adc.c ****     
 767:./Library/stm32f4xx_adc.c ****     /* Clear the old SQx bits for the selected rank */
 768:./Library/stm32f4xx_adc.c ****     tmpreg1 &= ~tmpreg2;
 623              		.loc 1 768 5 is_stmt 1 view .LVU195
 624              		.loc 1 768 13 is_stmt 0 view .LVU196
 625 0034 23EA0403 		bic	r3, r3, r4
 626              	.LVL46:
 769:./Library/stm32f4xx_adc.c ****     
 770:./Library/stm32f4xx_adc.c ****     /* Calculate the mask to set */
 771:./Library/stm32f4xx_adc.c ****     tmpreg2 = (uint32_t)ADC_Channel << (5 * (Rank - 1));
 627              		.loc 1 771 5 is_stmt 1 view .LVU197
 628              		.loc 1 771 13 is_stmt 0 view .LVU198
 629 0038 01FA02F2 		lsl	r2, r1, r2
 630              	.LVL47:
 772:./Library/stm32f4xx_adc.c ****     
 773:./Library/stm32f4xx_adc.c ****     /* Set the SQx bits for the selected rank */
 774:./Library/stm32f4xx_adc.c ****     tmpreg1 |= tmpreg2;
 631              		.loc 1 774 5 is_stmt 1 view .LVU199
 632              		.loc 1 774 13 is_stmt 0 view .LVU200
 633 003c 1A43     		orrs	r2, r2, r3
 634              	.LVL48:
 775:./Library/stm32f4xx_adc.c ****     
 776:./Library/stm32f4xx_adc.c ****     /* Store the new register value */
 777:./Library/stm32f4xx_adc.c ****     ADCx->SQR3 = tmpreg1;
 635              		.loc 1 777 5 is_stmt 1 view .LVU201
 636              		.loc 1 777 16 is_stmt 0 view .LVU202
 637 003e 4263     		str	r2, [r0, #52]
 638              	.L29:
 778:./Library/stm32f4xx_adc.c ****   }
 779:./Library/stm32f4xx_adc.c ****   /* For Rank 7 to 12 */
 780:./Library/stm32f4xx_adc.c ****   else if (Rank < 13)
 781:./Library/stm32f4xx_adc.c ****   {
 782:./Library/stm32f4xx_adc.c ****     /* Get the old register value */
 783:./Library/stm32f4xx_adc.c ****     tmpreg1 = ADCx->SQR2;
 784:./Library/stm32f4xx_adc.c ****     
 785:./Library/stm32f4xx_adc.c ****     /* Calculate the mask to clear */
 786:./Library/stm32f4xx_adc.c ****     tmpreg2 = SQR2_SQ_SET << (5 * (Rank - 7));
 787:./Library/stm32f4xx_adc.c ****     
 788:./Library/stm32f4xx_adc.c ****     /* Clear the old SQx bits for the selected rank */
 789:./Library/stm32f4xx_adc.c ****     tmpreg1 &= ~tmpreg2;
 790:./Library/stm32f4xx_adc.c ****     
 791:./Library/stm32f4xx_adc.c ****     /* Calculate the mask to set */
 792:./Library/stm32f4xx_adc.c ****     tmpreg2 = (uint32_t)ADC_Channel << (5 * (Rank - 7));
 793:./Library/stm32f4xx_adc.c ****     
 794:./Library/stm32f4xx_adc.c ****     /* Set the SQx bits for the selected rank */
 795:./Library/stm32f4xx_adc.c ****     tmpreg1 |= tmpreg2;
 796:./Library/stm32f4xx_adc.c ****     
 797:./Library/stm32f4xx_adc.c ****     /* Store the new register value */
 798:./Library/stm32f4xx_adc.c ****     ADCx->SQR2 = tmpreg1;
 799:./Library/stm32f4xx_adc.c ****   }
 800:./Library/stm32f4xx_adc.c ****   /* For Rank 13 to 16 */
 801:./Library/stm32f4xx_adc.c ****   else
 802:./Library/stm32f4xx_adc.c ****   {
 803:./Library/stm32f4xx_adc.c ****     /* Get the old register value */
 804:./Library/stm32f4xx_adc.c ****     tmpreg1 = ADCx->SQR1;
ARM GAS  /var/folders/yl/_q9l42k90g1g4mdhbs226msm0000gn/T//ccC3IXiS.s 			page 26


 805:./Library/stm32f4xx_adc.c ****     
 806:./Library/stm32f4xx_adc.c ****     /* Calculate the mask to clear */
 807:./Library/stm32f4xx_adc.c ****     tmpreg2 = SQR1_SQ_SET << (5 * (Rank - 13));
 808:./Library/stm32f4xx_adc.c ****     
 809:./Library/stm32f4xx_adc.c ****     /* Clear the old SQx bits for the selected rank */
 810:./Library/stm32f4xx_adc.c ****     tmpreg1 &= ~tmpreg2;
 811:./Library/stm32f4xx_adc.c ****     
 812:./Library/stm32f4xx_adc.c ****     /* Calculate the mask to set */
 813:./Library/stm32f4xx_adc.c ****     tmpreg2 = (uint32_t)ADC_Channel << (5 * (Rank - 13));
 814:./Library/stm32f4xx_adc.c ****     
 815:./Library/stm32f4xx_adc.c ****     /* Set the SQx bits for the selected rank */
 816:./Library/stm32f4xx_adc.c ****     tmpreg1 |= tmpreg2;
 817:./Library/stm32f4xx_adc.c ****     
 818:./Library/stm32f4xx_adc.c ****     /* Store the new register value */
 819:./Library/stm32f4xx_adc.c ****     ADCx->SQR1 = tmpreg1;
 820:./Library/stm32f4xx_adc.c ****   }
 821:./Library/stm32f4xx_adc.c **** }
 639              		.loc 1 821 1 view .LVU203
 640 0040 10BD     		pop	{r4, pc}
 641              	.LVL49:
 642              	.L30:
 741:./Library/stm32f4xx_adc.c ****     
 643              		.loc 1 741 5 is_stmt 1 view .LVU204
 741:./Library/stm32f4xx_adc.c ****     
 644              		.loc 1 741 13 is_stmt 0 view .LVU205
 645 0042 0469     		ldr	r4, [r0, #16]
 646              	.LVL50:
 744:./Library/stm32f4xx_adc.c ****     
 647              		.loc 1 744 5 is_stmt 1 view .LVU206
 744:./Library/stm32f4xx_adc.c ****     
 648              		.loc 1 744 35 is_stmt 0 view .LVU207
 649 0044 01EB410E 		add	lr, r1, r1, lsl #1
 744:./Library/stm32f4xx_adc.c ****     
 650              		.loc 1 744 13 view .LVU208
 651 0048 4FF0070C 		mov	ip, #7
 652 004c 0CFA0EFC 		lsl	ip, ip, lr
 653              	.LVL51:
 747:./Library/stm32f4xx_adc.c ****     
 654              		.loc 1 747 5 is_stmt 1 view .LVU209
 747:./Library/stm32f4xx_adc.c ****     
 655              		.loc 1 747 13 is_stmt 0 view .LVU210
 656 0050 24EA0C0C 		bic	ip, r4, ip
 657              	.LVL52:
 750:./Library/stm32f4xx_adc.c ****     
 658              		.loc 1 750 5 is_stmt 1 view .LVU211
 750:./Library/stm32f4xx_adc.c ****     
 659              		.loc 1 750 13 is_stmt 0 view .LVU212
 660 0054 03FA0EF3 		lsl	r3, r3, lr
 661              	.LVL53:
 753:./Library/stm32f4xx_adc.c ****     
 662              		.loc 1 753 5 is_stmt 1 view .LVU213
 753:./Library/stm32f4xx_adc.c ****     
 663              		.loc 1 753 13 is_stmt 0 view .LVU214
 664 0058 4CEA0303 		orr	r3, ip, r3
 665              	.LVL54:
 756:./Library/stm32f4xx_adc.c ****   }
 666              		.loc 1 756 5 is_stmt 1 view .LVU215
ARM GAS  /var/folders/yl/_q9l42k90g1g4mdhbs226msm0000gn/T//ccC3IXiS.s 			page 27


 756:./Library/stm32f4xx_adc.c ****   }
 667              		.loc 1 756 17 is_stmt 0 view .LVU216
 668 005c 0361     		str	r3, [r0, #16]
 669 005e E1E7     		b	.L31
 670              	.L32:
 780:./Library/stm32f4xx_adc.c ****   {
 671              		.loc 1 780 8 is_stmt 1 view .LVU217
 780:./Library/stm32f4xx_adc.c ****   {
 672              		.loc 1 780 11 is_stmt 0 view .LVU218
 673 0060 0C2A     		cmp	r2, #12
 674 0062 0CD8     		bhi	.L34
 783:./Library/stm32f4xx_adc.c ****     
 675              		.loc 1 783 5 is_stmt 1 view .LVU219
 783:./Library/stm32f4xx_adc.c ****     
 676              		.loc 1 783 13 is_stmt 0 view .LVU220
 677 0064 036B     		ldr	r3, [r0, #48]
 678              	.LVL55:
 786:./Library/stm32f4xx_adc.c ****     
 679              		.loc 1 786 5 is_stmt 1 view .LVU221
 786:./Library/stm32f4xx_adc.c ****     
 680              		.loc 1 786 41 is_stmt 0 view .LVU222
 681 0066 073A     		subs	r2, r2, #7
 682              	.LVL56:
 786:./Library/stm32f4xx_adc.c ****     
 683              		.loc 1 786 33 view .LVU223
 684 0068 02EB8202 		add	r2, r2, r2, lsl #2
 786:./Library/stm32f4xx_adc.c ****     
 685              		.loc 1 786 13 view .LVU224
 686 006c 1F24     		movs	r4, #31
 687 006e 9440     		lsls	r4, r4, r2
 688              	.LVL57:
 789:./Library/stm32f4xx_adc.c ****     
 689              		.loc 1 789 5 is_stmt 1 view .LVU225
 789:./Library/stm32f4xx_adc.c ****     
 690              		.loc 1 789 13 is_stmt 0 view .LVU226
 691 0070 23EA0403 		bic	r3, r3, r4
 692              	.LVL58:
 792:./Library/stm32f4xx_adc.c ****     
 693              		.loc 1 792 5 is_stmt 1 view .LVU227
 792:./Library/stm32f4xx_adc.c ****     
 694              		.loc 1 792 13 is_stmt 0 view .LVU228
 695 0074 01FA02F2 		lsl	r2, r1, r2
 696              	.LVL59:
 795:./Library/stm32f4xx_adc.c ****     
 697              		.loc 1 795 5 is_stmt 1 view .LVU229
 795:./Library/stm32f4xx_adc.c ****     
 698              		.loc 1 795 13 is_stmt 0 view .LVU230
 699 0078 1A43     		orrs	r2, r2, r3
 700              	.LVL60:
 798:./Library/stm32f4xx_adc.c ****   }
 701              		.loc 1 798 5 is_stmt 1 view .LVU231
 798:./Library/stm32f4xx_adc.c ****   }
 702              		.loc 1 798 16 is_stmt 0 view .LVU232
 703 007a 0263     		str	r2, [r0, #48]
 704 007c E0E7     		b	.L29
 705              	.LVL61:
 706              	.L34:
ARM GAS  /var/folders/yl/_q9l42k90g1g4mdhbs226msm0000gn/T//ccC3IXiS.s 			page 28


 804:./Library/stm32f4xx_adc.c ****     
 707              		.loc 1 804 5 is_stmt 1 view .LVU233
 804:./Library/stm32f4xx_adc.c ****     
 708              		.loc 1 804 13 is_stmt 0 view .LVU234
 709 007e C36A     		ldr	r3, [r0, #44]
 710              	.LVL62:
 807:./Library/stm32f4xx_adc.c ****     
 711              		.loc 1 807 5 is_stmt 1 view .LVU235
 807:./Library/stm32f4xx_adc.c ****     
 712              		.loc 1 807 41 is_stmt 0 view .LVU236
 713 0080 0D3A     		subs	r2, r2, #13
 714              	.LVL63:
 807:./Library/stm32f4xx_adc.c ****     
 715              		.loc 1 807 33 view .LVU237
 716 0082 02EB8202 		add	r2, r2, r2, lsl #2
 807:./Library/stm32f4xx_adc.c ****     
 717              		.loc 1 807 13 view .LVU238
 718 0086 1F24     		movs	r4, #31
 719 0088 9440     		lsls	r4, r4, r2
 720              	.LVL64:
 810:./Library/stm32f4xx_adc.c ****     
 721              		.loc 1 810 5 is_stmt 1 view .LVU239
 810:./Library/stm32f4xx_adc.c ****     
 722              		.loc 1 810 13 is_stmt 0 view .LVU240
 723 008a 23EA0403 		bic	r3, r3, r4
 724              	.LVL65:
 813:./Library/stm32f4xx_adc.c ****     
 725              		.loc 1 813 5 is_stmt 1 view .LVU241
 813:./Library/stm32f4xx_adc.c ****     
 726              		.loc 1 813 13 is_stmt 0 view .LVU242
 727 008e 01FA02F2 		lsl	r2, r1, r2
 728              	.LVL66:
 816:./Library/stm32f4xx_adc.c ****     
 729              		.loc 1 816 5 is_stmt 1 view .LVU243
 816:./Library/stm32f4xx_adc.c ****     
 730              		.loc 1 816 13 is_stmt 0 view .LVU244
 731 0092 1A43     		orrs	r2, r2, r3
 732              	.LVL67:
 819:./Library/stm32f4xx_adc.c ****   }
 733              		.loc 1 819 5 is_stmt 1 view .LVU245
 819:./Library/stm32f4xx_adc.c ****   }
 734              		.loc 1 819 16 is_stmt 0 view .LVU246
 735 0094 C262     		str	r2, [r0, #44]
 736              		.loc 1 821 1 view .LVU247
 737 0096 D3E7     		b	.L29
 738              		.cfi_endproc
 739              	.LFE134:
 741              		.section	.text.ADC_SoftwareStartConv,"ax",%progbits
 742              		.align	1
 743              		.global	ADC_SoftwareStartConv
 744              		.syntax unified
 745              		.thumb
 746              		.thumb_func
 748              	ADC_SoftwareStartConv:
 749              	.LVL68:
 750              	.LFB135:
 822:./Library/stm32f4xx_adc.c **** 
ARM GAS  /var/folders/yl/_q9l42k90g1g4mdhbs226msm0000gn/T//ccC3IXiS.s 			page 29


 823:./Library/stm32f4xx_adc.c **** /**
 824:./Library/stm32f4xx_adc.c ****   * @brief  Enables the selected ADC software start conversion of the regular channels.
 825:./Library/stm32f4xx_adc.c ****   * @param  ADCx: where x can be 1, 2 or 3 to select the ADC peripheral.
 826:./Library/stm32f4xx_adc.c ****   * @retval None
 827:./Library/stm32f4xx_adc.c ****   */
 828:./Library/stm32f4xx_adc.c **** void ADC_SoftwareStartConv(ADC_TypeDef* ADCx)
 829:./Library/stm32f4xx_adc.c **** {
 751              		.loc 1 829 1 is_stmt 1 view -0
 752              		.cfi_startproc
 753              		@ args = 0, pretend = 0, frame = 0
 754              		@ frame_needed = 0, uses_anonymous_args = 0
 755              		@ link register save eliminated.
 830:./Library/stm32f4xx_adc.c ****   /* Check the parameters */
 831:./Library/stm32f4xx_adc.c ****   assert_param(IS_ADC_ALL_PERIPH(ADCx));
 756              		.loc 1 831 3 view .LVU249
 832:./Library/stm32f4xx_adc.c ****   
 833:./Library/stm32f4xx_adc.c ****   /* Enable the selected ADC conversion for regular group */
 834:./Library/stm32f4xx_adc.c ****   ADCx->CR2 |= (uint32_t)ADC_CR2_SWSTART;
 757              		.loc 1 834 3 view .LVU250
 758              		.loc 1 834 13 is_stmt 0 view .LVU251
 759 0000 8368     		ldr	r3, [r0, #8]
 760 0002 43F08043 		orr	r3, r3, #1073741824
 761 0006 8360     		str	r3, [r0, #8]
 835:./Library/stm32f4xx_adc.c **** }
 762              		.loc 1 835 1 view .LVU252
 763 0008 7047     		bx	lr
 764              		.cfi_endproc
 765              	.LFE135:
 767              		.section	.text.ADC_GetSoftwareStartConvStatus,"ax",%progbits
 768              		.align	1
 769              		.global	ADC_GetSoftwareStartConvStatus
 770              		.syntax unified
 771              		.thumb
 772              		.thumb_func
 774              	ADC_GetSoftwareStartConvStatus:
 775              	.LVL69:
 776              	.LFB136:
 836:./Library/stm32f4xx_adc.c **** 
 837:./Library/stm32f4xx_adc.c **** /**
 838:./Library/stm32f4xx_adc.c ****   * @brief  Gets the selected ADC Software start regular conversion Status.
 839:./Library/stm32f4xx_adc.c ****   * @param  ADCx: where x can be 1, 2 or 3 to select the ADC peripheral.
 840:./Library/stm32f4xx_adc.c ****   * @retval The new state of ADC software start conversion (SET or RESET).
 841:./Library/stm32f4xx_adc.c ****   */
 842:./Library/stm32f4xx_adc.c **** FlagStatus ADC_GetSoftwareStartConvStatus(ADC_TypeDef* ADCx)
 843:./Library/stm32f4xx_adc.c **** {
 777              		.loc 1 843 1 is_stmt 1 view -0
 778              		.cfi_startproc
 779              		@ args = 0, pretend = 0, frame = 0
 780              		@ frame_needed = 0, uses_anonymous_args = 0
 781              		@ link register save eliminated.
 844:./Library/stm32f4xx_adc.c ****   FlagStatus bitstatus = RESET;
 782              		.loc 1 844 3 view .LVU254
 845:./Library/stm32f4xx_adc.c ****   /* Check the parameters */
 846:./Library/stm32f4xx_adc.c ****   assert_param(IS_ADC_ALL_PERIPH(ADCx));
 783              		.loc 1 846 3 view .LVU255
 847:./Library/stm32f4xx_adc.c ****   
 848:./Library/stm32f4xx_adc.c ****   /* Check the status of SWSTART bit */
ARM GAS  /var/folders/yl/_q9l42k90g1g4mdhbs226msm0000gn/T//ccC3IXiS.s 			page 30


 849:./Library/stm32f4xx_adc.c ****   if ((ADCx->CR2 & ADC_CR2_SWSTART) != (uint32_t)RESET)
 784              		.loc 1 849 3 view .LVU256
 785              		.loc 1 849 12 is_stmt 0 view .LVU257
 786 0000 8368     		ldr	r3, [r0, #8]
 787              		.loc 1 849 6 view .LVU258
 788 0002 13F0804F 		tst	r3, #1073741824
 789 0006 01D0     		beq	.L39
 850:./Library/stm32f4xx_adc.c ****   {
 851:./Library/stm32f4xx_adc.c ****     /* SWSTART bit is set */
 852:./Library/stm32f4xx_adc.c ****     bitstatus = SET;
 790              		.loc 1 852 15 view .LVU259
 791 0008 0120     		movs	r0, #1
 792              	.LVL70:
 793              		.loc 1 852 15 view .LVU260
 794 000a 7047     		bx	lr
 795              	.LVL71:
 796              	.L39:
 853:./Library/stm32f4xx_adc.c ****   }
 854:./Library/stm32f4xx_adc.c ****   else
 855:./Library/stm32f4xx_adc.c ****   {
 856:./Library/stm32f4xx_adc.c ****     /* SWSTART bit is reset */
 857:./Library/stm32f4xx_adc.c ****     bitstatus = RESET;
 797              		.loc 1 857 15 view .LVU261
 798 000c 0020     		movs	r0, #0
 799              	.LVL72:
 858:./Library/stm32f4xx_adc.c ****   }
 859:./Library/stm32f4xx_adc.c ****   
 860:./Library/stm32f4xx_adc.c ****   /* Return the SWSTART bit status */
 861:./Library/stm32f4xx_adc.c ****   return  bitstatus;
 800              		.loc 1 861 3 is_stmt 1 view .LVU262
 862:./Library/stm32f4xx_adc.c **** }
 801              		.loc 1 862 1 is_stmt 0 view .LVU263
 802 000e 7047     		bx	lr
 803              		.cfi_endproc
 804              	.LFE136:
 806              		.section	.text.ADC_EOCOnEachRegularChannelCmd,"ax",%progbits
 807              		.align	1
 808              		.global	ADC_EOCOnEachRegularChannelCmd
 809              		.syntax unified
 810              		.thumb
 811              		.thumb_func
 813              	ADC_EOCOnEachRegularChannelCmd:
 814              	.LVL73:
 815              	.LFB137:
 863:./Library/stm32f4xx_adc.c **** 
 864:./Library/stm32f4xx_adc.c **** 
 865:./Library/stm32f4xx_adc.c **** /**
 866:./Library/stm32f4xx_adc.c ****   * @brief  Enables or disables the EOC on each regular channel conversion
 867:./Library/stm32f4xx_adc.c ****   * @param  ADCx: where x can be 1, 2 or 3 to select the ADC peripheral.
 868:./Library/stm32f4xx_adc.c ****   * @param  NewState: new state of the selected ADC EOC flag rising
 869:./Library/stm32f4xx_adc.c ****   *          This parameter can be: ENABLE or DISABLE.
 870:./Library/stm32f4xx_adc.c ****   * @retval None
 871:./Library/stm32f4xx_adc.c ****   */
 872:./Library/stm32f4xx_adc.c **** void ADC_EOCOnEachRegularChannelCmd(ADC_TypeDef* ADCx, FunctionalState NewState)
 873:./Library/stm32f4xx_adc.c **** {
 816              		.loc 1 873 1 is_stmt 1 view -0
 817              		.cfi_startproc
ARM GAS  /var/folders/yl/_q9l42k90g1g4mdhbs226msm0000gn/T//ccC3IXiS.s 			page 31


 818              		@ args = 0, pretend = 0, frame = 0
 819              		@ frame_needed = 0, uses_anonymous_args = 0
 820              		@ link register save eliminated.
 874:./Library/stm32f4xx_adc.c ****   /* Check the parameters */
 875:./Library/stm32f4xx_adc.c ****   assert_param(IS_ADC_ALL_PERIPH(ADCx));
 821              		.loc 1 875 3 view .LVU265
 876:./Library/stm32f4xx_adc.c ****   assert_param(IS_FUNCTIONAL_STATE(NewState));
 822              		.loc 1 876 3 view .LVU266
 877:./Library/stm32f4xx_adc.c ****   
 878:./Library/stm32f4xx_adc.c ****   if (NewState != DISABLE)
 823              		.loc 1 878 3 view .LVU267
 824              		.loc 1 878 6 is_stmt 0 view .LVU268
 825 0000 21B1     		cbz	r1, .L41
 879:./Library/stm32f4xx_adc.c ****   {
 880:./Library/stm32f4xx_adc.c ****     /* Enable the selected ADC EOC rising on each regular channel conversion */
 881:./Library/stm32f4xx_adc.c ****     ADCx->CR2 |= (uint32_t)ADC_CR2_EOCS;
 826              		.loc 1 881 5 is_stmt 1 view .LVU269
 827              		.loc 1 881 15 is_stmt 0 view .LVU270
 828 0002 8368     		ldr	r3, [r0, #8]
 829 0004 43F48063 		orr	r3, r3, #1024
 830 0008 8360     		str	r3, [r0, #8]
 831 000a 7047     		bx	lr
 832              	.L41:
 882:./Library/stm32f4xx_adc.c ****   }
 883:./Library/stm32f4xx_adc.c ****   else
 884:./Library/stm32f4xx_adc.c ****   {
 885:./Library/stm32f4xx_adc.c ****     /* Disable the selected ADC EOC rising on each regular channel conversion */
 886:./Library/stm32f4xx_adc.c ****     ADCx->CR2 &= (uint32_t)(~ADC_CR2_EOCS);
 833              		.loc 1 886 5 is_stmt 1 view .LVU271
 834              		.loc 1 886 15 is_stmt 0 view .LVU272
 835 000c 8368     		ldr	r3, [r0, #8]
 836 000e 23F48063 		bic	r3, r3, #1024
 837 0012 8360     		str	r3, [r0, #8]
 887:./Library/stm32f4xx_adc.c ****   }
 888:./Library/stm32f4xx_adc.c **** }
 838              		.loc 1 888 1 view .LVU273
 839 0014 7047     		bx	lr
 840              		.cfi_endproc
 841              	.LFE137:
 843              		.section	.text.ADC_ContinuousModeCmd,"ax",%progbits
 844              		.align	1
 845              		.global	ADC_ContinuousModeCmd
 846              		.syntax unified
 847              		.thumb
 848              		.thumb_func
 850              	ADC_ContinuousModeCmd:
 851              	.LVL74:
 852              	.LFB138:
 889:./Library/stm32f4xx_adc.c **** 
 890:./Library/stm32f4xx_adc.c **** /**
 891:./Library/stm32f4xx_adc.c ****   * @brief  Enables or disables the ADC continuous conversion mode 
 892:./Library/stm32f4xx_adc.c ****   * @param  ADCx: where x can be 1, 2 or 3 to select the ADC peripheral.
 893:./Library/stm32f4xx_adc.c ****   * @param  NewState: new state of the selected ADC continuous conversion mode
 894:./Library/stm32f4xx_adc.c ****   *          This parameter can be: ENABLE or DISABLE.
 895:./Library/stm32f4xx_adc.c ****   * @retval None
 896:./Library/stm32f4xx_adc.c ****   */
 897:./Library/stm32f4xx_adc.c **** void ADC_ContinuousModeCmd(ADC_TypeDef* ADCx, FunctionalState NewState)
ARM GAS  /var/folders/yl/_q9l42k90g1g4mdhbs226msm0000gn/T//ccC3IXiS.s 			page 32


 898:./Library/stm32f4xx_adc.c **** {
 853              		.loc 1 898 1 is_stmt 1 view -0
 854              		.cfi_startproc
 855              		@ args = 0, pretend = 0, frame = 0
 856              		@ frame_needed = 0, uses_anonymous_args = 0
 857              		@ link register save eliminated.
 899:./Library/stm32f4xx_adc.c ****   /* Check the parameters */
 900:./Library/stm32f4xx_adc.c ****   assert_param(IS_ADC_ALL_PERIPH(ADCx));
 858              		.loc 1 900 3 view .LVU275
 901:./Library/stm32f4xx_adc.c ****   assert_param(IS_FUNCTIONAL_STATE(NewState));
 859              		.loc 1 901 3 view .LVU276
 902:./Library/stm32f4xx_adc.c ****   
 903:./Library/stm32f4xx_adc.c ****   if (NewState != DISABLE)
 860              		.loc 1 903 3 view .LVU277
 861              		.loc 1 903 6 is_stmt 0 view .LVU278
 862 0000 21B1     		cbz	r1, .L44
 904:./Library/stm32f4xx_adc.c ****   {
 905:./Library/stm32f4xx_adc.c ****     /* Enable the selected ADC continuous conversion mode */
 906:./Library/stm32f4xx_adc.c ****     ADCx->CR2 |= (uint32_t)ADC_CR2_CONT;
 863              		.loc 1 906 5 is_stmt 1 view .LVU279
 864              		.loc 1 906 15 is_stmt 0 view .LVU280
 865 0002 8368     		ldr	r3, [r0, #8]
 866 0004 43F00203 		orr	r3, r3, #2
 867 0008 8360     		str	r3, [r0, #8]
 868 000a 7047     		bx	lr
 869              	.L44:
 907:./Library/stm32f4xx_adc.c ****   }
 908:./Library/stm32f4xx_adc.c ****   else
 909:./Library/stm32f4xx_adc.c ****   {
 910:./Library/stm32f4xx_adc.c ****     /* Disable the selected ADC continuous conversion mode */
 911:./Library/stm32f4xx_adc.c ****     ADCx->CR2 &= (uint32_t)(~ADC_CR2_CONT);
 870              		.loc 1 911 5 is_stmt 1 view .LVU281
 871              		.loc 1 911 15 is_stmt 0 view .LVU282
 872 000c 8368     		ldr	r3, [r0, #8]
 873 000e 23F00203 		bic	r3, r3, #2
 874 0012 8360     		str	r3, [r0, #8]
 912:./Library/stm32f4xx_adc.c ****   }
 913:./Library/stm32f4xx_adc.c **** }
 875              		.loc 1 913 1 view .LVU283
 876 0014 7047     		bx	lr
 877              		.cfi_endproc
 878              	.LFE138:
 880              		.section	.text.ADC_DiscModeChannelCountConfig,"ax",%progbits
 881              		.align	1
 882              		.global	ADC_DiscModeChannelCountConfig
 883              		.syntax unified
 884              		.thumb
 885              		.thumb_func
 887              	ADC_DiscModeChannelCountConfig:
 888              	.LVL75:
 889              	.LFB139:
 914:./Library/stm32f4xx_adc.c **** 
 915:./Library/stm32f4xx_adc.c **** /**
 916:./Library/stm32f4xx_adc.c ****   * @brief  Configures the discontinuous mode for the selected ADC regular group 
 917:./Library/stm32f4xx_adc.c ****   *         channel.
 918:./Library/stm32f4xx_adc.c ****   * @param  ADCx: where x can be 1, 2 or 3 to select the ADC peripheral.
 919:./Library/stm32f4xx_adc.c ****   * @param  Number: specifies the discontinuous mode regular channel count value.
ARM GAS  /var/folders/yl/_q9l42k90g1g4mdhbs226msm0000gn/T//ccC3IXiS.s 			page 33


 920:./Library/stm32f4xx_adc.c ****   *          This number must be between 1 and 8.
 921:./Library/stm32f4xx_adc.c ****   * @retval None
 922:./Library/stm32f4xx_adc.c ****   */
 923:./Library/stm32f4xx_adc.c **** void ADC_DiscModeChannelCountConfig(ADC_TypeDef* ADCx, uint8_t Number)
 924:./Library/stm32f4xx_adc.c **** {
 890              		.loc 1 924 1 is_stmt 1 view -0
 891              		.cfi_startproc
 892              		@ args = 0, pretend = 0, frame = 0
 893              		@ frame_needed = 0, uses_anonymous_args = 0
 894              		@ link register save eliminated.
 925:./Library/stm32f4xx_adc.c ****   uint32_t tmpreg1 = 0;
 895              		.loc 1 925 3 view .LVU285
 926:./Library/stm32f4xx_adc.c ****   uint32_t tmpreg2 = 0;
 896              		.loc 1 926 3 view .LVU286
 927:./Library/stm32f4xx_adc.c ****   
 928:./Library/stm32f4xx_adc.c ****   /* Check the parameters */
 929:./Library/stm32f4xx_adc.c ****   assert_param(IS_ADC_ALL_PERIPH(ADCx));
 897              		.loc 1 929 3 view .LVU287
 930:./Library/stm32f4xx_adc.c ****   assert_param(IS_ADC_REGULAR_DISC_NUMBER(Number));
 898              		.loc 1 930 3 view .LVU288
 931:./Library/stm32f4xx_adc.c ****   
 932:./Library/stm32f4xx_adc.c ****   /* Get the old register value */
 933:./Library/stm32f4xx_adc.c ****   tmpreg1 = ADCx->CR1;
 899              		.loc 1 933 3 view .LVU289
 900              		.loc 1 933 11 is_stmt 0 view .LVU290
 901 0000 4368     		ldr	r3, [r0, #4]
 902              	.LVL76:
 934:./Library/stm32f4xx_adc.c ****   
 935:./Library/stm32f4xx_adc.c ****   /* Clear the old discontinuous mode channel count */
 936:./Library/stm32f4xx_adc.c ****   tmpreg1 &= CR1_DISCNUM_RESET;
 903              		.loc 1 936 3 is_stmt 1 view .LVU291
 904              		.loc 1 936 11 is_stmt 0 view .LVU292
 905 0002 23F46043 		bic	r3, r3, #57344
 906              	.LVL77:
 937:./Library/stm32f4xx_adc.c ****   
 938:./Library/stm32f4xx_adc.c ****   /* Set the discontinuous mode channel count */
 939:./Library/stm32f4xx_adc.c ****   tmpreg2 = Number - 1;
 907              		.loc 1 939 3 is_stmt 1 view .LVU293
 908              		.loc 1 939 20 is_stmt 0 view .LVU294
 909 0006 0139     		subs	r1, r1, #1
 910              	.LVL78:
 940:./Library/stm32f4xx_adc.c ****   tmpreg1 |= tmpreg2 << 13;
 911              		.loc 1 940 3 is_stmt 1 view .LVU295
 912              		.loc 1 940 11 is_stmt 0 view .LVU296
 913 0008 43EA4133 		orr	r3, r3, r1, lsl #13
 914              	.LVL79:
 941:./Library/stm32f4xx_adc.c ****   
 942:./Library/stm32f4xx_adc.c ****   /* Store the new register value */
 943:./Library/stm32f4xx_adc.c ****   ADCx->CR1 = tmpreg1;
 915              		.loc 1 943 3 is_stmt 1 view .LVU297
 916              		.loc 1 943 13 is_stmt 0 view .LVU298
 917 000c 4360     		str	r3, [r0, #4]
 944:./Library/stm32f4xx_adc.c **** }
 918              		.loc 1 944 1 view .LVU299
 919 000e 7047     		bx	lr
 920              		.cfi_endproc
 921              	.LFE139:
ARM GAS  /var/folders/yl/_q9l42k90g1g4mdhbs226msm0000gn/T//ccC3IXiS.s 			page 34


 923              		.section	.text.ADC_DiscModeCmd,"ax",%progbits
 924              		.align	1
 925              		.global	ADC_DiscModeCmd
 926              		.syntax unified
 927              		.thumb
 928              		.thumb_func
 930              	ADC_DiscModeCmd:
 931              	.LVL80:
 932              	.LFB140:
 945:./Library/stm32f4xx_adc.c **** 
 946:./Library/stm32f4xx_adc.c **** /**
 947:./Library/stm32f4xx_adc.c ****   * @brief  Enables or disables the discontinuous mode on regular group channel 
 948:./Library/stm32f4xx_adc.c ****   *         for the specified ADC
 949:./Library/stm32f4xx_adc.c ****   * @param  ADCx: where x can be 1, 2 or 3 to select the ADC peripheral.
 950:./Library/stm32f4xx_adc.c ****   * @param  NewState: new state of the selected ADC discontinuous mode on 
 951:./Library/stm32f4xx_adc.c ****   *         regular group channel.
 952:./Library/stm32f4xx_adc.c ****   *          This parameter can be: ENABLE or DISABLE.
 953:./Library/stm32f4xx_adc.c ****   * @retval None
 954:./Library/stm32f4xx_adc.c ****   */
 955:./Library/stm32f4xx_adc.c **** void ADC_DiscModeCmd(ADC_TypeDef* ADCx, FunctionalState NewState)
 956:./Library/stm32f4xx_adc.c **** {
 933              		.loc 1 956 1 is_stmt 1 view -0
 934              		.cfi_startproc
 935              		@ args = 0, pretend = 0, frame = 0
 936              		@ frame_needed = 0, uses_anonymous_args = 0
 937              		@ link register save eliminated.
 957:./Library/stm32f4xx_adc.c ****   /* Check the parameters */
 958:./Library/stm32f4xx_adc.c ****   assert_param(IS_ADC_ALL_PERIPH(ADCx));
 938              		.loc 1 958 3 view .LVU301
 959:./Library/stm32f4xx_adc.c ****   assert_param(IS_FUNCTIONAL_STATE(NewState));
 939              		.loc 1 959 3 view .LVU302
 960:./Library/stm32f4xx_adc.c ****   
 961:./Library/stm32f4xx_adc.c ****   if (NewState != DISABLE)
 940              		.loc 1 961 3 view .LVU303
 941              		.loc 1 961 6 is_stmt 0 view .LVU304
 942 0000 21B1     		cbz	r1, .L48
 962:./Library/stm32f4xx_adc.c ****   {
 963:./Library/stm32f4xx_adc.c ****     /* Enable the selected ADC regular discontinuous mode */
 964:./Library/stm32f4xx_adc.c ****     ADCx->CR1 |= (uint32_t)ADC_CR1_DISCEN;
 943              		.loc 1 964 5 is_stmt 1 view .LVU305
 944              		.loc 1 964 15 is_stmt 0 view .LVU306
 945 0002 4368     		ldr	r3, [r0, #4]
 946 0004 43F40063 		orr	r3, r3, #2048
 947 0008 4360     		str	r3, [r0, #4]
 948 000a 7047     		bx	lr
 949              	.L48:
 965:./Library/stm32f4xx_adc.c ****   }
 966:./Library/stm32f4xx_adc.c ****   else
 967:./Library/stm32f4xx_adc.c ****   {
 968:./Library/stm32f4xx_adc.c ****     /* Disable the selected ADC regular discontinuous mode */
 969:./Library/stm32f4xx_adc.c ****     ADCx->CR1 &= (uint32_t)(~ADC_CR1_DISCEN);
 950              		.loc 1 969 5 is_stmt 1 view .LVU307
 951              		.loc 1 969 15 is_stmt 0 view .LVU308
 952 000c 4368     		ldr	r3, [r0, #4]
 953 000e 23F40063 		bic	r3, r3, #2048
 954 0012 4360     		str	r3, [r0, #4]
 970:./Library/stm32f4xx_adc.c ****   }
ARM GAS  /var/folders/yl/_q9l42k90g1g4mdhbs226msm0000gn/T//ccC3IXiS.s 			page 35


 971:./Library/stm32f4xx_adc.c **** }
 955              		.loc 1 971 1 view .LVU309
 956 0014 7047     		bx	lr
 957              		.cfi_endproc
 958              	.LFE140:
 960              		.section	.text.ADC_GetConversionValue,"ax",%progbits
 961              		.align	1
 962              		.global	ADC_GetConversionValue
 963              		.syntax unified
 964              		.thumb
 965              		.thumb_func
 967              	ADC_GetConversionValue:
 968              	.LVL81:
 969              	.LFB141:
 972:./Library/stm32f4xx_adc.c **** 
 973:./Library/stm32f4xx_adc.c **** /**
 974:./Library/stm32f4xx_adc.c ****   * @brief  Returns the last ADCx conversion result data for regular channel.
 975:./Library/stm32f4xx_adc.c ****   * @param  ADCx: where x can be 1, 2 or 3 to select the ADC peripheral.
 976:./Library/stm32f4xx_adc.c ****   * @retval The Data conversion value.
 977:./Library/stm32f4xx_adc.c ****   */
 978:./Library/stm32f4xx_adc.c **** uint16_t ADC_GetConversionValue(ADC_TypeDef* ADCx)
 979:./Library/stm32f4xx_adc.c **** {
 970              		.loc 1 979 1 is_stmt 1 view -0
 971              		.cfi_startproc
 972              		@ args = 0, pretend = 0, frame = 0
 973              		@ frame_needed = 0, uses_anonymous_args = 0
 974              		@ link register save eliminated.
 980:./Library/stm32f4xx_adc.c ****   /* Check the parameters */
 981:./Library/stm32f4xx_adc.c ****   assert_param(IS_ADC_ALL_PERIPH(ADCx));
 975              		.loc 1 981 3 view .LVU311
 982:./Library/stm32f4xx_adc.c ****   
 983:./Library/stm32f4xx_adc.c ****   /* Return the selected ADC conversion value */
 984:./Library/stm32f4xx_adc.c ****   return (uint16_t) ADCx->DR;
 976              		.loc 1 984 3 view .LVU312
 977              		.loc 1 984 25 is_stmt 0 view .LVU313
 978 0000 C06C     		ldr	r0, [r0, #76]
 979              	.LVL82:
 985:./Library/stm32f4xx_adc.c **** }
 980              		.loc 1 985 1 view .LVU314
 981 0002 80B2     		uxth	r0, r0
 982 0004 7047     		bx	lr
 983              		.cfi_endproc
 984              	.LFE141:
 986              		.section	.text.ADC_GetMultiModeConversionValue,"ax",%progbits
 987              		.align	1
 988              		.global	ADC_GetMultiModeConversionValue
 989              		.syntax unified
 990              		.thumb
 991              		.thumb_func
 993              	ADC_GetMultiModeConversionValue:
 994              	.LFB142:
 986:./Library/stm32f4xx_adc.c **** 
 987:./Library/stm32f4xx_adc.c **** /**
 988:./Library/stm32f4xx_adc.c ****   * @brief  Returns the last ADC1, ADC2 and ADC3 regular conversions results 
 989:./Library/stm32f4xx_adc.c ****   *         data in the selected multi mode.
 990:./Library/stm32f4xx_adc.c ****   * @param  None  
 991:./Library/stm32f4xx_adc.c ****   * @retval The Data conversion value.
ARM GAS  /var/folders/yl/_q9l42k90g1g4mdhbs226msm0000gn/T//ccC3IXiS.s 			page 36


 992:./Library/stm32f4xx_adc.c ****   * @note   In dual mode, the value returned by this function is as following
 993:./Library/stm32f4xx_adc.c ****   *           Data[15:0] : these bits contain the regular data of ADC1.
 994:./Library/stm32f4xx_adc.c ****   *           Data[31:16]: these bits contain the regular data of ADC2.
 995:./Library/stm32f4xx_adc.c ****   * @note   In triple mode, the value returned by this function is as following
 996:./Library/stm32f4xx_adc.c ****   *           Data[15:0] : these bits contain alternatively the regular data of ADC1, ADC3 and ADC2
 997:./Library/stm32f4xx_adc.c ****   *           Data[31:16]: these bits contain alternatively the regular data of ADC2, ADC1 and ADC3
 998:./Library/stm32f4xx_adc.c ****   */
 999:./Library/stm32f4xx_adc.c **** uint32_t ADC_GetMultiModeConversionValue(void)
1000:./Library/stm32f4xx_adc.c **** {
 995              		.loc 1 1000 1 is_stmt 1 view -0
 996              		.cfi_startproc
 997              		@ args = 0, pretend = 0, frame = 0
 998              		@ frame_needed = 0, uses_anonymous_args = 0
 999              		@ link register save eliminated.
1001:./Library/stm32f4xx_adc.c ****   /* Return the multi mode conversion value */
1002:./Library/stm32f4xx_adc.c ****   return (*(__IO uint32_t *) CDR_ADDRESS);
 1000              		.loc 1 1002 3 view .LVU316
 1001              		.loc 1 1002 11 is_stmt 0 view .LVU317
 1002 0000 014B     		ldr	r3, .L52
 1003 0002 D3F80803 		ldr	r0, [r3, #776]
1003:./Library/stm32f4xx_adc.c **** }
 1004              		.loc 1 1003 1 view .LVU318
 1005 0006 7047     		bx	lr
 1006              	.L53:
 1007              		.align	2
 1008              	.L52:
 1009 0008 00200140 		.word	1073815552
 1010              		.cfi_endproc
 1011              	.LFE142:
 1013              		.section	.text.ADC_DMACmd,"ax",%progbits
 1014              		.align	1
 1015              		.global	ADC_DMACmd
 1016              		.syntax unified
 1017              		.thumb
 1018              		.thumb_func
 1020              	ADC_DMACmd:
 1021              	.LVL83:
 1022              	.LFB143:
1004:./Library/stm32f4xx_adc.c **** /**
1005:./Library/stm32f4xx_adc.c ****   * @}
1006:./Library/stm32f4xx_adc.c ****   */
1007:./Library/stm32f4xx_adc.c **** 
1008:./Library/stm32f4xx_adc.c **** /** @defgroup ADC_Group5 Regular Channels DMA Configuration functions
1009:./Library/stm32f4xx_adc.c ****  *  @brief   Regular Channels DMA Configuration functions 
1010:./Library/stm32f4xx_adc.c ****  *
1011:./Library/stm32f4xx_adc.c **** @verbatim   
1012:./Library/stm32f4xx_adc.c ****  ===============================================================================
1013:./Library/stm32f4xx_adc.c ****             ##### Regular Channels DMA Configuration functions #####
1014:./Library/stm32f4xx_adc.c ****  ===============================================================================  
1015:./Library/stm32f4xx_adc.c ****     [..] This section provides functions allowing to configure the DMA for ADC 
1016:./Library/stm32f4xx_adc.c ****          regular channels.
1017:./Library/stm32f4xx_adc.c ****          Since converted regular channel values are stored into a unique data 
1018:./Library/stm32f4xx_adc.c ****          register, it is useful to use DMA for conversion of more than one regular 
1019:./Library/stm32f4xx_adc.c ****          channel. This avoids the loss of the data already stored in the ADC 
1020:./Library/stm32f4xx_adc.c ****          Data register.   
1021:./Library/stm32f4xx_adc.c ****          When the DMA mode is enabled (using the ADC_DMACmd() function), after each
1022:./Library/stm32f4xx_adc.c ****          conversion of a regular channel, a DMA request is generated.
ARM GAS  /var/folders/yl/_q9l42k90g1g4mdhbs226msm0000gn/T//ccC3IXiS.s 			page 37


1023:./Library/stm32f4xx_adc.c ****     [..] Depending on the "DMA disable selection for Independent ADC mode" 
1024:./Library/stm32f4xx_adc.c ****          configuration (using the ADC_DMARequestAfterLastTransferCmd() function), 
1025:./Library/stm32f4xx_adc.c ****          at the end of the last DMA transfer, two possibilities are allowed:
1026:./Library/stm32f4xx_adc.c ****       (+) No new DMA request is issued to the DMA controller (feature DISABLED) 
1027:./Library/stm32f4xx_adc.c ****       (+) Requests can continue to be generated (feature ENABLED).  
1028:./Library/stm32f4xx_adc.c ****     [..] Depending on the "DMA disable selection for multi ADC mode" configuration 
1029:./Library/stm32f4xx_adc.c ****          (using the void ADC_MultiModeDMARequestAfterLastTransferCmd() function), 
1030:./Library/stm32f4xx_adc.c ****          at the end of the last DMA transfer, two possibilities are allowed:
1031:./Library/stm32f4xx_adc.c ****         (+) No new DMA request is issued to the DMA controller (feature DISABLED) 
1032:./Library/stm32f4xx_adc.c ****         (+) Requests can continue to be generated (feature ENABLED).
1033:./Library/stm32f4xx_adc.c **** 
1034:./Library/stm32f4xx_adc.c **** @endverbatim
1035:./Library/stm32f4xx_adc.c ****   * @{
1036:./Library/stm32f4xx_adc.c ****   */
1037:./Library/stm32f4xx_adc.c ****   
1038:./Library/stm32f4xx_adc.c ****  /**
1039:./Library/stm32f4xx_adc.c ****   * @brief  Enables or disables the specified ADC DMA request.
1040:./Library/stm32f4xx_adc.c ****   * @param  ADCx: where x can be 1, 2 or 3 to select the ADC peripheral.
1041:./Library/stm32f4xx_adc.c ****   * @param  NewState: new state of the selected ADC DMA transfer.
1042:./Library/stm32f4xx_adc.c ****   *          This parameter can be: ENABLE or DISABLE.
1043:./Library/stm32f4xx_adc.c ****   * @retval None
1044:./Library/stm32f4xx_adc.c ****   */
1045:./Library/stm32f4xx_adc.c **** void ADC_DMACmd(ADC_TypeDef* ADCx, FunctionalState NewState)
1046:./Library/stm32f4xx_adc.c **** {
 1023              		.loc 1 1046 1 is_stmt 1 view -0
 1024              		.cfi_startproc
 1025              		@ args = 0, pretend = 0, frame = 0
 1026              		@ frame_needed = 0, uses_anonymous_args = 0
 1027              		@ link register save eliminated.
1047:./Library/stm32f4xx_adc.c ****   /* Check the parameters */
1048:./Library/stm32f4xx_adc.c ****   assert_param(IS_ADC_ALL_PERIPH(ADCx));
 1028              		.loc 1 1048 3 view .LVU320
1049:./Library/stm32f4xx_adc.c ****   assert_param(IS_FUNCTIONAL_STATE(NewState));
 1029              		.loc 1 1049 3 view .LVU321
1050:./Library/stm32f4xx_adc.c ****   if (NewState != DISABLE)
 1030              		.loc 1 1050 3 view .LVU322
 1031              		.loc 1 1050 6 is_stmt 0 view .LVU323
 1032 0000 21B1     		cbz	r1, .L55
1051:./Library/stm32f4xx_adc.c ****   {
1052:./Library/stm32f4xx_adc.c ****     /* Enable the selected ADC DMA request */
1053:./Library/stm32f4xx_adc.c ****     ADCx->CR2 |= (uint32_t)ADC_CR2_DMA;
 1033              		.loc 1 1053 5 is_stmt 1 view .LVU324
 1034              		.loc 1 1053 15 is_stmt 0 view .LVU325
 1035 0002 8368     		ldr	r3, [r0, #8]
 1036 0004 43F48073 		orr	r3, r3, #256
 1037 0008 8360     		str	r3, [r0, #8]
 1038 000a 7047     		bx	lr
 1039              	.L55:
1054:./Library/stm32f4xx_adc.c ****   }
1055:./Library/stm32f4xx_adc.c ****   else
1056:./Library/stm32f4xx_adc.c ****   {
1057:./Library/stm32f4xx_adc.c ****     /* Disable the selected ADC DMA request */
1058:./Library/stm32f4xx_adc.c ****     ADCx->CR2 &= (uint32_t)(~ADC_CR2_DMA);
 1040              		.loc 1 1058 5 is_stmt 1 view .LVU326
 1041              		.loc 1 1058 15 is_stmt 0 view .LVU327
 1042 000c 8368     		ldr	r3, [r0, #8]
 1043 000e 23F48073 		bic	r3, r3, #256
ARM GAS  /var/folders/yl/_q9l42k90g1g4mdhbs226msm0000gn/T//ccC3IXiS.s 			page 38


 1044 0012 8360     		str	r3, [r0, #8]
1059:./Library/stm32f4xx_adc.c ****   }
1060:./Library/stm32f4xx_adc.c **** }
 1045              		.loc 1 1060 1 view .LVU328
 1046 0014 7047     		bx	lr
 1047              		.cfi_endproc
 1048              	.LFE143:
 1050              		.section	.text.ADC_DMARequestAfterLastTransferCmd,"ax",%progbits
 1051              		.align	1
 1052              		.global	ADC_DMARequestAfterLastTransferCmd
 1053              		.syntax unified
 1054              		.thumb
 1055              		.thumb_func
 1057              	ADC_DMARequestAfterLastTransferCmd:
 1058              	.LVL84:
 1059              	.LFB144:
1061:./Library/stm32f4xx_adc.c **** 
1062:./Library/stm32f4xx_adc.c **** /**
1063:./Library/stm32f4xx_adc.c ****   * @brief  Enables or disables the ADC DMA request after last transfer (Single-ADC mode)  
1064:./Library/stm32f4xx_adc.c ****   * @param  ADCx: where x can be 1, 2 or 3 to select the ADC peripheral.
1065:./Library/stm32f4xx_adc.c ****   * @param  NewState: new state of the selected ADC DMA request after last transfer.
1066:./Library/stm32f4xx_adc.c ****   *          This parameter can be: ENABLE or DISABLE.
1067:./Library/stm32f4xx_adc.c ****   * @retval None
1068:./Library/stm32f4xx_adc.c ****   */
1069:./Library/stm32f4xx_adc.c **** void ADC_DMARequestAfterLastTransferCmd(ADC_TypeDef* ADCx, FunctionalState NewState)
1070:./Library/stm32f4xx_adc.c **** {
 1060              		.loc 1 1070 1 is_stmt 1 view -0
 1061              		.cfi_startproc
 1062              		@ args = 0, pretend = 0, frame = 0
 1063              		@ frame_needed = 0, uses_anonymous_args = 0
 1064              		@ link register save eliminated.
1071:./Library/stm32f4xx_adc.c ****   /* Check the parameters */
1072:./Library/stm32f4xx_adc.c ****   assert_param(IS_ADC_ALL_PERIPH(ADCx));
 1065              		.loc 1 1072 3 view .LVU330
1073:./Library/stm32f4xx_adc.c ****   assert_param(IS_FUNCTIONAL_STATE(NewState));
 1066              		.loc 1 1073 3 view .LVU331
1074:./Library/stm32f4xx_adc.c ****   if (NewState != DISABLE)
 1067              		.loc 1 1074 3 view .LVU332
 1068              		.loc 1 1074 6 is_stmt 0 view .LVU333
 1069 0000 21B1     		cbz	r1, .L58
1075:./Library/stm32f4xx_adc.c ****   {
1076:./Library/stm32f4xx_adc.c ****     /* Enable the selected ADC DMA request after last transfer */
1077:./Library/stm32f4xx_adc.c ****     ADCx->CR2 |= (uint32_t)ADC_CR2_DDS;
 1070              		.loc 1 1077 5 is_stmt 1 view .LVU334
 1071              		.loc 1 1077 15 is_stmt 0 view .LVU335
 1072 0002 8368     		ldr	r3, [r0, #8]
 1073 0004 43F40073 		orr	r3, r3, #512
 1074 0008 8360     		str	r3, [r0, #8]
 1075 000a 7047     		bx	lr
 1076              	.L58:
1078:./Library/stm32f4xx_adc.c ****   }
1079:./Library/stm32f4xx_adc.c ****   else
1080:./Library/stm32f4xx_adc.c ****   {
1081:./Library/stm32f4xx_adc.c ****     /* Disable the selected ADC DMA request after last transfer */
1082:./Library/stm32f4xx_adc.c ****     ADCx->CR2 &= (uint32_t)(~ADC_CR2_DDS);
 1077              		.loc 1 1082 5 is_stmt 1 view .LVU336
 1078              		.loc 1 1082 15 is_stmt 0 view .LVU337
ARM GAS  /var/folders/yl/_q9l42k90g1g4mdhbs226msm0000gn/T//ccC3IXiS.s 			page 39


 1079 000c 8368     		ldr	r3, [r0, #8]
 1080 000e 23F40073 		bic	r3, r3, #512
 1081 0012 8360     		str	r3, [r0, #8]
1083:./Library/stm32f4xx_adc.c ****   }
1084:./Library/stm32f4xx_adc.c **** }
 1082              		.loc 1 1084 1 view .LVU338
 1083 0014 7047     		bx	lr
 1084              		.cfi_endproc
 1085              	.LFE144:
 1087              		.section	.text.ADC_MultiModeDMARequestAfterLastTransferCmd,"ax",%progbits
 1088              		.align	1
 1089              		.global	ADC_MultiModeDMARequestAfterLastTransferCmd
 1090              		.syntax unified
 1091              		.thumb
 1092              		.thumb_func
 1094              	ADC_MultiModeDMARequestAfterLastTransferCmd:
 1095              	.LVL85:
 1096              	.LFB145:
1085:./Library/stm32f4xx_adc.c **** 
1086:./Library/stm32f4xx_adc.c **** /**
1087:./Library/stm32f4xx_adc.c ****   * @brief  Enables or disables the ADC DMA request after last transfer in multi ADC mode       
1088:./Library/stm32f4xx_adc.c ****   * @param  NewState: new state of the selected ADC DMA request after last transfer.
1089:./Library/stm32f4xx_adc.c ****   *          This parameter can be: ENABLE or DISABLE.
1090:./Library/stm32f4xx_adc.c ****   * @note   if Enabled, DMA requests are issued as long as data are converted and 
1091:./Library/stm32f4xx_adc.c ****   *         DMA mode for multi ADC mode (selected using ADC_CommonInit() function 
1092:./Library/stm32f4xx_adc.c ****   *         by ADC_CommonInitStruct.ADC_DMAAccessMode structure member) is 
1093:./Library/stm32f4xx_adc.c ****   *          ADC_DMAAccessMode_1, ADC_DMAAccessMode_2 or ADC_DMAAccessMode_3.     
1094:./Library/stm32f4xx_adc.c ****   * @retval None
1095:./Library/stm32f4xx_adc.c ****   */
1096:./Library/stm32f4xx_adc.c **** void ADC_MultiModeDMARequestAfterLastTransferCmd(FunctionalState NewState)
1097:./Library/stm32f4xx_adc.c **** {
 1097              		.loc 1 1097 1 is_stmt 1 view -0
 1098              		.cfi_startproc
 1099              		@ args = 0, pretend = 0, frame = 0
 1100              		@ frame_needed = 0, uses_anonymous_args = 0
 1101              		@ link register save eliminated.
1098:./Library/stm32f4xx_adc.c ****   /* Check the parameters */
1099:./Library/stm32f4xx_adc.c ****   assert_param(IS_FUNCTIONAL_STATE(NewState));
 1102              		.loc 1 1099 3 view .LVU340
1100:./Library/stm32f4xx_adc.c ****   if (NewState != DISABLE)
 1103              		.loc 1 1100 3 view .LVU341
 1104              		.loc 1 1100 6 is_stmt 0 view .LVU342
 1105 0000 28B1     		cbz	r0, .L61
1101:./Library/stm32f4xx_adc.c ****   {
1102:./Library/stm32f4xx_adc.c ****     /* Enable the selected ADC DMA request after last transfer */
1103:./Library/stm32f4xx_adc.c ****     ADC->CCR |= (uint32_t)ADC_CCR_DDS;
 1106              		.loc 1 1103 5 is_stmt 1 view .LVU343
 1107              		.loc 1 1103 14 is_stmt 0 view .LVU344
 1108 0002 064A     		ldr	r2, .L63
 1109 0004 5368     		ldr	r3, [r2, #4]
 1110 0006 43F40053 		orr	r3, r3, #8192
 1111 000a 5360     		str	r3, [r2, #4]
 1112 000c 7047     		bx	lr
 1113              	.L61:
1104:./Library/stm32f4xx_adc.c ****   }
1105:./Library/stm32f4xx_adc.c ****   else
1106:./Library/stm32f4xx_adc.c ****   {
ARM GAS  /var/folders/yl/_q9l42k90g1g4mdhbs226msm0000gn/T//ccC3IXiS.s 			page 40


1107:./Library/stm32f4xx_adc.c ****     /* Disable the selected ADC DMA request after last transfer */
1108:./Library/stm32f4xx_adc.c ****     ADC->CCR &= (uint32_t)(~ADC_CCR_DDS);
 1114              		.loc 1 1108 5 is_stmt 1 view .LVU345
 1115              		.loc 1 1108 14 is_stmt 0 view .LVU346
 1116 000e 034A     		ldr	r2, .L63
 1117 0010 5368     		ldr	r3, [r2, #4]
 1118 0012 23F40053 		bic	r3, r3, #8192
 1119 0016 5360     		str	r3, [r2, #4]
1109:./Library/stm32f4xx_adc.c ****   }
1110:./Library/stm32f4xx_adc.c **** }
 1120              		.loc 1 1110 1 view .LVU347
 1121 0018 7047     		bx	lr
 1122              	.L64:
 1123 001a 00BF     		.align	2
 1124              	.L63:
 1125 001c 00230140 		.word	1073816320
 1126              		.cfi_endproc
 1127              	.LFE145:
 1129              		.section	.text.ADC_InjectedChannelConfig,"ax",%progbits
 1130              		.align	1
 1131              		.global	ADC_InjectedChannelConfig
 1132              		.syntax unified
 1133              		.thumb
 1134              		.thumb_func
 1136              	ADC_InjectedChannelConfig:
 1137              	.LVL86:
 1138              	.LFB146:
1111:./Library/stm32f4xx_adc.c **** /**
1112:./Library/stm32f4xx_adc.c ****   * @}
1113:./Library/stm32f4xx_adc.c ****   */
1114:./Library/stm32f4xx_adc.c **** 
1115:./Library/stm32f4xx_adc.c **** /** @defgroup ADC_Group6 Injected channels Configuration functions
1116:./Library/stm32f4xx_adc.c ****  *  @brief   Injected channels Configuration functions 
1117:./Library/stm32f4xx_adc.c ****  *
1118:./Library/stm32f4xx_adc.c **** @verbatim   
1119:./Library/stm32f4xx_adc.c ****  ===============================================================================
1120:./Library/stm32f4xx_adc.c ****               ##### Injected channels Configuration functions #####
1121:./Library/stm32f4xx_adc.c ****  ===============================================================================  
1122:./Library/stm32f4xx_adc.c **** 
1123:./Library/stm32f4xx_adc.c ****     [..] This section provide functions allowing to configure the ADC Injected channels,
1124:./Library/stm32f4xx_adc.c ****          it is composed of 2 sub sections : 
1125:./Library/stm32f4xx_adc.c ****     
1126:./Library/stm32f4xx_adc.c ****       (#) Configuration functions for Injected channels: This subsection provides 
1127:./Library/stm32f4xx_adc.c ****           functions allowing to configure the ADC injected channels :    
1128:./Library/stm32f4xx_adc.c ****         (++) Configure the rank in the injected group sequencer for each channel
1129:./Library/stm32f4xx_adc.c ****         (++) Configure the sampling time for each channel    
1130:./Library/stm32f4xx_adc.c ****         (++) Activate the Auto injected Mode  
1131:./Library/stm32f4xx_adc.c ****         (++) Activate the Discontinuous Mode 
1132:./Library/stm32f4xx_adc.c ****         (++) scan mode activation  
1133:./Library/stm32f4xx_adc.c ****         (++) External/software trigger source   
1134:./Library/stm32f4xx_adc.c ****         (++) External trigger edge 
1135:./Library/stm32f4xx_adc.c ****         (++) injected channels sequencer.
1136:./Library/stm32f4xx_adc.c ****     
1137:./Library/stm32f4xx_adc.c ****       (#) Get the Specified Injected channel conversion data: This subsection 
1138:./Library/stm32f4xx_adc.c ****           provides an important function in the ADC peripheral since it returns the 
1139:./Library/stm32f4xx_adc.c ****           converted data of the specific injected channel.
1140:./Library/stm32f4xx_adc.c **** 
ARM GAS  /var/folders/yl/_q9l42k90g1g4mdhbs226msm0000gn/T//ccC3IXiS.s 			page 41


1141:./Library/stm32f4xx_adc.c **** @endverbatim
1142:./Library/stm32f4xx_adc.c ****   * @{
1143:./Library/stm32f4xx_adc.c ****   */ 
1144:./Library/stm32f4xx_adc.c **** /**
1145:./Library/stm32f4xx_adc.c ****   * @brief  Configures for the selected ADC injected channel its corresponding
1146:./Library/stm32f4xx_adc.c ****   *         rank in the sequencer and its sample time.
1147:./Library/stm32f4xx_adc.c ****   * @param  ADCx: where x can be 1, 2 or 3 to select the ADC peripheral.
1148:./Library/stm32f4xx_adc.c ****   * @param  ADC_Channel: the ADC channel to configure. 
1149:./Library/stm32f4xx_adc.c ****   *          This parameter can be one of the following values:
1150:./Library/stm32f4xx_adc.c ****   *            @arg ADC_Channel_0: ADC Channel0 selected
1151:./Library/stm32f4xx_adc.c ****   *            @arg ADC_Channel_1: ADC Channel1 selected
1152:./Library/stm32f4xx_adc.c ****   *            @arg ADC_Channel_2: ADC Channel2 selected
1153:./Library/stm32f4xx_adc.c ****   *            @arg ADC_Channel_3: ADC Channel3 selected
1154:./Library/stm32f4xx_adc.c ****   *            @arg ADC_Channel_4: ADC Channel4 selected
1155:./Library/stm32f4xx_adc.c ****   *            @arg ADC_Channel_5: ADC Channel5 selected
1156:./Library/stm32f4xx_adc.c ****   *            @arg ADC_Channel_6: ADC Channel6 selected
1157:./Library/stm32f4xx_adc.c ****   *            @arg ADC_Channel_7: ADC Channel7 selected
1158:./Library/stm32f4xx_adc.c ****   *            @arg ADC_Channel_8: ADC Channel8 selected
1159:./Library/stm32f4xx_adc.c ****   *            @arg ADC_Channel_9: ADC Channel9 selected
1160:./Library/stm32f4xx_adc.c ****   *            @arg ADC_Channel_10: ADC Channel10 selected
1161:./Library/stm32f4xx_adc.c ****   *            @arg ADC_Channel_11: ADC Channel11 selected
1162:./Library/stm32f4xx_adc.c ****   *            @arg ADC_Channel_12: ADC Channel12 selected
1163:./Library/stm32f4xx_adc.c ****   *            @arg ADC_Channel_13: ADC Channel13 selected
1164:./Library/stm32f4xx_adc.c ****   *            @arg ADC_Channel_14: ADC Channel14 selected
1165:./Library/stm32f4xx_adc.c ****   *            @arg ADC_Channel_15: ADC Channel15 selected
1166:./Library/stm32f4xx_adc.c ****   *            @arg ADC_Channel_16: ADC Channel16 selected
1167:./Library/stm32f4xx_adc.c ****   *            @arg ADC_Channel_17: ADC Channel17 selected
1168:./Library/stm32f4xx_adc.c ****   *            @arg ADC_Channel_18: ADC Channel18 selected                       
1169:./Library/stm32f4xx_adc.c ****   * @param  Rank: The rank in the injected group sequencer. 
1170:./Library/stm32f4xx_adc.c ****   *          This parameter must be between 1 to 4.
1171:./Library/stm32f4xx_adc.c ****   * @param  ADC_SampleTime: The sample time value to be set for the selected channel. 
1172:./Library/stm32f4xx_adc.c ****   *          This parameter can be one of the following values:
1173:./Library/stm32f4xx_adc.c ****   *            @arg ADC_SampleTime_3Cycles: Sample time equal to 3 cycles
1174:./Library/stm32f4xx_adc.c ****   *            @arg ADC_SampleTime_15Cycles: Sample time equal to 15 cycles
1175:./Library/stm32f4xx_adc.c ****   *            @arg ADC_SampleTime_28Cycles: Sample time equal to 28 cycles
1176:./Library/stm32f4xx_adc.c ****   *            @arg ADC_SampleTime_56Cycles: Sample time equal to 56 cycles	
1177:./Library/stm32f4xx_adc.c ****   *            @arg ADC_SampleTime_84Cycles: Sample time equal to 84 cycles	
1178:./Library/stm32f4xx_adc.c ****   *            @arg ADC_SampleTime_112Cycles: Sample time equal to 112 cycles	
1179:./Library/stm32f4xx_adc.c ****   *            @arg ADC_SampleTime_144Cycles: Sample time equal to 144 cycles	
1180:./Library/stm32f4xx_adc.c ****   *            @arg ADC_SampleTime_480Cycles: Sample time equal to 480 cycles	
1181:./Library/stm32f4xx_adc.c ****   * @retval None
1182:./Library/stm32f4xx_adc.c ****   */
1183:./Library/stm32f4xx_adc.c **** void ADC_InjectedChannelConfig(ADC_TypeDef* ADCx, uint8_t ADC_Channel, uint8_t Rank, uint8_t ADC_Sa
1184:./Library/stm32f4xx_adc.c **** {
 1139              		.loc 1 1184 1 is_stmt 1 view -0
 1140              		.cfi_startproc
 1141              		@ args = 0, pretend = 0, frame = 0
 1142              		@ frame_needed = 0, uses_anonymous_args = 0
 1143              		@ link register save eliminated.
 1144              		.loc 1 1184 1 is_stmt 0 view .LVU349
 1145 0000 30B4     		push	{r4, r5}
 1146              	.LCFI6:
 1147              		.cfi_def_cfa_offset 8
 1148              		.cfi_offset 4, -8
 1149              		.cfi_offset 5, -4
1185:./Library/stm32f4xx_adc.c ****   uint32_t tmpreg1 = 0, tmpreg2 = 0, tmpreg3 = 0;
 1150              		.loc 1 1185 3 is_stmt 1 view .LVU350
ARM GAS  /var/folders/yl/_q9l42k90g1g4mdhbs226msm0000gn/T//ccC3IXiS.s 			page 42


 1151              	.LVL87:
1186:./Library/stm32f4xx_adc.c ****   /* Check the parameters */
1187:./Library/stm32f4xx_adc.c ****   assert_param(IS_ADC_ALL_PERIPH(ADCx));
 1152              		.loc 1 1187 3 view .LVU351
1188:./Library/stm32f4xx_adc.c ****   assert_param(IS_ADC_CHANNEL(ADC_Channel));
 1153              		.loc 1 1188 3 view .LVU352
1189:./Library/stm32f4xx_adc.c ****   assert_param(IS_ADC_INJECTED_RANK(Rank));
 1154              		.loc 1 1189 3 view .LVU353
1190:./Library/stm32f4xx_adc.c ****   assert_param(IS_ADC_SAMPLE_TIME(ADC_SampleTime));
 1155              		.loc 1 1190 3 view .LVU354
1191:./Library/stm32f4xx_adc.c ****   /* if ADC_Channel_10 ... ADC_Channel_18 is selected */
1192:./Library/stm32f4xx_adc.c ****   if (ADC_Channel > ADC_Channel_9)
 1156              		.loc 1 1192 3 view .LVU355
 1157              		.loc 1 1192 6 is_stmt 0 view .LVU356
 1158 0002 0929     		cmp	r1, #9
 1159 0004 20D9     		bls	.L66
1193:./Library/stm32f4xx_adc.c ****   {
1194:./Library/stm32f4xx_adc.c ****     /* Get the old register value */
1195:./Library/stm32f4xx_adc.c ****     tmpreg1 = ADCx->SMPR1;
 1160              		.loc 1 1195 5 is_stmt 1 view .LVU357
 1161              		.loc 1 1195 13 is_stmt 0 view .LVU358
 1162 0006 C568     		ldr	r5, [r0, #12]
 1163              	.LVL88:
1196:./Library/stm32f4xx_adc.c ****     /* Calculate the mask to clear */
1197:./Library/stm32f4xx_adc.c ****     tmpreg2 = SMPR1_SMP_SET << (3*(ADC_Channel - 10));
 1164              		.loc 1 1197 5 is_stmt 1 view .LVU359
 1165              		.loc 1 1197 48 is_stmt 0 view .LVU360
 1166 0008 A1F10A04 		sub	r4, r1, #10
 1167              		.loc 1 1197 34 view .LVU361
 1168 000c 04EB4404 		add	r4, r4, r4, lsl #1
 1169              		.loc 1 1197 13 view .LVU362
 1170 0010 4FF0070C 		mov	ip, #7
 1171 0014 0CFA04FC 		lsl	ip, ip, r4
 1172              	.LVL89:
1198:./Library/stm32f4xx_adc.c ****     /* Clear the old sample time */
1199:./Library/stm32f4xx_adc.c ****     tmpreg1 &= ~tmpreg2;
 1173              		.loc 1 1199 5 is_stmt 1 view .LVU363
 1174              		.loc 1 1199 13 is_stmt 0 view .LVU364
 1175 0018 25EA0C0C 		bic	ip, r5, ip
 1176              	.LVL90:
1200:./Library/stm32f4xx_adc.c ****     /* Calculate the mask to set */
1201:./Library/stm32f4xx_adc.c ****     tmpreg2 = (uint32_t)ADC_SampleTime << (3*(ADC_Channel - 10));
 1177              		.loc 1 1201 5 is_stmt 1 view .LVU365
 1178              		.loc 1 1201 13 is_stmt 0 view .LVU366
 1179 001c A340     		lsls	r3, r3, r4
 1180              	.LVL91:
1202:./Library/stm32f4xx_adc.c ****     /* Set the new sample time */
1203:./Library/stm32f4xx_adc.c ****     tmpreg1 |= tmpreg2;
 1181              		.loc 1 1203 5 is_stmt 1 view .LVU367
 1182              		.loc 1 1203 13 is_stmt 0 view .LVU368
 1183 001e 4CEA0303 		orr	r3, ip, r3
 1184              	.LVL92:
1204:./Library/stm32f4xx_adc.c ****     /* Store the new register value */
1205:./Library/stm32f4xx_adc.c ****     ADCx->SMPR1 = tmpreg1;
 1185              		.loc 1 1205 5 is_stmt 1 view .LVU369
 1186              		.loc 1 1205 17 is_stmt 0 view .LVU370
 1187 0022 C360     		str	r3, [r0, #12]
ARM GAS  /var/folders/yl/_q9l42k90g1g4mdhbs226msm0000gn/T//ccC3IXiS.s 			page 43


 1188              	.L67:
1206:./Library/stm32f4xx_adc.c ****   }
1207:./Library/stm32f4xx_adc.c ****   else /* ADC_Channel include in ADC_Channel_[0..9] */
1208:./Library/stm32f4xx_adc.c ****   {
1209:./Library/stm32f4xx_adc.c ****     /* Get the old register value */
1210:./Library/stm32f4xx_adc.c ****     tmpreg1 = ADCx->SMPR2;
1211:./Library/stm32f4xx_adc.c ****     /* Calculate the mask to clear */
1212:./Library/stm32f4xx_adc.c ****     tmpreg2 = SMPR2_SMP_SET << (3 * ADC_Channel);
1213:./Library/stm32f4xx_adc.c ****     /* Clear the old sample time */
1214:./Library/stm32f4xx_adc.c ****     tmpreg1 &= ~tmpreg2;
1215:./Library/stm32f4xx_adc.c ****     /* Calculate the mask to set */
1216:./Library/stm32f4xx_adc.c ****     tmpreg2 = (uint32_t)ADC_SampleTime << (3 * ADC_Channel);
1217:./Library/stm32f4xx_adc.c ****     /* Set the new sample time */
1218:./Library/stm32f4xx_adc.c ****     tmpreg1 |= tmpreg2;
1219:./Library/stm32f4xx_adc.c ****     /* Store the new register value */
1220:./Library/stm32f4xx_adc.c ****     ADCx->SMPR2 = tmpreg1;
1221:./Library/stm32f4xx_adc.c ****   }
1222:./Library/stm32f4xx_adc.c ****   /* Rank configuration */
1223:./Library/stm32f4xx_adc.c ****   /* Get the old register value */
1224:./Library/stm32f4xx_adc.c ****   tmpreg1 = ADCx->JSQR;
 1189              		.loc 1 1224 3 is_stmt 1 view .LVU371
 1190              		.loc 1 1224 11 is_stmt 0 view .LVU372
 1191 0024 846B     		ldr	r4, [r0, #56]
 1192              	.LVL93:
1225:./Library/stm32f4xx_adc.c ****   /* Get JL value: Number = JL+1 */
1226:./Library/stm32f4xx_adc.c ****   tmpreg3 =  (tmpreg1 & JSQR_JL_SET)>> 20;
 1193              		.loc 1 1226 3 is_stmt 1 view .LVU373
 1194              		.loc 1 1226 11 is_stmt 0 view .LVU374
 1195 0026 C4F30153 		ubfx	r3, r4, #20, #2
 1196              	.LVL94:
1227:./Library/stm32f4xx_adc.c ****   /* Calculate the mask to clear: ((Rank-1)+(4-JL-1)) */
1228:./Library/stm32f4xx_adc.c ****   tmpreg2 = JSQR_JSQ_SET << (5 * (uint8_t)((Rank + 3) - (tmpreg3 + 1)));
 1197              		.loc 1 1228 3 is_stmt 1 view .LVU375
 1198              		.loc 1 1228 55 is_stmt 0 view .LVU376
 1199 002a D31A     		subs	r3, r2, r3
 1200              	.LVL95:
 1201              		.loc 1 1228 55 view .LVU377
 1202 002c DBB2     		uxtb	r3, r3
 1203              		.loc 1 1228 34 view .LVU378
 1204 002e 0233     		adds	r3, r3, #2
 1205 0030 DBB2     		uxtb	r3, r3
 1206              		.loc 1 1228 32 view .LVU379
 1207 0032 03EB8303 		add	r3, r3, r3, lsl #2
 1208              		.loc 1 1228 11 view .LVU380
 1209 0036 1F22     		movs	r2, #31
 1210              	.LVL96:
 1211              		.loc 1 1228 11 view .LVU381
 1212 0038 9A40     		lsls	r2, r2, r3
 1213              	.LVL97:
1229:./Library/stm32f4xx_adc.c ****   /* Clear the old JSQx bits for the selected rank */
1230:./Library/stm32f4xx_adc.c ****   tmpreg1 &= ~tmpreg2;
 1214              		.loc 1 1230 3 is_stmt 1 view .LVU382
 1215              		.loc 1 1230 11 is_stmt 0 view .LVU383
 1216 003a 24EA0204 		bic	r4, r4, r2
 1217              	.LVL98:
1231:./Library/stm32f4xx_adc.c ****   /* Calculate the mask to set: ((Rank-1)+(4-JL-1)) */
1232:./Library/stm32f4xx_adc.c ****   tmpreg2 = (uint32_t)ADC_Channel << (5 * (uint8_t)((Rank + 3) - (tmpreg3 + 1)));
ARM GAS  /var/folders/yl/_q9l42k90g1g4mdhbs226msm0000gn/T//ccC3IXiS.s 			page 44


 1218              		.loc 1 1232 3 is_stmt 1 view .LVU384
 1219              		.loc 1 1232 11 is_stmt 0 view .LVU385
 1220 003e 9940     		lsls	r1, r1, r3
 1221              	.LVL99:
1233:./Library/stm32f4xx_adc.c ****   /* Set the JSQx bits for the selected rank */
1234:./Library/stm32f4xx_adc.c ****   tmpreg1 |= tmpreg2;
 1222              		.loc 1 1234 3 is_stmt 1 view .LVU386
 1223              		.loc 1 1234 11 is_stmt 0 view .LVU387
 1224 0040 2143     		orrs	r1, r1, r4
 1225              	.LVL100:
1235:./Library/stm32f4xx_adc.c ****   /* Store the new register value */
1236:./Library/stm32f4xx_adc.c ****   ADCx->JSQR = tmpreg1;
 1226              		.loc 1 1236 3 is_stmt 1 view .LVU388
 1227              		.loc 1 1236 14 is_stmt 0 view .LVU389
 1228 0042 8163     		str	r1, [r0, #56]
1237:./Library/stm32f4xx_adc.c **** }
 1229              		.loc 1 1237 1 view .LVU390
 1230 0044 30BC     		pop	{r4, r5}
 1231              	.LCFI7:
 1232              		.cfi_remember_state
 1233              		.cfi_restore 5
 1234              		.cfi_restore 4
 1235              		.cfi_def_cfa_offset 0
 1236 0046 7047     		bx	lr
 1237              	.LVL101:
 1238              	.L66:
 1239              	.LCFI8:
 1240              		.cfi_restore_state
1210:./Library/stm32f4xx_adc.c ****     /* Calculate the mask to clear */
 1241              		.loc 1 1210 5 is_stmt 1 view .LVU391
1210:./Library/stm32f4xx_adc.c ****     /* Calculate the mask to clear */
 1242              		.loc 1 1210 13 is_stmt 0 view .LVU392
 1243 0048 0469     		ldr	r4, [r0, #16]
 1244              	.LVL102:
1212:./Library/stm32f4xx_adc.c ****     /* Clear the old sample time */
 1245              		.loc 1 1212 5 is_stmt 1 view .LVU393
1212:./Library/stm32f4xx_adc.c ****     /* Clear the old sample time */
 1246              		.loc 1 1212 35 is_stmt 0 view .LVU394
 1247 004a 01EB410C 		add	ip, r1, r1, lsl #1
1212:./Library/stm32f4xx_adc.c ****     /* Clear the old sample time */
 1248              		.loc 1 1212 13 view .LVU395
 1249 004e 0725     		movs	r5, #7
 1250 0050 05FA0CF5 		lsl	r5, r5, ip
 1251              	.LVL103:
1214:./Library/stm32f4xx_adc.c ****     /* Calculate the mask to set */
 1252              		.loc 1 1214 5 is_stmt 1 view .LVU396
1214:./Library/stm32f4xx_adc.c ****     /* Calculate the mask to set */
 1253              		.loc 1 1214 13 is_stmt 0 view .LVU397
 1254 0054 24EA0504 		bic	r4, r4, r5
 1255              	.LVL104:
1216:./Library/stm32f4xx_adc.c ****     /* Set the new sample time */
 1256              		.loc 1 1216 5 is_stmt 1 view .LVU398
1216:./Library/stm32f4xx_adc.c ****     /* Set the new sample time */
 1257              		.loc 1 1216 13 is_stmt 0 view .LVU399
 1258 0058 03FA0CF3 		lsl	r3, r3, ip
 1259              	.LVL105:
1218:./Library/stm32f4xx_adc.c ****     /* Store the new register value */
ARM GAS  /var/folders/yl/_q9l42k90g1g4mdhbs226msm0000gn/T//ccC3IXiS.s 			page 45


 1260              		.loc 1 1218 5 is_stmt 1 view .LVU400
1218:./Library/stm32f4xx_adc.c ****     /* Store the new register value */
 1261              		.loc 1 1218 13 is_stmt 0 view .LVU401
 1262 005c 2343     		orrs	r3, r3, r4
 1263              	.LVL106:
1220:./Library/stm32f4xx_adc.c ****   }
 1264              		.loc 1 1220 5 is_stmt 1 view .LVU402
1220:./Library/stm32f4xx_adc.c ****   }
 1265              		.loc 1 1220 17 is_stmt 0 view .LVU403
 1266 005e 0361     		str	r3, [r0, #16]
 1267 0060 E0E7     		b	.L67
 1268              		.cfi_endproc
 1269              	.LFE146:
 1271              		.section	.text.ADC_InjectedSequencerLengthConfig,"ax",%progbits
 1272              		.align	1
 1273              		.global	ADC_InjectedSequencerLengthConfig
 1274              		.syntax unified
 1275              		.thumb
 1276              		.thumb_func
 1278              	ADC_InjectedSequencerLengthConfig:
 1279              	.LVL107:
 1280              	.LFB147:
1238:./Library/stm32f4xx_adc.c **** 
1239:./Library/stm32f4xx_adc.c **** /**
1240:./Library/stm32f4xx_adc.c ****   * @brief  Configures the sequencer length for injected channels
1241:./Library/stm32f4xx_adc.c ****   * @param  ADCx: where x can be 1, 2 or 3 to select the ADC peripheral.
1242:./Library/stm32f4xx_adc.c ****   * @param  Length: The sequencer length. 
1243:./Library/stm32f4xx_adc.c ****   *          This parameter must be a number between 1 to 4.
1244:./Library/stm32f4xx_adc.c ****   * @retval None
1245:./Library/stm32f4xx_adc.c ****   */
1246:./Library/stm32f4xx_adc.c **** void ADC_InjectedSequencerLengthConfig(ADC_TypeDef* ADCx, uint8_t Length)
1247:./Library/stm32f4xx_adc.c **** {
 1281              		.loc 1 1247 1 is_stmt 1 view -0
 1282              		.cfi_startproc
 1283              		@ args = 0, pretend = 0, frame = 0
 1284              		@ frame_needed = 0, uses_anonymous_args = 0
 1285              		@ link register save eliminated.
1248:./Library/stm32f4xx_adc.c ****   uint32_t tmpreg1 = 0;
 1286              		.loc 1 1248 3 view .LVU405
1249:./Library/stm32f4xx_adc.c ****   uint32_t tmpreg2 = 0;
 1287              		.loc 1 1249 3 view .LVU406
1250:./Library/stm32f4xx_adc.c ****   /* Check the parameters */
1251:./Library/stm32f4xx_adc.c ****   assert_param(IS_ADC_ALL_PERIPH(ADCx));
 1288              		.loc 1 1251 3 view .LVU407
1252:./Library/stm32f4xx_adc.c ****   assert_param(IS_ADC_INJECTED_LENGTH(Length));
 1289              		.loc 1 1252 3 view .LVU408
1253:./Library/stm32f4xx_adc.c ****   
1254:./Library/stm32f4xx_adc.c ****   /* Get the old register value */
1255:./Library/stm32f4xx_adc.c ****   tmpreg1 = ADCx->JSQR;
 1290              		.loc 1 1255 3 view .LVU409
 1291              		.loc 1 1255 11 is_stmt 0 view .LVU410
 1292 0000 836B     		ldr	r3, [r0, #56]
 1293              	.LVL108:
1256:./Library/stm32f4xx_adc.c ****   
1257:./Library/stm32f4xx_adc.c ****   /* Clear the old injected sequence length JL bits */
1258:./Library/stm32f4xx_adc.c ****   tmpreg1 &= JSQR_JL_RESET;
 1294              		.loc 1 1258 3 is_stmt 1 view .LVU411
ARM GAS  /var/folders/yl/_q9l42k90g1g4mdhbs226msm0000gn/T//ccC3IXiS.s 			page 46


 1295              		.loc 1 1258 11 is_stmt 0 view .LVU412
 1296 0002 23F44013 		bic	r3, r3, #3145728
 1297              	.LVL109:
1259:./Library/stm32f4xx_adc.c ****   
1260:./Library/stm32f4xx_adc.c ****   /* Set the injected sequence length JL bits */
1261:./Library/stm32f4xx_adc.c ****   tmpreg2 = Length - 1; 
 1298              		.loc 1 1261 3 is_stmt 1 view .LVU413
 1299              		.loc 1 1261 20 is_stmt 0 view .LVU414
 1300 0006 0139     		subs	r1, r1, #1
 1301              	.LVL110:
1262:./Library/stm32f4xx_adc.c ****   tmpreg1 |= tmpreg2 << 20;
 1302              		.loc 1 1262 3 is_stmt 1 view .LVU415
 1303              		.loc 1 1262 11 is_stmt 0 view .LVU416
 1304 0008 43EA0153 		orr	r3, r3, r1, lsl #20
 1305              	.LVL111:
1263:./Library/stm32f4xx_adc.c ****   
1264:./Library/stm32f4xx_adc.c ****   /* Store the new register value */
1265:./Library/stm32f4xx_adc.c ****   ADCx->JSQR = tmpreg1;
 1306              		.loc 1 1265 3 is_stmt 1 view .LVU417
 1307              		.loc 1 1265 14 is_stmt 0 view .LVU418
 1308 000c 8363     		str	r3, [r0, #56]
1266:./Library/stm32f4xx_adc.c **** }
 1309              		.loc 1 1266 1 view .LVU419
 1310 000e 7047     		bx	lr
 1311              		.cfi_endproc
 1312              	.LFE147:
 1314              		.section	.text.ADC_SetInjectedOffset,"ax",%progbits
 1315              		.align	1
 1316              		.global	ADC_SetInjectedOffset
 1317              		.syntax unified
 1318              		.thumb
 1319              		.thumb_func
 1321              	ADC_SetInjectedOffset:
 1322              	.LVL112:
 1323              	.LFB148:
1267:./Library/stm32f4xx_adc.c **** 
1268:./Library/stm32f4xx_adc.c **** /**
1269:./Library/stm32f4xx_adc.c ****   * @brief  Set the injected channels conversion value offset
1270:./Library/stm32f4xx_adc.c ****   * @param  ADCx: where x can be 1, 2 or 3 to select the ADC peripheral.
1271:./Library/stm32f4xx_adc.c ****   * @param  ADC_InjectedChannel: the ADC injected channel to set its offset. 
1272:./Library/stm32f4xx_adc.c ****   *          This parameter can be one of the following values:
1273:./Library/stm32f4xx_adc.c ****   *            @arg ADC_InjectedChannel_1: Injected Channel1 selected
1274:./Library/stm32f4xx_adc.c ****   *            @arg ADC_InjectedChannel_2: Injected Channel2 selected
1275:./Library/stm32f4xx_adc.c ****   *            @arg ADC_InjectedChannel_3: Injected Channel3 selected
1276:./Library/stm32f4xx_adc.c ****   *            @arg ADC_InjectedChannel_4: Injected Channel4 selected
1277:./Library/stm32f4xx_adc.c ****   * @param  Offset: the offset value for the selected ADC injected channel
1278:./Library/stm32f4xx_adc.c ****   *          This parameter must be a 12bit value.
1279:./Library/stm32f4xx_adc.c ****   * @retval None
1280:./Library/stm32f4xx_adc.c ****   */
1281:./Library/stm32f4xx_adc.c **** void ADC_SetInjectedOffset(ADC_TypeDef* ADCx, uint8_t ADC_InjectedChannel, uint16_t Offset)
1282:./Library/stm32f4xx_adc.c **** {
 1324              		.loc 1 1282 1 is_stmt 1 view -0
 1325              		.cfi_startproc
 1326              		@ args = 0, pretend = 0, frame = 8
 1327              		@ frame_needed = 0, uses_anonymous_args = 0
 1328              		@ link register save eliminated.
 1329              		.loc 1 1282 1 is_stmt 0 view .LVU421
ARM GAS  /var/folders/yl/_q9l42k90g1g4mdhbs226msm0000gn/T//ccC3IXiS.s 			page 47


 1330 0000 82B0     		sub	sp, sp, #8
 1331              	.LCFI9:
 1332              		.cfi_def_cfa_offset 8
1283:./Library/stm32f4xx_adc.c ****     __IO uint32_t tmp = 0;
 1333              		.loc 1 1283 5 is_stmt 1 view .LVU422
 1334              		.loc 1 1283 19 is_stmt 0 view .LVU423
 1335 0002 0023     		movs	r3, #0
 1336 0004 0193     		str	r3, [sp, #4]
1284:./Library/stm32f4xx_adc.c ****   /* Check the parameters */
1285:./Library/stm32f4xx_adc.c ****   assert_param(IS_ADC_ALL_PERIPH(ADCx));
 1337              		.loc 1 1285 3 is_stmt 1 view .LVU424
1286:./Library/stm32f4xx_adc.c ****   assert_param(IS_ADC_INJECTED_CHANNEL(ADC_InjectedChannel));
 1338              		.loc 1 1286 3 view .LVU425
1287:./Library/stm32f4xx_adc.c ****   assert_param(IS_ADC_OFFSET(Offset));
 1339              		.loc 1 1287 3 view .LVU426
1288:./Library/stm32f4xx_adc.c ****   
1289:./Library/stm32f4xx_adc.c ****   tmp = (uint32_t)ADCx;
 1340              		.loc 1 1289 3 view .LVU427
 1341              		.loc 1 1289 7 is_stmt 0 view .LVU428
 1342 0006 0190     		str	r0, [sp, #4]
1290:./Library/stm32f4xx_adc.c ****   tmp += ADC_InjectedChannel;
 1343              		.loc 1 1290 3 is_stmt 1 view .LVU429
 1344              		.loc 1 1290 7 is_stmt 0 view .LVU430
 1345 0008 019B     		ldr	r3, [sp, #4]
 1346 000a 1944     		add	r1, r1, r3
 1347              	.LVL113:
 1348              		.loc 1 1290 7 view .LVU431
 1349 000c 0191     		str	r1, [sp, #4]
1291:./Library/stm32f4xx_adc.c ****   
1292:./Library/stm32f4xx_adc.c ****   /* Set the selected injected channel data offset */
1293:./Library/stm32f4xx_adc.c ****  *(__IO uint32_t *) tmp = (uint32_t)Offset;
 1350              		.loc 1 1293 2 is_stmt 1 view .LVU432
 1351              		.loc 1 1293 3 is_stmt 0 view .LVU433
 1352 000e 019B     		ldr	r3, [sp, #4]
 1353              		.loc 1 1293 25 view .LVU434
 1354 0010 1A60     		str	r2, [r3]
1294:./Library/stm32f4xx_adc.c **** }
 1355              		.loc 1 1294 1 view .LVU435
 1356 0012 02B0     		add	sp, sp, #8
 1357              	.LCFI10:
 1358              		.cfi_def_cfa_offset 0
 1359              		@ sp needed
 1360 0014 7047     		bx	lr
 1361              		.cfi_endproc
 1362              	.LFE148:
 1364              		.section	.text.ADC_ExternalTrigInjectedConvConfig,"ax",%progbits
 1365              		.align	1
 1366              		.global	ADC_ExternalTrigInjectedConvConfig
 1367              		.syntax unified
 1368              		.thumb
 1369              		.thumb_func
 1371              	ADC_ExternalTrigInjectedConvConfig:
 1372              	.LVL114:
 1373              	.LFB149:
1295:./Library/stm32f4xx_adc.c **** 
1296:./Library/stm32f4xx_adc.c ****  /**
1297:./Library/stm32f4xx_adc.c ****   * @brief  Configures the ADCx external trigger for injected channels conversion.
ARM GAS  /var/folders/yl/_q9l42k90g1g4mdhbs226msm0000gn/T//ccC3IXiS.s 			page 48


1298:./Library/stm32f4xx_adc.c ****   * @param  ADCx: where x can be 1, 2 or 3 to select the ADC peripheral.
1299:./Library/stm32f4xx_adc.c ****   * @param  ADC_ExternalTrigInjecConv: specifies the ADC trigger to start injected conversion.
1300:./Library/stm32f4xx_adc.c ****   *          This parameter can be one of the following values:                    
1301:./Library/stm32f4xx_adc.c ****   *            @arg ADC_ExternalTrigInjecConv_T1_CC4: Timer1 capture compare4 selected 
1302:./Library/stm32f4xx_adc.c ****   *            @arg ADC_ExternalTrigInjecConv_T1_TRGO: Timer1 TRGO event selected 
1303:./Library/stm32f4xx_adc.c ****   *            @arg ADC_ExternalTrigInjecConv_T2_CC1: Timer2 capture compare1 selected 
1304:./Library/stm32f4xx_adc.c ****   *            @arg ADC_ExternalTrigInjecConv_T2_TRGO: Timer2 TRGO event selected 
1305:./Library/stm32f4xx_adc.c ****   *            @arg ADC_ExternalTrigInjecConv_T3_CC2: Timer3 capture compare2 selected 
1306:./Library/stm32f4xx_adc.c ****   *            @arg ADC_ExternalTrigInjecConv_T3_CC4: Timer3 capture compare4 selected 
1307:./Library/stm32f4xx_adc.c ****   *            @arg ADC_ExternalTrigInjecConv_T4_CC1: Timer4 capture compare1 selected             
1308:./Library/stm32f4xx_adc.c ****   *            @arg ADC_ExternalTrigInjecConv_T4_CC2: Timer4 capture compare2 selected 
1309:./Library/stm32f4xx_adc.c ****   *            @arg ADC_ExternalTrigInjecConv_T4_CC3: Timer4 capture compare3 selected             
1310:./Library/stm32f4xx_adc.c ****   *            @arg ADC_ExternalTrigInjecConv_T4_TRGO: Timer4 TRGO event selected 
1311:./Library/stm32f4xx_adc.c ****   *            @arg ADC_ExternalTrigInjecConv_T5_CC4: Timer5 capture compare4 selected             
1312:./Library/stm32f4xx_adc.c ****   *            @arg ADC_ExternalTrigInjecConv_T5_TRGO: Timer5 TRGO event selected                  
1313:./Library/stm32f4xx_adc.c ****   *            @arg ADC_ExternalTrigInjecConv_T8_CC2: Timer8 capture compare2 selected
1314:./Library/stm32f4xx_adc.c ****   *            @arg ADC_ExternalTrigInjecConv_T8_CC3: Timer8 capture compare3 selected             
1315:./Library/stm32f4xx_adc.c ****   *            @arg ADC_ExternalTrigInjecConv_T8_CC4: Timer8 capture compare4 selected 
1316:./Library/stm32f4xx_adc.c ****   *            @arg ADC_ExternalTrigInjecConv_Ext_IT15: External interrupt line 15 event selected  
1317:./Library/stm32f4xx_adc.c ****   * @retval None
1318:./Library/stm32f4xx_adc.c ****   */
1319:./Library/stm32f4xx_adc.c **** void ADC_ExternalTrigInjectedConvConfig(ADC_TypeDef* ADCx, uint32_t ADC_ExternalTrigInjecConv)
1320:./Library/stm32f4xx_adc.c **** {
 1374              		.loc 1 1320 1 is_stmt 1 view -0
 1375              		.cfi_startproc
 1376              		@ args = 0, pretend = 0, frame = 0
 1377              		@ frame_needed = 0, uses_anonymous_args = 0
 1378              		@ link register save eliminated.
1321:./Library/stm32f4xx_adc.c ****   uint32_t tmpreg = 0;
 1379              		.loc 1 1321 3 view .LVU437
1322:./Library/stm32f4xx_adc.c ****   /* Check the parameters */
1323:./Library/stm32f4xx_adc.c ****   assert_param(IS_ADC_ALL_PERIPH(ADCx));
 1380              		.loc 1 1323 3 view .LVU438
1324:./Library/stm32f4xx_adc.c ****   assert_param(IS_ADC_EXT_INJEC_TRIG(ADC_ExternalTrigInjecConv));
 1381              		.loc 1 1324 3 view .LVU439
1325:./Library/stm32f4xx_adc.c ****   
1326:./Library/stm32f4xx_adc.c ****   /* Get the old register value */
1327:./Library/stm32f4xx_adc.c ****   tmpreg = ADCx->CR2;
 1382              		.loc 1 1327 3 view .LVU440
 1383              		.loc 1 1327 10 is_stmt 0 view .LVU441
 1384 0000 8368     		ldr	r3, [r0, #8]
 1385              	.LVL115:
1328:./Library/stm32f4xx_adc.c ****   
1329:./Library/stm32f4xx_adc.c ****   /* Clear the old external event selection for injected group */
1330:./Library/stm32f4xx_adc.c ****   tmpreg &= CR2_JEXTSEL_RESET;
 1386              		.loc 1 1330 3 is_stmt 1 view .LVU442
 1387              		.loc 1 1330 10 is_stmt 0 view .LVU443
 1388 0002 23F47023 		bic	r3, r3, #983040
 1389              	.LVL116:
1331:./Library/stm32f4xx_adc.c ****   
1332:./Library/stm32f4xx_adc.c ****   /* Set the external event selection for injected group */
1333:./Library/stm32f4xx_adc.c ****   tmpreg |= ADC_ExternalTrigInjecConv;
 1390              		.loc 1 1333 3 is_stmt 1 view .LVU444
 1391              		.loc 1 1333 10 is_stmt 0 view .LVU445
 1392 0006 0B43     		orrs	r3, r3, r1
 1393              	.LVL117:
1334:./Library/stm32f4xx_adc.c ****   
ARM GAS  /var/folders/yl/_q9l42k90g1g4mdhbs226msm0000gn/T//ccC3IXiS.s 			page 49


1335:./Library/stm32f4xx_adc.c ****   /* Store the new register value */
1336:./Library/stm32f4xx_adc.c ****   ADCx->CR2 = tmpreg;
 1394              		.loc 1 1336 3 is_stmt 1 view .LVU446
 1395              		.loc 1 1336 13 is_stmt 0 view .LVU447
 1396 0008 8360     		str	r3, [r0, #8]
1337:./Library/stm32f4xx_adc.c **** }
 1397              		.loc 1 1337 1 view .LVU448
 1398 000a 7047     		bx	lr
 1399              		.cfi_endproc
 1400              	.LFE149:
 1402              		.section	.text.ADC_ExternalTrigInjectedConvEdgeConfig,"ax",%progbits
 1403              		.align	1
 1404              		.global	ADC_ExternalTrigInjectedConvEdgeConfig
 1405              		.syntax unified
 1406              		.thumb
 1407              		.thumb_func
 1409              	ADC_ExternalTrigInjectedConvEdgeConfig:
 1410              	.LVL118:
 1411              	.LFB150:
1338:./Library/stm32f4xx_adc.c **** 
1339:./Library/stm32f4xx_adc.c **** /**
1340:./Library/stm32f4xx_adc.c ****   * @brief  Configures the ADCx external trigger edge for injected channels conversion.
1341:./Library/stm32f4xx_adc.c ****   * @param  ADCx: where x can be 1, 2 or 3 to select the ADC peripheral.
1342:./Library/stm32f4xx_adc.c ****   * @param  ADC_ExternalTrigInjecConvEdge: specifies the ADC external trigger edge
1343:./Library/stm32f4xx_adc.c ****   *         to start injected conversion. 
1344:./Library/stm32f4xx_adc.c ****   *          This parameter can be one of the following values:
1345:./Library/stm32f4xx_adc.c ****   *            @arg ADC_ExternalTrigInjecConvEdge_None: external trigger disabled for 
1346:./Library/stm32f4xx_adc.c ****   *                                                     injected conversion
1347:./Library/stm32f4xx_adc.c ****   *            @arg ADC_ExternalTrigInjecConvEdge_Rising: detection on rising edge
1348:./Library/stm32f4xx_adc.c ****   *            @arg ADC_ExternalTrigInjecConvEdge_Falling: detection on falling edge
1349:./Library/stm32f4xx_adc.c ****   *            @arg ADC_ExternalTrigInjecConvEdge_RisingFalling: detection on both rising 
1350:./Library/stm32f4xx_adc.c ****   *                                                               and falling edge
1351:./Library/stm32f4xx_adc.c ****   * @retval None
1352:./Library/stm32f4xx_adc.c ****   */
1353:./Library/stm32f4xx_adc.c **** void ADC_ExternalTrigInjectedConvEdgeConfig(ADC_TypeDef* ADCx, uint32_t ADC_ExternalTrigInjecConvEd
1354:./Library/stm32f4xx_adc.c **** {
 1412              		.loc 1 1354 1 is_stmt 1 view -0
 1413              		.cfi_startproc
 1414              		@ args = 0, pretend = 0, frame = 0
 1415              		@ frame_needed = 0, uses_anonymous_args = 0
 1416              		@ link register save eliminated.
1355:./Library/stm32f4xx_adc.c ****   uint32_t tmpreg = 0;
 1417              		.loc 1 1355 3 view .LVU450
1356:./Library/stm32f4xx_adc.c ****   /* Check the parameters */
1357:./Library/stm32f4xx_adc.c ****   assert_param(IS_ADC_ALL_PERIPH(ADCx));
 1418              		.loc 1 1357 3 view .LVU451
1358:./Library/stm32f4xx_adc.c ****   assert_param(IS_ADC_EXT_INJEC_TRIG_EDGE(ADC_ExternalTrigInjecConvEdge));
 1419              		.loc 1 1358 3 view .LVU452
1359:./Library/stm32f4xx_adc.c ****   /* Get the old register value */
1360:./Library/stm32f4xx_adc.c ****   tmpreg = ADCx->CR2;
 1420              		.loc 1 1360 3 view .LVU453
 1421              		.loc 1 1360 10 is_stmt 0 view .LVU454
 1422 0000 8368     		ldr	r3, [r0, #8]
 1423              	.LVL119:
1361:./Library/stm32f4xx_adc.c ****   /* Clear the old external trigger edge for injected group */
1362:./Library/stm32f4xx_adc.c ****   tmpreg &= CR2_JEXTEN_RESET;
 1424              		.loc 1 1362 3 is_stmt 1 view .LVU455
ARM GAS  /var/folders/yl/_q9l42k90g1g4mdhbs226msm0000gn/T//ccC3IXiS.s 			page 50


 1425              		.loc 1 1362 10 is_stmt 0 view .LVU456
 1426 0002 23F44013 		bic	r3, r3, #3145728
 1427              	.LVL120:
1363:./Library/stm32f4xx_adc.c ****   /* Set the new external trigger edge for injected group */
1364:./Library/stm32f4xx_adc.c ****   tmpreg |= ADC_ExternalTrigInjecConvEdge;
 1428              		.loc 1 1364 3 is_stmt 1 view .LVU457
 1429              		.loc 1 1364 10 is_stmt 0 view .LVU458
 1430 0006 0B43     		orrs	r3, r3, r1
 1431              	.LVL121:
1365:./Library/stm32f4xx_adc.c ****   /* Store the new register value */
1366:./Library/stm32f4xx_adc.c ****   ADCx->CR2 = tmpreg;
 1432              		.loc 1 1366 3 is_stmt 1 view .LVU459
 1433              		.loc 1 1366 13 is_stmt 0 view .LVU460
 1434 0008 8360     		str	r3, [r0, #8]
1367:./Library/stm32f4xx_adc.c **** }
 1435              		.loc 1 1367 1 view .LVU461
 1436 000a 7047     		bx	lr
 1437              		.cfi_endproc
 1438              	.LFE150:
 1440              		.section	.text.ADC_SoftwareStartInjectedConv,"ax",%progbits
 1441              		.align	1
 1442              		.global	ADC_SoftwareStartInjectedConv
 1443              		.syntax unified
 1444              		.thumb
 1445              		.thumb_func
 1447              	ADC_SoftwareStartInjectedConv:
 1448              	.LVL122:
 1449              	.LFB151:
1368:./Library/stm32f4xx_adc.c **** 
1369:./Library/stm32f4xx_adc.c **** /**
1370:./Library/stm32f4xx_adc.c ****   * @brief  Enables the selected ADC software start conversion of the injected channels.
1371:./Library/stm32f4xx_adc.c ****   * @param  ADCx: where x can be 1, 2 or 3 to select the ADC peripheral.
1372:./Library/stm32f4xx_adc.c ****   * @retval None
1373:./Library/stm32f4xx_adc.c ****   */
1374:./Library/stm32f4xx_adc.c **** void ADC_SoftwareStartInjectedConv(ADC_TypeDef* ADCx)
1375:./Library/stm32f4xx_adc.c **** {
 1450              		.loc 1 1375 1 is_stmt 1 view -0
 1451              		.cfi_startproc
 1452              		@ args = 0, pretend = 0, frame = 0
 1453              		@ frame_needed = 0, uses_anonymous_args = 0
 1454              		@ link register save eliminated.
1376:./Library/stm32f4xx_adc.c ****   /* Check the parameters */
1377:./Library/stm32f4xx_adc.c ****   assert_param(IS_ADC_ALL_PERIPH(ADCx));
 1455              		.loc 1 1377 3 view .LVU463
1378:./Library/stm32f4xx_adc.c ****   /* Enable the selected ADC conversion for injected group */
1379:./Library/stm32f4xx_adc.c ****   ADCx->CR2 |= (uint32_t)ADC_CR2_JSWSTART;
 1456              		.loc 1 1379 3 view .LVU464
 1457              		.loc 1 1379 13 is_stmt 0 view .LVU465
 1458 0000 8368     		ldr	r3, [r0, #8]
 1459 0002 43F48003 		orr	r3, r3, #4194304
 1460 0006 8360     		str	r3, [r0, #8]
1380:./Library/stm32f4xx_adc.c **** }
 1461              		.loc 1 1380 1 view .LVU466
 1462 0008 7047     		bx	lr
 1463              		.cfi_endproc
 1464              	.LFE151:
 1466              		.section	.text.ADC_GetSoftwareStartInjectedConvCmdStatus,"ax",%progbits
ARM GAS  /var/folders/yl/_q9l42k90g1g4mdhbs226msm0000gn/T//ccC3IXiS.s 			page 51


 1467              		.align	1
 1468              		.global	ADC_GetSoftwareStartInjectedConvCmdStatus
 1469              		.syntax unified
 1470              		.thumb
 1471              		.thumb_func
 1473              	ADC_GetSoftwareStartInjectedConvCmdStatus:
 1474              	.LVL123:
 1475              	.LFB152:
1381:./Library/stm32f4xx_adc.c **** 
1382:./Library/stm32f4xx_adc.c **** /**
1383:./Library/stm32f4xx_adc.c ****   * @brief  Gets the selected ADC Software start injected conversion Status.
1384:./Library/stm32f4xx_adc.c ****   * @param  ADCx: where x can be 1, 2 or 3 to select the ADC peripheral.
1385:./Library/stm32f4xx_adc.c ****   * @retval The new state of ADC software start injected conversion (SET or RESET).
1386:./Library/stm32f4xx_adc.c ****   */
1387:./Library/stm32f4xx_adc.c **** FlagStatus ADC_GetSoftwareStartInjectedConvCmdStatus(ADC_TypeDef* ADCx)
1388:./Library/stm32f4xx_adc.c **** {
 1476              		.loc 1 1388 1 is_stmt 1 view -0
 1477              		.cfi_startproc
 1478              		@ args = 0, pretend = 0, frame = 0
 1479              		@ frame_needed = 0, uses_anonymous_args = 0
 1480              		@ link register save eliminated.
1389:./Library/stm32f4xx_adc.c ****   FlagStatus bitstatus = RESET;
 1481              		.loc 1 1389 3 view .LVU468
1390:./Library/stm32f4xx_adc.c ****   /* Check the parameters */
1391:./Library/stm32f4xx_adc.c ****   assert_param(IS_ADC_ALL_PERIPH(ADCx));
 1482              		.loc 1 1391 3 view .LVU469
1392:./Library/stm32f4xx_adc.c ****   
1393:./Library/stm32f4xx_adc.c ****   /* Check the status of JSWSTART bit */
1394:./Library/stm32f4xx_adc.c ****   if ((ADCx->CR2 & ADC_CR2_JSWSTART) != (uint32_t)RESET)
 1483              		.loc 1 1394 3 view .LVU470
 1484              		.loc 1 1394 12 is_stmt 0 view .LVU471
 1485 0000 8368     		ldr	r3, [r0, #8]
 1486              		.loc 1 1394 6 view .LVU472
 1487 0002 13F4800F 		tst	r3, #4194304
 1488 0006 01D0     		beq	.L77
1395:./Library/stm32f4xx_adc.c ****   {
1396:./Library/stm32f4xx_adc.c ****     /* JSWSTART bit is set */
1397:./Library/stm32f4xx_adc.c ****     bitstatus = SET;
 1489              		.loc 1 1397 15 view .LVU473
 1490 0008 0120     		movs	r0, #1
 1491              	.LVL124:
 1492              		.loc 1 1397 15 view .LVU474
 1493 000a 7047     		bx	lr
 1494              	.LVL125:
 1495              	.L77:
1398:./Library/stm32f4xx_adc.c ****   }
1399:./Library/stm32f4xx_adc.c ****   else
1400:./Library/stm32f4xx_adc.c ****   {
1401:./Library/stm32f4xx_adc.c ****     /* JSWSTART bit is reset */
1402:./Library/stm32f4xx_adc.c ****     bitstatus = RESET;
 1496              		.loc 1 1402 15 view .LVU475
 1497 000c 0020     		movs	r0, #0
 1498              	.LVL126:
1403:./Library/stm32f4xx_adc.c ****   }
1404:./Library/stm32f4xx_adc.c ****   /* Return the JSWSTART bit status */
1405:./Library/stm32f4xx_adc.c ****   return  bitstatus;
 1499              		.loc 1 1405 3 is_stmt 1 view .LVU476
ARM GAS  /var/folders/yl/_q9l42k90g1g4mdhbs226msm0000gn/T//ccC3IXiS.s 			page 52


1406:./Library/stm32f4xx_adc.c **** }
 1500              		.loc 1 1406 1 is_stmt 0 view .LVU477
 1501 000e 7047     		bx	lr
 1502              		.cfi_endproc
 1503              	.LFE152:
 1505              		.section	.text.ADC_AutoInjectedConvCmd,"ax",%progbits
 1506              		.align	1
 1507              		.global	ADC_AutoInjectedConvCmd
 1508              		.syntax unified
 1509              		.thumb
 1510              		.thumb_func
 1512              	ADC_AutoInjectedConvCmd:
 1513              	.LVL127:
 1514              	.LFB153:
1407:./Library/stm32f4xx_adc.c **** 
1408:./Library/stm32f4xx_adc.c **** /**
1409:./Library/stm32f4xx_adc.c ****   * @brief  Enables or disables the selected ADC automatic injected group 
1410:./Library/stm32f4xx_adc.c ****   *         conversion after regular one.
1411:./Library/stm32f4xx_adc.c ****   * @param  ADCx: where x can be 1, 2 or 3 to select the ADC peripheral.
1412:./Library/stm32f4xx_adc.c ****   * @param  NewState: new state of the selected ADC auto injected conversion
1413:./Library/stm32f4xx_adc.c ****   *          This parameter can be: ENABLE or DISABLE.
1414:./Library/stm32f4xx_adc.c ****   * @retval None
1415:./Library/stm32f4xx_adc.c ****   */
1416:./Library/stm32f4xx_adc.c **** void ADC_AutoInjectedConvCmd(ADC_TypeDef* ADCx, FunctionalState NewState)
1417:./Library/stm32f4xx_adc.c **** {
 1515              		.loc 1 1417 1 is_stmt 1 view -0
 1516              		.cfi_startproc
 1517              		@ args = 0, pretend = 0, frame = 0
 1518              		@ frame_needed = 0, uses_anonymous_args = 0
 1519              		@ link register save eliminated.
1418:./Library/stm32f4xx_adc.c ****   /* Check the parameters */
1419:./Library/stm32f4xx_adc.c ****   assert_param(IS_ADC_ALL_PERIPH(ADCx));
 1520              		.loc 1 1419 3 view .LVU479
1420:./Library/stm32f4xx_adc.c ****   assert_param(IS_FUNCTIONAL_STATE(NewState));
 1521              		.loc 1 1420 3 view .LVU480
1421:./Library/stm32f4xx_adc.c ****   if (NewState != DISABLE)
 1522              		.loc 1 1421 3 view .LVU481
 1523              		.loc 1 1421 6 is_stmt 0 view .LVU482
 1524 0000 21B1     		cbz	r1, .L79
1422:./Library/stm32f4xx_adc.c ****   {
1423:./Library/stm32f4xx_adc.c ****     /* Enable the selected ADC automatic injected group conversion */
1424:./Library/stm32f4xx_adc.c ****     ADCx->CR1 |= (uint32_t)ADC_CR1_JAUTO;
 1525              		.loc 1 1424 5 is_stmt 1 view .LVU483
 1526              		.loc 1 1424 15 is_stmt 0 view .LVU484
 1527 0002 4368     		ldr	r3, [r0, #4]
 1528 0004 43F48063 		orr	r3, r3, #1024
 1529 0008 4360     		str	r3, [r0, #4]
 1530 000a 7047     		bx	lr
 1531              	.L79:
1425:./Library/stm32f4xx_adc.c ****   }
1426:./Library/stm32f4xx_adc.c ****   else
1427:./Library/stm32f4xx_adc.c ****   {
1428:./Library/stm32f4xx_adc.c ****     /* Disable the selected ADC automatic injected group conversion */
1429:./Library/stm32f4xx_adc.c ****     ADCx->CR1 &= (uint32_t)(~ADC_CR1_JAUTO);
 1532              		.loc 1 1429 5 is_stmt 1 view .LVU485
 1533              		.loc 1 1429 15 is_stmt 0 view .LVU486
 1534 000c 4368     		ldr	r3, [r0, #4]
ARM GAS  /var/folders/yl/_q9l42k90g1g4mdhbs226msm0000gn/T//ccC3IXiS.s 			page 53


 1535 000e 23F48063 		bic	r3, r3, #1024
 1536 0012 4360     		str	r3, [r0, #4]
1430:./Library/stm32f4xx_adc.c ****   }
1431:./Library/stm32f4xx_adc.c **** }
 1537              		.loc 1 1431 1 view .LVU487
 1538 0014 7047     		bx	lr
 1539              		.cfi_endproc
 1540              	.LFE153:
 1542              		.section	.text.ADC_InjectedDiscModeCmd,"ax",%progbits
 1543              		.align	1
 1544              		.global	ADC_InjectedDiscModeCmd
 1545              		.syntax unified
 1546              		.thumb
 1547              		.thumb_func
 1549              	ADC_InjectedDiscModeCmd:
 1550              	.LVL128:
 1551              	.LFB154:
1432:./Library/stm32f4xx_adc.c **** 
1433:./Library/stm32f4xx_adc.c **** /**
1434:./Library/stm32f4xx_adc.c ****   * @brief  Enables or disables the discontinuous mode for injected group 
1435:./Library/stm32f4xx_adc.c ****   *         channel for the specified ADC
1436:./Library/stm32f4xx_adc.c ****   * @param  ADCx: where x can be 1, 2 or 3 to select the ADC peripheral.
1437:./Library/stm32f4xx_adc.c ****   * @param  NewState: new state of the selected ADC discontinuous mode on injected
1438:./Library/stm32f4xx_adc.c ****   *         group channel.
1439:./Library/stm32f4xx_adc.c ****   *          This parameter can be: ENABLE or DISABLE.
1440:./Library/stm32f4xx_adc.c ****   * @retval None
1441:./Library/stm32f4xx_adc.c ****   */
1442:./Library/stm32f4xx_adc.c **** void ADC_InjectedDiscModeCmd(ADC_TypeDef* ADCx, FunctionalState NewState)
1443:./Library/stm32f4xx_adc.c **** {
 1552              		.loc 1 1443 1 is_stmt 1 view -0
 1553              		.cfi_startproc
 1554              		@ args = 0, pretend = 0, frame = 0
 1555              		@ frame_needed = 0, uses_anonymous_args = 0
 1556              		@ link register save eliminated.
1444:./Library/stm32f4xx_adc.c ****   /* Check the parameters */
1445:./Library/stm32f4xx_adc.c ****   assert_param(IS_ADC_ALL_PERIPH(ADCx));
 1557              		.loc 1 1445 3 view .LVU489
1446:./Library/stm32f4xx_adc.c ****   assert_param(IS_FUNCTIONAL_STATE(NewState));
 1558              		.loc 1 1446 3 view .LVU490
1447:./Library/stm32f4xx_adc.c ****   if (NewState != DISABLE)
 1559              		.loc 1 1447 3 view .LVU491
 1560              		.loc 1 1447 6 is_stmt 0 view .LVU492
 1561 0000 21B1     		cbz	r1, .L82
1448:./Library/stm32f4xx_adc.c ****   {
1449:./Library/stm32f4xx_adc.c ****     /* Enable the selected ADC injected discontinuous mode */
1450:./Library/stm32f4xx_adc.c ****     ADCx->CR1 |= (uint32_t)ADC_CR1_JDISCEN;
 1562              		.loc 1 1450 5 is_stmt 1 view .LVU493
 1563              		.loc 1 1450 15 is_stmt 0 view .LVU494
 1564 0002 4368     		ldr	r3, [r0, #4]
 1565 0004 43F48053 		orr	r3, r3, #4096
 1566 0008 4360     		str	r3, [r0, #4]
 1567 000a 7047     		bx	lr
 1568              	.L82:
1451:./Library/stm32f4xx_adc.c ****   }
1452:./Library/stm32f4xx_adc.c ****   else
1453:./Library/stm32f4xx_adc.c ****   {
1454:./Library/stm32f4xx_adc.c ****     /* Disable the selected ADC injected discontinuous mode */
ARM GAS  /var/folders/yl/_q9l42k90g1g4mdhbs226msm0000gn/T//ccC3IXiS.s 			page 54


1455:./Library/stm32f4xx_adc.c ****     ADCx->CR1 &= (uint32_t)(~ADC_CR1_JDISCEN);
 1569              		.loc 1 1455 5 is_stmt 1 view .LVU495
 1570              		.loc 1 1455 15 is_stmt 0 view .LVU496
 1571 000c 4368     		ldr	r3, [r0, #4]
 1572 000e 23F48053 		bic	r3, r3, #4096
 1573 0012 4360     		str	r3, [r0, #4]
1456:./Library/stm32f4xx_adc.c ****   }
1457:./Library/stm32f4xx_adc.c **** }
 1574              		.loc 1 1457 1 view .LVU497
 1575 0014 7047     		bx	lr
 1576              		.cfi_endproc
 1577              	.LFE154:
 1579              		.section	.text.ADC_GetInjectedConversionValue,"ax",%progbits
 1580              		.align	1
 1581              		.global	ADC_GetInjectedConversionValue
 1582              		.syntax unified
 1583              		.thumb
 1584              		.thumb_func
 1586              	ADC_GetInjectedConversionValue:
 1587              	.LVL129:
 1588              	.LFB155:
1458:./Library/stm32f4xx_adc.c **** 
1459:./Library/stm32f4xx_adc.c **** /**
1460:./Library/stm32f4xx_adc.c ****   * @brief  Returns the ADC injected channel conversion result
1461:./Library/stm32f4xx_adc.c ****   * @param  ADCx: where x can be 1, 2 or 3 to select the ADC peripheral.
1462:./Library/stm32f4xx_adc.c ****   * @param  ADC_InjectedChannel: the converted ADC injected channel.
1463:./Library/stm32f4xx_adc.c ****   *          This parameter can be one of the following values:
1464:./Library/stm32f4xx_adc.c ****   *            @arg ADC_InjectedChannel_1: Injected Channel1 selected
1465:./Library/stm32f4xx_adc.c ****   *            @arg ADC_InjectedChannel_2: Injected Channel2 selected
1466:./Library/stm32f4xx_adc.c ****   *            @arg ADC_InjectedChannel_3: Injected Channel3 selected
1467:./Library/stm32f4xx_adc.c ****   *            @arg ADC_InjectedChannel_4: Injected Channel4 selected
1468:./Library/stm32f4xx_adc.c ****   * @retval The Data conversion value.
1469:./Library/stm32f4xx_adc.c ****   */
1470:./Library/stm32f4xx_adc.c **** uint16_t ADC_GetInjectedConversionValue(ADC_TypeDef* ADCx, uint8_t ADC_InjectedChannel)
1471:./Library/stm32f4xx_adc.c **** {
 1589              		.loc 1 1471 1 is_stmt 1 view -0
 1590              		.cfi_startproc
 1591              		@ args = 0, pretend = 0, frame = 8
 1592              		@ frame_needed = 0, uses_anonymous_args = 0
 1593              		@ link register save eliminated.
 1594              		.loc 1 1471 1 is_stmt 0 view .LVU499
 1595 0000 82B0     		sub	sp, sp, #8
 1596              	.LCFI11:
 1597              		.cfi_def_cfa_offset 8
1472:./Library/stm32f4xx_adc.c ****   __IO uint32_t tmp = 0;
 1598              		.loc 1 1472 3 is_stmt 1 view .LVU500
 1599              		.loc 1 1472 17 is_stmt 0 view .LVU501
 1600 0002 0023     		movs	r3, #0
 1601 0004 0193     		str	r3, [sp, #4]
1473:./Library/stm32f4xx_adc.c ****   
1474:./Library/stm32f4xx_adc.c ****   /* Check the parameters */
1475:./Library/stm32f4xx_adc.c ****   assert_param(IS_ADC_ALL_PERIPH(ADCx));
 1602              		.loc 1 1475 3 is_stmt 1 view .LVU502
1476:./Library/stm32f4xx_adc.c ****   assert_param(IS_ADC_INJECTED_CHANNEL(ADC_InjectedChannel));
 1603              		.loc 1 1476 3 view .LVU503
1477:./Library/stm32f4xx_adc.c **** 
1478:./Library/stm32f4xx_adc.c ****   tmp = (uint32_t)ADCx;
ARM GAS  /var/folders/yl/_q9l42k90g1g4mdhbs226msm0000gn/T//ccC3IXiS.s 			page 55


 1604              		.loc 1 1478 3 view .LVU504
 1605              		.loc 1 1478 7 is_stmt 0 view .LVU505
 1606 0006 0190     		str	r0, [sp, #4]
1479:./Library/stm32f4xx_adc.c ****   tmp += ADC_InjectedChannel + JDR_OFFSET;
 1607              		.loc 1 1479 3 is_stmt 1 view .LVU506
 1608              		.loc 1 1479 7 is_stmt 0 view .LVU507
 1609 0008 019B     		ldr	r3, [sp, #4]
 1610 000a 1944     		add	r1, r1, r3
 1611              	.LVL130:
 1612              		.loc 1 1479 7 view .LVU508
 1613 000c 2831     		adds	r1, r1, #40
 1614 000e 0191     		str	r1, [sp, #4]
1480:./Library/stm32f4xx_adc.c ****   
1481:./Library/stm32f4xx_adc.c ****   /* Returns the selected injected channel conversion data value */
1482:./Library/stm32f4xx_adc.c ****   return (uint16_t) (*(__IO uint32_t*)  tmp); 
 1615              		.loc 1 1482 3 is_stmt 1 view .LVU509
 1616              		.loc 1 1482 23 is_stmt 0 view .LVU510
 1617 0010 019B     		ldr	r3, [sp, #4]
 1618              		.loc 1 1482 22 view .LVU511
 1619 0012 1868     		ldr	r0, [r3]
 1620              	.LVL131:
1483:./Library/stm32f4xx_adc.c **** }
 1621              		.loc 1 1483 1 view .LVU512
 1622 0014 80B2     		uxth	r0, r0
 1623 0016 02B0     		add	sp, sp, #8
 1624              	.LCFI12:
 1625              		.cfi_def_cfa_offset 0
 1626              		@ sp needed
 1627 0018 7047     		bx	lr
 1628              		.cfi_endproc
 1629              	.LFE155:
 1631              		.section	.text.ADC_ITConfig,"ax",%progbits
 1632              		.align	1
 1633              		.global	ADC_ITConfig
 1634              		.syntax unified
 1635              		.thumb
 1636              		.thumb_func
 1638              	ADC_ITConfig:
 1639              	.LVL132:
 1640              	.LFB156:
1484:./Library/stm32f4xx_adc.c **** /**
1485:./Library/stm32f4xx_adc.c ****   * @}
1486:./Library/stm32f4xx_adc.c ****   */
1487:./Library/stm32f4xx_adc.c **** 
1488:./Library/stm32f4xx_adc.c **** /** @defgroup ADC_Group7 Interrupts and flags management functions
1489:./Library/stm32f4xx_adc.c ****  *  @brief   Interrupts and flags management functions
1490:./Library/stm32f4xx_adc.c ****  *
1491:./Library/stm32f4xx_adc.c **** @verbatim   
1492:./Library/stm32f4xx_adc.c ****  ===============================================================================
1493:./Library/stm32f4xx_adc.c ****             ##### Interrupts and flags management functions #####
1494:./Library/stm32f4xx_adc.c ****  ===============================================================================  
1495:./Library/stm32f4xx_adc.c **** 
1496:./Library/stm32f4xx_adc.c ****     [..] This section provides functions allowing to configure the ADC Interrupts 
1497:./Library/stm32f4xx_adc.c ****          and to get the status and clear flags and Interrupts pending bits.
1498:./Library/stm32f4xx_adc.c ****   
1499:./Library/stm32f4xx_adc.c ****     [..] Each ADC provides 4 Interrupts sources and 6 Flags which can be divided
1500:./Library/stm32f4xx_adc.c ****         into 3 groups:
ARM GAS  /var/folders/yl/_q9l42k90g1g4mdhbs226msm0000gn/T//ccC3IXiS.s 			page 56


1501:./Library/stm32f4xx_adc.c ****   
1502:./Library/stm32f4xx_adc.c ****   *** Flags and Interrupts for ADC regular channels ***
1503:./Library/stm32f4xx_adc.c ****   =====================================================
1504:./Library/stm32f4xx_adc.c ****     [..]
1505:./Library/stm32f4xx_adc.c ****       (+) Flags :
1506:./Library/stm32f4xx_adc.c ****         (##) ADC_FLAG_OVR : Overrun detection when regular converted data are lost
1507:./Library/stm32f4xx_adc.c **** 
1508:./Library/stm32f4xx_adc.c ****         (##) ADC_FLAG_EOC : Regular channel end of conversion ==> to indicate 
1509:./Library/stm32f4xx_adc.c ****              (depending on EOCS bit, managed by ADC_EOCOnEachRegularChannelCmd() )
1510:./Library/stm32f4xx_adc.c ****              the end of:
1511:./Library/stm32f4xx_adc.c ****              (+++) a regular CHANNEL conversion 
1512:./Library/stm32f4xx_adc.c ****              (+++) sequence of regular GROUP conversions .
1513:./Library/stm32f4xx_adc.c **** 
1514:./Library/stm32f4xx_adc.c ****         (##) ADC_FLAG_STRT: Regular channel start ==> to indicate when regular 
1515:./Library/stm32f4xx_adc.c ****              CHANNEL conversion starts.
1516:./Library/stm32f4xx_adc.c ****     [..]
1517:./Library/stm32f4xx_adc.c ****       (+) Interrupts :
1518:./Library/stm32f4xx_adc.c ****         (##) ADC_IT_OVR : specifies the interrupt source for Overrun detection 
1519:./Library/stm32f4xx_adc.c ****              event.  
1520:./Library/stm32f4xx_adc.c ****         (##) ADC_IT_EOC : specifies the interrupt source for Regular channel end
1521:./Library/stm32f4xx_adc.c ****              of conversion event.
1522:./Library/stm32f4xx_adc.c ****   
1523:./Library/stm32f4xx_adc.c ****   
1524:./Library/stm32f4xx_adc.c ****   *** Flags and Interrupts for ADC Injected channels ***
1525:./Library/stm32f4xx_adc.c ****   ======================================================
1526:./Library/stm32f4xx_adc.c ****     [..]
1527:./Library/stm32f4xx_adc.c ****       (+) Flags :
1528:./Library/stm32f4xx_adc.c ****         (##) ADC_FLAG_JEOC : Injected channel end of conversion ==> to indicate 
1529:./Library/stm32f4xx_adc.c ****              at the end of injected GROUP conversion  
1530:./Library/stm32f4xx_adc.c ****               
1531:./Library/stm32f4xx_adc.c ****         (##) ADC_FLAG_JSTRT: Injected channel start ==> to indicate hardware when 
1532:./Library/stm32f4xx_adc.c ****              injected GROUP conversion starts.
1533:./Library/stm32f4xx_adc.c ****     [..]
1534:./Library/stm32f4xx_adc.c ****       (+) Interrupts :
1535:./Library/stm32f4xx_adc.c ****         (##) ADC_IT_JEOC : specifies the interrupt source for Injected channel 
1536:./Library/stm32f4xx_adc.c ****              end of conversion event.     
1537:./Library/stm32f4xx_adc.c **** 
1538:./Library/stm32f4xx_adc.c ****   *** General Flags and Interrupts for the ADC ***
1539:./Library/stm32f4xx_adc.c ****   ================================================ 
1540:./Library/stm32f4xx_adc.c ****     [..]
1541:./Library/stm32f4xx_adc.c ****       (+)Flags :
1542:./Library/stm32f4xx_adc.c ****         (##) ADC_FLAG_AWD: Analog watchdog ==> to indicate if the converted voltage 
1543:./Library/stm32f4xx_adc.c ****              crosses the programmed thresholds values.
1544:./Library/stm32f4xx_adc.c ****     [..]          
1545:./Library/stm32f4xx_adc.c ****       (+) Interrupts :
1546:./Library/stm32f4xx_adc.c ****         (##) ADC_IT_AWD : specifies the interrupt source for Analog watchdog event. 
1547:./Library/stm32f4xx_adc.c **** 
1548:./Library/stm32f4xx_adc.c ****   
1549:./Library/stm32f4xx_adc.c ****     [..] The user should identify which mode will be used in his application to 
1550:./Library/stm32f4xx_adc.c ****          manage the ADC controller events: Polling mode or Interrupt mode.
1551:./Library/stm32f4xx_adc.c ****   
1552:./Library/stm32f4xx_adc.c ****     [..] In the Polling Mode it is advised to use the following functions:
1553:./Library/stm32f4xx_adc.c ****       (+) ADC_GetFlagStatus() : to check if flags events occur. 
1554:./Library/stm32f4xx_adc.c ****       (+) ADC_ClearFlag()     : to clear the flags events.
1555:./Library/stm32f4xx_adc.c ****       
1556:./Library/stm32f4xx_adc.c ****     [..] In the Interrupt Mode it is advised to use the following functions:
1557:./Library/stm32f4xx_adc.c ****       (+) ADC_ITConfig()          : to enable or disable the interrupt source.
ARM GAS  /var/folders/yl/_q9l42k90g1g4mdhbs226msm0000gn/T//ccC3IXiS.s 			page 57


1558:./Library/stm32f4xx_adc.c ****       (+) ADC_GetITStatus()       : to check if Interrupt occurs.
1559:./Library/stm32f4xx_adc.c ****       (+) ADC_ClearITPendingBit() : to clear the Interrupt pending Bit 
1560:./Library/stm32f4xx_adc.c ****                                    (corresponding Flag). 
1561:./Library/stm32f4xx_adc.c **** @endverbatim
1562:./Library/stm32f4xx_adc.c ****   * @{
1563:./Library/stm32f4xx_adc.c ****   */ 
1564:./Library/stm32f4xx_adc.c **** /**
1565:./Library/stm32f4xx_adc.c ****   * @brief  Enables or disables the specified ADC interrupts.
1566:./Library/stm32f4xx_adc.c ****   * @param  ADCx: where x can be 1, 2 or 3 to select the ADC peripheral.
1567:./Library/stm32f4xx_adc.c ****   * @param  ADC_IT: specifies the ADC interrupt sources to be enabled or disabled. 
1568:./Library/stm32f4xx_adc.c ****   *          This parameter can be one of the following values:
1569:./Library/stm32f4xx_adc.c ****   *            @arg ADC_IT_EOC: End of conversion interrupt mask
1570:./Library/stm32f4xx_adc.c ****   *            @arg ADC_IT_AWD: Analog watchdog interrupt mask
1571:./Library/stm32f4xx_adc.c ****   *            @arg ADC_IT_JEOC: End of injected conversion interrupt mask
1572:./Library/stm32f4xx_adc.c ****   *            @arg ADC_IT_OVR: Overrun interrupt enable                       
1573:./Library/stm32f4xx_adc.c ****   * @param  NewState: new state of the specified ADC interrupts.
1574:./Library/stm32f4xx_adc.c ****   *          This parameter can be: ENABLE or DISABLE.
1575:./Library/stm32f4xx_adc.c ****   * @retval None
1576:./Library/stm32f4xx_adc.c ****   */
1577:./Library/stm32f4xx_adc.c **** void ADC_ITConfig(ADC_TypeDef* ADCx, uint16_t ADC_IT, FunctionalState NewState)  
1578:./Library/stm32f4xx_adc.c **** {
 1641              		.loc 1 1578 1 is_stmt 1 view -0
 1642              		.cfi_startproc
 1643              		@ args = 0, pretend = 0, frame = 0
 1644              		@ frame_needed = 0, uses_anonymous_args = 0
 1645              		@ link register save eliminated.
1579:./Library/stm32f4xx_adc.c ****   uint32_t itmask = 0;
 1646              		.loc 1 1579 3 view .LVU514
1580:./Library/stm32f4xx_adc.c ****   /* Check the parameters */
1581:./Library/stm32f4xx_adc.c ****   assert_param(IS_ADC_ALL_PERIPH(ADCx));
 1647              		.loc 1 1581 3 view .LVU515
1582:./Library/stm32f4xx_adc.c ****   assert_param(IS_FUNCTIONAL_STATE(NewState));
 1648              		.loc 1 1582 3 view .LVU516
1583:./Library/stm32f4xx_adc.c ****   assert_param(IS_ADC_IT(ADC_IT)); 
 1649              		.loc 1 1583 3 view .LVU517
1584:./Library/stm32f4xx_adc.c **** 
1585:./Library/stm32f4xx_adc.c ****   /* Get the ADC IT index */
1586:./Library/stm32f4xx_adc.c ****   itmask = (uint8_t)ADC_IT;
 1650              		.loc 1 1586 3 view .LVU518
 1651              		.loc 1 1586 12 is_stmt 0 view .LVU519
 1652 0000 CBB2     		uxtb	r3, r1
 1653              	.LVL133:
1587:./Library/stm32f4xx_adc.c ****   itmask = (uint32_t)0x01 << itmask;    
 1654              		.loc 1 1587 3 is_stmt 1 view .LVU520
 1655              		.loc 1 1587 10 is_stmt 0 view .LVU521
 1656 0002 0121     		movs	r1, #1
 1657              	.LVL134:
 1658              		.loc 1 1587 10 view .LVU522
 1659 0004 9940     		lsls	r1, r1, r3
 1660              	.LVL135:
1588:./Library/stm32f4xx_adc.c **** 
1589:./Library/stm32f4xx_adc.c ****   if (NewState != DISABLE)
 1661              		.loc 1 1589 3 is_stmt 1 view .LVU523
 1662              		.loc 1 1589 6 is_stmt 0 view .LVU524
 1663 0006 1AB1     		cbz	r2, .L87
1590:./Library/stm32f4xx_adc.c ****   {
1591:./Library/stm32f4xx_adc.c ****     /* Enable the selected ADC interrupts */
ARM GAS  /var/folders/yl/_q9l42k90g1g4mdhbs226msm0000gn/T//ccC3IXiS.s 			page 58


1592:./Library/stm32f4xx_adc.c ****     ADCx->CR1 |= itmask;
 1664              		.loc 1 1592 5 is_stmt 1 view .LVU525
 1665              		.loc 1 1592 15 is_stmt 0 view .LVU526
 1666 0008 4368     		ldr	r3, [r0, #4]
 1667 000a 1943     		orrs	r1, r1, r3
 1668              	.LVL136:
 1669              		.loc 1 1592 15 view .LVU527
 1670 000c 4160     		str	r1, [r0, #4]
 1671 000e 7047     		bx	lr
 1672              	.LVL137:
 1673              	.L87:
1593:./Library/stm32f4xx_adc.c ****   }
1594:./Library/stm32f4xx_adc.c ****   else
1595:./Library/stm32f4xx_adc.c ****   {
1596:./Library/stm32f4xx_adc.c ****     /* Disable the selected ADC interrupts */
1597:./Library/stm32f4xx_adc.c ****     ADCx->CR1 &= (~(uint32_t)itmask);
 1674              		.loc 1 1597 5 is_stmt 1 view .LVU528
 1675              		.loc 1 1597 15 is_stmt 0 view .LVU529
 1676 0010 4368     		ldr	r3, [r0, #4]
 1677 0012 23EA0101 		bic	r1, r3, r1
 1678              	.LVL138:
 1679              		.loc 1 1597 15 view .LVU530
 1680 0016 4160     		str	r1, [r0, #4]
1598:./Library/stm32f4xx_adc.c ****   }
1599:./Library/stm32f4xx_adc.c **** }
 1681              		.loc 1 1599 1 view .LVU531
 1682 0018 7047     		bx	lr
 1683              		.cfi_endproc
 1684              	.LFE156:
 1686              		.section	.text.ADC_GetFlagStatus,"ax",%progbits
 1687              		.align	1
 1688              		.global	ADC_GetFlagStatus
 1689              		.syntax unified
 1690              		.thumb
 1691              		.thumb_func
 1693              	ADC_GetFlagStatus:
 1694              	.LVL139:
 1695              	.LFB157:
1600:./Library/stm32f4xx_adc.c **** 
1601:./Library/stm32f4xx_adc.c **** /**
1602:./Library/stm32f4xx_adc.c ****   * @brief  Checks whether the specified ADC flag is set or not.
1603:./Library/stm32f4xx_adc.c ****   * @param  ADCx: where x can be 1, 2 or 3 to select the ADC peripheral.
1604:./Library/stm32f4xx_adc.c ****   * @param  ADC_FLAG: specifies the flag to check. 
1605:./Library/stm32f4xx_adc.c ****   *          This parameter can be one of the following values:
1606:./Library/stm32f4xx_adc.c ****   *            @arg ADC_FLAG_AWD: Analog watchdog flag
1607:./Library/stm32f4xx_adc.c ****   *            @arg ADC_FLAG_EOC: End of conversion flag
1608:./Library/stm32f4xx_adc.c ****   *            @arg ADC_FLAG_JEOC: End of injected group conversion flag
1609:./Library/stm32f4xx_adc.c ****   *            @arg ADC_FLAG_JSTRT: Start of injected group conversion flag
1610:./Library/stm32f4xx_adc.c ****   *            @arg ADC_FLAG_STRT: Start of regular group conversion flag
1611:./Library/stm32f4xx_adc.c ****   *            @arg ADC_FLAG_OVR: Overrun flag                                                 
1612:./Library/stm32f4xx_adc.c ****   * @retval The new state of ADC_FLAG (SET or RESET).
1613:./Library/stm32f4xx_adc.c ****   */
1614:./Library/stm32f4xx_adc.c **** FlagStatus ADC_GetFlagStatus(ADC_TypeDef* ADCx, uint8_t ADC_FLAG)
1615:./Library/stm32f4xx_adc.c **** {
 1696              		.loc 1 1615 1 is_stmt 1 view -0
 1697              		.cfi_startproc
 1698              		@ args = 0, pretend = 0, frame = 0
ARM GAS  /var/folders/yl/_q9l42k90g1g4mdhbs226msm0000gn/T//ccC3IXiS.s 			page 59


 1699              		@ frame_needed = 0, uses_anonymous_args = 0
 1700              		@ link register save eliminated.
1616:./Library/stm32f4xx_adc.c ****   FlagStatus bitstatus = RESET;
 1701              		.loc 1 1616 3 view .LVU533
1617:./Library/stm32f4xx_adc.c ****   /* Check the parameters */
1618:./Library/stm32f4xx_adc.c ****   assert_param(IS_ADC_ALL_PERIPH(ADCx));
 1702              		.loc 1 1618 3 view .LVU534
1619:./Library/stm32f4xx_adc.c ****   assert_param(IS_ADC_GET_FLAG(ADC_FLAG));
 1703              		.loc 1 1619 3 view .LVU535
1620:./Library/stm32f4xx_adc.c **** 
1621:./Library/stm32f4xx_adc.c ****   /* Check the status of the specified ADC flag */
1622:./Library/stm32f4xx_adc.c ****   if ((ADCx->SR & ADC_FLAG) != (uint8_t)RESET)
 1704              		.loc 1 1622 3 view .LVU536
 1705              		.loc 1 1622 12 is_stmt 0 view .LVU537
 1706 0000 0368     		ldr	r3, [r0]
 1707              		.loc 1 1622 6 view .LVU538
 1708 0002 1942     		tst	r1, r3
 1709 0004 01D0     		beq	.L91
1623:./Library/stm32f4xx_adc.c ****   {
1624:./Library/stm32f4xx_adc.c ****     /* ADC_FLAG is set */
1625:./Library/stm32f4xx_adc.c ****     bitstatus = SET;
 1710              		.loc 1 1625 15 view .LVU539
 1711 0006 0120     		movs	r0, #1
 1712              	.LVL140:
 1713              		.loc 1 1625 15 view .LVU540
 1714 0008 7047     		bx	lr
 1715              	.LVL141:
 1716              	.L91:
1626:./Library/stm32f4xx_adc.c ****   }
1627:./Library/stm32f4xx_adc.c ****   else
1628:./Library/stm32f4xx_adc.c ****   {
1629:./Library/stm32f4xx_adc.c ****     /* ADC_FLAG is reset */
1630:./Library/stm32f4xx_adc.c ****     bitstatus = RESET;
 1717              		.loc 1 1630 15 view .LVU541
 1718 000a 0020     		movs	r0, #0
 1719              	.LVL142:
1631:./Library/stm32f4xx_adc.c ****   }
1632:./Library/stm32f4xx_adc.c ****   /* Return the ADC_FLAG status */
1633:./Library/stm32f4xx_adc.c ****   return  bitstatus;
 1720              		.loc 1 1633 3 is_stmt 1 view .LVU542
1634:./Library/stm32f4xx_adc.c **** }
 1721              		.loc 1 1634 1 is_stmt 0 view .LVU543
 1722 000c 7047     		bx	lr
 1723              		.cfi_endproc
 1724              	.LFE157:
 1726              		.section	.text.ADC_ClearFlag,"ax",%progbits
 1727              		.align	1
 1728              		.global	ADC_ClearFlag
 1729              		.syntax unified
 1730              		.thumb
 1731              		.thumb_func
 1733              	ADC_ClearFlag:
 1734              	.LVL143:
 1735              	.LFB158:
1635:./Library/stm32f4xx_adc.c **** 
1636:./Library/stm32f4xx_adc.c **** /**
1637:./Library/stm32f4xx_adc.c ****   * @brief  Clears the ADCx's pending flags.
ARM GAS  /var/folders/yl/_q9l42k90g1g4mdhbs226msm0000gn/T//ccC3IXiS.s 			page 60


1638:./Library/stm32f4xx_adc.c ****   * @param  ADCx: where x can be 1, 2 or 3 to select the ADC peripheral.
1639:./Library/stm32f4xx_adc.c ****   * @param  ADC_FLAG: specifies the flag to clear. 
1640:./Library/stm32f4xx_adc.c ****   *          This parameter can be any combination of the following values:
1641:./Library/stm32f4xx_adc.c ****   *            @arg ADC_FLAG_AWD: Analog watchdog flag
1642:./Library/stm32f4xx_adc.c ****   *            @arg ADC_FLAG_EOC: End of conversion flag
1643:./Library/stm32f4xx_adc.c ****   *            @arg ADC_FLAG_JEOC: End of injected group conversion flag
1644:./Library/stm32f4xx_adc.c ****   *            @arg ADC_FLAG_JSTRT: Start of injected group conversion flag
1645:./Library/stm32f4xx_adc.c ****   *            @arg ADC_FLAG_STRT: Start of regular group conversion flag
1646:./Library/stm32f4xx_adc.c ****   *            @arg ADC_FLAG_OVR: Overrun flag                          
1647:./Library/stm32f4xx_adc.c ****   * @retval None
1648:./Library/stm32f4xx_adc.c ****   */
1649:./Library/stm32f4xx_adc.c **** void ADC_ClearFlag(ADC_TypeDef* ADCx, uint8_t ADC_FLAG)
1650:./Library/stm32f4xx_adc.c **** {
 1736              		.loc 1 1650 1 is_stmt 1 view -0
 1737              		.cfi_startproc
 1738              		@ args = 0, pretend = 0, frame = 0
 1739              		@ frame_needed = 0, uses_anonymous_args = 0
 1740              		@ link register save eliminated.
1651:./Library/stm32f4xx_adc.c ****   /* Check the parameters */
1652:./Library/stm32f4xx_adc.c ****   assert_param(IS_ADC_ALL_PERIPH(ADCx));
 1741              		.loc 1 1652 3 view .LVU545
1653:./Library/stm32f4xx_adc.c ****   assert_param(IS_ADC_CLEAR_FLAG(ADC_FLAG));
 1742              		.loc 1 1653 3 view .LVU546
1654:./Library/stm32f4xx_adc.c **** 
1655:./Library/stm32f4xx_adc.c ****   /* Clear the selected ADC flags */
1656:./Library/stm32f4xx_adc.c ****   ADCx->SR = ~(uint32_t)ADC_FLAG;
 1743              		.loc 1 1656 3 view .LVU547
 1744              		.loc 1 1656 14 is_stmt 0 view .LVU548
 1745 0000 C943     		mvns	r1, r1
 1746              	.LVL144:
 1747              		.loc 1 1656 12 view .LVU549
 1748 0002 0160     		str	r1, [r0]
1657:./Library/stm32f4xx_adc.c **** }
 1749              		.loc 1 1657 1 view .LVU550
 1750 0004 7047     		bx	lr
 1751              		.cfi_endproc
 1752              	.LFE158:
 1754              		.section	.text.ADC_GetITStatus,"ax",%progbits
 1755              		.align	1
 1756              		.global	ADC_GetITStatus
 1757              		.syntax unified
 1758              		.thumb
 1759              		.thumb_func
 1761              	ADC_GetITStatus:
 1762              	.LVL145:
 1763              	.LFB159:
1658:./Library/stm32f4xx_adc.c **** 
1659:./Library/stm32f4xx_adc.c **** /**
1660:./Library/stm32f4xx_adc.c ****   * @brief  Checks whether the specified ADC interrupt has occurred or not.
1661:./Library/stm32f4xx_adc.c ****   * @param  ADCx:   where x can be 1, 2 or 3 to select the ADC peripheral.
1662:./Library/stm32f4xx_adc.c ****   * @param  ADC_IT: specifies the ADC interrupt source to check. 
1663:./Library/stm32f4xx_adc.c ****   *          This parameter can be one of the following values:
1664:./Library/stm32f4xx_adc.c ****   *            @arg ADC_IT_EOC: End of conversion interrupt mask
1665:./Library/stm32f4xx_adc.c ****   *            @arg ADC_IT_AWD: Analog watchdog interrupt mask
1666:./Library/stm32f4xx_adc.c ****   *            @arg ADC_IT_JEOC: End of injected conversion interrupt mask
1667:./Library/stm32f4xx_adc.c ****   *            @arg ADC_IT_OVR: Overrun interrupt mask                        
1668:./Library/stm32f4xx_adc.c ****   * @retval The new state of ADC_IT (SET or RESET).
ARM GAS  /var/folders/yl/_q9l42k90g1g4mdhbs226msm0000gn/T//ccC3IXiS.s 			page 61


1669:./Library/stm32f4xx_adc.c ****   */
1670:./Library/stm32f4xx_adc.c **** ITStatus ADC_GetITStatus(ADC_TypeDef* ADCx, uint16_t ADC_IT)
1671:./Library/stm32f4xx_adc.c **** {
 1764              		.loc 1 1671 1 is_stmt 1 view -0
 1765              		.cfi_startproc
 1766              		@ args = 0, pretend = 0, frame = 0
 1767              		@ frame_needed = 0, uses_anonymous_args = 0
 1768              		@ link register save eliminated.
1672:./Library/stm32f4xx_adc.c ****   ITStatus bitstatus = RESET;
 1769              		.loc 1 1672 3 view .LVU552
1673:./Library/stm32f4xx_adc.c ****   uint32_t itmask = 0, enablestatus = 0;
 1770              		.loc 1 1673 3 view .LVU553
1674:./Library/stm32f4xx_adc.c **** 
1675:./Library/stm32f4xx_adc.c ****   /* Check the parameters */
1676:./Library/stm32f4xx_adc.c ****   assert_param(IS_ADC_ALL_PERIPH(ADCx));
 1771              		.loc 1 1676 3 view .LVU554
1677:./Library/stm32f4xx_adc.c ****   assert_param(IS_ADC_IT(ADC_IT));
 1772              		.loc 1 1677 3 view .LVU555
1678:./Library/stm32f4xx_adc.c **** 
1679:./Library/stm32f4xx_adc.c ****   /* Get the ADC IT index */
1680:./Library/stm32f4xx_adc.c ****   itmask = ADC_IT >> 8;
 1773              		.loc 1 1680 3 view .LVU556
1681:./Library/stm32f4xx_adc.c **** 
1682:./Library/stm32f4xx_adc.c ****   /* Get the ADC_IT enable bit status */
1683:./Library/stm32f4xx_adc.c ****   enablestatus = (ADCx->CR1 & ((uint32_t)0x01 << (uint8_t)ADC_IT)) ;
 1774              		.loc 1 1683 3 view .LVU557
 1775              		.loc 1 1683 23 is_stmt 0 view .LVU558
 1776 0000 4268     		ldr	r2, [r0, #4]
 1777              		.loc 1 1683 50 view .LVU559
 1778 0002 5FFA81FC 		uxtb	ip, r1
 1779              		.loc 1 1683 47 view .LVU560
 1780 0006 0123     		movs	r3, #1
 1781 0008 03FA0CF3 		lsl	r3, r3, ip
 1782              		.loc 1 1683 16 view .LVU561
 1783 000c 1340     		ands	r3, r3, r2
 1784              	.LVL146:
1684:./Library/stm32f4xx_adc.c **** 
1685:./Library/stm32f4xx_adc.c ****   /* Check the status of the specified ADC interrupt */
1686:./Library/stm32f4xx_adc.c ****   if (((ADCx->SR & itmask) != (uint32_t)RESET) && enablestatus)
 1785              		.loc 1 1686 3 is_stmt 1 view .LVU562
 1786              		.loc 1 1686 13 is_stmt 0 view .LVU563
 1787 000e 0268     		ldr	r2, [r0]
 1788              		.loc 1 1686 6 view .LVU564
 1789 0010 12EA1122 		ands	r2, r2, r1, lsr #8
 1790 0014 02D0     		beq	.L95
 1791              		.loc 1 1686 48 discriminator 1 view .LVU565
 1792 0016 1BB9     		cbnz	r3, .L96
1687:./Library/stm32f4xx_adc.c ****   {
1688:./Library/stm32f4xx_adc.c ****     /* ADC_IT is set */
1689:./Library/stm32f4xx_adc.c ****     bitstatus = SET;
1690:./Library/stm32f4xx_adc.c ****   }
1691:./Library/stm32f4xx_adc.c ****   else
1692:./Library/stm32f4xx_adc.c ****   {
1693:./Library/stm32f4xx_adc.c ****     /* ADC_IT is reset */
1694:./Library/stm32f4xx_adc.c ****     bitstatus = RESET;
 1793              		.loc 1 1694 15 view .LVU566
 1794 0018 0020     		movs	r0, #0
ARM GAS  /var/folders/yl/_q9l42k90g1g4mdhbs226msm0000gn/T//ccC3IXiS.s 			page 62


 1795              	.LVL147:
 1796              		.loc 1 1694 15 view .LVU567
 1797 001a 7047     		bx	lr
 1798              	.LVL148:
 1799              	.L95:
 1800              		.loc 1 1694 15 view .LVU568
 1801 001c 0020     		movs	r0, #0
 1802              	.LVL149:
 1803              		.loc 1 1694 15 view .LVU569
 1804 001e 7047     		bx	lr
 1805              	.LVL150:
 1806              	.L96:
1689:./Library/stm32f4xx_adc.c ****   }
 1807              		.loc 1 1689 15 view .LVU570
 1808 0020 0120     		movs	r0, #1
 1809              	.LVL151:
1695:./Library/stm32f4xx_adc.c ****   }
1696:./Library/stm32f4xx_adc.c ****   /* Return the ADC_IT status */
1697:./Library/stm32f4xx_adc.c ****   return  bitstatus;
 1810              		.loc 1 1697 3 is_stmt 1 view .LVU571
1698:./Library/stm32f4xx_adc.c **** }
 1811              		.loc 1 1698 1 is_stmt 0 view .LVU572
 1812 0022 7047     		bx	lr
 1813              		.cfi_endproc
 1814              	.LFE159:
 1816              		.section	.text.ADC_ClearITPendingBit,"ax",%progbits
 1817              		.align	1
 1818              		.global	ADC_ClearITPendingBit
 1819              		.syntax unified
 1820              		.thumb
 1821              		.thumb_func
 1823              	ADC_ClearITPendingBit:
 1824              	.LVL152:
 1825              	.LFB160:
1699:./Library/stm32f4xx_adc.c **** 
1700:./Library/stm32f4xx_adc.c **** /**
1701:./Library/stm32f4xx_adc.c ****   * @brief  Clears the ADCx's interrupt pending bits.
1702:./Library/stm32f4xx_adc.c ****   * @param  ADCx: where x can be 1, 2 or 3 to select the ADC peripheral.
1703:./Library/stm32f4xx_adc.c ****   * @param  ADC_IT: specifies the ADC interrupt pending bit to clear.
1704:./Library/stm32f4xx_adc.c ****   *          This parameter can be one of the following values:
1705:./Library/stm32f4xx_adc.c ****   *            @arg ADC_IT_EOC: End of conversion interrupt mask
1706:./Library/stm32f4xx_adc.c ****   *            @arg ADC_IT_AWD: Analog watchdog interrupt mask
1707:./Library/stm32f4xx_adc.c ****   *            @arg ADC_IT_JEOC: End of injected conversion interrupt mask
1708:./Library/stm32f4xx_adc.c ****   *            @arg ADC_IT_OVR: Overrun interrupt mask                         
1709:./Library/stm32f4xx_adc.c ****   * @retval None
1710:./Library/stm32f4xx_adc.c ****   */
1711:./Library/stm32f4xx_adc.c **** void ADC_ClearITPendingBit(ADC_TypeDef* ADCx, uint16_t ADC_IT)
1712:./Library/stm32f4xx_adc.c **** {
 1826              		.loc 1 1712 1 is_stmt 1 view -0
 1827              		.cfi_startproc
 1828              		@ args = 0, pretend = 0, frame = 0
 1829              		@ frame_needed = 0, uses_anonymous_args = 0
 1830              		@ link register save eliminated.
1713:./Library/stm32f4xx_adc.c ****   uint8_t itmask = 0;
 1831              		.loc 1 1713 3 view .LVU574
1714:./Library/stm32f4xx_adc.c ****   /* Check the parameters */
1715:./Library/stm32f4xx_adc.c ****   assert_param(IS_ADC_ALL_PERIPH(ADCx));
ARM GAS  /var/folders/yl/_q9l42k90g1g4mdhbs226msm0000gn/T//ccC3IXiS.s 			page 63


 1832              		.loc 1 1715 3 view .LVU575
1716:./Library/stm32f4xx_adc.c ****   assert_param(IS_ADC_IT(ADC_IT)); 
 1833              		.loc 1 1716 3 view .LVU576
1717:./Library/stm32f4xx_adc.c ****   /* Get the ADC IT index */
1718:./Library/stm32f4xx_adc.c ****   itmask = (uint8_t)(ADC_IT >> 8);
 1834              		.loc 1 1718 3 view .LVU577
1719:./Library/stm32f4xx_adc.c ****   /* Clear the selected ADC interrupt pending bits */
1720:./Library/stm32f4xx_adc.c ****   ADCx->SR = ~(uint32_t)itmask;
 1835              		.loc 1 1720 3 view .LVU578
 1836              		.loc 1 1720 14 is_stmt 0 view .LVU579
 1837 0000 6FEA1121 		mvn	r1, r1, lsr #8
 1838              	.LVL153:
 1839              		.loc 1 1720 12 view .LVU580
 1840 0004 0160     		str	r1, [r0]
1721:./Library/stm32f4xx_adc.c **** }                    
 1841              		.loc 1 1721 1 view .LVU581
 1842 0006 7047     		bx	lr
 1843              		.cfi_endproc
 1844              	.LFE160:
 1846              		.text
 1847              	.Letext0:
 1848              		.file 2 "/Applications/ARM/arm-none-eabi/include/machine/_default_types.h"
 1849              		.file 3 "/Applications/ARM/arm-none-eabi/include/sys/_stdint.h"
 1850              		.file 4 "./CORE/stm32f4xx.h"
 1851              		.file 5 "./Library/stm32f4xx_adc.h"
 1852              		.file 6 "./Library/stm32f4xx_rcc.h"
ARM GAS  /var/folders/yl/_q9l42k90g1g4mdhbs226msm0000gn/T//ccC3IXiS.s 			page 64


DEFINED SYMBOLS
                            *ABS*:0000000000000000 stm32f4xx_adc.c
/var/folders/yl/_q9l42k90g1g4mdhbs226msm0000gn/T//ccC3IXiS.s:20     .text.ADC_DeInit:0000000000000000 $t
/var/folders/yl/_q9l42k90g1g4mdhbs226msm0000gn/T//ccC3IXiS.s:26     .text.ADC_DeInit:0000000000000000 ADC_DeInit
/var/folders/yl/_q9l42k90g1g4mdhbs226msm0000gn/T//ccC3IXiS.s:54     .text.ADC_Init:0000000000000000 $t
/var/folders/yl/_q9l42k90g1g4mdhbs226msm0000gn/T//ccC3IXiS.s:60     .text.ADC_Init:0000000000000000 ADC_Init
/var/folders/yl/_q9l42k90g1g4mdhbs226msm0000gn/T//ccC3IXiS.s:167    .text.ADC_Init:0000000000000050 $d
/var/folders/yl/_q9l42k90g1g4mdhbs226msm0000gn/T//ccC3IXiS.s:172    .text.ADC_StructInit:0000000000000000 $t
/var/folders/yl/_q9l42k90g1g4mdhbs226msm0000gn/T//ccC3IXiS.s:178    .text.ADC_StructInit:0000000000000000 ADC_StructInit
/var/folders/yl/_q9l42k90g1g4mdhbs226msm0000gn/T//ccC3IXiS.s:215    .text.ADC_CommonInit:0000000000000000 $t
/var/folders/yl/_q9l42k90g1g4mdhbs226msm0000gn/T//ccC3IXiS.s:221    .text.ADC_CommonInit:0000000000000000 ADC_CommonInit
/var/folders/yl/_q9l42k90g1g4mdhbs226msm0000gn/T//ccC3IXiS.s:279    .text.ADC_CommonInit:0000000000000024 $d
/var/folders/yl/_q9l42k90g1g4mdhbs226msm0000gn/T//ccC3IXiS.s:285    .text.ADC_CommonStructInit:0000000000000000 $t
/var/folders/yl/_q9l42k90g1g4mdhbs226msm0000gn/T//ccC3IXiS.s:291    .text.ADC_CommonStructInit:0000000000000000 ADC_CommonStructInit
/var/folders/yl/_q9l42k90g1g4mdhbs226msm0000gn/T//ccC3IXiS.s:318    .text.ADC_Cmd:0000000000000000 $t
/var/folders/yl/_q9l42k90g1g4mdhbs226msm0000gn/T//ccC3IXiS.s:324    .text.ADC_Cmd:0000000000000000 ADC_Cmd
/var/folders/yl/_q9l42k90g1g4mdhbs226msm0000gn/T//ccC3IXiS.s:355    .text.ADC_AnalogWatchdogCmd:0000000000000000 $t
/var/folders/yl/_q9l42k90g1g4mdhbs226msm0000gn/T//ccC3IXiS.s:361    .text.ADC_AnalogWatchdogCmd:0000000000000000 ADC_AnalogWatchdogCmd
/var/folders/yl/_q9l42k90g1g4mdhbs226msm0000gn/T//ccC3IXiS.s:396    .text.ADC_AnalogWatchdogThresholdsConfig:0000000000000000 $t
/var/folders/yl/_q9l42k90g1g4mdhbs226msm0000gn/T//ccC3IXiS.s:402    .text.ADC_AnalogWatchdogThresholdsConfig:0000000000000000 ADC_AnalogWatchdogThresholdsConfig
/var/folders/yl/_q9l42k90g1g4mdhbs226msm0000gn/T//ccC3IXiS.s:425    .text.ADC_AnalogWatchdogSingleChannelConfig:0000000000000000 $t
/var/folders/yl/_q9l42k90g1g4mdhbs226msm0000gn/T//ccC3IXiS.s:431    .text.ADC_AnalogWatchdogSingleChannelConfig:0000000000000000 ADC_AnalogWatchdogSingleChannelConfig
/var/folders/yl/_q9l42k90g1g4mdhbs226msm0000gn/T//ccC3IXiS.s:463    .text.ADC_TempSensorVrefintCmd:0000000000000000 $t
/var/folders/yl/_q9l42k90g1g4mdhbs226msm0000gn/T//ccC3IXiS.s:469    .text.ADC_TempSensorVrefintCmd:0000000000000000 ADC_TempSensorVrefintCmd
/var/folders/yl/_q9l42k90g1g4mdhbs226msm0000gn/T//ccC3IXiS.s:500    .text.ADC_TempSensorVrefintCmd:000000000000001c $d
/var/folders/yl/_q9l42k90g1g4mdhbs226msm0000gn/T//ccC3IXiS.s:505    .text.ADC_VBATCmd:0000000000000000 $t
/var/folders/yl/_q9l42k90g1g4mdhbs226msm0000gn/T//ccC3IXiS.s:511    .text.ADC_VBATCmd:0000000000000000 ADC_VBATCmd
/var/folders/yl/_q9l42k90g1g4mdhbs226msm0000gn/T//ccC3IXiS.s:542    .text.ADC_VBATCmd:000000000000001c $d
/var/folders/yl/_q9l42k90g1g4mdhbs226msm0000gn/T//ccC3IXiS.s:547    .text.ADC_RegularChannelConfig:0000000000000000 $t
/var/folders/yl/_q9l42k90g1g4mdhbs226msm0000gn/T//ccC3IXiS.s:553    .text.ADC_RegularChannelConfig:0000000000000000 ADC_RegularChannelConfig
/var/folders/yl/_q9l42k90g1g4mdhbs226msm0000gn/T//ccC3IXiS.s:742    .text.ADC_SoftwareStartConv:0000000000000000 $t
/var/folders/yl/_q9l42k90g1g4mdhbs226msm0000gn/T//ccC3IXiS.s:748    .text.ADC_SoftwareStartConv:0000000000000000 ADC_SoftwareStartConv
/var/folders/yl/_q9l42k90g1g4mdhbs226msm0000gn/T//ccC3IXiS.s:768    .text.ADC_GetSoftwareStartConvStatus:0000000000000000 $t
/var/folders/yl/_q9l42k90g1g4mdhbs226msm0000gn/T//ccC3IXiS.s:774    .text.ADC_GetSoftwareStartConvStatus:0000000000000000 ADC_GetSoftwareStartConvStatus
/var/folders/yl/_q9l42k90g1g4mdhbs226msm0000gn/T//ccC3IXiS.s:807    .text.ADC_EOCOnEachRegularChannelCmd:0000000000000000 $t
/var/folders/yl/_q9l42k90g1g4mdhbs226msm0000gn/T//ccC3IXiS.s:813    .text.ADC_EOCOnEachRegularChannelCmd:0000000000000000 ADC_EOCOnEachRegularChannelCmd
/var/folders/yl/_q9l42k90g1g4mdhbs226msm0000gn/T//ccC3IXiS.s:844    .text.ADC_ContinuousModeCmd:0000000000000000 $t
/var/folders/yl/_q9l42k90g1g4mdhbs226msm0000gn/T//ccC3IXiS.s:850    .text.ADC_ContinuousModeCmd:0000000000000000 ADC_ContinuousModeCmd
/var/folders/yl/_q9l42k90g1g4mdhbs226msm0000gn/T//ccC3IXiS.s:881    .text.ADC_DiscModeChannelCountConfig:0000000000000000 $t
/var/folders/yl/_q9l42k90g1g4mdhbs226msm0000gn/T//ccC3IXiS.s:887    .text.ADC_DiscModeChannelCountConfig:0000000000000000 ADC_DiscModeChannelCountConfig
/var/folders/yl/_q9l42k90g1g4mdhbs226msm0000gn/T//ccC3IXiS.s:924    .text.ADC_DiscModeCmd:0000000000000000 $t
/var/folders/yl/_q9l42k90g1g4mdhbs226msm0000gn/T//ccC3IXiS.s:930    .text.ADC_DiscModeCmd:0000000000000000 ADC_DiscModeCmd
/var/folders/yl/_q9l42k90g1g4mdhbs226msm0000gn/T//ccC3IXiS.s:961    .text.ADC_GetConversionValue:0000000000000000 $t
/var/folders/yl/_q9l42k90g1g4mdhbs226msm0000gn/T//ccC3IXiS.s:967    .text.ADC_GetConversionValue:0000000000000000 ADC_GetConversionValue
/var/folders/yl/_q9l42k90g1g4mdhbs226msm0000gn/T//ccC3IXiS.s:987    .text.ADC_GetMultiModeConversionValue:0000000000000000 $t
/var/folders/yl/_q9l42k90g1g4mdhbs226msm0000gn/T//ccC3IXiS.s:993    .text.ADC_GetMultiModeConversionValue:0000000000000000 ADC_GetMultiModeConversionValue
/var/folders/yl/_q9l42k90g1g4mdhbs226msm0000gn/T//ccC3IXiS.s:1009   .text.ADC_GetMultiModeConversionValue:0000000000000008 $d
/var/folders/yl/_q9l42k90g1g4mdhbs226msm0000gn/T//ccC3IXiS.s:1014   .text.ADC_DMACmd:0000000000000000 $t
/var/folders/yl/_q9l42k90g1g4mdhbs226msm0000gn/T//ccC3IXiS.s:1020   .text.ADC_DMACmd:0000000000000000 ADC_DMACmd
/var/folders/yl/_q9l42k90g1g4mdhbs226msm0000gn/T//ccC3IXiS.s:1051   .text.ADC_DMARequestAfterLastTransferCmd:0000000000000000 $t
/var/folders/yl/_q9l42k90g1g4mdhbs226msm0000gn/T//ccC3IXiS.s:1057   .text.ADC_DMARequestAfterLastTransferCmd:0000000000000000 ADC_DMARequestAfterLastTransferCmd
/var/folders/yl/_q9l42k90g1g4mdhbs226msm0000gn/T//ccC3IXiS.s:1088   .text.ADC_MultiModeDMARequestAfterLastTransferCmd:0000000000000000 $t
/var/folders/yl/_q9l42k90g1g4mdhbs226msm0000gn/T//ccC3IXiS.s:1094   .text.ADC_MultiModeDMARequestAfterLastTransferCmd:0000000000000000 ADC_MultiModeDMARequestAfterLastTransferCmd
/var/folders/yl/_q9l42k90g1g4mdhbs226msm0000gn/T//ccC3IXiS.s:1125   .text.ADC_MultiModeDMARequestAfterLastTransferCmd:000000000000001c $d
/var/folders/yl/_q9l42k90g1g4mdhbs226msm0000gn/T//ccC3IXiS.s:1130   .text.ADC_InjectedChannelConfig:0000000000000000 $t
/var/folders/yl/_q9l42k90g1g4mdhbs226msm0000gn/T//ccC3IXiS.s:1136   .text.ADC_InjectedChannelConfig:0000000000000000 ADC_InjectedChannelConfig
/var/folders/yl/_q9l42k90g1g4mdhbs226msm0000gn/T//ccC3IXiS.s:1272   .text.ADC_InjectedSequencerLengthConfig:0000000000000000 $t
ARM GAS  /var/folders/yl/_q9l42k90g1g4mdhbs226msm0000gn/T//ccC3IXiS.s 			page 65


/var/folders/yl/_q9l42k90g1g4mdhbs226msm0000gn/T//ccC3IXiS.s:1278   .text.ADC_InjectedSequencerLengthConfig:0000000000000000 ADC_InjectedSequencerLengthConfig
/var/folders/yl/_q9l42k90g1g4mdhbs226msm0000gn/T//ccC3IXiS.s:1315   .text.ADC_SetInjectedOffset:0000000000000000 $t
/var/folders/yl/_q9l42k90g1g4mdhbs226msm0000gn/T//ccC3IXiS.s:1321   .text.ADC_SetInjectedOffset:0000000000000000 ADC_SetInjectedOffset
/var/folders/yl/_q9l42k90g1g4mdhbs226msm0000gn/T//ccC3IXiS.s:1365   .text.ADC_ExternalTrigInjectedConvConfig:0000000000000000 $t
/var/folders/yl/_q9l42k90g1g4mdhbs226msm0000gn/T//ccC3IXiS.s:1371   .text.ADC_ExternalTrigInjectedConvConfig:0000000000000000 ADC_ExternalTrigInjectedConvConfig
/var/folders/yl/_q9l42k90g1g4mdhbs226msm0000gn/T//ccC3IXiS.s:1403   .text.ADC_ExternalTrigInjectedConvEdgeConfig:0000000000000000 $t
/var/folders/yl/_q9l42k90g1g4mdhbs226msm0000gn/T//ccC3IXiS.s:1409   .text.ADC_ExternalTrigInjectedConvEdgeConfig:0000000000000000 ADC_ExternalTrigInjectedConvEdgeConfig
/var/folders/yl/_q9l42k90g1g4mdhbs226msm0000gn/T//ccC3IXiS.s:1441   .text.ADC_SoftwareStartInjectedConv:0000000000000000 $t
/var/folders/yl/_q9l42k90g1g4mdhbs226msm0000gn/T//ccC3IXiS.s:1447   .text.ADC_SoftwareStartInjectedConv:0000000000000000 ADC_SoftwareStartInjectedConv
/var/folders/yl/_q9l42k90g1g4mdhbs226msm0000gn/T//ccC3IXiS.s:1467   .text.ADC_GetSoftwareStartInjectedConvCmdStatus:0000000000000000 $t
/var/folders/yl/_q9l42k90g1g4mdhbs226msm0000gn/T//ccC3IXiS.s:1473   .text.ADC_GetSoftwareStartInjectedConvCmdStatus:0000000000000000 ADC_GetSoftwareStartInjectedConvCmdStatus
/var/folders/yl/_q9l42k90g1g4mdhbs226msm0000gn/T//ccC3IXiS.s:1506   .text.ADC_AutoInjectedConvCmd:0000000000000000 $t
/var/folders/yl/_q9l42k90g1g4mdhbs226msm0000gn/T//ccC3IXiS.s:1512   .text.ADC_AutoInjectedConvCmd:0000000000000000 ADC_AutoInjectedConvCmd
/var/folders/yl/_q9l42k90g1g4mdhbs226msm0000gn/T//ccC3IXiS.s:1543   .text.ADC_InjectedDiscModeCmd:0000000000000000 $t
/var/folders/yl/_q9l42k90g1g4mdhbs226msm0000gn/T//ccC3IXiS.s:1549   .text.ADC_InjectedDiscModeCmd:0000000000000000 ADC_InjectedDiscModeCmd
/var/folders/yl/_q9l42k90g1g4mdhbs226msm0000gn/T//ccC3IXiS.s:1580   .text.ADC_GetInjectedConversionValue:0000000000000000 $t
/var/folders/yl/_q9l42k90g1g4mdhbs226msm0000gn/T//ccC3IXiS.s:1586   .text.ADC_GetInjectedConversionValue:0000000000000000 ADC_GetInjectedConversionValue
/var/folders/yl/_q9l42k90g1g4mdhbs226msm0000gn/T//ccC3IXiS.s:1632   .text.ADC_ITConfig:0000000000000000 $t
/var/folders/yl/_q9l42k90g1g4mdhbs226msm0000gn/T//ccC3IXiS.s:1638   .text.ADC_ITConfig:0000000000000000 ADC_ITConfig
/var/folders/yl/_q9l42k90g1g4mdhbs226msm0000gn/T//ccC3IXiS.s:1687   .text.ADC_GetFlagStatus:0000000000000000 $t
/var/folders/yl/_q9l42k90g1g4mdhbs226msm0000gn/T//ccC3IXiS.s:1693   .text.ADC_GetFlagStatus:0000000000000000 ADC_GetFlagStatus
/var/folders/yl/_q9l42k90g1g4mdhbs226msm0000gn/T//ccC3IXiS.s:1727   .text.ADC_ClearFlag:0000000000000000 $t
/var/folders/yl/_q9l42k90g1g4mdhbs226msm0000gn/T//ccC3IXiS.s:1733   .text.ADC_ClearFlag:0000000000000000 ADC_ClearFlag
/var/folders/yl/_q9l42k90g1g4mdhbs226msm0000gn/T//ccC3IXiS.s:1755   .text.ADC_GetITStatus:0000000000000000 $t
/var/folders/yl/_q9l42k90g1g4mdhbs226msm0000gn/T//ccC3IXiS.s:1761   .text.ADC_GetITStatus:0000000000000000 ADC_GetITStatus
/var/folders/yl/_q9l42k90g1g4mdhbs226msm0000gn/T//ccC3IXiS.s:1817   .text.ADC_ClearITPendingBit:0000000000000000 $t
/var/folders/yl/_q9l42k90g1g4mdhbs226msm0000gn/T//ccC3IXiS.s:1823   .text.ADC_ClearITPendingBit:0000000000000000 ADC_ClearITPendingBit

UNDEFINED SYMBOLS
RCC_APB2PeriphResetCmd
