ARM GAS  /var/folders/yl/_q9l42k90g1g4mdhbs226msm0000gn/T//ccJqvF3Y.s 			page 1


   1              		.cpu cortex-m4
   2              		.arch armv7e-m
   3              		.fpu fpv4-sp-d16
   4              		.eabi_attribute 27, 1
   5              		.eabi_attribute 28, 1
   6              		.eabi_attribute 20, 1
   7              		.eabi_attribute 21, 1
   8              		.eabi_attribute 23, 3
   9              		.eabi_attribute 24, 1
  10              		.eabi_attribute 25, 1
  11              		.eabi_attribute 26, 1
  12              		.eabi_attribute 30, 1
  13              		.eabi_attribute 34, 1
  14              		.eabi_attribute 18, 4
  15              		.file	"stm32f4xx_it.c"
  16              		.text
  17              	.Ltext0:
  18              		.cfi_sections	.debug_frame
  19              		.section	.text.NMI_Handler,"ax",%progbits
  20              		.align	1
  21              		.global	NMI_Handler
  22              		.syntax unified
  23              		.thumb
  24              		.thumb_func
  26              	NMI_Handler:
  27              	.LFB126:
  28              		.file 1 "./User/stm32f4xx_it.c"
   1:./User/stm32f4xx_it.c **** /**
   2:./User/stm32f4xx_it.c ****   ******************************************************************************
   3:./User/stm32f4xx_it.c ****   * @file    Project/STM32F4xx_StdPeriph_Templates/stm32f4xx_it.c 
   4:./User/stm32f4xx_it.c ****   * @author  MCD Application Team
   5:./User/stm32f4xx_it.c ****   * @version V1.8.1
   6:./User/stm32f4xx_it.c ****   * @date    27-January-2022
   7:./User/stm32f4xx_it.c ****   * @brief   Main Interrupt Service Routines.
   8:./User/stm32f4xx_it.c ****   *          This file provides template for all exceptions handler and 
   9:./User/stm32f4xx_it.c ****   *          peripherals interrupt service routine.
  10:./User/stm32f4xx_it.c ****   ******************************************************************************
  11:./User/stm32f4xx_it.c ****   * @attention
  12:./User/stm32f4xx_it.c ****   *
  13:./User/stm32f4xx_it.c ****   * Copyright (c) 2016 STMicroelectronics.
  14:./User/stm32f4xx_it.c ****   * All rights reserved.
  15:./User/stm32f4xx_it.c ****   *
  16:./User/stm32f4xx_it.c ****   * This software is licensed under terms that can be found in the LICENSE file
  17:./User/stm32f4xx_it.c ****   * in the root directory of this software component.
  18:./User/stm32f4xx_it.c ****   * If no LICENSE file comes with this software, it is provided AS-IS.
  19:./User/stm32f4xx_it.c ****   *
  20:./User/stm32f4xx_it.c ****   ******************************************************************************
  21:./User/stm32f4xx_it.c ****   */
  22:./User/stm32f4xx_it.c **** 
  23:./User/stm32f4xx_it.c **** /* Includes ------------------------------------------------------------------*/
  24:./User/stm32f4xx_it.c **** #include "stm32f4xx_it.h"
  25:./User/stm32f4xx_it.c **** #include "main.h"
  26:./User/stm32f4xx_it.c **** 
  27:./User/stm32f4xx_it.c **** /** @addtogroup Template_Project
  28:./User/stm32f4xx_it.c ****   * @{
  29:./User/stm32f4xx_it.c ****   */
  30:./User/stm32f4xx_it.c **** 
ARM GAS  /var/folders/yl/_q9l42k90g1g4mdhbs226msm0000gn/T//ccJqvF3Y.s 			page 2


  31:./User/stm32f4xx_it.c **** /* Private typedef -----------------------------------------------------------*/
  32:./User/stm32f4xx_it.c **** /* Private define ------------------------------------------------------------*/
  33:./User/stm32f4xx_it.c **** /* Private macro -------------------------------------------------------------*/
  34:./User/stm32f4xx_it.c **** /* Private variables ---------------------------------------------------------*/
  35:./User/stm32f4xx_it.c **** /* Private function prototypes -----------------------------------------------*/
  36:./User/stm32f4xx_it.c **** /* Private functions ---------------------------------------------------------*/
  37:./User/stm32f4xx_it.c **** 
  38:./User/stm32f4xx_it.c **** /******************************************************************************/
  39:./User/stm32f4xx_it.c **** /*            Cortex-M4 Processor Exceptions Handlers                         */
  40:./User/stm32f4xx_it.c **** /******************************************************************************/
  41:./User/stm32f4xx_it.c **** 
  42:./User/stm32f4xx_it.c **** /**
  43:./User/stm32f4xx_it.c ****   * @brief  This function handles NMI exception.
  44:./User/stm32f4xx_it.c ****   * @param  None
  45:./User/stm32f4xx_it.c ****   * @retval None
  46:./User/stm32f4xx_it.c ****   */
  47:./User/stm32f4xx_it.c **** void NMI_Handler(void)
  48:./User/stm32f4xx_it.c **** {
  29              		.loc 1 48 1 view -0
  30              		.cfi_startproc
  31              		@ args = 0, pretend = 0, frame = 0
  32              		@ frame_needed = 0, uses_anonymous_args = 0
  33              		@ link register save eliminated.
  49:./User/stm32f4xx_it.c **** }
  34              		.loc 1 49 1 view .LVU1
  35 0000 7047     		bx	lr
  36              		.cfi_endproc
  37              	.LFE126:
  39              		.section	.text.HardFault_Handler,"ax",%progbits
  40              		.align	1
  41              		.global	HardFault_Handler
  42              		.syntax unified
  43              		.thumb
  44              		.thumb_func
  46              	HardFault_Handler:
  47              	.LFB127:
  50:./User/stm32f4xx_it.c **** 
  51:./User/stm32f4xx_it.c **** /**
  52:./User/stm32f4xx_it.c ****   * @brief  This function handles Hard Fault exception.
  53:./User/stm32f4xx_it.c ****   * @param  None
  54:./User/stm32f4xx_it.c ****   * @retval None
  55:./User/stm32f4xx_it.c ****   */
  56:./User/stm32f4xx_it.c **** void HardFault_Handler(void)
  57:./User/stm32f4xx_it.c **** {
  48              		.loc 1 57 1 view -0
  49              		.cfi_startproc
  50              		@ Volatile: function does not return.
  51              		@ args = 0, pretend = 0, frame = 0
  52              		@ frame_needed = 0, uses_anonymous_args = 0
  53              		@ link register save eliminated.
  54              	.L3:
  58:./User/stm32f4xx_it.c ****   /* Go to infinite loop when Hard Fault exception occurs */
  59:./User/stm32f4xx_it.c ****   while (1)
  55              		.loc 1 59 3 discriminator 1 view .LVU3
  60:./User/stm32f4xx_it.c ****   {
  61:./User/stm32f4xx_it.c ****   }
  56              		.loc 1 61 3 discriminator 1 view .LVU4
ARM GAS  /var/folders/yl/_q9l42k90g1g4mdhbs226msm0000gn/T//ccJqvF3Y.s 			page 3


  59:./User/stm32f4xx_it.c ****   {
  57              		.loc 1 59 9 discriminator 1 view .LVU5
  58 0000 FEE7     		b	.L3
  59              		.cfi_endproc
  60              	.LFE127:
  62              		.section	.text.MemManage_Handler,"ax",%progbits
  63              		.align	1
  64              		.global	MemManage_Handler
  65              		.syntax unified
  66              		.thumb
  67              		.thumb_func
  69              	MemManage_Handler:
  70              	.LFB128:
  62:./User/stm32f4xx_it.c **** }
  63:./User/stm32f4xx_it.c **** 
  64:./User/stm32f4xx_it.c **** /**
  65:./User/stm32f4xx_it.c ****   * @brief  This function handles Memory Manage exception.
  66:./User/stm32f4xx_it.c ****   * @param  None
  67:./User/stm32f4xx_it.c ****   * @retval None
  68:./User/stm32f4xx_it.c ****   */
  69:./User/stm32f4xx_it.c **** void MemManage_Handler(void)
  70:./User/stm32f4xx_it.c **** {
  71              		.loc 1 70 1 view -0
  72              		.cfi_startproc
  73              		@ Volatile: function does not return.
  74              		@ args = 0, pretend = 0, frame = 0
  75              		@ frame_needed = 0, uses_anonymous_args = 0
  76              		@ link register save eliminated.
  77              	.L5:
  71:./User/stm32f4xx_it.c ****   /* Go to infinite loop when Memory Manage exception occurs */
  72:./User/stm32f4xx_it.c ****   while (1)
  78              		.loc 1 72 3 discriminator 1 view .LVU7
  73:./User/stm32f4xx_it.c ****   {
  74:./User/stm32f4xx_it.c ****   }
  79              		.loc 1 74 3 discriminator 1 view .LVU8
  72:./User/stm32f4xx_it.c ****   {
  80              		.loc 1 72 9 discriminator 1 view .LVU9
  81 0000 FEE7     		b	.L5
  82              		.cfi_endproc
  83              	.LFE128:
  85              		.section	.text.BusFault_Handler,"ax",%progbits
  86              		.align	1
  87              		.global	BusFault_Handler
  88              		.syntax unified
  89              		.thumb
  90              		.thumb_func
  92              	BusFault_Handler:
  93              	.LFB129:
  75:./User/stm32f4xx_it.c **** }
  76:./User/stm32f4xx_it.c **** 
  77:./User/stm32f4xx_it.c **** /**
  78:./User/stm32f4xx_it.c ****   * @brief  This function handles Bus Fault exception.
  79:./User/stm32f4xx_it.c ****   * @param  None
  80:./User/stm32f4xx_it.c ****   * @retval None
  81:./User/stm32f4xx_it.c ****   */
  82:./User/stm32f4xx_it.c **** void BusFault_Handler(void)
  83:./User/stm32f4xx_it.c **** {
ARM GAS  /var/folders/yl/_q9l42k90g1g4mdhbs226msm0000gn/T//ccJqvF3Y.s 			page 4


  94              		.loc 1 83 1 view -0
  95              		.cfi_startproc
  96              		@ Volatile: function does not return.
  97              		@ args = 0, pretend = 0, frame = 0
  98              		@ frame_needed = 0, uses_anonymous_args = 0
  99              		@ link register save eliminated.
 100              	.L7:
  84:./User/stm32f4xx_it.c ****   /* Go to infinite loop when Bus Fault exception occurs */
  85:./User/stm32f4xx_it.c ****   while (1)
 101              		.loc 1 85 3 discriminator 1 view .LVU11
  86:./User/stm32f4xx_it.c ****   {
  87:./User/stm32f4xx_it.c ****   }
 102              		.loc 1 87 3 discriminator 1 view .LVU12
  85:./User/stm32f4xx_it.c ****   {
 103              		.loc 1 85 9 discriminator 1 view .LVU13
 104 0000 FEE7     		b	.L7
 105              		.cfi_endproc
 106              	.LFE129:
 108              		.section	.text.UsageFault_Handler,"ax",%progbits
 109              		.align	1
 110              		.global	UsageFault_Handler
 111              		.syntax unified
 112              		.thumb
 113              		.thumb_func
 115              	UsageFault_Handler:
 116              	.LFB130:
  88:./User/stm32f4xx_it.c **** }
  89:./User/stm32f4xx_it.c **** 
  90:./User/stm32f4xx_it.c **** /**
  91:./User/stm32f4xx_it.c ****   * @brief  This function handles Usage Fault exception.
  92:./User/stm32f4xx_it.c ****   * @param  None
  93:./User/stm32f4xx_it.c ****   * @retval None
  94:./User/stm32f4xx_it.c ****   */
  95:./User/stm32f4xx_it.c **** void UsageFault_Handler(void)
  96:./User/stm32f4xx_it.c **** {
 117              		.loc 1 96 1 view -0
 118              		.cfi_startproc
 119              		@ Volatile: function does not return.
 120              		@ args = 0, pretend = 0, frame = 0
 121              		@ frame_needed = 0, uses_anonymous_args = 0
 122              		@ link register save eliminated.
 123              	.L9:
  97:./User/stm32f4xx_it.c ****   /* Go to infinite loop when Usage Fault exception occurs */
  98:./User/stm32f4xx_it.c ****   while (1)
 124              		.loc 1 98 3 discriminator 1 view .LVU15
  99:./User/stm32f4xx_it.c ****   {
 100:./User/stm32f4xx_it.c ****   }
 125              		.loc 1 100 3 discriminator 1 view .LVU16
  98:./User/stm32f4xx_it.c ****   {
 126              		.loc 1 98 9 discriminator 1 view .LVU17
 127 0000 FEE7     		b	.L9
 128              		.cfi_endproc
 129              	.LFE130:
 131              		.section	.text.SVC_Handler,"ax",%progbits
 132              		.align	1
 133              		.global	SVC_Handler
 134              		.syntax unified
ARM GAS  /var/folders/yl/_q9l42k90g1g4mdhbs226msm0000gn/T//ccJqvF3Y.s 			page 5


 135              		.thumb
 136              		.thumb_func
 138              	SVC_Handler:
 139              	.LFB131:
 101:./User/stm32f4xx_it.c **** }
 102:./User/stm32f4xx_it.c **** 
 103:./User/stm32f4xx_it.c **** /**
 104:./User/stm32f4xx_it.c ****   * @brief  This function handles SVCall exception.
 105:./User/stm32f4xx_it.c ****   * @param  None
 106:./User/stm32f4xx_it.c ****   * @retval None
 107:./User/stm32f4xx_it.c ****   */
 108:./User/stm32f4xx_it.c **** void SVC_Handler(void)
 109:./User/stm32f4xx_it.c **** {
 140              		.loc 1 109 1 view -0
 141              		.cfi_startproc
 142              		@ args = 0, pretend = 0, frame = 0
 143              		@ frame_needed = 0, uses_anonymous_args = 0
 144              		@ link register save eliminated.
 110:./User/stm32f4xx_it.c **** }
 145              		.loc 1 110 1 view .LVU19
 146 0000 7047     		bx	lr
 147              		.cfi_endproc
 148              	.LFE131:
 150              		.section	.text.DebugMon_Handler,"ax",%progbits
 151              		.align	1
 152              		.global	DebugMon_Handler
 153              		.syntax unified
 154              		.thumb
 155              		.thumb_func
 157              	DebugMon_Handler:
 158              	.LFB132:
 111:./User/stm32f4xx_it.c **** 
 112:./User/stm32f4xx_it.c **** /**
 113:./User/stm32f4xx_it.c ****   * @brief  This function handles Debug Monitor exception.
 114:./User/stm32f4xx_it.c ****   * @param  None
 115:./User/stm32f4xx_it.c ****   * @retval None
 116:./User/stm32f4xx_it.c ****   */
 117:./User/stm32f4xx_it.c **** void DebugMon_Handler(void)
 118:./User/stm32f4xx_it.c **** {
 159              		.loc 1 118 1 view -0
 160              		.cfi_startproc
 161              		@ args = 0, pretend = 0, frame = 0
 162              		@ frame_needed = 0, uses_anonymous_args = 0
 163              		@ link register save eliminated.
 119:./User/stm32f4xx_it.c **** }
 164              		.loc 1 119 1 view .LVU21
 165 0000 7047     		bx	lr
 166              		.cfi_endproc
 167              	.LFE132:
 169              		.section	.text.PendSV_Handler,"ax",%progbits
 170              		.align	1
 171              		.global	PendSV_Handler
 172              		.syntax unified
 173              		.thumb
 174              		.thumb_func
 176              	PendSV_Handler:
 177              	.LFB133:
ARM GAS  /var/folders/yl/_q9l42k90g1g4mdhbs226msm0000gn/T//ccJqvF3Y.s 			page 6


 120:./User/stm32f4xx_it.c **** 
 121:./User/stm32f4xx_it.c **** /**
 122:./User/stm32f4xx_it.c ****   * @brief  This function handles PendSVC exception.
 123:./User/stm32f4xx_it.c ****   * @param  None
 124:./User/stm32f4xx_it.c ****   * @retval None
 125:./User/stm32f4xx_it.c ****   */
 126:./User/stm32f4xx_it.c **** void PendSV_Handler(void)
 127:./User/stm32f4xx_it.c **** {
 178              		.loc 1 127 1 view -0
 179              		.cfi_startproc
 180              		@ args = 0, pretend = 0, frame = 0
 181              		@ frame_needed = 0, uses_anonymous_args = 0
 182              		@ link register save eliminated.
 128:./User/stm32f4xx_it.c **** }
 183              		.loc 1 128 1 view .LVU23
 184 0000 7047     		bx	lr
 185              		.cfi_endproc
 186              	.LFE133:
 188              		.section	.text.SysTick_Handler,"ax",%progbits
 189              		.align	1
 190              		.global	SysTick_Handler
 191              		.syntax unified
 192              		.thumb
 193              		.thumb_func
 195              	SysTick_Handler:
 196              	.LFB134:
 129:./User/stm32f4xx_it.c **** 
 130:./User/stm32f4xx_it.c **** /**
 131:./User/stm32f4xx_it.c ****   * @brief  This function handles SysTick Handler.
 132:./User/stm32f4xx_it.c ****   * @param  None
 133:./User/stm32f4xx_it.c ****   * @retval None
 134:./User/stm32f4xx_it.c ****   */
 135:./User/stm32f4xx_it.c **** void SysTick_Handler(void)
 136:./User/stm32f4xx_it.c **** {
 197              		.loc 1 136 1 view -0
 198              		.cfi_startproc
 199              		@ args = 0, pretend = 0, frame = 0
 200              		@ frame_needed = 0, uses_anonymous_args = 0
 201 0000 08B5     		push	{r3, lr}
 202              	.LCFI0:
 203              		.cfi_def_cfa_offset 8
 204              		.cfi_offset 3, -8
 205              		.cfi_offset 14, -4
 137:./User/stm32f4xx_it.c ****   TimingDelay_Decrement();
 206              		.loc 1 137 3 view .LVU25
 207 0002 FFF7FEFF 		bl	TimingDelay_Decrement
 208              	.LVL0:
 138:./User/stm32f4xx_it.c **** }
 209              		.loc 1 138 1 is_stmt 0 view .LVU26
 210 0006 08BD     		pop	{r3, pc}
 211              		.cfi_endproc
 212              	.LFE134:
 214              		.text
 215              	.Letext0:
 216              		.file 2 "./User/main.h"
ARM GAS  /var/folders/yl/_q9l42k90g1g4mdhbs226msm0000gn/T//ccJqvF3Y.s 			page 7

