ARM GAS  /var/folders/yl/_q9l42k90g1g4mdhbs226msm0000gn/T//cckjqd0H.s 			page 1


   1              		.cpu cortex-m4
   2              		.arch armv7e-m
   3              		.fpu fpv4-sp-d16
   4              		.eabi_attribute 27, 1
   5              		.eabi_attribute 28, 1
   6              		.eabi_attribute 20, 1
   7              		.eabi_attribute 21, 1
   8              		.eabi_attribute 23, 3
   9              		.eabi_attribute 24, 1
  10              		.eabi_attribute 25, 1
  11              		.eabi_attribute 26, 1
  12              		.eabi_attribute 30, 6
  13              		.eabi_attribute 34, 1
  14              		.eabi_attribute 18, 4
  15              		.file	"stm32f4xx_gpio.c"
  16              		.text
  17              	.Ltext0:
  18              		.cfi_sections	.debug_frame
  19              		.section	.text.GPIO_DeInit,"ax",%progbits
  20              		.align	1
  21              		.global	GPIO_DeInit
  22              		.syntax unified
  23              		.thumb
  24              		.thumb_func
  26              	GPIO_DeInit:
  27              	.LFB123:
  28              		.file 1 "./Library/stm32f4xx_gpio.c"
   1:./Library/stm32f4xx_gpio.c **** /**
   2:./Library/stm32f4xx_gpio.c ****   ******************************************************************************
   3:./Library/stm32f4xx_gpio.c ****   * @file    stm32f4xx_gpio.c
   4:./Library/stm32f4xx_gpio.c ****   * @author  MCD Application Team
   5:./Library/stm32f4xx_gpio.c ****   * @version V1.8.1
   6:./Library/stm32f4xx_gpio.c ****   * @date    27-January-2022
   7:./Library/stm32f4xx_gpio.c ****   * @brief   This file provides firmware functions to manage the following 
   8:./Library/stm32f4xx_gpio.c ****   *          functionalities of the GPIO peripheral:           
   9:./Library/stm32f4xx_gpio.c ****   *           + Initialization and Configuration
  10:./Library/stm32f4xx_gpio.c ****   *           + GPIO Read and Write
  11:./Library/stm32f4xx_gpio.c ****   *           + GPIO Alternate functions configuration
  12:./Library/stm32f4xx_gpio.c ****   * 
  13:./Library/stm32f4xx_gpio.c **** @verbatim  
  14:./Library/stm32f4xx_gpio.c ****  ===============================================================================
  15:./Library/stm32f4xx_gpio.c ****                       ##### How to use this driver #####
  16:./Library/stm32f4xx_gpio.c ****  ===============================================================================       
  17:./Library/stm32f4xx_gpio.c ****  [..]             
  18:./Library/stm32f4xx_gpio.c ****    (#) Enable the GPIO AHB clock using the following function
  19:./Library/stm32f4xx_gpio.c ****        RCC_AHB1PeriphClockCmd(RCC_AHB1Periph_GPIOx, ENABLE);
  20:./Library/stm32f4xx_gpio.c ****                
  21:./Library/stm32f4xx_gpio.c ****    (#) Configure the GPIO pin(s) using GPIO_Init()
  22:./Library/stm32f4xx_gpio.c ****        Four possible configuration are available for each pin:
  23:./Library/stm32f4xx_gpio.c ****        (++) Input: Floating, Pull-up, Pull-down.
  24:./Library/stm32f4xx_gpio.c ****        (++) Output: Push-Pull (Pull-up, Pull-down or no Pull)
  25:./Library/stm32f4xx_gpio.c ****             Open Drain (Pull-up, Pull-down or no Pull). In output mode, the speed 
  26:./Library/stm32f4xx_gpio.c ****             is configurable: 2 MHz, 25 MHz, 50 MHz or 100 MHz.
  27:./Library/stm32f4xx_gpio.c ****        (++) Alternate Function: Push-Pull (Pull-up, Pull-down or no Pull) Open 
  28:./Library/stm32f4xx_gpio.c ****             Drain (Pull-up, Pull-down or no Pull).
  29:./Library/stm32f4xx_gpio.c ****        (++) Analog: required mode when a pin is to be used as ADC channel or DAC 
  30:./Library/stm32f4xx_gpio.c ****             output.
ARM GAS  /var/folders/yl/_q9l42k90g1g4mdhbs226msm0000gn/T//cckjqd0H.s 			page 2


  31:./Library/stm32f4xx_gpio.c ****    
  32:./Library/stm32f4xx_gpio.c ****    (#) Peripherals alternate function:
  33:./Library/stm32f4xx_gpio.c ****        (++) For ADC and DAC, configure the desired pin in analog mode using 
  34:./Library/stm32f4xx_gpio.c ****             GPIO_InitStruct->GPIO_Mode = GPIO_Mode_AN;
  35:./Library/stm32f4xx_gpio.c ****             (+++) For other peripherals (TIM, USART...):
  36:./Library/stm32f4xx_gpio.c ****             (+++) Connect the pin to the desired peripherals' Alternate 
  37:./Library/stm32f4xx_gpio.c ****                      Function (AF) using GPIO_PinAFConfig() function
  38:./Library/stm32f4xx_gpio.c ****             (+++) Configure the desired pin in alternate function mode using
  39:./Library/stm32f4xx_gpio.c ****                      GPIO_InitStruct->GPIO_Mode = GPIO_Mode_AF
  40:./Library/stm32f4xx_gpio.c ****             (+++) Select the type, pull-up/pull-down and output speed via 
  41:./Library/stm32f4xx_gpio.c ****                      GPIO_PuPd, GPIO_OType and GPIO_Speed members
  42:./Library/stm32f4xx_gpio.c ****             (+++) Call GPIO_Init() function
  43:./Library/stm32f4xx_gpio.c ****           
  44:./Library/stm32f4xx_gpio.c ****    (#) To get the level of a pin configured in input mode use GPIO_ReadInputDataBit()
  45:./Library/stm32f4xx_gpio.c ****             
  46:./Library/stm32f4xx_gpio.c ****    (#) To set/reset the level of a pin configured in output mode use 
  47:./Library/stm32f4xx_gpio.c ****        GPIO_SetBits()/GPIO_ResetBits()
  48:./Library/stm32f4xx_gpio.c ****                  
  49:./Library/stm32f4xx_gpio.c ****    (#) During and just after reset, the alternate functions are not 
  50:./Library/stm32f4xx_gpio.c ****        active and the GPIO pins are configured in input floating mode (except JTAG
  51:./Library/stm32f4xx_gpio.c ****        pins).
  52:./Library/stm32f4xx_gpio.c ****   
  53:./Library/stm32f4xx_gpio.c ****    (#) The LSE oscillator pins OSC32_IN and OSC32_OUT can be used as general purpose 
  54:./Library/stm32f4xx_gpio.c ****        (PC14 and PC15, respectively) when the LSE oscillator is off. The LSE has 
  55:./Library/stm32f4xx_gpio.c ****        priority over the GPIO function.
  56:./Library/stm32f4xx_gpio.c ****   
  57:./Library/stm32f4xx_gpio.c ****    (#) The HSE oscillator pins OSC_IN/OSC_OUT can be used as 
  58:./Library/stm32f4xx_gpio.c ****        general purpose PH0 and PH1, respectively, when the HSE oscillator is off. 
  59:./Library/stm32f4xx_gpio.c ****        The HSE has priority over the GPIO function.
  60:./Library/stm32f4xx_gpio.c ****                
  61:./Library/stm32f4xx_gpio.c **** @endverbatim        
  62:./Library/stm32f4xx_gpio.c ****   *
  63:./Library/stm32f4xx_gpio.c ****   ******************************************************************************
  64:./Library/stm32f4xx_gpio.c ****   * @attention
  65:./Library/stm32f4xx_gpio.c ****   *
  66:./Library/stm32f4xx_gpio.c ****   * Copyright (c) 2016 STMicroelectronics.
  67:./Library/stm32f4xx_gpio.c ****   * All rights reserved.
  68:./Library/stm32f4xx_gpio.c ****   *
  69:./Library/stm32f4xx_gpio.c ****   * This software is licensed under terms that can be found in the LICENSE file
  70:./Library/stm32f4xx_gpio.c ****   * in the root directory of this software component.
  71:./Library/stm32f4xx_gpio.c ****   * If no LICENSE file comes with this software, it is provided AS-IS.
  72:./Library/stm32f4xx_gpio.c ****   *
  73:./Library/stm32f4xx_gpio.c ****   ******************************************************************************
  74:./Library/stm32f4xx_gpio.c ****   */
  75:./Library/stm32f4xx_gpio.c **** 
  76:./Library/stm32f4xx_gpio.c **** /* Includes ------------------------------------------------------------------*/
  77:./Library/stm32f4xx_gpio.c **** #include "stm32f4xx_gpio.h"
  78:./Library/stm32f4xx_gpio.c **** #include "stm32f4xx_rcc.h"
  79:./Library/stm32f4xx_gpio.c **** 
  80:./Library/stm32f4xx_gpio.c **** /** @addtogroup STM32F4xx_StdPeriph_Driver
  81:./Library/stm32f4xx_gpio.c ****   * @{
  82:./Library/stm32f4xx_gpio.c ****   */
  83:./Library/stm32f4xx_gpio.c **** 
  84:./Library/stm32f4xx_gpio.c **** /** @defgroup GPIO 
  85:./Library/stm32f4xx_gpio.c ****   * @brief GPIO driver modules
  86:./Library/stm32f4xx_gpio.c ****   * @{
  87:./Library/stm32f4xx_gpio.c ****   */ 
ARM GAS  /var/folders/yl/_q9l42k90g1g4mdhbs226msm0000gn/T//cckjqd0H.s 			page 3


  88:./Library/stm32f4xx_gpio.c **** 
  89:./Library/stm32f4xx_gpio.c **** /* Private typedef -----------------------------------------------------------*/
  90:./Library/stm32f4xx_gpio.c **** /* Private define ------------------------------------------------------------*/
  91:./Library/stm32f4xx_gpio.c **** /* Private macro -------------------------------------------------------------*/
  92:./Library/stm32f4xx_gpio.c **** /* Private variables ---------------------------------------------------------*/
  93:./Library/stm32f4xx_gpio.c **** /* Private function prototypes -----------------------------------------------*/
  94:./Library/stm32f4xx_gpio.c **** /* Private functions ---------------------------------------------------------*/
  95:./Library/stm32f4xx_gpio.c **** 
  96:./Library/stm32f4xx_gpio.c **** /** @defgroup GPIO_Private_Functions
  97:./Library/stm32f4xx_gpio.c ****   * @{
  98:./Library/stm32f4xx_gpio.c ****   */ 
  99:./Library/stm32f4xx_gpio.c **** 
 100:./Library/stm32f4xx_gpio.c **** /** @defgroup GPIO_Group1 Initialization and Configuration
 101:./Library/stm32f4xx_gpio.c ****  *  @brief   Initialization and Configuration
 102:./Library/stm32f4xx_gpio.c ****  *
 103:./Library/stm32f4xx_gpio.c **** @verbatim   
 104:./Library/stm32f4xx_gpio.c ****  ===============================================================================
 105:./Library/stm32f4xx_gpio.c ****                  ##### Initialization and Configuration #####
 106:./Library/stm32f4xx_gpio.c ****  ===============================================================================  
 107:./Library/stm32f4xx_gpio.c **** 
 108:./Library/stm32f4xx_gpio.c **** @endverbatim
 109:./Library/stm32f4xx_gpio.c ****   * @{
 110:./Library/stm32f4xx_gpio.c ****   */
 111:./Library/stm32f4xx_gpio.c **** 
 112:./Library/stm32f4xx_gpio.c **** /**
 113:./Library/stm32f4xx_gpio.c ****   * @brief  De-initializes the GPIOx peripheral registers to their default reset values.
 114:./Library/stm32f4xx_gpio.c ****   * @note   By default, The GPIO pins are configured in input floating mode (except JTAG pins).
 115:./Library/stm32f4xx_gpio.c ****   * @param  GPIOx: where x can be (A..K) to select the GPIO peripheral for STM32F405xx/407xx and ST
 116:./Library/stm32f4xx_gpio.c ****   *                      x can be (A..I) to select the GPIO peripheral for STM32F42xxx/43xxx device
 117:./Library/stm32f4xx_gpio.c ****   *                      x can be (A, B, C, D and H) to select the GPIO peripheral for STM32F401xx 
 118:./Library/stm32f4xx_gpio.c ****   * @retval None
 119:./Library/stm32f4xx_gpio.c ****   */
 120:./Library/stm32f4xx_gpio.c **** void GPIO_DeInit(GPIO_TypeDef* GPIOx)
 121:./Library/stm32f4xx_gpio.c **** {
  29              		.loc 1 121 1
  30              		.cfi_startproc
  31              		@ args = 0, pretend = 0, frame = 8
  32              		@ frame_needed = 1, uses_anonymous_args = 0
  33 0000 80B5     		push	{r7, lr}
  34              	.LCFI0:
  35              		.cfi_def_cfa_offset 8
  36              		.cfi_offset 7, -8
  37              		.cfi_offset 14, -4
  38 0002 82B0     		sub	sp, sp, #8
  39              	.LCFI1:
  40              		.cfi_def_cfa_offset 16
  41 0004 00AF     		add	r7, sp, #0
  42              	.LCFI2:
  43              		.cfi_def_cfa_register 7
  44 0006 7860     		str	r0, [r7, #4]
 122:./Library/stm32f4xx_gpio.c ****   /* Check the parameters */
 123:./Library/stm32f4xx_gpio.c ****   assert_param(IS_GPIO_ALL_PERIPH(GPIOx));
 124:./Library/stm32f4xx_gpio.c **** 
 125:./Library/stm32f4xx_gpio.c ****   if (GPIOx == GPIOA)
  45              		.loc 1 125 6
  46 0008 7B68     		ldr	r3, [r7, #4]
  47 000a 4B4A     		ldr	r2, .L14
ARM GAS  /var/folders/yl/_q9l42k90g1g4mdhbs226msm0000gn/T//cckjqd0H.s 			page 4


  48 000c 9342     		cmp	r3, r2
  49 000e 08D1     		bne	.L2
 126:./Library/stm32f4xx_gpio.c ****   {
 127:./Library/stm32f4xx_gpio.c ****     RCC_AHB1PeriphResetCmd(RCC_AHB1Periph_GPIOA, ENABLE);
  50              		.loc 1 127 5
  51 0010 0121     		movs	r1, #1
  52 0012 0120     		movs	r0, #1
  53 0014 FFF7FEFF 		bl	RCC_AHB1PeriphResetCmd
 128:./Library/stm32f4xx_gpio.c ****     RCC_AHB1PeriphResetCmd(RCC_AHB1Periph_GPIOA, DISABLE);
  54              		.loc 1 128 5
  55 0018 0021     		movs	r1, #0
  56 001a 0120     		movs	r0, #1
  57 001c FFF7FEFF 		bl	RCC_AHB1PeriphResetCmd
 129:./Library/stm32f4xx_gpio.c ****   }
 130:./Library/stm32f4xx_gpio.c ****   else if (GPIOx == GPIOB)
 131:./Library/stm32f4xx_gpio.c ****   {
 132:./Library/stm32f4xx_gpio.c ****     RCC_AHB1PeriphResetCmd(RCC_AHB1Periph_GPIOB, ENABLE);
 133:./Library/stm32f4xx_gpio.c ****     RCC_AHB1PeriphResetCmd(RCC_AHB1Periph_GPIOB, DISABLE);
 134:./Library/stm32f4xx_gpio.c ****   }
 135:./Library/stm32f4xx_gpio.c ****   else if (GPIOx == GPIOC)
 136:./Library/stm32f4xx_gpio.c ****   {
 137:./Library/stm32f4xx_gpio.c ****     RCC_AHB1PeriphResetCmd(RCC_AHB1Periph_GPIOC, ENABLE);
 138:./Library/stm32f4xx_gpio.c ****     RCC_AHB1PeriphResetCmd(RCC_AHB1Periph_GPIOC, DISABLE);
 139:./Library/stm32f4xx_gpio.c ****   }
 140:./Library/stm32f4xx_gpio.c ****   else if (GPIOx == GPIOD)
 141:./Library/stm32f4xx_gpio.c ****   {
 142:./Library/stm32f4xx_gpio.c ****     RCC_AHB1PeriphResetCmd(RCC_AHB1Periph_GPIOD, ENABLE);
 143:./Library/stm32f4xx_gpio.c ****     RCC_AHB1PeriphResetCmd(RCC_AHB1Periph_GPIOD, DISABLE);
 144:./Library/stm32f4xx_gpio.c ****   }
 145:./Library/stm32f4xx_gpio.c ****   else if (GPIOx == GPIOE)
 146:./Library/stm32f4xx_gpio.c ****   {
 147:./Library/stm32f4xx_gpio.c ****     RCC_AHB1PeriphResetCmd(RCC_AHB1Periph_GPIOE, ENABLE);
 148:./Library/stm32f4xx_gpio.c ****     RCC_AHB1PeriphResetCmd(RCC_AHB1Periph_GPIOE, DISABLE);
 149:./Library/stm32f4xx_gpio.c ****   }
 150:./Library/stm32f4xx_gpio.c ****   else if (GPIOx == GPIOF)
 151:./Library/stm32f4xx_gpio.c ****   {
 152:./Library/stm32f4xx_gpio.c ****     RCC_AHB1PeriphResetCmd(RCC_AHB1Periph_GPIOF, ENABLE);
 153:./Library/stm32f4xx_gpio.c ****     RCC_AHB1PeriphResetCmd(RCC_AHB1Periph_GPIOF, DISABLE);
 154:./Library/stm32f4xx_gpio.c ****   }
 155:./Library/stm32f4xx_gpio.c ****   else if (GPIOx == GPIOG)
 156:./Library/stm32f4xx_gpio.c ****   {
 157:./Library/stm32f4xx_gpio.c ****     RCC_AHB1PeriphResetCmd(RCC_AHB1Periph_GPIOG, ENABLE);
 158:./Library/stm32f4xx_gpio.c ****     RCC_AHB1PeriphResetCmd(RCC_AHB1Periph_GPIOG, DISABLE);
 159:./Library/stm32f4xx_gpio.c ****   }
 160:./Library/stm32f4xx_gpio.c ****   else if (GPIOx == GPIOH)
 161:./Library/stm32f4xx_gpio.c ****   {
 162:./Library/stm32f4xx_gpio.c ****     RCC_AHB1PeriphResetCmd(RCC_AHB1Periph_GPIOH, ENABLE);
 163:./Library/stm32f4xx_gpio.c ****     RCC_AHB1PeriphResetCmd(RCC_AHB1Periph_GPIOH, DISABLE);
 164:./Library/stm32f4xx_gpio.c ****   }
 165:./Library/stm32f4xx_gpio.c **** 
 166:./Library/stm32f4xx_gpio.c ****   else if (GPIOx == GPIOI)
 167:./Library/stm32f4xx_gpio.c ****   {
 168:./Library/stm32f4xx_gpio.c ****     RCC_AHB1PeriphResetCmd(RCC_AHB1Periph_GPIOI, ENABLE);
 169:./Library/stm32f4xx_gpio.c ****     RCC_AHB1PeriphResetCmd(RCC_AHB1Periph_GPIOI, DISABLE);
 170:./Library/stm32f4xx_gpio.c ****   }
 171:./Library/stm32f4xx_gpio.c ****   else if (GPIOx == GPIOJ)
 172:./Library/stm32f4xx_gpio.c ****   {
ARM GAS  /var/folders/yl/_q9l42k90g1g4mdhbs226msm0000gn/T//cckjqd0H.s 			page 5


 173:./Library/stm32f4xx_gpio.c ****     RCC_AHB1PeriphResetCmd(RCC_AHB1Periph_GPIOJ, ENABLE);
 174:./Library/stm32f4xx_gpio.c ****     RCC_AHB1PeriphResetCmd(RCC_AHB1Periph_GPIOJ, DISABLE);
 175:./Library/stm32f4xx_gpio.c ****   }
 176:./Library/stm32f4xx_gpio.c ****   else
 177:./Library/stm32f4xx_gpio.c ****   {
 178:./Library/stm32f4xx_gpio.c ****     if (GPIOx == GPIOK)
 179:./Library/stm32f4xx_gpio.c ****     {
 180:./Library/stm32f4xx_gpio.c ****       RCC_AHB1PeriphResetCmd(RCC_AHB1Periph_GPIOK, ENABLE);
 181:./Library/stm32f4xx_gpio.c ****       RCC_AHB1PeriphResetCmd(RCC_AHB1Periph_GPIOK, DISABLE);
 182:./Library/stm32f4xx_gpio.c ****     }
 183:./Library/stm32f4xx_gpio.c ****   }
 184:./Library/stm32f4xx_gpio.c **** }
  58              		.loc 1 184 1
  59 0020 86E0     		b	.L13
  60              	.L2:
 130:./Library/stm32f4xx_gpio.c ****   {
  61              		.loc 1 130 11
  62 0022 7B68     		ldr	r3, [r7, #4]
  63 0024 454A     		ldr	r2, .L14+4
  64 0026 9342     		cmp	r3, r2
  65 0028 08D1     		bne	.L4
 132:./Library/stm32f4xx_gpio.c ****     RCC_AHB1PeriphResetCmd(RCC_AHB1Periph_GPIOB, DISABLE);
  66              		.loc 1 132 5
  67 002a 0121     		movs	r1, #1
  68 002c 0220     		movs	r0, #2
  69 002e FFF7FEFF 		bl	RCC_AHB1PeriphResetCmd
 133:./Library/stm32f4xx_gpio.c ****   }
  70              		.loc 1 133 5
  71 0032 0021     		movs	r1, #0
  72 0034 0220     		movs	r0, #2
  73 0036 FFF7FEFF 		bl	RCC_AHB1PeriphResetCmd
  74              		.loc 1 184 1
  75 003a 79E0     		b	.L13
  76              	.L4:
 135:./Library/stm32f4xx_gpio.c ****   {
  77              		.loc 1 135 11
  78 003c 7B68     		ldr	r3, [r7, #4]
  79 003e 404A     		ldr	r2, .L14+8
  80 0040 9342     		cmp	r3, r2
  81 0042 08D1     		bne	.L5
 137:./Library/stm32f4xx_gpio.c ****     RCC_AHB1PeriphResetCmd(RCC_AHB1Periph_GPIOC, DISABLE);
  82              		.loc 1 137 5
  83 0044 0121     		movs	r1, #1
  84 0046 0420     		movs	r0, #4
  85 0048 FFF7FEFF 		bl	RCC_AHB1PeriphResetCmd
 138:./Library/stm32f4xx_gpio.c ****   }
  86              		.loc 1 138 5
  87 004c 0021     		movs	r1, #0
  88 004e 0420     		movs	r0, #4
  89 0050 FFF7FEFF 		bl	RCC_AHB1PeriphResetCmd
  90              		.loc 1 184 1
  91 0054 6CE0     		b	.L13
  92              	.L5:
 140:./Library/stm32f4xx_gpio.c ****   {
  93              		.loc 1 140 11
  94 0056 7B68     		ldr	r3, [r7, #4]
  95 0058 3A4A     		ldr	r2, .L14+12
ARM GAS  /var/folders/yl/_q9l42k90g1g4mdhbs226msm0000gn/T//cckjqd0H.s 			page 6


  96 005a 9342     		cmp	r3, r2
  97 005c 08D1     		bne	.L6
 142:./Library/stm32f4xx_gpio.c ****     RCC_AHB1PeriphResetCmd(RCC_AHB1Periph_GPIOD, DISABLE);
  98              		.loc 1 142 5
  99 005e 0121     		movs	r1, #1
 100 0060 0820     		movs	r0, #8
 101 0062 FFF7FEFF 		bl	RCC_AHB1PeriphResetCmd
 143:./Library/stm32f4xx_gpio.c ****   }
 102              		.loc 1 143 5
 103 0066 0021     		movs	r1, #0
 104 0068 0820     		movs	r0, #8
 105 006a FFF7FEFF 		bl	RCC_AHB1PeriphResetCmd
 106              		.loc 1 184 1
 107 006e 5FE0     		b	.L13
 108              	.L6:
 145:./Library/stm32f4xx_gpio.c ****   {
 109              		.loc 1 145 11
 110 0070 7B68     		ldr	r3, [r7, #4]
 111 0072 354A     		ldr	r2, .L14+16
 112 0074 9342     		cmp	r3, r2
 113 0076 08D1     		bne	.L7
 147:./Library/stm32f4xx_gpio.c ****     RCC_AHB1PeriphResetCmd(RCC_AHB1Periph_GPIOE, DISABLE);
 114              		.loc 1 147 5
 115 0078 0121     		movs	r1, #1
 116 007a 1020     		movs	r0, #16
 117 007c FFF7FEFF 		bl	RCC_AHB1PeriphResetCmd
 148:./Library/stm32f4xx_gpio.c ****   }
 118              		.loc 1 148 5
 119 0080 0021     		movs	r1, #0
 120 0082 1020     		movs	r0, #16
 121 0084 FFF7FEFF 		bl	RCC_AHB1PeriphResetCmd
 122              		.loc 1 184 1
 123 0088 52E0     		b	.L13
 124              	.L7:
 150:./Library/stm32f4xx_gpio.c ****   {
 125              		.loc 1 150 11
 126 008a 7B68     		ldr	r3, [r7, #4]
 127 008c 2F4A     		ldr	r2, .L14+20
 128 008e 9342     		cmp	r3, r2
 129 0090 08D1     		bne	.L8
 152:./Library/stm32f4xx_gpio.c ****     RCC_AHB1PeriphResetCmd(RCC_AHB1Periph_GPIOF, DISABLE);
 130              		.loc 1 152 5
 131 0092 0121     		movs	r1, #1
 132 0094 2020     		movs	r0, #32
 133 0096 FFF7FEFF 		bl	RCC_AHB1PeriphResetCmd
 153:./Library/stm32f4xx_gpio.c ****   }
 134              		.loc 1 153 5
 135 009a 0021     		movs	r1, #0
 136 009c 2020     		movs	r0, #32
 137 009e FFF7FEFF 		bl	RCC_AHB1PeriphResetCmd
 138              		.loc 1 184 1
 139 00a2 45E0     		b	.L13
 140              	.L8:
 155:./Library/stm32f4xx_gpio.c ****   {
 141              		.loc 1 155 11
 142 00a4 7B68     		ldr	r3, [r7, #4]
 143 00a6 2A4A     		ldr	r2, .L14+24
ARM GAS  /var/folders/yl/_q9l42k90g1g4mdhbs226msm0000gn/T//cckjqd0H.s 			page 7


 144 00a8 9342     		cmp	r3, r2
 145 00aa 08D1     		bne	.L9
 157:./Library/stm32f4xx_gpio.c ****     RCC_AHB1PeriphResetCmd(RCC_AHB1Periph_GPIOG, DISABLE);
 146              		.loc 1 157 5
 147 00ac 0121     		movs	r1, #1
 148 00ae 4020     		movs	r0, #64
 149 00b0 FFF7FEFF 		bl	RCC_AHB1PeriphResetCmd
 158:./Library/stm32f4xx_gpio.c ****   }
 150              		.loc 1 158 5
 151 00b4 0021     		movs	r1, #0
 152 00b6 4020     		movs	r0, #64
 153 00b8 FFF7FEFF 		bl	RCC_AHB1PeriphResetCmd
 154              		.loc 1 184 1
 155 00bc 38E0     		b	.L13
 156              	.L9:
 160:./Library/stm32f4xx_gpio.c ****   {
 157              		.loc 1 160 11
 158 00be 7B68     		ldr	r3, [r7, #4]
 159 00c0 244A     		ldr	r2, .L14+28
 160 00c2 9342     		cmp	r3, r2
 161 00c4 08D1     		bne	.L10
 162:./Library/stm32f4xx_gpio.c ****     RCC_AHB1PeriphResetCmd(RCC_AHB1Periph_GPIOH, DISABLE);
 162              		.loc 1 162 5
 163 00c6 0121     		movs	r1, #1
 164 00c8 8020     		movs	r0, #128
 165 00ca FFF7FEFF 		bl	RCC_AHB1PeriphResetCmd
 163:./Library/stm32f4xx_gpio.c ****   }
 166              		.loc 1 163 5
 167 00ce 0021     		movs	r1, #0
 168 00d0 8020     		movs	r0, #128
 169 00d2 FFF7FEFF 		bl	RCC_AHB1PeriphResetCmd
 170              		.loc 1 184 1
 171 00d6 2BE0     		b	.L13
 172              	.L10:
 166:./Library/stm32f4xx_gpio.c ****   {
 173              		.loc 1 166 11
 174 00d8 7B68     		ldr	r3, [r7, #4]
 175 00da 1F4A     		ldr	r2, .L14+32
 176 00dc 9342     		cmp	r3, r2
 177 00de 0AD1     		bne	.L11
 168:./Library/stm32f4xx_gpio.c ****     RCC_AHB1PeriphResetCmd(RCC_AHB1Periph_GPIOI, DISABLE);
 178              		.loc 1 168 5
 179 00e0 0121     		movs	r1, #1
 180 00e2 4FF48070 		mov	r0, #256
 181 00e6 FFF7FEFF 		bl	RCC_AHB1PeriphResetCmd
 169:./Library/stm32f4xx_gpio.c ****   }
 182              		.loc 1 169 5
 183 00ea 0021     		movs	r1, #0
 184 00ec 4FF48070 		mov	r0, #256
 185 00f0 FFF7FEFF 		bl	RCC_AHB1PeriphResetCmd
 186              		.loc 1 184 1
 187 00f4 1CE0     		b	.L13
 188              	.L11:
 171:./Library/stm32f4xx_gpio.c ****   {
 189              		.loc 1 171 11
 190 00f6 7B68     		ldr	r3, [r7, #4]
 191 00f8 184A     		ldr	r2, .L14+36
ARM GAS  /var/folders/yl/_q9l42k90g1g4mdhbs226msm0000gn/T//cckjqd0H.s 			page 8


 192 00fa 9342     		cmp	r3, r2
 193 00fc 0AD1     		bne	.L12
 173:./Library/stm32f4xx_gpio.c ****     RCC_AHB1PeriphResetCmd(RCC_AHB1Periph_GPIOJ, DISABLE);
 194              		.loc 1 173 5
 195 00fe 0121     		movs	r1, #1
 196 0100 4FF40070 		mov	r0, #512
 197 0104 FFF7FEFF 		bl	RCC_AHB1PeriphResetCmd
 174:./Library/stm32f4xx_gpio.c ****   }
 198              		.loc 1 174 5
 199 0108 0021     		movs	r1, #0
 200 010a 4FF40070 		mov	r0, #512
 201 010e FFF7FEFF 		bl	RCC_AHB1PeriphResetCmd
 202              		.loc 1 184 1
 203 0112 0DE0     		b	.L13
 204              	.L12:
 178:./Library/stm32f4xx_gpio.c ****     {
 205              		.loc 1 178 8
 206 0114 7B68     		ldr	r3, [r7, #4]
 207 0116 124A     		ldr	r2, .L14+40
 208 0118 9342     		cmp	r3, r2
 209 011a 09D1     		bne	.L13
 180:./Library/stm32f4xx_gpio.c ****       RCC_AHB1PeriphResetCmd(RCC_AHB1Periph_GPIOK, DISABLE);
 210              		.loc 1 180 7
 211 011c 0121     		movs	r1, #1
 212 011e 4FF48060 		mov	r0, #1024
 213 0122 FFF7FEFF 		bl	RCC_AHB1PeriphResetCmd
 181:./Library/stm32f4xx_gpio.c ****     }
 214              		.loc 1 181 7
 215 0126 0021     		movs	r1, #0
 216 0128 4FF48060 		mov	r0, #1024
 217 012c FFF7FEFF 		bl	RCC_AHB1PeriphResetCmd
 218              	.L13:
 219              		.loc 1 184 1
 220 0130 00BF     		nop
 221 0132 0837     		adds	r7, r7, #8
 222              	.LCFI3:
 223              		.cfi_def_cfa_offset 8
 224 0134 BD46     		mov	sp, r7
 225              	.LCFI4:
 226              		.cfi_def_cfa_register 13
 227              		@ sp needed
 228 0136 80BD     		pop	{r7, pc}
 229              	.L15:
 230              		.align	2
 231              	.L14:
 232 0138 00000240 		.word	1073872896
 233 013c 00040240 		.word	1073873920
 234 0140 00080240 		.word	1073874944
 235 0144 000C0240 		.word	1073875968
 236 0148 00100240 		.word	1073876992
 237 014c 00140240 		.word	1073878016
 238 0150 00180240 		.word	1073879040
 239 0154 001C0240 		.word	1073880064
 240 0158 00200240 		.word	1073881088
 241 015c 00240240 		.word	1073882112
 242 0160 00280240 		.word	1073883136
 243              		.cfi_endproc
ARM GAS  /var/folders/yl/_q9l42k90g1g4mdhbs226msm0000gn/T//cckjqd0H.s 			page 9


 244              	.LFE123:
 246              		.section	.text.GPIO_Init,"ax",%progbits
 247              		.align	1
 248              		.global	GPIO_Init
 249              		.syntax unified
 250              		.thumb
 251              		.thumb_func
 253              	GPIO_Init:
 254              	.LFB124:
 185:./Library/stm32f4xx_gpio.c **** 
 186:./Library/stm32f4xx_gpio.c **** /**
 187:./Library/stm32f4xx_gpio.c ****   * @brief  Initializes the GPIOx peripheral according to the specified parameters in the GPIO_Init
 188:./Library/stm32f4xx_gpio.c ****   * @param  GPIOx: where x can be (A..K) to select the GPIO peripheral for STM32F405xx/407xx and ST
 189:./Library/stm32f4xx_gpio.c ****   *                      x can be (A..I) to select the GPIO peripheral for STM32F42xxx/43xxx device
 190:./Library/stm32f4xx_gpio.c ****   *                      x can be (A, B, C, D and H) to select the GPIO peripheral for STM32F401xx 
 191:./Library/stm32f4xx_gpio.c ****   * @param  GPIO_InitStruct: pointer to a GPIO_InitTypeDef structure that contains
 192:./Library/stm32f4xx_gpio.c ****   *         the configuration information for the specified GPIO peripheral.
 193:./Library/stm32f4xx_gpio.c ****   * @retval None
 194:./Library/stm32f4xx_gpio.c ****   */
 195:./Library/stm32f4xx_gpio.c **** void GPIO_Init(GPIO_TypeDef* GPIOx, GPIO_InitTypeDef* GPIO_InitStruct)
 196:./Library/stm32f4xx_gpio.c **** {
 255              		.loc 1 196 1
 256              		.cfi_startproc
 257              		@ args = 0, pretend = 0, frame = 24
 258              		@ frame_needed = 1, uses_anonymous_args = 0
 259              		@ link register save eliminated.
 260 0000 80B4     		push	{r7}
 261              	.LCFI5:
 262              		.cfi_def_cfa_offset 4
 263              		.cfi_offset 7, -4
 264 0002 87B0     		sub	sp, sp, #28
 265              	.LCFI6:
 266              		.cfi_def_cfa_offset 32
 267 0004 00AF     		add	r7, sp, #0
 268              	.LCFI7:
 269              		.cfi_def_cfa_register 7
 270 0006 7860     		str	r0, [r7, #4]
 271 0008 3960     		str	r1, [r7]
 197:./Library/stm32f4xx_gpio.c ****   uint32_t pinpos = 0x00, pos = 0x00 , currentpin = 0x00;
 272              		.loc 1 197 12
 273 000a 0023     		movs	r3, #0
 274 000c 7B61     		str	r3, [r7, #20]
 275              		.loc 1 197 27
 276 000e 0023     		movs	r3, #0
 277 0010 3B61     		str	r3, [r7, #16]
 278              		.loc 1 197 40
 279 0012 0023     		movs	r3, #0
 280 0014 FB60     		str	r3, [r7, #12]
 198:./Library/stm32f4xx_gpio.c **** 
 199:./Library/stm32f4xx_gpio.c ****   /* Check the parameters */
 200:./Library/stm32f4xx_gpio.c ****   assert_param(IS_GPIO_ALL_PERIPH(GPIOx));
 201:./Library/stm32f4xx_gpio.c ****   assert_param(IS_GPIO_PIN(GPIO_InitStruct->GPIO_Pin));
 202:./Library/stm32f4xx_gpio.c ****   assert_param(IS_GPIO_MODE(GPIO_InitStruct->GPIO_Mode));
 203:./Library/stm32f4xx_gpio.c ****   assert_param(IS_GPIO_PUPD(GPIO_InitStruct->GPIO_PuPd));
 204:./Library/stm32f4xx_gpio.c **** 
 205:./Library/stm32f4xx_gpio.c ****   /* ------------------------- Configure the port pins ---------------- */
 206:./Library/stm32f4xx_gpio.c ****   /*-- GPIO Mode Configuration --*/
ARM GAS  /var/folders/yl/_q9l42k90g1g4mdhbs226msm0000gn/T//cckjqd0H.s 			page 10


 207:./Library/stm32f4xx_gpio.c ****   for (pinpos = 0x00; pinpos < 0x10; pinpos++)
 281              		.loc 1 207 15
 282 0016 0023     		movs	r3, #0
 283 0018 7B61     		str	r3, [r7, #20]
 284              		.loc 1 207 3
 285 001a 76E0     		b	.L17
 286              	.L21:
 208:./Library/stm32f4xx_gpio.c ****   {
 209:./Library/stm32f4xx_gpio.c ****     pos = ((uint32_t)0x01) << pinpos;
 287              		.loc 1 209 9
 288 001c 0122     		movs	r2, #1
 289 001e 7B69     		ldr	r3, [r7, #20]
 290 0020 02FA03F3 		lsl	r3, r2, r3
 291 0024 3B61     		str	r3, [r7, #16]
 210:./Library/stm32f4xx_gpio.c ****     /* Get the port pins position */
 211:./Library/stm32f4xx_gpio.c ****     currentpin = (GPIO_InitStruct->GPIO_Pin) & pos;
 292              		.loc 1 211 34
 293 0026 3B68     		ldr	r3, [r7]
 294 0028 1B68     		ldr	r3, [r3]
 295              		.loc 1 211 16
 296 002a 3A69     		ldr	r2, [r7, #16]
 297 002c 1340     		ands	r3, r3, r2
 298 002e FB60     		str	r3, [r7, #12]
 212:./Library/stm32f4xx_gpio.c **** 
 213:./Library/stm32f4xx_gpio.c ****     if (currentpin == pos)
 299              		.loc 1 213 8
 300 0030 FA68     		ldr	r2, [r7, #12]
 301 0032 3B69     		ldr	r3, [r7, #16]
 302 0034 9A42     		cmp	r2, r3
 303 0036 65D1     		bne	.L18
 214:./Library/stm32f4xx_gpio.c ****     {
 215:./Library/stm32f4xx_gpio.c ****       GPIOx->MODER  &= ~(GPIO_MODER_MODER0 << (pinpos * 2));
 304              		.loc 1 215 21
 305 0038 7B68     		ldr	r3, [r7, #4]
 306 003a 1A68     		ldr	r2, [r3]
 307              		.loc 1 215 55
 308 003c 7B69     		ldr	r3, [r7, #20]
 309 003e 5B00     		lsls	r3, r3, #1
 310              		.loc 1 215 44
 311 0040 0321     		movs	r1, #3
 312 0042 01FA03F3 		lsl	r3, r1, r3
 313              		.loc 1 215 24
 314 0046 DB43     		mvns	r3, r3
 315              		.loc 1 215 21
 316 0048 1A40     		ands	r2, r2, r3
 317 004a 7B68     		ldr	r3, [r7, #4]
 318 004c 1A60     		str	r2, [r3]
 216:./Library/stm32f4xx_gpio.c ****       GPIOx->MODER |= (((uint32_t)GPIO_InitStruct->GPIO_Mode) << (pinpos * 2));
 319              		.loc 1 216 20
 320 004e 7B68     		ldr	r3, [r7, #4]
 321 0050 1A68     		ldr	r2, [r3]
 322              		.loc 1 216 50
 323 0052 3B68     		ldr	r3, [r7]
 324 0054 1B79     		ldrb	r3, [r3, #4]	@ zero_extendqisi2
 325              		.loc 1 216 25
 326 0056 1946     		mov	r1, r3
 327              		.loc 1 216 74
ARM GAS  /var/folders/yl/_q9l42k90g1g4mdhbs226msm0000gn/T//cckjqd0H.s 			page 11


 328 0058 7B69     		ldr	r3, [r7, #20]
 329 005a 5B00     		lsls	r3, r3, #1
 330              		.loc 1 216 63
 331 005c 01FA03F3 		lsl	r3, r1, r3
 332              		.loc 1 216 20
 333 0060 1A43     		orrs	r2, r2, r3
 334 0062 7B68     		ldr	r3, [r7, #4]
 335 0064 1A60     		str	r2, [r3]
 217:./Library/stm32f4xx_gpio.c **** 
 218:./Library/stm32f4xx_gpio.c ****       if ((GPIO_InitStruct->GPIO_Mode == GPIO_Mode_OUT) || (GPIO_InitStruct->GPIO_Mode == GPIO_Mode
 336              		.loc 1 218 27
 337 0066 3B68     		ldr	r3, [r7]
 338 0068 1B79     		ldrb	r3, [r3, #4]	@ zero_extendqisi2
 339              		.loc 1 218 10
 340 006a 012B     		cmp	r3, #1
 341 006c 03D0     		beq	.L19
 342              		.loc 1 218 76 discriminator 1
 343 006e 3B68     		ldr	r3, [r7]
 344 0070 1B79     		ldrb	r3, [r3, #4]	@ zero_extendqisi2
 345              		.loc 1 218 57 discriminator 1
 346 0072 022B     		cmp	r3, #2
 347 0074 2ED1     		bne	.L20
 348              	.L19:
 219:./Library/stm32f4xx_gpio.c ****       {
 220:./Library/stm32f4xx_gpio.c ****         /* Check Speed mode parameters */
 221:./Library/stm32f4xx_gpio.c ****         assert_param(IS_GPIO_SPEED(GPIO_InitStruct->GPIO_Speed));
 222:./Library/stm32f4xx_gpio.c **** 
 223:./Library/stm32f4xx_gpio.c ****         /* Speed mode configuration */
 224:./Library/stm32f4xx_gpio.c ****         GPIOx->OSPEEDR &= ~(GPIO_OSPEEDER_OSPEEDR0 << (pinpos * 2));
 349              		.loc 1 224 24
 350 0076 7B68     		ldr	r3, [r7, #4]
 351 0078 9A68     		ldr	r2, [r3, #8]
 352              		.loc 1 224 63
 353 007a 7B69     		ldr	r3, [r7, #20]
 354 007c 5B00     		lsls	r3, r3, #1
 355              		.loc 1 224 52
 356 007e 0321     		movs	r1, #3
 357 0080 01FA03F3 		lsl	r3, r1, r3
 358              		.loc 1 224 27
 359 0084 DB43     		mvns	r3, r3
 360              		.loc 1 224 24
 361 0086 1A40     		ands	r2, r2, r3
 362 0088 7B68     		ldr	r3, [r7, #4]
 363 008a 9A60     		str	r2, [r3, #8]
 225:./Library/stm32f4xx_gpio.c ****         GPIOx->OSPEEDR |= ((uint32_t)(GPIO_InitStruct->GPIO_Speed) << (pinpos * 2));
 364              		.loc 1 225 24
 365 008c 7B68     		ldr	r3, [r7, #4]
 366 008e 9A68     		ldr	r2, [r3, #8]
 367              		.loc 1 225 54
 368 0090 3B68     		ldr	r3, [r7]
 369 0092 5B79     		ldrb	r3, [r3, #5]	@ zero_extendqisi2
 370              		.loc 1 225 28
 371 0094 1946     		mov	r1, r3
 372              		.loc 1 225 79
 373 0096 7B69     		ldr	r3, [r7, #20]
 374 0098 5B00     		lsls	r3, r3, #1
 375              		.loc 1 225 68
ARM GAS  /var/folders/yl/_q9l42k90g1g4mdhbs226msm0000gn/T//cckjqd0H.s 			page 12


 376 009a 01FA03F3 		lsl	r3, r1, r3
 377              		.loc 1 225 24
 378 009e 1A43     		orrs	r2, r2, r3
 379 00a0 7B68     		ldr	r3, [r7, #4]
 380 00a2 9A60     		str	r2, [r3, #8]
 226:./Library/stm32f4xx_gpio.c **** 
 227:./Library/stm32f4xx_gpio.c ****         /* Check Output mode parameters */
 228:./Library/stm32f4xx_gpio.c ****         assert_param(IS_GPIO_OTYPE(GPIO_InitStruct->GPIO_OType));
 229:./Library/stm32f4xx_gpio.c **** 
 230:./Library/stm32f4xx_gpio.c ****         /* Output mode configuration*/
 231:./Library/stm32f4xx_gpio.c ****         GPIOx->OTYPER  &= ~((GPIO_OTYPER_OT_0) << ((uint16_t)pinpos)) ;
 381              		.loc 1 231 24
 382 00a4 7B68     		ldr	r3, [r7, #4]
 383 00a6 5A68     		ldr	r2, [r3, #4]
 384              		.loc 1 231 52
 385 00a8 7B69     		ldr	r3, [r7, #20]
 386 00aa 9BB2     		uxth	r3, r3
 387 00ac 1946     		mov	r1, r3
 388              		.loc 1 231 48
 389 00ae 0123     		movs	r3, #1
 390 00b0 8B40     		lsls	r3, r3, r1
 391              		.loc 1 231 27
 392 00b2 DB43     		mvns	r3, r3
 393              		.loc 1 231 24
 394 00b4 1A40     		ands	r2, r2, r3
 395 00b6 7B68     		ldr	r3, [r7, #4]
 396 00b8 5A60     		str	r2, [r3, #4]
 232:./Library/stm32f4xx_gpio.c ****         GPIOx->OTYPER |= (uint16_t)(((uint16_t)GPIO_InitStruct->GPIO_OType) << ((uint16_t)pinpos));
 397              		.loc 1 232 23
 398 00ba 7B68     		ldr	r3, [r7, #4]
 399 00bc 5B68     		ldr	r3, [r3, #4]
 400              		.loc 1 232 63
 401 00be 3A68     		ldr	r2, [r7]
 402 00c0 9279     		ldrb	r2, [r2, #6]	@ zero_extendqisi2
 403              		.loc 1 232 38
 404 00c2 1146     		mov	r1, r2
 405              		.loc 1 232 81
 406 00c4 7A69     		ldr	r2, [r7, #20]
 407 00c6 92B2     		uxth	r2, r2
 408              		.loc 1 232 77
 409 00c8 01FA02F2 		lsl	r2, r1, r2
 410              		.loc 1 232 26
 411 00cc 92B2     		uxth	r2, r2
 412              		.loc 1 232 23
 413 00ce 1A43     		orrs	r2, r2, r3
 414 00d0 7B68     		ldr	r3, [r7, #4]
 415 00d2 5A60     		str	r2, [r3, #4]
 416              	.L20:
 233:./Library/stm32f4xx_gpio.c ****       }
 234:./Library/stm32f4xx_gpio.c **** 
 235:./Library/stm32f4xx_gpio.c ****       /* Pull-up Pull down resistor configuration*/
 236:./Library/stm32f4xx_gpio.c ****       GPIOx->PUPDR &= ~(GPIO_PUPDR_PUPDR0 << ((uint16_t)pinpos * 2));
 417              		.loc 1 236 20
 418 00d4 7B68     		ldr	r3, [r7, #4]
 419 00d6 DA68     		ldr	r2, [r3, #12]
 420              		.loc 1 236 47
 421 00d8 7B69     		ldr	r3, [r7, #20]
ARM GAS  /var/folders/yl/_q9l42k90g1g4mdhbs226msm0000gn/T//cckjqd0H.s 			page 13


 422 00da 9BB2     		uxth	r3, r3
 423              		.loc 1 236 64
 424 00dc 5B00     		lsls	r3, r3, #1
 425              		.loc 1 236 43
 426 00de 0321     		movs	r1, #3
 427 00e0 01FA03F3 		lsl	r3, r1, r3
 428              		.loc 1 236 23
 429 00e4 DB43     		mvns	r3, r3
 430              		.loc 1 236 20
 431 00e6 1A40     		ands	r2, r2, r3
 432 00e8 7B68     		ldr	r3, [r7, #4]
 433 00ea DA60     		str	r2, [r3, #12]
 237:./Library/stm32f4xx_gpio.c ****       GPIOx->PUPDR |= (((uint32_t)GPIO_InitStruct->GPIO_PuPd) << (pinpos * 2));
 434              		.loc 1 237 20
 435 00ec 7B68     		ldr	r3, [r7, #4]
 436 00ee DA68     		ldr	r2, [r3, #12]
 437              		.loc 1 237 50
 438 00f0 3B68     		ldr	r3, [r7]
 439 00f2 DB79     		ldrb	r3, [r3, #7]	@ zero_extendqisi2
 440              		.loc 1 237 25
 441 00f4 1946     		mov	r1, r3
 442              		.loc 1 237 74
 443 00f6 7B69     		ldr	r3, [r7, #20]
 444 00f8 5B00     		lsls	r3, r3, #1
 445              		.loc 1 237 63
 446 00fa 01FA03F3 		lsl	r3, r1, r3
 447              		.loc 1 237 20
 448 00fe 1A43     		orrs	r2, r2, r3
 449 0100 7B68     		ldr	r3, [r7, #4]
 450 0102 DA60     		str	r2, [r3, #12]
 451              	.L18:
 207:./Library/stm32f4xx_gpio.c ****   {
 452              		.loc 1 207 44 discriminator 2
 453 0104 7B69     		ldr	r3, [r7, #20]
 454 0106 0133     		adds	r3, r3, #1
 455 0108 7B61     		str	r3, [r7, #20]
 456              	.L17:
 207:./Library/stm32f4xx_gpio.c ****   {
 457              		.loc 1 207 3 discriminator 1
 458 010a 7B69     		ldr	r3, [r7, #20]
 459 010c 0F2B     		cmp	r3, #15
 460 010e 85D9     		bls	.L21
 238:./Library/stm32f4xx_gpio.c ****     }
 239:./Library/stm32f4xx_gpio.c ****   }
 240:./Library/stm32f4xx_gpio.c **** }
 461              		.loc 1 240 1
 462 0110 00BF     		nop
 463 0112 00BF     		nop
 464 0114 1C37     		adds	r7, r7, #28
 465              	.LCFI8:
 466              		.cfi_def_cfa_offset 4
 467 0116 BD46     		mov	sp, r7
 468              	.LCFI9:
 469              		.cfi_def_cfa_register 13
 470              		@ sp needed
 471 0118 5DF8047B 		ldr	r7, [sp], #4
 472              	.LCFI10:
ARM GAS  /var/folders/yl/_q9l42k90g1g4mdhbs226msm0000gn/T//cckjqd0H.s 			page 14


 473              		.cfi_restore 7
 474              		.cfi_def_cfa_offset 0
 475 011c 7047     		bx	lr
 476              		.cfi_endproc
 477              	.LFE124:
 479              		.section	.text.GPIO_StructInit,"ax",%progbits
 480              		.align	1
 481              		.global	GPIO_StructInit
 482              		.syntax unified
 483              		.thumb
 484              		.thumb_func
 486              	GPIO_StructInit:
 487              	.LFB125:
 241:./Library/stm32f4xx_gpio.c **** 
 242:./Library/stm32f4xx_gpio.c **** /**
 243:./Library/stm32f4xx_gpio.c ****   * @brief  Fills each GPIO_InitStruct member with its default value.
 244:./Library/stm32f4xx_gpio.c ****   * @param  GPIO_InitStruct : pointer to a GPIO_InitTypeDef structure which will be initialized.
 245:./Library/stm32f4xx_gpio.c ****   * @retval None
 246:./Library/stm32f4xx_gpio.c ****   */
 247:./Library/stm32f4xx_gpio.c **** void GPIO_StructInit(GPIO_InitTypeDef* GPIO_InitStruct)
 248:./Library/stm32f4xx_gpio.c **** {
 488              		.loc 1 248 1
 489              		.cfi_startproc
 490              		@ args = 0, pretend = 0, frame = 8
 491              		@ frame_needed = 1, uses_anonymous_args = 0
 492              		@ link register save eliminated.
 493 0000 80B4     		push	{r7}
 494              	.LCFI11:
 495              		.cfi_def_cfa_offset 4
 496              		.cfi_offset 7, -4
 497 0002 83B0     		sub	sp, sp, #12
 498              	.LCFI12:
 499              		.cfi_def_cfa_offset 16
 500 0004 00AF     		add	r7, sp, #0
 501              	.LCFI13:
 502              		.cfi_def_cfa_register 7
 503 0006 7860     		str	r0, [r7, #4]
 249:./Library/stm32f4xx_gpio.c ****   /* Reset GPIO init structure parameters values */
 250:./Library/stm32f4xx_gpio.c ****   GPIO_InitStruct->GPIO_Pin  = GPIO_Pin_All;
 504              		.loc 1 250 30
 505 0008 7B68     		ldr	r3, [r7, #4]
 506 000a 4FF6FF72 		movw	r2, #65535
 507 000e 1A60     		str	r2, [r3]
 251:./Library/stm32f4xx_gpio.c ****   GPIO_InitStruct->GPIO_Mode = GPIO_Mode_IN;
 508              		.loc 1 251 30
 509 0010 7B68     		ldr	r3, [r7, #4]
 510 0012 0022     		movs	r2, #0
 511 0014 1A71     		strb	r2, [r3, #4]
 252:./Library/stm32f4xx_gpio.c ****   GPIO_InitStruct->GPIO_Speed = GPIO_Speed_2MHz;
 512              		.loc 1 252 31
 513 0016 7B68     		ldr	r3, [r7, #4]
 514 0018 0022     		movs	r2, #0
 515 001a 5A71     		strb	r2, [r3, #5]
 253:./Library/stm32f4xx_gpio.c ****   GPIO_InitStruct->GPIO_OType = GPIO_OType_PP;
 516              		.loc 1 253 31
 517 001c 7B68     		ldr	r3, [r7, #4]
 518 001e 0022     		movs	r2, #0
ARM GAS  /var/folders/yl/_q9l42k90g1g4mdhbs226msm0000gn/T//cckjqd0H.s 			page 15


 519 0020 9A71     		strb	r2, [r3, #6]
 254:./Library/stm32f4xx_gpio.c ****   GPIO_InitStruct->GPIO_PuPd = GPIO_PuPd_NOPULL;
 520              		.loc 1 254 30
 521 0022 7B68     		ldr	r3, [r7, #4]
 522 0024 0022     		movs	r2, #0
 523 0026 DA71     		strb	r2, [r3, #7]
 255:./Library/stm32f4xx_gpio.c **** }
 524              		.loc 1 255 1
 525 0028 00BF     		nop
 526 002a 0C37     		adds	r7, r7, #12
 527              	.LCFI14:
 528              		.cfi_def_cfa_offset 4
 529 002c BD46     		mov	sp, r7
 530              	.LCFI15:
 531              		.cfi_def_cfa_register 13
 532              		@ sp needed
 533 002e 5DF8047B 		ldr	r7, [sp], #4
 534              	.LCFI16:
 535              		.cfi_restore 7
 536              		.cfi_def_cfa_offset 0
 537 0032 7047     		bx	lr
 538              		.cfi_endproc
 539              	.LFE125:
 541              		.section	.text.GPIO_PinLockConfig,"ax",%progbits
 542              		.align	1
 543              		.global	GPIO_PinLockConfig
 544              		.syntax unified
 545              		.thumb
 546              		.thumb_func
 548              	GPIO_PinLockConfig:
 549              	.LFB126:
 256:./Library/stm32f4xx_gpio.c **** 
 257:./Library/stm32f4xx_gpio.c **** /**
 258:./Library/stm32f4xx_gpio.c ****   * @brief  Locks GPIO Pins configuration registers.
 259:./Library/stm32f4xx_gpio.c ****   * @note   The locked registers are GPIOx_MODER, GPIOx_OTYPER, GPIOx_OSPEEDR,
 260:./Library/stm32f4xx_gpio.c ****   *         GPIOx_PUPDR, GPIOx_AFRL and GPIOx_AFRH.
 261:./Library/stm32f4xx_gpio.c ****   * @note   The configuration of the locked GPIO pins can no longer be modified
 262:./Library/stm32f4xx_gpio.c ****   *         until the next reset.
 263:./Library/stm32f4xx_gpio.c ****   * @param  GPIOx: where x can be (A..K) to select the GPIO peripheral for STM32F405xx/407xx and ST
 264:./Library/stm32f4xx_gpio.c ****   *                      x can be (A..I) to select the GPIO peripheral for STM32F42xxx/43xxx device
 265:./Library/stm32f4xx_gpio.c ****   *                      x can be (A, B, C, D and H) to select the GPIO peripheral for STM32F401xx 
 266:./Library/stm32f4xx_gpio.c ****   * @param  GPIO_Pin: specifies the port bit to be locked.
 267:./Library/stm32f4xx_gpio.c ****   *          This parameter can be any combination of GPIO_Pin_x where x can be (0..15).
 268:./Library/stm32f4xx_gpio.c ****   * @retval None
 269:./Library/stm32f4xx_gpio.c ****   */
 270:./Library/stm32f4xx_gpio.c **** void GPIO_PinLockConfig(GPIO_TypeDef* GPIOx, uint16_t GPIO_Pin)
 271:./Library/stm32f4xx_gpio.c **** {
 550              		.loc 1 271 1
 551              		.cfi_startproc
 552              		@ args = 0, pretend = 0, frame = 16
 553              		@ frame_needed = 1, uses_anonymous_args = 0
 554              		@ link register save eliminated.
 555 0000 80B4     		push	{r7}
 556              	.LCFI17:
 557              		.cfi_def_cfa_offset 4
 558              		.cfi_offset 7, -4
 559 0002 85B0     		sub	sp, sp, #20
ARM GAS  /var/folders/yl/_q9l42k90g1g4mdhbs226msm0000gn/T//cckjqd0H.s 			page 16


 560              	.LCFI18:
 561              		.cfi_def_cfa_offset 24
 562 0004 00AF     		add	r7, sp, #0
 563              	.LCFI19:
 564              		.cfi_def_cfa_register 7
 565 0006 7860     		str	r0, [r7, #4]
 566 0008 0B46     		mov	r3, r1
 567 000a 7B80     		strh	r3, [r7, #2]	@ movhi
 272:./Library/stm32f4xx_gpio.c ****   __IO uint32_t tmp = 0x00010000;
 568              		.loc 1 272 17
 569 000c 4FF48033 		mov	r3, #65536
 570 0010 FB60     		str	r3, [r7, #12]
 273:./Library/stm32f4xx_gpio.c **** 
 274:./Library/stm32f4xx_gpio.c ****   /* Check the parameters */
 275:./Library/stm32f4xx_gpio.c ****   assert_param(IS_GPIO_ALL_PERIPH(GPIOx));
 276:./Library/stm32f4xx_gpio.c ****   assert_param(IS_GPIO_PIN(GPIO_Pin));
 277:./Library/stm32f4xx_gpio.c **** 
 278:./Library/stm32f4xx_gpio.c ****   tmp |= GPIO_Pin;
 571              		.loc 1 278 7
 572 0012 7A88     		ldrh	r2, [r7, #2]
 573 0014 FB68     		ldr	r3, [r7, #12]
 574 0016 1343     		orrs	r3, r3, r2
 575 0018 FB60     		str	r3, [r7, #12]
 279:./Library/stm32f4xx_gpio.c ****   /* Set LCKK bit */
 280:./Library/stm32f4xx_gpio.c ****   GPIOx->LCKR = tmp;
 576              		.loc 1 280 15
 577 001a FA68     		ldr	r2, [r7, #12]
 578 001c 7B68     		ldr	r3, [r7, #4]
 579 001e DA61     		str	r2, [r3, #28]
 281:./Library/stm32f4xx_gpio.c ****   /* Reset LCKK bit */
 282:./Library/stm32f4xx_gpio.c ****   GPIOx->LCKR =  GPIO_Pin;
 580              		.loc 1 282 15
 581 0020 7A88     		ldrh	r2, [r7, #2]
 582 0022 7B68     		ldr	r3, [r7, #4]
 583 0024 DA61     		str	r2, [r3, #28]
 283:./Library/stm32f4xx_gpio.c ****   /* Set LCKK bit */
 284:./Library/stm32f4xx_gpio.c ****   GPIOx->LCKR = tmp;
 584              		.loc 1 284 15
 585 0026 FA68     		ldr	r2, [r7, #12]
 586 0028 7B68     		ldr	r3, [r7, #4]
 587 002a DA61     		str	r2, [r3, #28]
 285:./Library/stm32f4xx_gpio.c ****   /* Read LCKK bit*/
 286:./Library/stm32f4xx_gpio.c ****   tmp = GPIOx->LCKR;
 588              		.loc 1 286 14
 589 002c 7B68     		ldr	r3, [r7, #4]
 590 002e DB69     		ldr	r3, [r3, #28]
 591              		.loc 1 286 7
 592 0030 FB60     		str	r3, [r7, #12]
 287:./Library/stm32f4xx_gpio.c ****   /* Read LCKK bit*/
 288:./Library/stm32f4xx_gpio.c ****   tmp = GPIOx->LCKR;
 593              		.loc 1 288 14
 594 0032 7B68     		ldr	r3, [r7, #4]
 595 0034 DB69     		ldr	r3, [r3, #28]
 596              		.loc 1 288 7
 597 0036 FB60     		str	r3, [r7, #12]
 289:./Library/stm32f4xx_gpio.c **** }
 598              		.loc 1 289 1
ARM GAS  /var/folders/yl/_q9l42k90g1g4mdhbs226msm0000gn/T//cckjqd0H.s 			page 17


 599 0038 00BF     		nop
 600 003a 1437     		adds	r7, r7, #20
 601              	.LCFI20:
 602              		.cfi_def_cfa_offset 4
 603 003c BD46     		mov	sp, r7
 604              	.LCFI21:
 605              		.cfi_def_cfa_register 13
 606              		@ sp needed
 607 003e 5DF8047B 		ldr	r7, [sp], #4
 608              	.LCFI22:
 609              		.cfi_restore 7
 610              		.cfi_def_cfa_offset 0
 611 0042 7047     		bx	lr
 612              		.cfi_endproc
 613              	.LFE126:
 615              		.section	.text.GPIO_ReadInputDataBit,"ax",%progbits
 616              		.align	1
 617              		.global	GPIO_ReadInputDataBit
 618              		.syntax unified
 619              		.thumb
 620              		.thumb_func
 622              	GPIO_ReadInputDataBit:
 623              	.LFB127:
 290:./Library/stm32f4xx_gpio.c **** 
 291:./Library/stm32f4xx_gpio.c **** /**
 292:./Library/stm32f4xx_gpio.c ****   * @}
 293:./Library/stm32f4xx_gpio.c ****   */
 294:./Library/stm32f4xx_gpio.c **** 
 295:./Library/stm32f4xx_gpio.c **** /** @defgroup GPIO_Group2 GPIO Read and Write
 296:./Library/stm32f4xx_gpio.c ****  *  @brief   GPIO Read and Write
 297:./Library/stm32f4xx_gpio.c ****  *
 298:./Library/stm32f4xx_gpio.c **** @verbatim   
 299:./Library/stm32f4xx_gpio.c ****  ===============================================================================
 300:./Library/stm32f4xx_gpio.c ****                          ##### GPIO Read and Write #####
 301:./Library/stm32f4xx_gpio.c ****  ===============================================================================  
 302:./Library/stm32f4xx_gpio.c **** 
 303:./Library/stm32f4xx_gpio.c **** @endverbatim
 304:./Library/stm32f4xx_gpio.c ****   * @{
 305:./Library/stm32f4xx_gpio.c ****   */
 306:./Library/stm32f4xx_gpio.c **** 
 307:./Library/stm32f4xx_gpio.c **** /**
 308:./Library/stm32f4xx_gpio.c ****   * @brief  Reads the specified input port pin.
 309:./Library/stm32f4xx_gpio.c ****   * @param  GPIOx: where x can be (A..K) to select the GPIO peripheral for STM32F405xx/407xx and ST
 310:./Library/stm32f4xx_gpio.c ****   *                      x can be (A..I) to select the GPIO peripheral for STM32F42xxx/43xxx device
 311:./Library/stm32f4xx_gpio.c ****   *                      x can be (A, B, C, D and H) to select the GPIO peripheral for STM32F401xx 
 312:./Library/stm32f4xx_gpio.c ****   * @param  GPIO_Pin: specifies the port bit to read.
 313:./Library/stm32f4xx_gpio.c ****   *         This parameter can be GPIO_Pin_x where x can be (0..15).
 314:./Library/stm32f4xx_gpio.c ****   * @retval The input port pin value.
 315:./Library/stm32f4xx_gpio.c ****   */
 316:./Library/stm32f4xx_gpio.c **** uint8_t GPIO_ReadInputDataBit(GPIO_TypeDef* GPIOx, uint16_t GPIO_Pin)
 317:./Library/stm32f4xx_gpio.c **** {
 624              		.loc 1 317 1
 625              		.cfi_startproc
 626              		@ args = 0, pretend = 0, frame = 16
 627              		@ frame_needed = 1, uses_anonymous_args = 0
 628              		@ link register save eliminated.
 629 0000 80B4     		push	{r7}
ARM GAS  /var/folders/yl/_q9l42k90g1g4mdhbs226msm0000gn/T//cckjqd0H.s 			page 18


 630              	.LCFI23:
 631              		.cfi_def_cfa_offset 4
 632              		.cfi_offset 7, -4
 633 0002 85B0     		sub	sp, sp, #20
 634              	.LCFI24:
 635              		.cfi_def_cfa_offset 24
 636 0004 00AF     		add	r7, sp, #0
 637              	.LCFI25:
 638              		.cfi_def_cfa_register 7
 639 0006 7860     		str	r0, [r7, #4]
 640 0008 0B46     		mov	r3, r1
 641 000a 7B80     		strh	r3, [r7, #2]	@ movhi
 318:./Library/stm32f4xx_gpio.c ****   uint8_t bitstatus = 0x00;
 642              		.loc 1 318 11
 643 000c 0023     		movs	r3, #0
 644 000e FB73     		strb	r3, [r7, #15]
 319:./Library/stm32f4xx_gpio.c **** 
 320:./Library/stm32f4xx_gpio.c ****   /* Check the parameters */
 321:./Library/stm32f4xx_gpio.c ****   assert_param(IS_GPIO_ALL_PERIPH(GPIOx));
 322:./Library/stm32f4xx_gpio.c ****   assert_param(IS_GET_GPIO_PIN(GPIO_Pin));
 323:./Library/stm32f4xx_gpio.c **** 
 324:./Library/stm32f4xx_gpio.c ****   if ((GPIOx->IDR & GPIO_Pin) != (uint32_t)Bit_RESET)
 645              		.loc 1 324 13
 646 0010 7B68     		ldr	r3, [r7, #4]
 647 0012 1A69     		ldr	r2, [r3, #16]
 648              		.loc 1 324 19
 649 0014 7B88     		ldrh	r3, [r7, #2]
 650 0016 1340     		ands	r3, r3, r2
 651              		.loc 1 324 6
 652 0018 002B     		cmp	r3, #0
 653 001a 02D0     		beq	.L25
 325:./Library/stm32f4xx_gpio.c ****   {
 326:./Library/stm32f4xx_gpio.c ****     bitstatus = (uint8_t)Bit_SET;
 654              		.loc 1 326 15
 655 001c 0123     		movs	r3, #1
 656 001e FB73     		strb	r3, [r7, #15]
 657 0020 01E0     		b	.L26
 658              	.L25:
 327:./Library/stm32f4xx_gpio.c ****   }
 328:./Library/stm32f4xx_gpio.c ****   else
 329:./Library/stm32f4xx_gpio.c ****   {
 330:./Library/stm32f4xx_gpio.c ****     bitstatus = (uint8_t)Bit_RESET;
 659              		.loc 1 330 15
 660 0022 0023     		movs	r3, #0
 661 0024 FB73     		strb	r3, [r7, #15]
 662              	.L26:
 331:./Library/stm32f4xx_gpio.c ****   }
 332:./Library/stm32f4xx_gpio.c ****   return bitstatus;
 663              		.loc 1 332 10
 664 0026 FB7B     		ldrb	r3, [r7, #15]	@ zero_extendqisi2
 333:./Library/stm32f4xx_gpio.c **** }
 665              		.loc 1 333 1
 666 0028 1846     		mov	r0, r3
 667 002a 1437     		adds	r7, r7, #20
 668              	.LCFI26:
 669              		.cfi_def_cfa_offset 4
 670 002c BD46     		mov	sp, r7
ARM GAS  /var/folders/yl/_q9l42k90g1g4mdhbs226msm0000gn/T//cckjqd0H.s 			page 19


 671              	.LCFI27:
 672              		.cfi_def_cfa_register 13
 673              		@ sp needed
 674 002e 5DF8047B 		ldr	r7, [sp], #4
 675              	.LCFI28:
 676              		.cfi_restore 7
 677              		.cfi_def_cfa_offset 0
 678 0032 7047     		bx	lr
 679              		.cfi_endproc
 680              	.LFE127:
 682              		.section	.text.GPIO_ReadInputData,"ax",%progbits
 683              		.align	1
 684              		.global	GPIO_ReadInputData
 685              		.syntax unified
 686              		.thumb
 687              		.thumb_func
 689              	GPIO_ReadInputData:
 690              	.LFB128:
 334:./Library/stm32f4xx_gpio.c **** 
 335:./Library/stm32f4xx_gpio.c **** /**
 336:./Library/stm32f4xx_gpio.c ****   * @brief  Reads the specified GPIO input data port.
 337:./Library/stm32f4xx_gpio.c ****   * @param  GPIOx: where x can be (A..K) to select the GPIO peripheral for STM32F405xx/407xx and ST
 338:./Library/stm32f4xx_gpio.c ****   *                      x can be (A..I) to select the GPIO peripheral for STM32F42xxx/43xxx device
 339:./Library/stm32f4xx_gpio.c ****   *                      x can be (A, B, C, D and H) to select the GPIO peripheral for STM32F401xx 
 340:./Library/stm32f4xx_gpio.c ****   * @retval GPIO input data port value.
 341:./Library/stm32f4xx_gpio.c ****   */
 342:./Library/stm32f4xx_gpio.c **** uint16_t GPIO_ReadInputData(GPIO_TypeDef* GPIOx)
 343:./Library/stm32f4xx_gpio.c **** {
 691              		.loc 1 343 1
 692              		.cfi_startproc
 693              		@ args = 0, pretend = 0, frame = 8
 694              		@ frame_needed = 1, uses_anonymous_args = 0
 695              		@ link register save eliminated.
 696 0000 80B4     		push	{r7}
 697              	.LCFI29:
 698              		.cfi_def_cfa_offset 4
 699              		.cfi_offset 7, -4
 700 0002 83B0     		sub	sp, sp, #12
 701              	.LCFI30:
 702              		.cfi_def_cfa_offset 16
 703 0004 00AF     		add	r7, sp, #0
 704              	.LCFI31:
 705              		.cfi_def_cfa_register 7
 706 0006 7860     		str	r0, [r7, #4]
 344:./Library/stm32f4xx_gpio.c ****   /* Check the parameters */
 345:./Library/stm32f4xx_gpio.c ****   assert_param(IS_GPIO_ALL_PERIPH(GPIOx));
 346:./Library/stm32f4xx_gpio.c **** 
 347:./Library/stm32f4xx_gpio.c ****   return ((uint16_t)GPIOx->IDR);
 707              		.loc 1 347 26
 708 0008 7B68     		ldr	r3, [r7, #4]
 709 000a 1B69     		ldr	r3, [r3, #16]
 710              		.loc 1 347 11
 711 000c 9BB2     		uxth	r3, r3
 348:./Library/stm32f4xx_gpio.c **** }
 712              		.loc 1 348 1
 713 000e 1846     		mov	r0, r3
 714 0010 0C37     		adds	r7, r7, #12
ARM GAS  /var/folders/yl/_q9l42k90g1g4mdhbs226msm0000gn/T//cckjqd0H.s 			page 20


 715              	.LCFI32:
 716              		.cfi_def_cfa_offset 4
 717 0012 BD46     		mov	sp, r7
 718              	.LCFI33:
 719              		.cfi_def_cfa_register 13
 720              		@ sp needed
 721 0014 5DF8047B 		ldr	r7, [sp], #4
 722              	.LCFI34:
 723              		.cfi_restore 7
 724              		.cfi_def_cfa_offset 0
 725 0018 7047     		bx	lr
 726              		.cfi_endproc
 727              	.LFE128:
 729              		.section	.text.GPIO_ReadOutputDataBit,"ax",%progbits
 730              		.align	1
 731              		.global	GPIO_ReadOutputDataBit
 732              		.syntax unified
 733              		.thumb
 734              		.thumb_func
 736              	GPIO_ReadOutputDataBit:
 737              	.LFB129:
 349:./Library/stm32f4xx_gpio.c **** 
 350:./Library/stm32f4xx_gpio.c **** /**
 351:./Library/stm32f4xx_gpio.c ****   * @brief  Reads the specified output data port bit.
 352:./Library/stm32f4xx_gpio.c ****   * @param  GPIOx: where x can be (A..K) to select the GPIO peripheral for STM32F405xx/407xx and ST
 353:./Library/stm32f4xx_gpio.c ****   *                      x can be (A..I) to select the GPIO peripheral for STM32F42xxx/43xxx device
 354:./Library/stm32f4xx_gpio.c ****   *                      x can be (A, B, C, D and H) to select the GPIO peripheral for STM32F401xx 
 355:./Library/stm32f4xx_gpio.c ****   * @param  GPIO_Pin: specifies the port bit to read.
 356:./Library/stm32f4xx_gpio.c ****   *          This parameter can be GPIO_Pin_x where x can be (0..15).
 357:./Library/stm32f4xx_gpio.c ****   * @retval The output port pin value.
 358:./Library/stm32f4xx_gpio.c ****   */
 359:./Library/stm32f4xx_gpio.c **** uint8_t GPIO_ReadOutputDataBit(GPIO_TypeDef* GPIOx, uint16_t GPIO_Pin)
 360:./Library/stm32f4xx_gpio.c **** {
 738              		.loc 1 360 1
 739              		.cfi_startproc
 740              		@ args = 0, pretend = 0, frame = 16
 741              		@ frame_needed = 1, uses_anonymous_args = 0
 742              		@ link register save eliminated.
 743 0000 80B4     		push	{r7}
 744              	.LCFI35:
 745              		.cfi_def_cfa_offset 4
 746              		.cfi_offset 7, -4
 747 0002 85B0     		sub	sp, sp, #20
 748              	.LCFI36:
 749              		.cfi_def_cfa_offset 24
 750 0004 00AF     		add	r7, sp, #0
 751              	.LCFI37:
 752              		.cfi_def_cfa_register 7
 753 0006 7860     		str	r0, [r7, #4]
 754 0008 0B46     		mov	r3, r1
 755 000a 7B80     		strh	r3, [r7, #2]	@ movhi
 361:./Library/stm32f4xx_gpio.c ****   uint8_t bitstatus = 0x00;
 756              		.loc 1 361 11
 757 000c 0023     		movs	r3, #0
 758 000e FB73     		strb	r3, [r7, #15]
 362:./Library/stm32f4xx_gpio.c **** 
 363:./Library/stm32f4xx_gpio.c ****   /* Check the parameters */
ARM GAS  /var/folders/yl/_q9l42k90g1g4mdhbs226msm0000gn/T//cckjqd0H.s 			page 21


 364:./Library/stm32f4xx_gpio.c ****   assert_param(IS_GPIO_ALL_PERIPH(GPIOx));
 365:./Library/stm32f4xx_gpio.c ****   assert_param(IS_GET_GPIO_PIN(GPIO_Pin));
 366:./Library/stm32f4xx_gpio.c **** 
 367:./Library/stm32f4xx_gpio.c ****   if (((GPIOx->ODR) & GPIO_Pin) != (uint32_t)Bit_RESET)
 759              		.loc 1 367 14
 760 0010 7B68     		ldr	r3, [r7, #4]
 761 0012 5A69     		ldr	r2, [r3, #20]
 762              		.loc 1 367 21
 763 0014 7B88     		ldrh	r3, [r7, #2]
 764 0016 1340     		ands	r3, r3, r2
 765              		.loc 1 367 6
 766 0018 002B     		cmp	r3, #0
 767 001a 02D0     		beq	.L31
 368:./Library/stm32f4xx_gpio.c ****   {
 369:./Library/stm32f4xx_gpio.c ****     bitstatus = (uint8_t)Bit_SET;
 768              		.loc 1 369 15
 769 001c 0123     		movs	r3, #1
 770 001e FB73     		strb	r3, [r7, #15]
 771 0020 01E0     		b	.L32
 772              	.L31:
 370:./Library/stm32f4xx_gpio.c ****   }
 371:./Library/stm32f4xx_gpio.c ****   else
 372:./Library/stm32f4xx_gpio.c ****   {
 373:./Library/stm32f4xx_gpio.c ****     bitstatus = (uint8_t)Bit_RESET;
 773              		.loc 1 373 15
 774 0022 0023     		movs	r3, #0
 775 0024 FB73     		strb	r3, [r7, #15]
 776              	.L32:
 374:./Library/stm32f4xx_gpio.c ****   }
 375:./Library/stm32f4xx_gpio.c ****   return bitstatus;
 777              		.loc 1 375 10
 778 0026 FB7B     		ldrb	r3, [r7, #15]	@ zero_extendqisi2
 376:./Library/stm32f4xx_gpio.c **** }
 779              		.loc 1 376 1
 780 0028 1846     		mov	r0, r3
 781 002a 1437     		adds	r7, r7, #20
 782              	.LCFI38:
 783              		.cfi_def_cfa_offset 4
 784 002c BD46     		mov	sp, r7
 785              	.LCFI39:
 786              		.cfi_def_cfa_register 13
 787              		@ sp needed
 788 002e 5DF8047B 		ldr	r7, [sp], #4
 789              	.LCFI40:
 790              		.cfi_restore 7
 791              		.cfi_def_cfa_offset 0
 792 0032 7047     		bx	lr
 793              		.cfi_endproc
 794              	.LFE129:
 796              		.section	.text.GPIO_ReadOutputData,"ax",%progbits
 797              		.align	1
 798              		.global	GPIO_ReadOutputData
 799              		.syntax unified
 800              		.thumb
 801              		.thumb_func
 803              	GPIO_ReadOutputData:
 804              	.LFB130:
ARM GAS  /var/folders/yl/_q9l42k90g1g4mdhbs226msm0000gn/T//cckjqd0H.s 			page 22


 377:./Library/stm32f4xx_gpio.c **** 
 378:./Library/stm32f4xx_gpio.c **** /**
 379:./Library/stm32f4xx_gpio.c ****   * @brief  Reads the specified GPIO output data port.
 380:./Library/stm32f4xx_gpio.c ****   * @param  GPIOx: where x can be (A..K) to select the GPIO peripheral for STM32F405xx/407xx and ST
 381:./Library/stm32f4xx_gpio.c ****   *                      x can be (A..I) to select the GPIO peripheral for STM32F42xxx/43xxx device
 382:./Library/stm32f4xx_gpio.c ****   *                      x can be (A, B, C, D and H) to select the GPIO peripheral for STM32F401xx 
 383:./Library/stm32f4xx_gpio.c ****   * @retval GPIO output data port value.
 384:./Library/stm32f4xx_gpio.c ****   */
 385:./Library/stm32f4xx_gpio.c **** uint16_t GPIO_ReadOutputData(GPIO_TypeDef* GPIOx)
 386:./Library/stm32f4xx_gpio.c **** {
 805              		.loc 1 386 1
 806              		.cfi_startproc
 807              		@ args = 0, pretend = 0, frame = 8
 808              		@ frame_needed = 1, uses_anonymous_args = 0
 809              		@ link register save eliminated.
 810 0000 80B4     		push	{r7}
 811              	.LCFI41:
 812              		.cfi_def_cfa_offset 4
 813              		.cfi_offset 7, -4
 814 0002 83B0     		sub	sp, sp, #12
 815              	.LCFI42:
 816              		.cfi_def_cfa_offset 16
 817 0004 00AF     		add	r7, sp, #0
 818              	.LCFI43:
 819              		.cfi_def_cfa_register 7
 820 0006 7860     		str	r0, [r7, #4]
 387:./Library/stm32f4xx_gpio.c ****   /* Check the parameters */
 388:./Library/stm32f4xx_gpio.c ****   assert_param(IS_GPIO_ALL_PERIPH(GPIOx));
 389:./Library/stm32f4xx_gpio.c **** 
 390:./Library/stm32f4xx_gpio.c ****   return ((uint16_t)GPIOx->ODR);
 821              		.loc 1 390 26
 822 0008 7B68     		ldr	r3, [r7, #4]
 823 000a 5B69     		ldr	r3, [r3, #20]
 824              		.loc 1 390 11
 825 000c 9BB2     		uxth	r3, r3
 391:./Library/stm32f4xx_gpio.c **** }
 826              		.loc 1 391 1
 827 000e 1846     		mov	r0, r3
 828 0010 0C37     		adds	r7, r7, #12
 829              	.LCFI44:
 830              		.cfi_def_cfa_offset 4
 831 0012 BD46     		mov	sp, r7
 832              	.LCFI45:
 833              		.cfi_def_cfa_register 13
 834              		@ sp needed
 835 0014 5DF8047B 		ldr	r7, [sp], #4
 836              	.LCFI46:
 837              		.cfi_restore 7
 838              		.cfi_def_cfa_offset 0
 839 0018 7047     		bx	lr
 840              		.cfi_endproc
 841              	.LFE130:
 843              		.section	.text.GPIO_SetBits,"ax",%progbits
 844              		.align	1
 845              		.global	GPIO_SetBits
 846              		.syntax unified
 847              		.thumb
ARM GAS  /var/folders/yl/_q9l42k90g1g4mdhbs226msm0000gn/T//cckjqd0H.s 			page 23


 848              		.thumb_func
 850              	GPIO_SetBits:
 851              	.LFB131:
 392:./Library/stm32f4xx_gpio.c **** 
 393:./Library/stm32f4xx_gpio.c **** /**
 394:./Library/stm32f4xx_gpio.c ****   * @brief  Sets the selected data port bits.
 395:./Library/stm32f4xx_gpio.c ****   * @note   This functions uses GPIOx_BSRR register to allow atomic read/modify 
 396:./Library/stm32f4xx_gpio.c ****   *         accesses. In this way, there is no risk of an IRQ occurring between
 397:./Library/stm32f4xx_gpio.c ****   *         the read and the modify access.
 398:./Library/stm32f4xx_gpio.c ****   * @param  GPIOx: where x can be (A..K) to select the GPIO peripheral for STM32F405xx/407xx and ST
 399:./Library/stm32f4xx_gpio.c ****   *                      x can be (A..I) to select the GPIO peripheral for STM32F42xxx/43xxx device
 400:./Library/stm32f4xx_gpio.c ****   *                      x can be (A, B, C, D and H) to select the GPIO peripheral for STM32F401xx 
 401:./Library/stm32f4xx_gpio.c ****   * @param  GPIO_Pin: specifies the port bits to be written.
 402:./Library/stm32f4xx_gpio.c ****   *          This parameter can be any combination of GPIO_Pin_x where x can be (0..15).
 403:./Library/stm32f4xx_gpio.c ****   * @retval None
 404:./Library/stm32f4xx_gpio.c ****   */
 405:./Library/stm32f4xx_gpio.c **** void GPIO_SetBits(GPIO_TypeDef* GPIOx, uint16_t GPIO_Pin)
 406:./Library/stm32f4xx_gpio.c **** {
 852              		.loc 1 406 1
 853              		.cfi_startproc
 854              		@ args = 0, pretend = 0, frame = 8
 855              		@ frame_needed = 1, uses_anonymous_args = 0
 856              		@ link register save eliminated.
 857 0000 80B4     		push	{r7}
 858              	.LCFI47:
 859              		.cfi_def_cfa_offset 4
 860              		.cfi_offset 7, -4
 861 0002 83B0     		sub	sp, sp, #12
 862              	.LCFI48:
 863              		.cfi_def_cfa_offset 16
 864 0004 00AF     		add	r7, sp, #0
 865              	.LCFI49:
 866              		.cfi_def_cfa_register 7
 867 0006 7860     		str	r0, [r7, #4]
 868 0008 0B46     		mov	r3, r1
 869 000a 7B80     		strh	r3, [r7, #2]	@ movhi
 407:./Library/stm32f4xx_gpio.c ****   /* Check the parameters */
 408:./Library/stm32f4xx_gpio.c ****   assert_param(IS_GPIO_ALL_PERIPH(GPIOx));
 409:./Library/stm32f4xx_gpio.c ****   assert_param(IS_GPIO_PIN(GPIO_Pin));
 410:./Library/stm32f4xx_gpio.c **** 
 411:./Library/stm32f4xx_gpio.c ****   GPIOx->BSRR = GPIO_Pin;
 870              		.loc 1 411 15
 871 000c 7A88     		ldrh	r2, [r7, #2]
 872 000e 7B68     		ldr	r3, [r7, #4]
 873 0010 9A61     		str	r2, [r3, #24]
 412:./Library/stm32f4xx_gpio.c **** }
 874              		.loc 1 412 1
 875 0012 00BF     		nop
 876 0014 0C37     		adds	r7, r7, #12
 877              	.LCFI50:
 878              		.cfi_def_cfa_offset 4
 879 0016 BD46     		mov	sp, r7
 880              	.LCFI51:
 881              		.cfi_def_cfa_register 13
 882              		@ sp needed
 883 0018 5DF8047B 		ldr	r7, [sp], #4
 884              	.LCFI52:
ARM GAS  /var/folders/yl/_q9l42k90g1g4mdhbs226msm0000gn/T//cckjqd0H.s 			page 24


 885              		.cfi_restore 7
 886              		.cfi_def_cfa_offset 0
 887 001c 7047     		bx	lr
 888              		.cfi_endproc
 889              	.LFE131:
 891              		.section	.text.GPIO_ResetBits,"ax",%progbits
 892              		.align	1
 893              		.global	GPIO_ResetBits
 894              		.syntax unified
 895              		.thumb
 896              		.thumb_func
 898              	GPIO_ResetBits:
 899              	.LFB132:
 413:./Library/stm32f4xx_gpio.c **** 
 414:./Library/stm32f4xx_gpio.c **** /**
 415:./Library/stm32f4xx_gpio.c ****   * @brief  Clears the selected data port bits.
 416:./Library/stm32f4xx_gpio.c ****   * @note   This functions uses GPIOx_BSRR register to allow atomic read/modify 
 417:./Library/stm32f4xx_gpio.c ****   *         accesses. In this way, there is no risk of an IRQ occurring between
 418:./Library/stm32f4xx_gpio.c ****   *         the read and the modify access.
 419:./Library/stm32f4xx_gpio.c ****   * @param  GPIOx: where x can be (A..K) to select the GPIO peripheral for STM32F405xx/407xx and ST
 420:./Library/stm32f4xx_gpio.c ****   *                      x can be (A..I) to select the GPIO peripheral for STM32F42xxx/43xxx device
 421:./Library/stm32f4xx_gpio.c ****   *                      x can be (A, B, C, D and H) to select the GPIO peripheral for STM32F401xx 
 422:./Library/stm32f4xx_gpio.c ****   * @param  GPIO_Pin: specifies the port bits to be written.
 423:./Library/stm32f4xx_gpio.c ****   *          This parameter can be any combination of GPIO_Pin_x where x can be (0..15).
 424:./Library/stm32f4xx_gpio.c ****   * @retval None
 425:./Library/stm32f4xx_gpio.c ****   */
 426:./Library/stm32f4xx_gpio.c **** void GPIO_ResetBits(GPIO_TypeDef* GPIOx, uint16_t GPIO_Pin)
 427:./Library/stm32f4xx_gpio.c **** {
 900              		.loc 1 427 1
 901              		.cfi_startproc
 902              		@ args = 0, pretend = 0, frame = 8
 903              		@ frame_needed = 1, uses_anonymous_args = 0
 904              		@ link register save eliminated.
 905 0000 80B4     		push	{r7}
 906              	.LCFI53:
 907              		.cfi_def_cfa_offset 4
 908              		.cfi_offset 7, -4
 909 0002 83B0     		sub	sp, sp, #12
 910              	.LCFI54:
 911              		.cfi_def_cfa_offset 16
 912 0004 00AF     		add	r7, sp, #0
 913              	.LCFI55:
 914              		.cfi_def_cfa_register 7
 915 0006 7860     		str	r0, [r7, #4]
 916 0008 0B46     		mov	r3, r1
 917 000a 7B80     		strh	r3, [r7, #2]	@ movhi
 428:./Library/stm32f4xx_gpio.c ****   /* Check the parameters */
 429:./Library/stm32f4xx_gpio.c ****   assert_param(IS_GPIO_ALL_PERIPH(GPIOx));
 430:./Library/stm32f4xx_gpio.c ****   assert_param(IS_GPIO_PIN(GPIO_Pin));
 431:./Library/stm32f4xx_gpio.c **** 
 432:./Library/stm32f4xx_gpio.c ****   GPIOx->BSRR = (uint32_t)GPIO_Pin << 16;
 918              		.loc 1 432 17
 919 000c 7B88     		ldrh	r3, [r7, #2]
 920              		.loc 1 432 36
 921 000e 1A04     		lsls	r2, r3, #16
 922              		.loc 1 432 15
 923 0010 7B68     		ldr	r3, [r7, #4]
ARM GAS  /var/folders/yl/_q9l42k90g1g4mdhbs226msm0000gn/T//cckjqd0H.s 			page 25


 924 0012 9A61     		str	r2, [r3, #24]
 433:./Library/stm32f4xx_gpio.c **** }
 925              		.loc 1 433 1
 926 0014 00BF     		nop
 927 0016 0C37     		adds	r7, r7, #12
 928              	.LCFI56:
 929              		.cfi_def_cfa_offset 4
 930 0018 BD46     		mov	sp, r7
 931              	.LCFI57:
 932              		.cfi_def_cfa_register 13
 933              		@ sp needed
 934 001a 5DF8047B 		ldr	r7, [sp], #4
 935              	.LCFI58:
 936              		.cfi_restore 7
 937              		.cfi_def_cfa_offset 0
 938 001e 7047     		bx	lr
 939              		.cfi_endproc
 940              	.LFE132:
 942              		.section	.text.GPIO_WriteBit,"ax",%progbits
 943              		.align	1
 944              		.global	GPIO_WriteBit
 945              		.syntax unified
 946              		.thumb
 947              		.thumb_func
 949              	GPIO_WriteBit:
 950              	.LFB133:
 434:./Library/stm32f4xx_gpio.c **** 
 435:./Library/stm32f4xx_gpio.c **** /**
 436:./Library/stm32f4xx_gpio.c ****   * @brief  Sets or clears the selected data port bit.
 437:./Library/stm32f4xx_gpio.c ****   * @param  GPIOx: where x can be (A..K) to select the GPIO peripheral for STM32F405xx/407xx and ST
 438:./Library/stm32f4xx_gpio.c ****   *                      x can be (A..I) to select the GPIO peripheral for STM32F42xxx/43xxx device
 439:./Library/stm32f4xx_gpio.c ****   *                      x can be (A, B, C, D and H) to select the GPIO peripheral for STM32F401xx 
 440:./Library/stm32f4xx_gpio.c ****   * @param  GPIO_Pin: specifies the port bit to be written.
 441:./Library/stm32f4xx_gpio.c ****   *          This parameter can be one of GPIO_Pin_x where x can be (0..15).
 442:./Library/stm32f4xx_gpio.c ****   * @param  BitVal: specifies the value to be written to the selected bit.
 443:./Library/stm32f4xx_gpio.c ****   *          This parameter can be one of the BitAction enum values:
 444:./Library/stm32f4xx_gpio.c ****   *            @arg Bit_RESET: to clear the port pin
 445:./Library/stm32f4xx_gpio.c ****   *            @arg Bit_SET: to set the port pin
 446:./Library/stm32f4xx_gpio.c ****   * @retval None
 447:./Library/stm32f4xx_gpio.c ****   */
 448:./Library/stm32f4xx_gpio.c **** void GPIO_WriteBit(GPIO_TypeDef* GPIOx, uint16_t GPIO_Pin, BitAction BitVal)
 449:./Library/stm32f4xx_gpio.c **** {
 951              		.loc 1 449 1
 952              		.cfi_startproc
 953              		@ args = 0, pretend = 0, frame = 8
 954              		@ frame_needed = 1, uses_anonymous_args = 0
 955              		@ link register save eliminated.
 956 0000 80B4     		push	{r7}
 957              	.LCFI59:
 958              		.cfi_def_cfa_offset 4
 959              		.cfi_offset 7, -4
 960 0002 83B0     		sub	sp, sp, #12
 961              	.LCFI60:
 962              		.cfi_def_cfa_offset 16
 963 0004 00AF     		add	r7, sp, #0
 964              	.LCFI61:
 965              		.cfi_def_cfa_register 7
ARM GAS  /var/folders/yl/_q9l42k90g1g4mdhbs226msm0000gn/T//cckjqd0H.s 			page 26


 966 0006 7860     		str	r0, [r7, #4]
 967 0008 0B46     		mov	r3, r1
 968 000a 7B80     		strh	r3, [r7, #2]	@ movhi
 969 000c 1346     		mov	r3, r2
 970 000e 7B70     		strb	r3, [r7, #1]
 450:./Library/stm32f4xx_gpio.c ****   /* Check the parameters */
 451:./Library/stm32f4xx_gpio.c ****   assert_param(IS_GPIO_ALL_PERIPH(GPIOx));
 452:./Library/stm32f4xx_gpio.c ****   assert_param(IS_GET_GPIO_PIN(GPIO_Pin));
 453:./Library/stm32f4xx_gpio.c ****   assert_param(IS_GPIO_BIT_ACTION(BitVal));
 454:./Library/stm32f4xx_gpio.c **** 
 455:./Library/stm32f4xx_gpio.c ****   if (BitVal != Bit_RESET)
 971              		.loc 1 455 6
 972 0010 7B78     		ldrb	r3, [r7, #1]	@ zero_extendqisi2
 973 0012 002B     		cmp	r3, #0
 974 0014 03D0     		beq	.L39
 456:./Library/stm32f4xx_gpio.c ****   {
 457:./Library/stm32f4xx_gpio.c ****     GPIOx->BSRR = GPIO_Pin;
 975              		.loc 1 457 17
 976 0016 7A88     		ldrh	r2, [r7, #2]
 977 0018 7B68     		ldr	r3, [r7, #4]
 978 001a 9A61     		str	r2, [r3, #24]
 458:./Library/stm32f4xx_gpio.c ****   }
 459:./Library/stm32f4xx_gpio.c ****   else
 460:./Library/stm32f4xx_gpio.c ****   {
 461:./Library/stm32f4xx_gpio.c ****     GPIOx->BSRR = (uint32_t)GPIO_Pin << 16;
 462:./Library/stm32f4xx_gpio.c ****   }
 463:./Library/stm32f4xx_gpio.c **** }
 979              		.loc 1 463 1
 980 001c 03E0     		b	.L41
 981              	.L39:
 461:./Library/stm32f4xx_gpio.c ****   }
 982              		.loc 1 461 19
 983 001e 7B88     		ldrh	r3, [r7, #2]
 461:./Library/stm32f4xx_gpio.c ****   }
 984              		.loc 1 461 38
 985 0020 1A04     		lsls	r2, r3, #16
 461:./Library/stm32f4xx_gpio.c ****   }
 986              		.loc 1 461 17
 987 0022 7B68     		ldr	r3, [r7, #4]
 988 0024 9A61     		str	r2, [r3, #24]
 989              	.L41:
 990              		.loc 1 463 1
 991 0026 00BF     		nop
 992 0028 0C37     		adds	r7, r7, #12
 993              	.LCFI62:
 994              		.cfi_def_cfa_offset 4
 995 002a BD46     		mov	sp, r7
 996              	.LCFI63:
 997              		.cfi_def_cfa_register 13
 998              		@ sp needed
 999 002c 5DF8047B 		ldr	r7, [sp], #4
 1000              	.LCFI64:
 1001              		.cfi_restore 7
 1002              		.cfi_def_cfa_offset 0
 1003 0030 7047     		bx	lr
 1004              		.cfi_endproc
 1005              	.LFE133:
ARM GAS  /var/folders/yl/_q9l42k90g1g4mdhbs226msm0000gn/T//cckjqd0H.s 			page 27


 1007              		.section	.text.GPIO_Write,"ax",%progbits
 1008              		.align	1
 1009              		.global	GPIO_Write
 1010              		.syntax unified
 1011              		.thumb
 1012              		.thumb_func
 1014              	GPIO_Write:
 1015              	.LFB134:
 464:./Library/stm32f4xx_gpio.c **** 
 465:./Library/stm32f4xx_gpio.c **** /**
 466:./Library/stm32f4xx_gpio.c ****   * @brief  Writes data to the specified GPIO data port.
 467:./Library/stm32f4xx_gpio.c ****   * @param  GPIOx: where x can be (A..K) to select the GPIO peripheral for STM32F405xx/407xx and ST
 468:./Library/stm32f4xx_gpio.c ****   *                      x can be (A..I) to select the GPIO peripheral for STM32F42xxx/43xxx device
 469:./Library/stm32f4xx_gpio.c ****   *                      x can be (A, B, C, D and H) to select the GPIO peripheral for STM32F401xx 
 470:./Library/stm32f4xx_gpio.c ****   * @param  PortVal: specifies the value to be written to the port output data register.
 471:./Library/stm32f4xx_gpio.c ****   * @retval None
 472:./Library/stm32f4xx_gpio.c ****   */
 473:./Library/stm32f4xx_gpio.c **** void GPIO_Write(GPIO_TypeDef* GPIOx, uint16_t PortVal)
 474:./Library/stm32f4xx_gpio.c **** {
 1016              		.loc 1 474 1
 1017              		.cfi_startproc
 1018              		@ args = 0, pretend = 0, frame = 8
 1019              		@ frame_needed = 1, uses_anonymous_args = 0
 1020              		@ link register save eliminated.
 1021 0000 80B4     		push	{r7}
 1022              	.LCFI65:
 1023              		.cfi_def_cfa_offset 4
 1024              		.cfi_offset 7, -4
 1025 0002 83B0     		sub	sp, sp, #12
 1026              	.LCFI66:
 1027              		.cfi_def_cfa_offset 16
 1028 0004 00AF     		add	r7, sp, #0
 1029              	.LCFI67:
 1030              		.cfi_def_cfa_register 7
 1031 0006 7860     		str	r0, [r7, #4]
 1032 0008 0B46     		mov	r3, r1
 1033 000a 7B80     		strh	r3, [r7, #2]	@ movhi
 475:./Library/stm32f4xx_gpio.c ****   /* Check the parameters */
 476:./Library/stm32f4xx_gpio.c ****   assert_param(IS_GPIO_ALL_PERIPH(GPIOx));
 477:./Library/stm32f4xx_gpio.c **** 
 478:./Library/stm32f4xx_gpio.c ****   GPIOx->ODR = PortVal;
 1034              		.loc 1 478 14
 1035 000c 7A88     		ldrh	r2, [r7, #2]
 1036 000e 7B68     		ldr	r3, [r7, #4]
 1037 0010 5A61     		str	r2, [r3, #20]
 479:./Library/stm32f4xx_gpio.c **** }
 1038              		.loc 1 479 1
 1039 0012 00BF     		nop
 1040 0014 0C37     		adds	r7, r7, #12
 1041              	.LCFI68:
 1042              		.cfi_def_cfa_offset 4
 1043 0016 BD46     		mov	sp, r7
 1044              	.LCFI69:
 1045              		.cfi_def_cfa_register 13
 1046              		@ sp needed
 1047 0018 5DF8047B 		ldr	r7, [sp], #4
 1048              	.LCFI70:
ARM GAS  /var/folders/yl/_q9l42k90g1g4mdhbs226msm0000gn/T//cckjqd0H.s 			page 28


 1049              		.cfi_restore 7
 1050              		.cfi_def_cfa_offset 0
 1051 001c 7047     		bx	lr
 1052              		.cfi_endproc
 1053              	.LFE134:
 1055              		.section	.text.GPIO_ToggleBits,"ax",%progbits
 1056              		.align	1
 1057              		.global	GPIO_ToggleBits
 1058              		.syntax unified
 1059              		.thumb
 1060              		.thumb_func
 1062              	GPIO_ToggleBits:
 1063              	.LFB135:
 480:./Library/stm32f4xx_gpio.c **** 
 481:./Library/stm32f4xx_gpio.c **** /**
 482:./Library/stm32f4xx_gpio.c ****   * @brief  Toggles the specified GPIO pins..
 483:./Library/stm32f4xx_gpio.c ****   * @param  GPIOx: where x can be (A..K) to select the GPIO peripheral for STM32F405xx/407xx and ST
 484:./Library/stm32f4xx_gpio.c ****   *                      x can be (A..I) to select the GPIO peripheral for STM32F42xxx/43xxx device
 485:./Library/stm32f4xx_gpio.c ****   *                      x can be (A, B, C, D and H) to select the GPIO peripheral for STM32F401xx 
 486:./Library/stm32f4xx_gpio.c ****   * @param  GPIO_Pin: Specifies the pins to be toggled.
 487:./Library/stm32f4xx_gpio.c ****   * @retval None
 488:./Library/stm32f4xx_gpio.c ****   */
 489:./Library/stm32f4xx_gpio.c **** void GPIO_ToggleBits(GPIO_TypeDef* GPIOx, uint16_t GPIO_Pin)
 490:./Library/stm32f4xx_gpio.c **** {
 1064              		.loc 1 490 1
 1065              		.cfi_startproc
 1066              		@ args = 0, pretend = 0, frame = 8
 1067              		@ frame_needed = 1, uses_anonymous_args = 0
 1068              		@ link register save eliminated.
 1069 0000 80B4     		push	{r7}
 1070              	.LCFI71:
 1071              		.cfi_def_cfa_offset 4
 1072              		.cfi_offset 7, -4
 1073 0002 83B0     		sub	sp, sp, #12
 1074              	.LCFI72:
 1075              		.cfi_def_cfa_offset 16
 1076 0004 00AF     		add	r7, sp, #0
 1077              	.LCFI73:
 1078              		.cfi_def_cfa_register 7
 1079 0006 7860     		str	r0, [r7, #4]
 1080 0008 0B46     		mov	r3, r1
 1081 000a 7B80     		strh	r3, [r7, #2]	@ movhi
 491:./Library/stm32f4xx_gpio.c ****   /* Check the parameters */
 492:./Library/stm32f4xx_gpio.c ****   assert_param(IS_GPIO_ALL_PERIPH(GPIOx));
 493:./Library/stm32f4xx_gpio.c **** 
 494:./Library/stm32f4xx_gpio.c ****   GPIOx->ODR ^= GPIO_Pin;
 1082              		.loc 1 494 14
 1083 000c 7B68     		ldr	r3, [r7, #4]
 1084 000e 5A69     		ldr	r2, [r3, #20]
 1085 0010 7B88     		ldrh	r3, [r7, #2]
 1086 0012 5A40     		eors	r2, r2, r3
 1087 0014 7B68     		ldr	r3, [r7, #4]
 1088 0016 5A61     		str	r2, [r3, #20]
 495:./Library/stm32f4xx_gpio.c **** }
 1089              		.loc 1 495 1
 1090 0018 00BF     		nop
 1091 001a 0C37     		adds	r7, r7, #12
ARM GAS  /var/folders/yl/_q9l42k90g1g4mdhbs226msm0000gn/T//cckjqd0H.s 			page 29


 1092              	.LCFI74:
 1093              		.cfi_def_cfa_offset 4
 1094 001c BD46     		mov	sp, r7
 1095              	.LCFI75:
 1096              		.cfi_def_cfa_register 13
 1097              		@ sp needed
 1098 001e 5DF8047B 		ldr	r7, [sp], #4
 1099              	.LCFI76:
 1100              		.cfi_restore 7
 1101              		.cfi_def_cfa_offset 0
 1102 0022 7047     		bx	lr
 1103              		.cfi_endproc
 1104              	.LFE135:
 1106              		.section	.text.GPIO_PinAFConfig,"ax",%progbits
 1107              		.align	1
 1108              		.global	GPIO_PinAFConfig
 1109              		.syntax unified
 1110              		.thumb
 1111              		.thumb_func
 1113              	GPIO_PinAFConfig:
 1114              	.LFB136:
 496:./Library/stm32f4xx_gpio.c **** 
 497:./Library/stm32f4xx_gpio.c **** /**
 498:./Library/stm32f4xx_gpio.c ****   * @}
 499:./Library/stm32f4xx_gpio.c ****   */
 500:./Library/stm32f4xx_gpio.c **** 
 501:./Library/stm32f4xx_gpio.c **** /** @defgroup GPIO_Group3 GPIO Alternate functions configuration function
 502:./Library/stm32f4xx_gpio.c ****  *  @brief   GPIO Alternate functions configuration function
 503:./Library/stm32f4xx_gpio.c ****  *
 504:./Library/stm32f4xx_gpio.c **** @verbatim   
 505:./Library/stm32f4xx_gpio.c ****  ===============================================================================
 506:./Library/stm32f4xx_gpio.c ****            ##### GPIO Alternate functions configuration function #####
 507:./Library/stm32f4xx_gpio.c ****  ===============================================================================  
 508:./Library/stm32f4xx_gpio.c **** 
 509:./Library/stm32f4xx_gpio.c **** @endverbatim
 510:./Library/stm32f4xx_gpio.c ****   * @{
 511:./Library/stm32f4xx_gpio.c ****   */
 512:./Library/stm32f4xx_gpio.c **** 
 513:./Library/stm32f4xx_gpio.c **** /**
 514:./Library/stm32f4xx_gpio.c ****   * @brief  Changes the mapping of the specified pin.
 515:./Library/stm32f4xx_gpio.c ****   * @param  GPIOx: where x can be (A..K) to select the GPIO peripheral for STM32F405xx/407xx and ST
 516:./Library/stm32f4xx_gpio.c ****   *                      x can be (A..I) to select the GPIO peripheral for STM32F42xxx/43xxx device
 517:./Library/stm32f4xx_gpio.c ****   *                      x can be (A, B, C, D and H) to select the GPIO peripheral for STM32F401xx 
 518:./Library/stm32f4xx_gpio.c ****   * @param  GPIO_PinSource: specifies the pin for the Alternate function.
 519:./Library/stm32f4xx_gpio.c ****   *         This parameter can be GPIO_PinSourcex where x can be (0..15).
 520:./Library/stm32f4xx_gpio.c ****   * @param  GPIO_AFSelection: selects the pin to used as Alternate function.
 521:./Library/stm32f4xx_gpio.c ****   *          This parameter can be one of the following values:
 522:./Library/stm32f4xx_gpio.c ****   *            @arg GPIO_AF_RTC_50Hz: Connect RTC_50Hz pin to AF0 (default after reset) 
 523:./Library/stm32f4xx_gpio.c ****   *            @arg GPIO_AF_MCO: Connect MCO pin (MCO1 and MCO2) to AF0 (default after reset) 
 524:./Library/stm32f4xx_gpio.c ****   *            @arg GPIO_AF_TAMPER: Connect TAMPER pins (TAMPER_1 and TAMPER_2) to AF0 (default aft
 525:./Library/stm32f4xx_gpio.c ****   *            @arg GPIO_AF_SWJ: Connect SWJ pins (SWD and JTAG)to AF0 (default after reset) 
 526:./Library/stm32f4xx_gpio.c ****   *            @arg GPIO_AF_TRACE: Connect TRACE pins to AF0 (default after reset)
 527:./Library/stm32f4xx_gpio.c ****   *            @arg GPIO_AF_TIM1: Connect TIM1 pins to AF1
 528:./Library/stm32f4xx_gpio.c ****   *            @arg GPIO_AF_TIM2: Connect TIM2 pins to AF1
 529:./Library/stm32f4xx_gpio.c ****   *            @arg GPIO_AF_TIM3: Connect TIM3 pins to AF2
 530:./Library/stm32f4xx_gpio.c ****   *            @arg GPIO_AF_TIM4: Connect TIM4 pins to AF2
 531:./Library/stm32f4xx_gpio.c ****   *            @arg GPIO_AF_TIM5: Connect TIM5 pins to AF2
ARM GAS  /var/folders/yl/_q9l42k90g1g4mdhbs226msm0000gn/T//cckjqd0H.s 			page 30


 532:./Library/stm32f4xx_gpio.c ****   *            @arg GPIO_AF_TIM8: Connect TIM8 pins to AF3
 533:./Library/stm32f4xx_gpio.c ****   *            @arg GPIO_AF_TIM9: Connect TIM9 pins to AF3
 534:./Library/stm32f4xx_gpio.c ****   *            @arg GPIO_AF_TIM10: Connect TIM10 pins to AF3
 535:./Library/stm32f4xx_gpio.c ****   *            @arg GPIO_AF_TIM11: Connect TIM11 pins to AF3
 536:./Library/stm32f4xx_gpio.c ****   *            @arg GPIO_AF_I2C1: Connect I2C1 pins to AF4
 537:./Library/stm32f4xx_gpio.c ****   *            @arg GPIO_AF_I2C2: Connect I2C2 pins to AF4
 538:./Library/stm32f4xx_gpio.c ****   *            @arg GPIO_AF_I2C3: Connect I2C3 pins to AF4
 539:./Library/stm32f4xx_gpio.c ****   *            @arg GPIO_AF_SPI1: Connect SPI1 pins to AF5
 540:./Library/stm32f4xx_gpio.c ****   *            @arg GPIO_AF_SPI2: Connect SPI2/I2S2 pins to AF5
 541:./Library/stm32f4xx_gpio.c ****   *            @arg GPIO_AF_SPI4: Connect SPI4 pins to AF5 
 542:./Library/stm32f4xx_gpio.c ****   *            @arg GPIO_AF_SPI5: Connect SPI5 pins to AF5 
 543:./Library/stm32f4xx_gpio.c ****   *            @arg GPIO_AF_SPI6: Connect SPI6 pins to AF5
 544:./Library/stm32f4xx_gpio.c ****   *            @arg GPIO_AF_SAI1: Connect SAI1 pins to AF6 for STM32F42xxx/43xxx devices.       
 545:./Library/stm32f4xx_gpio.c ****   *            @arg GPIO_AF_SPI3: Connect SPI3/I2S3 pins to AF6
 546:./Library/stm32f4xx_gpio.c ****   *            @arg GPIO_AF_I2S3ext: Connect I2S3ext pins to AF7
 547:./Library/stm32f4xx_gpio.c ****   *            @arg GPIO_AF_USART1: Connect USART1 pins to AF7
 548:./Library/stm32f4xx_gpio.c ****   *            @arg GPIO_AF_USART2: Connect USART2 pins to AF7
 549:./Library/stm32f4xx_gpio.c ****   *            @arg GPIO_AF_USART3: Connect USART3 pins to AF7
 550:./Library/stm32f4xx_gpio.c ****   *            @arg GPIO_AF_UART4: Connect UART4 pins to AF8
 551:./Library/stm32f4xx_gpio.c ****   *            @arg GPIO_AF_UART5: Connect UART5 pins to AF8
 552:./Library/stm32f4xx_gpio.c ****   *            @arg GPIO_AF_USART6: Connect USART6 pins to AF8
 553:./Library/stm32f4xx_gpio.c ****   *            @arg GPIO_AF_UART7: Connect UART7 pins to AF8
 554:./Library/stm32f4xx_gpio.c ****   *            @arg GPIO_AF_UART8: Connect UART8 pins to AF8
 555:./Library/stm32f4xx_gpio.c ****   *            @arg GPIO_AF_CAN1: Connect CAN1 pins to AF9
 556:./Library/stm32f4xx_gpio.c ****   *            @arg GPIO_AF_CAN2: Connect CAN2 pins to AF9
 557:./Library/stm32f4xx_gpio.c ****   *            @arg GPIO_AF_TIM12: Connect TIM12 pins to AF9
 558:./Library/stm32f4xx_gpio.c ****   *            @arg GPIO_AF_TIM13: Connect TIM13 pins to AF9
 559:./Library/stm32f4xx_gpio.c ****   *            @arg GPIO_AF_TIM14: Connect TIM14 pins to AF9
 560:./Library/stm32f4xx_gpio.c ****   *            @arg GPIO_AF_OTG_FS: Connect OTG_FS pins to AF10
 561:./Library/stm32f4xx_gpio.c ****   *            @arg GPIO_AF_OTG_HS: Connect OTG_HS pins to AF10
 562:./Library/stm32f4xx_gpio.c ****   *            @arg GPIO_AF_ETH: Connect ETHERNET pins to AF11
 563:./Library/stm32f4xx_gpio.c ****   *            @arg GPIO_AF_FSMC: Connect FSMC pins to AF12 
 564:./Library/stm32f4xx_gpio.c ****   *            @arg GPIO_AF_FMC: Connect FMC pins to AF12 for STM32F42xxx/43xxx devices.   
 565:./Library/stm32f4xx_gpio.c ****   *            @arg GPIO_AF_OTG_HS_FS: Connect OTG HS (configured in FS) pins to AF12
 566:./Library/stm32f4xx_gpio.c ****   *            @arg GPIO_AF_SDIO: Connect SDIO pins to AF12
 567:./Library/stm32f4xx_gpio.c ****   *            @arg GPIO_AF_DCMI: Connect DCMI pins to AF13
 568:./Library/stm32f4xx_gpio.c ****   *            @arg GPIO_AF_LTDC: Connect LTDC pins to AF14 for STM32F429xx/439xx devices. 
 569:./Library/stm32f4xx_gpio.c ****   *            @arg GPIO_AF_EVENTOUT: Connect EVENTOUT pins to AF15
 570:./Library/stm32f4xx_gpio.c ****   * @retval None
 571:./Library/stm32f4xx_gpio.c ****   */
 572:./Library/stm32f4xx_gpio.c **** void GPIO_PinAFConfig(GPIO_TypeDef* GPIOx, uint16_t GPIO_PinSource, uint8_t GPIO_AF)
 573:./Library/stm32f4xx_gpio.c **** {
 1115              		.loc 1 573 1
 1116              		.cfi_startproc
 1117              		@ args = 0, pretend = 0, frame = 16
 1118              		@ frame_needed = 1, uses_anonymous_args = 0
 1119              		@ link register save eliminated.
 1120 0000 80B4     		push	{r7}
 1121              	.LCFI77:
 1122              		.cfi_def_cfa_offset 4
 1123              		.cfi_offset 7, -4
 1124 0002 85B0     		sub	sp, sp, #20
 1125              	.LCFI78:
 1126              		.cfi_def_cfa_offset 24
 1127 0004 00AF     		add	r7, sp, #0
 1128              	.LCFI79:
 1129              		.cfi_def_cfa_register 7
ARM GAS  /var/folders/yl/_q9l42k90g1g4mdhbs226msm0000gn/T//cckjqd0H.s 			page 31


 1130 0006 7860     		str	r0, [r7, #4]
 1131 0008 0B46     		mov	r3, r1
 1132 000a 7B80     		strh	r3, [r7, #2]	@ movhi
 1133 000c 1346     		mov	r3, r2
 1134 000e 7B70     		strb	r3, [r7, #1]
 574:./Library/stm32f4xx_gpio.c ****   uint32_t temp = 0x00;
 1135              		.loc 1 574 12
 1136 0010 0023     		movs	r3, #0
 1137 0012 FB60     		str	r3, [r7, #12]
 575:./Library/stm32f4xx_gpio.c ****   uint32_t temp_2 = 0x00;
 1138              		.loc 1 575 12
 1139 0014 0023     		movs	r3, #0
 1140 0016 BB60     		str	r3, [r7, #8]
 576:./Library/stm32f4xx_gpio.c ****   
 577:./Library/stm32f4xx_gpio.c ****   /* Check the parameters */
 578:./Library/stm32f4xx_gpio.c ****   assert_param(IS_GPIO_ALL_PERIPH(GPIOx));
 579:./Library/stm32f4xx_gpio.c ****   assert_param(IS_GPIO_PIN_SOURCE(GPIO_PinSource));
 580:./Library/stm32f4xx_gpio.c ****   assert_param(IS_GPIO_AF(GPIO_AF));
 581:./Library/stm32f4xx_gpio.c ****   
 582:./Library/stm32f4xx_gpio.c ****   temp = ((uint32_t)(GPIO_AF) << ((uint32_t)((uint32_t)GPIO_PinSource & (uint32_t)0x07) * 4)) ;
 1141              		.loc 1 582 11
 1142 0018 7A78     		ldrb	r2, [r7, #1]	@ zero_extendqisi2
 1143              		.loc 1 582 35
 1144 001a 7B88     		ldrh	r3, [r7, #2]
 1145 001c 03F00703 		and	r3, r3, #7
 1146              		.loc 1 582 89
 1147 0020 9B00     		lsls	r3, r3, #2
 1148              		.loc 1 582 8
 1149 0022 02FA03F3 		lsl	r3, r2, r3
 1150 0026 FB60     		str	r3, [r7, #12]
 583:./Library/stm32f4xx_gpio.c ****   GPIOx->AFR[GPIO_PinSource >> 0x03] &= ~((uint32_t)0xF << ((uint32_t)((uint32_t)GPIO_PinSource & (
 1151              		.loc 1 583 38
 1152 0028 7B88     		ldrh	r3, [r7, #2]
 1153 002a DB08     		lsrs	r3, r3, #3
 1154 002c 9BB2     		uxth	r3, r3
 1155 002e 1A46     		mov	r2, r3
 1156 0030 7B68     		ldr	r3, [r7, #4]
 1157 0032 0832     		adds	r2, r2, #8
 1158 0034 53F82220 		ldr	r2, [r3, r2, lsl #2]
 1159              		.loc 1 583 61
 1160 0038 7B88     		ldrh	r3, [r7, #2]
 1161 003a 03F00703 		and	r3, r3, #7
 1162              		.loc 1 583 115
 1163 003e 9B00     		lsls	r3, r3, #2
 1164              		.loc 1 583 57
 1165 0040 0F21     		movs	r1, #15
 1166 0042 01FA03F3 		lsl	r3, r1, r3
 1167              		.loc 1 583 41
 1168 0046 DB43     		mvns	r3, r3
 1169              		.loc 1 583 38
 1170 0048 7988     		ldrh	r1, [r7, #2]
 1171 004a C908     		lsrs	r1, r1, #3
 1172 004c 89B2     		uxth	r1, r1
 1173 004e 0846     		mov	r0, r1
 1174 0050 02EA0301 		and	r1, r2, r3
 1175 0054 7B68     		ldr	r3, [r7, #4]
 1176 0056 00F10802 		add	r2, r0, #8
ARM GAS  /var/folders/yl/_q9l42k90g1g4mdhbs226msm0000gn/T//cckjqd0H.s 			page 32


 1177 005a 43F82210 		str	r1, [r3, r2, lsl #2]
 584:./Library/stm32f4xx_gpio.c ****   temp_2 = GPIOx->AFR[GPIO_PinSource >> 0x03] | temp;
 1178              		.loc 1 584 38
 1179 005e 7B88     		ldrh	r3, [r7, #2]
 1180 0060 DB08     		lsrs	r3, r3, #3
 1181 0062 9BB2     		uxth	r3, r3
 1182 0064 1A46     		mov	r2, r3
 1183              		.loc 1 584 22
 1184 0066 7B68     		ldr	r3, [r7, #4]
 1185 0068 0832     		adds	r2, r2, #8
 1186 006a 53F82230 		ldr	r3, [r3, r2, lsl #2]
 1187              		.loc 1 584 10
 1188 006e FA68     		ldr	r2, [r7, #12]
 1189 0070 1343     		orrs	r3, r3, r2
 1190 0072 BB60     		str	r3, [r7, #8]
 585:./Library/stm32f4xx_gpio.c ****   GPIOx->AFR[GPIO_PinSource >> 0x03] = temp_2;
 1191              		.loc 1 585 29
 1192 0074 7B88     		ldrh	r3, [r7, #2]
 1193 0076 DB08     		lsrs	r3, r3, #3
 1194 0078 9BB2     		uxth	r3, r3
 1195 007a 1A46     		mov	r2, r3
 1196              		.loc 1 585 38
 1197 007c 7B68     		ldr	r3, [r7, #4]
 1198 007e 0832     		adds	r2, r2, #8
 1199 0080 B968     		ldr	r1, [r7, #8]
 1200 0082 43F82210 		str	r1, [r3, r2, lsl #2]
 586:./Library/stm32f4xx_gpio.c **** }
 1201              		.loc 1 586 1
 1202 0086 00BF     		nop
 1203 0088 1437     		adds	r7, r7, #20
 1204              	.LCFI80:
 1205              		.cfi_def_cfa_offset 4
 1206 008a BD46     		mov	sp, r7
 1207              	.LCFI81:
 1208              		.cfi_def_cfa_register 13
 1209              		@ sp needed
 1210 008c 5DF8047B 		ldr	r7, [sp], #4
 1211              	.LCFI82:
 1212              		.cfi_restore 7
 1213              		.cfi_def_cfa_offset 0
 1214 0090 7047     		bx	lr
 1215              		.cfi_endproc
 1216              	.LFE136:
 1218              		.text
 1219              	.Letext0:
 1220              		.file 2 "/Applications/ARM/arm-none-eabi/include/machine/_default_types.h"
 1221              		.file 3 "/Applications/ARM/arm-none-eabi/include/sys/_stdint.h"
 1222              		.file 4 "./CORE/stm32f4xx.h"
 1223              		.file 5 "./Library/stm32f4xx_gpio.h"
ARM GAS  /var/folders/yl/_q9l42k90g1g4mdhbs226msm0000gn/T//cckjqd0H.s 			page 33

