ARM GAS  /var/folders/yl/_q9l42k90g1g4mdhbs226msm0000gn/T//cclSErw0.s 			page 1


   1              		.cpu cortex-m4
   2              		.arch armv7e-m
   3              		.fpu fpv4-sp-d16
   4              		.eabi_attribute 27, 1
   5              		.eabi_attribute 28, 1
   6              		.eabi_attribute 20, 1
   7              		.eabi_attribute 21, 1
   8              		.eabi_attribute 23, 3
   9              		.eabi_attribute 24, 1
  10              		.eabi_attribute 25, 1
  11              		.eabi_attribute 26, 1
  12              		.eabi_attribute 30, 6
  13              		.eabi_attribute 34, 1
  14              		.eabi_attribute 18, 4
  15              		.file	"stm32f4xx_tim.c"
  16              		.text
  17              	.Ltext0:
  18              		.cfi_sections	.debug_frame
  19              		.section	.text.TIM_DeInit,"ax",%progbits
  20              		.align	1
  21              		.global	TIM_DeInit
  22              		.syntax unified
  23              		.thumb
  24              		.thumb_func
  26              	TIM_DeInit:
  27              	.LFB123:
  28              		.file 1 "./Library/stm32f4xx_tim.c"
   1:./Library/stm32f4xx_tim.c **** /**
   2:./Library/stm32f4xx_tim.c ****   ******************************************************************************
   3:./Library/stm32f4xx_tim.c ****   * @file    stm32f4xx_tim.c
   4:./Library/stm32f4xx_tim.c ****   * @author  MCD Application Team
   5:./Library/stm32f4xx_tim.c ****   * @version V1.8.1
   6:./Library/stm32f4xx_tim.c ****   * @date    27-January-2022
   7:./Library/stm32f4xx_tim.c ****   * @brief   This file provides firmware functions to manage the following 
   8:./Library/stm32f4xx_tim.c ****   *          functionalities of the TIM peripheral:
   9:./Library/stm32f4xx_tim.c ****   *            + TimeBase management
  10:./Library/stm32f4xx_tim.c ****   *            + Output Compare management
  11:./Library/stm32f4xx_tim.c ****   *            + Input Capture management
  12:./Library/stm32f4xx_tim.c ****   *            + Advanced-control timers (TIM1 and TIM8) specific features  
  13:./Library/stm32f4xx_tim.c ****   *            + Interrupts, DMA and flags management
  14:./Library/stm32f4xx_tim.c ****   *            + Clocks management
  15:./Library/stm32f4xx_tim.c ****   *            + Synchronization management
  16:./Library/stm32f4xx_tim.c ****   *            + Specific interface management
  17:./Library/stm32f4xx_tim.c ****   *            + Specific remapping management      
  18:./Library/stm32f4xx_tim.c ****   *              
  19:./Library/stm32f4xx_tim.c ****   @verbatim   
  20:./Library/stm32f4xx_tim.c ****  ===============================================================================
  21:./Library/stm32f4xx_tim.c ****                    #####  How to use this driver #####
  22:./Library/stm32f4xx_tim.c ****  ===============================================================================
  23:./Library/stm32f4xx_tim.c ****     [..]
  24:./Library/stm32f4xx_tim.c ****     This driver provides functions to configure and program the TIM 
  25:./Library/stm32f4xx_tim.c ****     of all STM32F4xx devices.
  26:./Library/stm32f4xx_tim.c ****     These functions are split in 9 groups: 
  27:./Library/stm32f4xx_tim.c ****      
  28:./Library/stm32f4xx_tim.c ****       (#) TIM TimeBase management: this group includes all needed functions 
  29:./Library/stm32f4xx_tim.c ****           to configure the TM Timebase unit:
  30:./Library/stm32f4xx_tim.c ****         (++) Set/Get Prescaler
ARM GAS  /var/folders/yl/_q9l42k90g1g4mdhbs226msm0000gn/T//cclSErw0.s 			page 2


  31:./Library/stm32f4xx_tim.c ****         (++) Set/Get Autoreload  
  32:./Library/stm32f4xx_tim.c ****         (++) Counter modes configuration
  33:./Library/stm32f4xx_tim.c ****         (++) Set Clock division  
  34:./Library/stm32f4xx_tim.c ****         (++) Select the One Pulse mode
  35:./Library/stm32f4xx_tim.c ****         (++) Update Request Configuration
  36:./Library/stm32f4xx_tim.c ****         (++) Update Disable Configuration
  37:./Library/stm32f4xx_tim.c ****         (++) Auto-Preload Configuration 
  38:./Library/stm32f4xx_tim.c ****         (++) Enable/Disable the counter     
  39:./Library/stm32f4xx_tim.c ****                    
  40:./Library/stm32f4xx_tim.c ****       (#) TIM Output Compare management: this group includes all needed 
  41:./Library/stm32f4xx_tim.c ****           functions to configure the Capture/Compare unit used in Output 
  42:./Library/stm32f4xx_tim.c ****           compare mode: 
  43:./Library/stm32f4xx_tim.c ****         (++) Configure each channel, independently, in Output Compare mode
  44:./Library/stm32f4xx_tim.c ****         (++) Select the output compare modes
  45:./Library/stm32f4xx_tim.c ****         (++) Select the Polarities of each channel
  46:./Library/stm32f4xx_tim.c ****         (++) Set/Get the Capture/Compare register values
  47:./Library/stm32f4xx_tim.c ****         (++) Select the Output Compare Fast mode 
  48:./Library/stm32f4xx_tim.c ****         (++) Select the Output Compare Forced mode  
  49:./Library/stm32f4xx_tim.c ****         (++) Output Compare-Preload Configuration 
  50:./Library/stm32f4xx_tim.c ****         (++) Clear Output Compare Reference
  51:./Library/stm32f4xx_tim.c ****         (++) Select the OCREF Clear signal
  52:./Library/stm32f4xx_tim.c ****         (++) Enable/Disable the Capture/Compare Channels    
  53:./Library/stm32f4xx_tim.c ****                      
  54:./Library/stm32f4xx_tim.c ****       (#) TIM Input Capture management: this group includes all needed 
  55:./Library/stm32f4xx_tim.c ****           functions to configure the Capture/Compare unit used in 
  56:./Library/stm32f4xx_tim.c ****           Input Capture mode:
  57:./Library/stm32f4xx_tim.c ****         (++) Configure each channel in input capture mode
  58:./Library/stm32f4xx_tim.c ****         (++) Configure Channel1/2 in PWM Input mode
  59:./Library/stm32f4xx_tim.c ****         (++) Set the Input Capture Prescaler
  60:./Library/stm32f4xx_tim.c ****         (++) Get the Capture/Compare values      
  61:./Library/stm32f4xx_tim.c ****                      
  62:./Library/stm32f4xx_tim.c ****       (#) Advanced-control timers (TIM1 and TIM8) specific features
  63:./Library/stm32f4xx_tim.c ****         (++) Configures the Break input, dead time, Lock level, the OSSI,
  64:./Library/stm32f4xx_tim.c ****              the OSSR State and the AOE(automatic output enable)
  65:./Library/stm32f4xx_tim.c ****         (++) Enable/Disable the TIM peripheral Main Outputs
  66:./Library/stm32f4xx_tim.c ****         (++) Select the Commutation event
  67:./Library/stm32f4xx_tim.c ****         (++) Set/Reset the Capture Compare Preload Control bit
  68:./Library/stm32f4xx_tim.c ****                                 
  69:./Library/stm32f4xx_tim.c ****       (#) TIM interrupts, DMA and flags management
  70:./Library/stm32f4xx_tim.c ****         (++) Enable/Disable interrupt sources
  71:./Library/stm32f4xx_tim.c ****         (++) Get flags status
  72:./Library/stm32f4xx_tim.c ****         (++) Clear flags/ Pending bits
  73:./Library/stm32f4xx_tim.c ****         (++) Enable/Disable DMA requests 
  74:./Library/stm32f4xx_tim.c ****         (++) Configure DMA burst mode
  75:./Library/stm32f4xx_tim.c ****         (++) Select CaptureCompare DMA request  
  76:./Library/stm32f4xx_tim.c ****                 
  77:./Library/stm32f4xx_tim.c ****       (#) TIM clocks management: this group includes all needed functions 
  78:./Library/stm32f4xx_tim.c ****           to configure the clock controller unit:
  79:./Library/stm32f4xx_tim.c ****         (++) Select internal/External clock
  80:./Library/stm32f4xx_tim.c ****         (++) Select the external clock mode: ETR(Mode1/Mode2), TIx or ITRx
  81:./Library/stm32f4xx_tim.c ****            
  82:./Library/stm32f4xx_tim.c ****       (#) TIM synchronization management: this group includes all needed 
  83:./Library/stm32f4xx_tim.c ****           functions to configure the Synchronization unit:
  84:./Library/stm32f4xx_tim.c ****         (++) Select Input Trigger  
  85:./Library/stm32f4xx_tim.c ****         (++) Select Output Trigger  
  86:./Library/stm32f4xx_tim.c ****         (++) Select Master Slave Mode 
  87:./Library/stm32f4xx_tim.c ****         (++) ETR Configuration when used as external trigger   
ARM GAS  /var/folders/yl/_q9l42k90g1g4mdhbs226msm0000gn/T//cclSErw0.s 			page 3


  88:./Library/stm32f4xx_tim.c ****        
  89:./Library/stm32f4xx_tim.c ****       (#) TIM specific interface management, this group includes all 
  90:./Library/stm32f4xx_tim.c ****           needed functions to use the specific TIM interface:
  91:./Library/stm32f4xx_tim.c ****         (++) Encoder Interface Configuration
  92:./Library/stm32f4xx_tim.c ****         (++) Select Hall Sensor   
  93:./Library/stm32f4xx_tim.c ****            
  94:./Library/stm32f4xx_tim.c ****       (#) TIM specific remapping management includes the Remapping 
  95:./Library/stm32f4xx_tim.c ****           configuration of specific timers               
  96:./Library/stm32f4xx_tim.c ****      
  97:./Library/stm32f4xx_tim.c ****   @endverbatim    
  98:./Library/stm32f4xx_tim.c ****   ******************************************************************************
  99:./Library/stm32f4xx_tim.c ****   * @attention
 100:./Library/stm32f4xx_tim.c ****   *
 101:./Library/stm32f4xx_tim.c ****   * Copyright (c) 2016 STMicroelectronics.
 102:./Library/stm32f4xx_tim.c ****   * All rights reserved.
 103:./Library/stm32f4xx_tim.c ****   *
 104:./Library/stm32f4xx_tim.c ****   * This software is licensed under terms that can be found in the LICENSE file
 105:./Library/stm32f4xx_tim.c ****   * in the root directory of this software component.
 106:./Library/stm32f4xx_tim.c ****   * If no LICENSE file comes with this software, it is provided AS-IS.
 107:./Library/stm32f4xx_tim.c ****   *
 108:./Library/stm32f4xx_tim.c ****   ******************************************************************************
 109:./Library/stm32f4xx_tim.c ****   */
 110:./Library/stm32f4xx_tim.c **** 
 111:./Library/stm32f4xx_tim.c **** /* Includes ------------------------------------------------------------------*/
 112:./Library/stm32f4xx_tim.c **** #include "stm32f4xx_tim.h"
 113:./Library/stm32f4xx_tim.c **** #include "stm32f4xx_rcc.h"
 114:./Library/stm32f4xx_tim.c **** 
 115:./Library/stm32f4xx_tim.c **** /** @addtogroup STM32F4xx_StdPeriph_Driver
 116:./Library/stm32f4xx_tim.c ****   * @{
 117:./Library/stm32f4xx_tim.c ****   */
 118:./Library/stm32f4xx_tim.c **** 
 119:./Library/stm32f4xx_tim.c **** /** @defgroup TIM 
 120:./Library/stm32f4xx_tim.c ****   * @brief TIM driver modules
 121:./Library/stm32f4xx_tim.c ****   * @{
 122:./Library/stm32f4xx_tim.c ****   */
 123:./Library/stm32f4xx_tim.c **** 
 124:./Library/stm32f4xx_tim.c **** /* Private typedef -----------------------------------------------------------*/
 125:./Library/stm32f4xx_tim.c **** /* Private define ------------------------------------------------------------*/
 126:./Library/stm32f4xx_tim.c **** 
 127:./Library/stm32f4xx_tim.c **** /* ---------------------- TIM registers bit mask ------------------------ */
 128:./Library/stm32f4xx_tim.c **** #define SMCR_ETR_MASK      ((uint16_t)0x00FF) 
 129:./Library/stm32f4xx_tim.c **** #define CCMR_OFFSET        ((uint16_t)0x0018)
 130:./Library/stm32f4xx_tim.c **** #define CCER_CCE_SET       ((uint16_t)0x0001)  
 131:./Library/stm32f4xx_tim.c **** #define	CCER_CCNE_SET      ((uint16_t)0x0004) 
 132:./Library/stm32f4xx_tim.c **** #define CCMR_OC13M_MASK    ((uint16_t)0xFF8F)
 133:./Library/stm32f4xx_tim.c **** #define CCMR_OC24M_MASK    ((uint16_t)0x8FFF) 
 134:./Library/stm32f4xx_tim.c **** 
 135:./Library/stm32f4xx_tim.c **** /* Private macro -------------------------------------------------------------*/
 136:./Library/stm32f4xx_tim.c **** /* Private variables ---------------------------------------------------------*/
 137:./Library/stm32f4xx_tim.c **** /* Private function prototypes -----------------------------------------------*/
 138:./Library/stm32f4xx_tim.c **** static void TI1_Config(TIM_TypeDef* TIMx, uint16_t TIM_ICPolarity, uint16_t TIM_ICSelection,
 139:./Library/stm32f4xx_tim.c ****                        uint16_t TIM_ICFilter);
 140:./Library/stm32f4xx_tim.c **** static void TI2_Config(TIM_TypeDef* TIMx, uint16_t TIM_ICPolarity, uint16_t TIM_ICSelection,
 141:./Library/stm32f4xx_tim.c ****                        uint16_t TIM_ICFilter);
 142:./Library/stm32f4xx_tim.c **** static void TI3_Config(TIM_TypeDef* TIMx, uint16_t TIM_ICPolarity, uint16_t TIM_ICSelection,
 143:./Library/stm32f4xx_tim.c ****                        uint16_t TIM_ICFilter);
 144:./Library/stm32f4xx_tim.c **** static void TI4_Config(TIM_TypeDef* TIMx, uint16_t TIM_ICPolarity, uint16_t TIM_ICSelection,
ARM GAS  /var/folders/yl/_q9l42k90g1g4mdhbs226msm0000gn/T//cclSErw0.s 			page 4


 145:./Library/stm32f4xx_tim.c ****                        uint16_t TIM_ICFilter);
 146:./Library/stm32f4xx_tim.c **** 
 147:./Library/stm32f4xx_tim.c **** /* Private functions ---------------------------------------------------------*/
 148:./Library/stm32f4xx_tim.c **** 
 149:./Library/stm32f4xx_tim.c **** /** @defgroup TIM_Private_Functions
 150:./Library/stm32f4xx_tim.c ****   * @{
 151:./Library/stm32f4xx_tim.c ****   */
 152:./Library/stm32f4xx_tim.c **** 
 153:./Library/stm32f4xx_tim.c **** /** @defgroup TIM_Group1 TimeBase management functions
 154:./Library/stm32f4xx_tim.c ****  *  @brief   TimeBase management functions 
 155:./Library/stm32f4xx_tim.c ****  *
 156:./Library/stm32f4xx_tim.c **** @verbatim   
 157:./Library/stm32f4xx_tim.c ****  ===============================================================================
 158:./Library/stm32f4xx_tim.c ****                      ##### TimeBase management functions #####
 159:./Library/stm32f4xx_tim.c ****  ===============================================================================  
 160:./Library/stm32f4xx_tim.c ****   
 161:./Library/stm32f4xx_tim.c ****      
 162:./Library/stm32f4xx_tim.c ****             ##### TIM Driver: how to use it in Timing(Time base) Mode #####
 163:./Library/stm32f4xx_tim.c ****  ===============================================================================
 164:./Library/stm32f4xx_tim.c ****     [..] 
 165:./Library/stm32f4xx_tim.c ****     To use the Timer in Timing(Time base) mode, the following steps are mandatory:
 166:./Library/stm32f4xx_tim.c ****        
 167:./Library/stm32f4xx_tim.c ****       (#) Enable TIM clock using RCC_APBxPeriphClockCmd(RCC_APBxPeriph_TIMx, ENABLE) function
 168:./Library/stm32f4xx_tim.c ****                     
 169:./Library/stm32f4xx_tim.c ****       (#) Fill the TIM_TimeBaseInitStruct with the desired parameters.
 170:./Library/stm32f4xx_tim.c ****        
 171:./Library/stm32f4xx_tim.c ****       (#) Call TIM_TimeBaseInit(TIMx, &TIM_TimeBaseInitStruct) to configure the Time Base unit
 172:./Library/stm32f4xx_tim.c ****           with the corresponding configuration
 173:./Library/stm32f4xx_tim.c ****           
 174:./Library/stm32f4xx_tim.c ****       (#) Enable the NVIC if you need to generate the update interrupt. 
 175:./Library/stm32f4xx_tim.c ****           
 176:./Library/stm32f4xx_tim.c ****       (#) Enable the corresponding interrupt using the function TIM_ITConfig(TIMx, TIM_IT_Update) 
 177:./Library/stm32f4xx_tim.c ****        
 178:./Library/stm32f4xx_tim.c ****       (#) Call the TIM_Cmd(ENABLE) function to enable the TIM counter.
 179:./Library/stm32f4xx_tim.c ****              
 180:./Library/stm32f4xx_tim.c ****        -@- All other functions can be used separately to modify, if needed,
 181:./Library/stm32f4xx_tim.c ****            a specific feature of the Timer. 
 182:./Library/stm32f4xx_tim.c **** 
 183:./Library/stm32f4xx_tim.c **** @endverbatim
 184:./Library/stm32f4xx_tim.c ****   * @{
 185:./Library/stm32f4xx_tim.c ****   */
 186:./Library/stm32f4xx_tim.c ****   
 187:./Library/stm32f4xx_tim.c **** /**
 188:./Library/stm32f4xx_tim.c ****   * @brief  Deinitializes the TIMx peripheral registers to their default reset values.
 189:./Library/stm32f4xx_tim.c ****   * @param  TIMx: where x can be 1 to 14 to select the TIM peripheral.
 190:./Library/stm32f4xx_tim.c ****   * @retval None
 191:./Library/stm32f4xx_tim.c **** 
 192:./Library/stm32f4xx_tim.c ****   */
 193:./Library/stm32f4xx_tim.c **** void TIM_DeInit(TIM_TypeDef* TIMx)
 194:./Library/stm32f4xx_tim.c **** {
  29              		.loc 1 194 1
  30              		.cfi_startproc
  31              		@ args = 0, pretend = 0, frame = 8
  32              		@ frame_needed = 1, uses_anonymous_args = 0
  33 0000 80B5     		push	{r7, lr}
  34              	.LCFI0:
  35              		.cfi_def_cfa_offset 8
ARM GAS  /var/folders/yl/_q9l42k90g1g4mdhbs226msm0000gn/T//cclSErw0.s 			page 5


  36              		.cfi_offset 7, -8
  37              		.cfi_offset 14, -4
  38 0002 82B0     		sub	sp, sp, #8
  39              	.LCFI1:
  40              		.cfi_def_cfa_offset 16
  41 0004 00AF     		add	r7, sp, #0
  42              	.LCFI2:
  43              		.cfi_def_cfa_register 7
  44 0006 7860     		str	r0, [r7, #4]
 195:./Library/stm32f4xx_tim.c ****   /* Check the parameters */
 196:./Library/stm32f4xx_tim.c ****   assert_param(IS_TIM_ALL_PERIPH(TIMx)); 
 197:./Library/stm32f4xx_tim.c ****  
 198:./Library/stm32f4xx_tim.c ****   if (TIMx == TIM1)
  45              		.loc 1 198 6
  46 0008 7B68     		ldr	r3, [r7, #4]
  47 000a 604A     		ldr	r2, .L17
  48 000c 9342     		cmp	r3, r2
  49 000e 08D1     		bne	.L2
 199:./Library/stm32f4xx_tim.c ****   {
 200:./Library/stm32f4xx_tim.c ****     RCC_APB2PeriphResetCmd(RCC_APB2Periph_TIM1, ENABLE);
  50              		.loc 1 200 5
  51 0010 0121     		movs	r1, #1
  52 0012 0120     		movs	r0, #1
  53 0014 FFF7FEFF 		bl	RCC_APB2PeriphResetCmd
 201:./Library/stm32f4xx_tim.c ****     RCC_APB2PeriphResetCmd(RCC_APB2Periph_TIM1, DISABLE);  
  54              		.loc 1 201 5
  55 0018 0021     		movs	r1, #0
  56 001a 0120     		movs	r0, #1
  57 001c FFF7FEFF 		bl	RCC_APB2PeriphResetCmd
 202:./Library/stm32f4xx_tim.c ****   } 
 203:./Library/stm32f4xx_tim.c ****   else if (TIMx == TIM2) 
 204:./Library/stm32f4xx_tim.c ****   {     
 205:./Library/stm32f4xx_tim.c ****     RCC_APB1PeriphResetCmd(RCC_APB1Periph_TIM2, ENABLE);
 206:./Library/stm32f4xx_tim.c ****     RCC_APB1PeriphResetCmd(RCC_APB1Periph_TIM2, DISABLE);
 207:./Library/stm32f4xx_tim.c ****   }  
 208:./Library/stm32f4xx_tim.c ****   else if (TIMx == TIM3)
 209:./Library/stm32f4xx_tim.c ****   { 
 210:./Library/stm32f4xx_tim.c ****     RCC_APB1PeriphResetCmd(RCC_APB1Periph_TIM3, ENABLE);
 211:./Library/stm32f4xx_tim.c ****     RCC_APB1PeriphResetCmd(RCC_APB1Periph_TIM3, DISABLE);
 212:./Library/stm32f4xx_tim.c ****   }  
 213:./Library/stm32f4xx_tim.c ****   else if (TIMx == TIM4)
 214:./Library/stm32f4xx_tim.c ****   { 
 215:./Library/stm32f4xx_tim.c ****     RCC_APB1PeriphResetCmd(RCC_APB1Periph_TIM4, ENABLE);
 216:./Library/stm32f4xx_tim.c ****     RCC_APB1PeriphResetCmd(RCC_APB1Periph_TIM4, DISABLE);
 217:./Library/stm32f4xx_tim.c ****   }  
 218:./Library/stm32f4xx_tim.c ****   else if (TIMx == TIM5)
 219:./Library/stm32f4xx_tim.c ****   {      
 220:./Library/stm32f4xx_tim.c ****     RCC_APB1PeriphResetCmd(RCC_APB1Periph_TIM5, ENABLE);
 221:./Library/stm32f4xx_tim.c ****     RCC_APB1PeriphResetCmd(RCC_APB1Periph_TIM5, DISABLE);
 222:./Library/stm32f4xx_tim.c ****   }  
 223:./Library/stm32f4xx_tim.c ****   else if (TIMx == TIM6)  
 224:./Library/stm32f4xx_tim.c ****   {    
 225:./Library/stm32f4xx_tim.c ****     RCC_APB1PeriphResetCmd(RCC_APB1Periph_TIM6, ENABLE);
 226:./Library/stm32f4xx_tim.c ****     RCC_APB1PeriphResetCmd(RCC_APB1Periph_TIM6, DISABLE);
 227:./Library/stm32f4xx_tim.c ****   }  
 228:./Library/stm32f4xx_tim.c ****   else if (TIMx == TIM7)
 229:./Library/stm32f4xx_tim.c ****   {      
ARM GAS  /var/folders/yl/_q9l42k90g1g4mdhbs226msm0000gn/T//cclSErw0.s 			page 6


 230:./Library/stm32f4xx_tim.c ****     RCC_APB1PeriphResetCmd(RCC_APB1Periph_TIM7, ENABLE);
 231:./Library/stm32f4xx_tim.c ****     RCC_APB1PeriphResetCmd(RCC_APB1Periph_TIM7, DISABLE);
 232:./Library/stm32f4xx_tim.c ****   }  
 233:./Library/stm32f4xx_tim.c ****   else if (TIMx == TIM8)
 234:./Library/stm32f4xx_tim.c ****   {      
 235:./Library/stm32f4xx_tim.c ****     RCC_APB2PeriphResetCmd(RCC_APB2Periph_TIM8, ENABLE);
 236:./Library/stm32f4xx_tim.c ****     RCC_APB2PeriphResetCmd(RCC_APB2Periph_TIM8, DISABLE);  
 237:./Library/stm32f4xx_tim.c ****   }  
 238:./Library/stm32f4xx_tim.c ****   else if (TIMx == TIM9)
 239:./Library/stm32f4xx_tim.c ****   {      
 240:./Library/stm32f4xx_tim.c ****     RCC_APB2PeriphResetCmd(RCC_APB2Periph_TIM9, ENABLE);
 241:./Library/stm32f4xx_tim.c ****     RCC_APB2PeriphResetCmd(RCC_APB2Periph_TIM9, DISABLE);  
 242:./Library/stm32f4xx_tim.c ****    }  
 243:./Library/stm32f4xx_tim.c ****   else if (TIMx == TIM10)
 244:./Library/stm32f4xx_tim.c ****   {      
 245:./Library/stm32f4xx_tim.c ****     RCC_APB2PeriphResetCmd(RCC_APB2Periph_TIM10, ENABLE);
 246:./Library/stm32f4xx_tim.c ****     RCC_APB2PeriphResetCmd(RCC_APB2Periph_TIM10, DISABLE);  
 247:./Library/stm32f4xx_tim.c ****   }  
 248:./Library/stm32f4xx_tim.c ****   else if (TIMx == TIM11) 
 249:./Library/stm32f4xx_tim.c ****   {     
 250:./Library/stm32f4xx_tim.c ****     RCC_APB2PeriphResetCmd(RCC_APB2Periph_TIM11, ENABLE);
 251:./Library/stm32f4xx_tim.c ****     RCC_APB2PeriphResetCmd(RCC_APB2Periph_TIM11, DISABLE);  
 252:./Library/stm32f4xx_tim.c ****   }  
 253:./Library/stm32f4xx_tim.c ****   else if (TIMx == TIM12)
 254:./Library/stm32f4xx_tim.c ****   {      
 255:./Library/stm32f4xx_tim.c ****     RCC_APB1PeriphResetCmd(RCC_APB1Periph_TIM12, ENABLE);
 256:./Library/stm32f4xx_tim.c ****     RCC_APB1PeriphResetCmd(RCC_APB1Periph_TIM12, DISABLE);  
 257:./Library/stm32f4xx_tim.c ****   }  
 258:./Library/stm32f4xx_tim.c ****   else if (TIMx == TIM13) 
 259:./Library/stm32f4xx_tim.c ****   {       
 260:./Library/stm32f4xx_tim.c ****     RCC_APB1PeriphResetCmd(RCC_APB1Periph_TIM13, ENABLE);
 261:./Library/stm32f4xx_tim.c ****     RCC_APB1PeriphResetCmd(RCC_APB1Periph_TIM13, DISABLE);  
 262:./Library/stm32f4xx_tim.c ****   }  
 263:./Library/stm32f4xx_tim.c ****   else
 264:./Library/stm32f4xx_tim.c ****   { 
 265:./Library/stm32f4xx_tim.c ****     if (TIMx == TIM14) 
 266:./Library/stm32f4xx_tim.c ****     {     
 267:./Library/stm32f4xx_tim.c ****       RCC_APB1PeriphResetCmd(RCC_APB1Periph_TIM14, ENABLE);
 268:./Library/stm32f4xx_tim.c ****       RCC_APB1PeriphResetCmd(RCC_APB1Periph_TIM14, DISABLE); 
 269:./Library/stm32f4xx_tim.c ****     }   
 270:./Library/stm32f4xx_tim.c ****   }
 271:./Library/stm32f4xx_tim.c **** }
  58              		.loc 1 271 1
  59 0020 AFE0     		b	.L16
  60              	.L2:
 203:./Library/stm32f4xx_tim.c ****   {     
  61              		.loc 1 203 11
  62 0022 7B68     		ldr	r3, [r7, #4]
  63 0024 B3F1804F 		cmp	r3, #1073741824
  64 0028 08D1     		bne	.L4
 205:./Library/stm32f4xx_tim.c ****     RCC_APB1PeriphResetCmd(RCC_APB1Periph_TIM2, DISABLE);
  65              		.loc 1 205 5
  66 002a 0121     		movs	r1, #1
  67 002c 0120     		movs	r0, #1
  68 002e FFF7FEFF 		bl	RCC_APB1PeriphResetCmd
 206:./Library/stm32f4xx_tim.c ****   }  
  69              		.loc 1 206 5
ARM GAS  /var/folders/yl/_q9l42k90g1g4mdhbs226msm0000gn/T//cclSErw0.s 			page 7


  70 0032 0021     		movs	r1, #0
  71 0034 0120     		movs	r0, #1
  72 0036 FFF7FEFF 		bl	RCC_APB1PeriphResetCmd
  73              		.loc 1 271 1
  74 003a A2E0     		b	.L16
  75              	.L4:
 208:./Library/stm32f4xx_tim.c ****   { 
  76              		.loc 1 208 11
  77 003c 7B68     		ldr	r3, [r7, #4]
  78 003e 544A     		ldr	r2, .L17+4
  79 0040 9342     		cmp	r3, r2
  80 0042 08D1     		bne	.L5
 210:./Library/stm32f4xx_tim.c ****     RCC_APB1PeriphResetCmd(RCC_APB1Periph_TIM3, DISABLE);
  81              		.loc 1 210 5
  82 0044 0121     		movs	r1, #1
  83 0046 0220     		movs	r0, #2
  84 0048 FFF7FEFF 		bl	RCC_APB1PeriphResetCmd
 211:./Library/stm32f4xx_tim.c ****   }  
  85              		.loc 1 211 5
  86 004c 0021     		movs	r1, #0
  87 004e 0220     		movs	r0, #2
  88 0050 FFF7FEFF 		bl	RCC_APB1PeriphResetCmd
  89              		.loc 1 271 1
  90 0054 95E0     		b	.L16
  91              	.L5:
 213:./Library/stm32f4xx_tim.c ****   { 
  92              		.loc 1 213 11
  93 0056 7B68     		ldr	r3, [r7, #4]
  94 0058 4E4A     		ldr	r2, .L17+8
  95 005a 9342     		cmp	r3, r2
  96 005c 08D1     		bne	.L6
 215:./Library/stm32f4xx_tim.c ****     RCC_APB1PeriphResetCmd(RCC_APB1Periph_TIM4, DISABLE);
  97              		.loc 1 215 5
  98 005e 0121     		movs	r1, #1
  99 0060 0420     		movs	r0, #4
 100 0062 FFF7FEFF 		bl	RCC_APB1PeriphResetCmd
 216:./Library/stm32f4xx_tim.c ****   }  
 101              		.loc 1 216 5
 102 0066 0021     		movs	r1, #0
 103 0068 0420     		movs	r0, #4
 104 006a FFF7FEFF 		bl	RCC_APB1PeriphResetCmd
 105              		.loc 1 271 1
 106 006e 88E0     		b	.L16
 107              	.L6:
 218:./Library/stm32f4xx_tim.c ****   {      
 108              		.loc 1 218 11
 109 0070 7B68     		ldr	r3, [r7, #4]
 110 0072 494A     		ldr	r2, .L17+12
 111 0074 9342     		cmp	r3, r2
 112 0076 08D1     		bne	.L7
 220:./Library/stm32f4xx_tim.c ****     RCC_APB1PeriphResetCmd(RCC_APB1Periph_TIM5, DISABLE);
 113              		.loc 1 220 5
 114 0078 0121     		movs	r1, #1
 115 007a 0820     		movs	r0, #8
 116 007c FFF7FEFF 		bl	RCC_APB1PeriphResetCmd
 221:./Library/stm32f4xx_tim.c ****   }  
 117              		.loc 1 221 5
ARM GAS  /var/folders/yl/_q9l42k90g1g4mdhbs226msm0000gn/T//cclSErw0.s 			page 8


 118 0080 0021     		movs	r1, #0
 119 0082 0820     		movs	r0, #8
 120 0084 FFF7FEFF 		bl	RCC_APB1PeriphResetCmd
 121              		.loc 1 271 1
 122 0088 7BE0     		b	.L16
 123              	.L7:
 223:./Library/stm32f4xx_tim.c ****   {    
 124              		.loc 1 223 11
 125 008a 7B68     		ldr	r3, [r7, #4]
 126 008c 434A     		ldr	r2, .L17+16
 127 008e 9342     		cmp	r3, r2
 128 0090 08D1     		bne	.L8
 225:./Library/stm32f4xx_tim.c ****     RCC_APB1PeriphResetCmd(RCC_APB1Periph_TIM6, DISABLE);
 129              		.loc 1 225 5
 130 0092 0121     		movs	r1, #1
 131 0094 1020     		movs	r0, #16
 132 0096 FFF7FEFF 		bl	RCC_APB1PeriphResetCmd
 226:./Library/stm32f4xx_tim.c ****   }  
 133              		.loc 1 226 5
 134 009a 0021     		movs	r1, #0
 135 009c 1020     		movs	r0, #16
 136 009e FFF7FEFF 		bl	RCC_APB1PeriphResetCmd
 137              		.loc 1 271 1
 138 00a2 6EE0     		b	.L16
 139              	.L8:
 228:./Library/stm32f4xx_tim.c ****   {      
 140              		.loc 1 228 11
 141 00a4 7B68     		ldr	r3, [r7, #4]
 142 00a6 3E4A     		ldr	r2, .L17+20
 143 00a8 9342     		cmp	r3, r2
 144 00aa 08D1     		bne	.L9
 230:./Library/stm32f4xx_tim.c ****     RCC_APB1PeriphResetCmd(RCC_APB1Periph_TIM7, DISABLE);
 145              		.loc 1 230 5
 146 00ac 0121     		movs	r1, #1
 147 00ae 2020     		movs	r0, #32
 148 00b0 FFF7FEFF 		bl	RCC_APB1PeriphResetCmd
 231:./Library/stm32f4xx_tim.c ****   }  
 149              		.loc 1 231 5
 150 00b4 0021     		movs	r1, #0
 151 00b6 2020     		movs	r0, #32
 152 00b8 FFF7FEFF 		bl	RCC_APB1PeriphResetCmd
 153              		.loc 1 271 1
 154 00bc 61E0     		b	.L16
 155              	.L9:
 233:./Library/stm32f4xx_tim.c ****   {      
 156              		.loc 1 233 11
 157 00be 7B68     		ldr	r3, [r7, #4]
 158 00c0 384A     		ldr	r2, .L17+24
 159 00c2 9342     		cmp	r3, r2
 160 00c4 08D1     		bne	.L10
 235:./Library/stm32f4xx_tim.c ****     RCC_APB2PeriphResetCmd(RCC_APB2Periph_TIM8, DISABLE);  
 161              		.loc 1 235 5
 162 00c6 0121     		movs	r1, #1
 163 00c8 0220     		movs	r0, #2
 164 00ca FFF7FEFF 		bl	RCC_APB2PeriphResetCmd
 236:./Library/stm32f4xx_tim.c ****   }  
 165              		.loc 1 236 5
ARM GAS  /var/folders/yl/_q9l42k90g1g4mdhbs226msm0000gn/T//cclSErw0.s 			page 9


 166 00ce 0021     		movs	r1, #0
 167 00d0 0220     		movs	r0, #2
 168 00d2 FFF7FEFF 		bl	RCC_APB2PeriphResetCmd
 169              		.loc 1 271 1
 170 00d6 54E0     		b	.L16
 171              	.L10:
 238:./Library/stm32f4xx_tim.c ****   {      
 172              		.loc 1 238 11
 173 00d8 7B68     		ldr	r3, [r7, #4]
 174 00da 334A     		ldr	r2, .L17+28
 175 00dc 9342     		cmp	r3, r2
 176 00de 0AD1     		bne	.L11
 240:./Library/stm32f4xx_tim.c ****     RCC_APB2PeriphResetCmd(RCC_APB2Periph_TIM9, DISABLE);  
 177              		.loc 1 240 5
 178 00e0 0121     		movs	r1, #1
 179 00e2 4FF48030 		mov	r0, #65536
 180 00e6 FFF7FEFF 		bl	RCC_APB2PeriphResetCmd
 241:./Library/stm32f4xx_tim.c ****    }  
 181              		.loc 1 241 5
 182 00ea 0021     		movs	r1, #0
 183 00ec 4FF48030 		mov	r0, #65536
 184 00f0 FFF7FEFF 		bl	RCC_APB2PeriphResetCmd
 185              		.loc 1 271 1
 186 00f4 45E0     		b	.L16
 187              	.L11:
 243:./Library/stm32f4xx_tim.c ****   {      
 188              		.loc 1 243 11
 189 00f6 7B68     		ldr	r3, [r7, #4]
 190 00f8 2C4A     		ldr	r2, .L17+32
 191 00fa 9342     		cmp	r3, r2
 192 00fc 0AD1     		bne	.L12
 245:./Library/stm32f4xx_tim.c ****     RCC_APB2PeriphResetCmd(RCC_APB2Periph_TIM10, DISABLE);  
 193              		.loc 1 245 5
 194 00fe 0121     		movs	r1, #1
 195 0100 4FF40030 		mov	r0, #131072
 196 0104 FFF7FEFF 		bl	RCC_APB2PeriphResetCmd
 246:./Library/stm32f4xx_tim.c ****   }  
 197              		.loc 1 246 5
 198 0108 0021     		movs	r1, #0
 199 010a 4FF40030 		mov	r0, #131072
 200 010e FFF7FEFF 		bl	RCC_APB2PeriphResetCmd
 201              		.loc 1 271 1
 202 0112 36E0     		b	.L16
 203              	.L12:
 248:./Library/stm32f4xx_tim.c ****   {     
 204              		.loc 1 248 11
 205 0114 7B68     		ldr	r3, [r7, #4]
 206 0116 264A     		ldr	r2, .L17+36
 207 0118 9342     		cmp	r3, r2
 208 011a 0AD1     		bne	.L13
 250:./Library/stm32f4xx_tim.c ****     RCC_APB2PeriphResetCmd(RCC_APB2Periph_TIM11, DISABLE);  
 209              		.loc 1 250 5
 210 011c 0121     		movs	r1, #1
 211 011e 4FF48020 		mov	r0, #262144
 212 0122 FFF7FEFF 		bl	RCC_APB2PeriphResetCmd
 251:./Library/stm32f4xx_tim.c ****   }  
 213              		.loc 1 251 5
ARM GAS  /var/folders/yl/_q9l42k90g1g4mdhbs226msm0000gn/T//cclSErw0.s 			page 10


 214 0126 0021     		movs	r1, #0
 215 0128 4FF48020 		mov	r0, #262144
 216 012c FFF7FEFF 		bl	RCC_APB2PeriphResetCmd
 217              		.loc 1 271 1
 218 0130 27E0     		b	.L16
 219              	.L13:
 253:./Library/stm32f4xx_tim.c ****   {      
 220              		.loc 1 253 11
 221 0132 7B68     		ldr	r3, [r7, #4]
 222 0134 1F4A     		ldr	r2, .L17+40
 223 0136 9342     		cmp	r3, r2
 224 0138 08D1     		bne	.L14
 255:./Library/stm32f4xx_tim.c ****     RCC_APB1PeriphResetCmd(RCC_APB1Periph_TIM12, DISABLE);  
 225              		.loc 1 255 5
 226 013a 0121     		movs	r1, #1
 227 013c 4020     		movs	r0, #64
 228 013e FFF7FEFF 		bl	RCC_APB1PeriphResetCmd
 256:./Library/stm32f4xx_tim.c ****   }  
 229              		.loc 1 256 5
 230 0142 0021     		movs	r1, #0
 231 0144 4020     		movs	r0, #64
 232 0146 FFF7FEFF 		bl	RCC_APB1PeriphResetCmd
 233              		.loc 1 271 1
 234 014a 1AE0     		b	.L16
 235              	.L14:
 258:./Library/stm32f4xx_tim.c ****   {       
 236              		.loc 1 258 11
 237 014c 7B68     		ldr	r3, [r7, #4]
 238 014e 1A4A     		ldr	r2, .L17+44
 239 0150 9342     		cmp	r3, r2
 240 0152 08D1     		bne	.L15
 260:./Library/stm32f4xx_tim.c ****     RCC_APB1PeriphResetCmd(RCC_APB1Periph_TIM13, DISABLE);  
 241              		.loc 1 260 5
 242 0154 0121     		movs	r1, #1
 243 0156 8020     		movs	r0, #128
 244 0158 FFF7FEFF 		bl	RCC_APB1PeriphResetCmd
 261:./Library/stm32f4xx_tim.c ****   }  
 245              		.loc 1 261 5
 246 015c 0021     		movs	r1, #0
 247 015e 8020     		movs	r0, #128
 248 0160 FFF7FEFF 		bl	RCC_APB1PeriphResetCmd
 249              		.loc 1 271 1
 250 0164 0DE0     		b	.L16
 251              	.L15:
 265:./Library/stm32f4xx_tim.c ****     {     
 252              		.loc 1 265 8
 253 0166 7B68     		ldr	r3, [r7, #4]
 254 0168 144A     		ldr	r2, .L17+48
 255 016a 9342     		cmp	r3, r2
 256 016c 09D1     		bne	.L16
 267:./Library/stm32f4xx_tim.c ****       RCC_APB1PeriphResetCmd(RCC_APB1Periph_TIM14, DISABLE); 
 257              		.loc 1 267 7
 258 016e 0121     		movs	r1, #1
 259 0170 4FF48070 		mov	r0, #256
 260 0174 FFF7FEFF 		bl	RCC_APB1PeriphResetCmd
 268:./Library/stm32f4xx_tim.c ****     }   
 261              		.loc 1 268 7
ARM GAS  /var/folders/yl/_q9l42k90g1g4mdhbs226msm0000gn/T//cclSErw0.s 			page 11


 262 0178 0021     		movs	r1, #0
 263 017a 4FF48070 		mov	r0, #256
 264 017e FFF7FEFF 		bl	RCC_APB1PeriphResetCmd
 265              	.L16:
 266              		.loc 1 271 1
 267 0182 00BF     		nop
 268 0184 0837     		adds	r7, r7, #8
 269              	.LCFI3:
 270              		.cfi_def_cfa_offset 8
 271 0186 BD46     		mov	sp, r7
 272              	.LCFI4:
 273              		.cfi_def_cfa_register 13
 274              		@ sp needed
 275 0188 80BD     		pop	{r7, pc}
 276              	.L18:
 277 018a 00BF     		.align	2
 278              	.L17:
 279 018c 00000140 		.word	1073807360
 280 0190 00040040 		.word	1073742848
 281 0194 00080040 		.word	1073743872
 282 0198 000C0040 		.word	1073744896
 283 019c 00100040 		.word	1073745920
 284 01a0 00140040 		.word	1073746944
 285 01a4 00040140 		.word	1073808384
 286 01a8 00400140 		.word	1073823744
 287 01ac 00440140 		.word	1073824768
 288 01b0 00480140 		.word	1073825792
 289 01b4 00180040 		.word	1073747968
 290 01b8 001C0040 		.word	1073748992
 291 01bc 00200040 		.word	1073750016
 292              		.cfi_endproc
 293              	.LFE123:
 295              		.section	.text.TIM_TimeBaseInit,"ax",%progbits
 296              		.align	1
 297              		.global	TIM_TimeBaseInit
 298              		.syntax unified
 299              		.thumb
 300              		.thumb_func
 302              	TIM_TimeBaseInit:
 303              	.LFB124:
 272:./Library/stm32f4xx_tim.c **** 
 273:./Library/stm32f4xx_tim.c **** /**
 274:./Library/stm32f4xx_tim.c ****   * @brief  Initializes the TIMx Time Base Unit peripheral according to 
 275:./Library/stm32f4xx_tim.c ****   *         the specified parameters in the TIM_TimeBaseInitStruct.
 276:./Library/stm32f4xx_tim.c ****   * @param  TIMx: where x can be  1 to 14 to select the TIM peripheral.
 277:./Library/stm32f4xx_tim.c ****   * @param  TIM_TimeBaseInitStruct: pointer to a TIM_TimeBaseInitTypeDef structure
 278:./Library/stm32f4xx_tim.c ****   *         that contains the configuration information for the specified TIM peripheral.
 279:./Library/stm32f4xx_tim.c ****   * @retval None
 280:./Library/stm32f4xx_tim.c ****   */
 281:./Library/stm32f4xx_tim.c **** void TIM_TimeBaseInit(TIM_TypeDef* TIMx, TIM_TimeBaseInitTypeDef* TIM_TimeBaseInitStruct)
 282:./Library/stm32f4xx_tim.c **** {
 304              		.loc 1 282 1
 305              		.cfi_startproc
 306              		@ args = 0, pretend = 0, frame = 16
 307              		@ frame_needed = 1, uses_anonymous_args = 0
 308              		@ link register save eliminated.
 309 0000 80B4     		push	{r7}
ARM GAS  /var/folders/yl/_q9l42k90g1g4mdhbs226msm0000gn/T//cclSErw0.s 			page 12


 310              	.LCFI5:
 311              		.cfi_def_cfa_offset 4
 312              		.cfi_offset 7, -4
 313 0002 85B0     		sub	sp, sp, #20
 314              	.LCFI6:
 315              		.cfi_def_cfa_offset 24
 316 0004 00AF     		add	r7, sp, #0
 317              	.LCFI7:
 318              		.cfi_def_cfa_register 7
 319 0006 7860     		str	r0, [r7, #4]
 320 0008 3960     		str	r1, [r7]
 283:./Library/stm32f4xx_tim.c ****   uint16_t tmpcr1 = 0;
 321              		.loc 1 283 12
 322 000a 0023     		movs	r3, #0
 323 000c FB81     		strh	r3, [r7, #14]	@ movhi
 284:./Library/stm32f4xx_tim.c **** 
 285:./Library/stm32f4xx_tim.c ****   /* Check the parameters */
 286:./Library/stm32f4xx_tim.c ****   assert_param(IS_TIM_ALL_PERIPH(TIMx)); 
 287:./Library/stm32f4xx_tim.c ****   assert_param(IS_TIM_COUNTER_MODE(TIM_TimeBaseInitStruct->TIM_CounterMode));
 288:./Library/stm32f4xx_tim.c ****   assert_param(IS_TIM_CKD_DIV(TIM_TimeBaseInitStruct->TIM_ClockDivision));
 289:./Library/stm32f4xx_tim.c **** 
 290:./Library/stm32f4xx_tim.c ****   tmpcr1 = TIMx->CR1;  
 324              		.loc 1 290 10
 325 000e 7B68     		ldr	r3, [r7, #4]
 326 0010 1B88     		ldrh	r3, [r3]	@ movhi
 327 0012 FB81     		strh	r3, [r7, #14]	@ movhi
 291:./Library/stm32f4xx_tim.c **** 
 292:./Library/stm32f4xx_tim.c ****   if((TIMx == TIM1) || (TIMx == TIM8)||
 328              		.loc 1 292 5
 329 0014 7B68     		ldr	r3, [r7, #4]
 330 0016 294A     		ldr	r2, .L25
 331 0018 9342     		cmp	r3, r2
 332 001a 13D0     		beq	.L20
 333              		.loc 1 292 21 discriminator 1
 334 001c 7B68     		ldr	r3, [r7, #4]
 335 001e 284A     		ldr	r2, .L25+4
 336 0020 9342     		cmp	r3, r2
 337 0022 0FD0     		beq	.L20
 338              		.loc 1 292 38 discriminator 2
 339 0024 7B68     		ldr	r3, [r7, #4]
 340 0026 B3F1804F 		cmp	r3, #1073741824
 341 002a 0BD0     		beq	.L20
 293:./Library/stm32f4xx_tim.c ****      (TIMx == TIM2) || (TIMx == TIM3)||
 342              		.loc 1 293 21
 343 002c 7B68     		ldr	r3, [r7, #4]
 344 002e 254A     		ldr	r2, .L25+8
 345 0030 9342     		cmp	r3, r2
 346 0032 07D0     		beq	.L20
 347              		.loc 1 293 38 discriminator 1
 348 0034 7B68     		ldr	r3, [r7, #4]
 349 0036 244A     		ldr	r2, .L25+12
 350 0038 9342     		cmp	r3, r2
 351 003a 03D0     		beq	.L20
 294:./Library/stm32f4xx_tim.c ****      (TIMx == TIM4) || (TIMx == TIM5)) 
 352              		.loc 1 294 21
 353 003c 7B68     		ldr	r3, [r7, #4]
 354 003e 234A     		ldr	r2, .L25+16
ARM GAS  /var/folders/yl/_q9l42k90g1g4mdhbs226msm0000gn/T//cclSErw0.s 			page 13


 355 0040 9342     		cmp	r3, r2
 356 0042 08D1     		bne	.L21
 357              	.L20:
 295:./Library/stm32f4xx_tim.c ****   {
 296:./Library/stm32f4xx_tim.c ****     /* Select the Counter Mode */
 297:./Library/stm32f4xx_tim.c ****     tmpcr1 &= (uint16_t)(~(TIM_CR1_DIR | TIM_CR1_CMS));
 358              		.loc 1 297 12
 359 0044 FB89     		ldrh	r3, [r7, #14]	@ movhi
 360 0046 23F07003 		bic	r3, r3, #112
 361 004a FB81     		strh	r3, [r7, #14]	@ movhi
 298:./Library/stm32f4xx_tim.c ****     tmpcr1 |= (uint32_t)TIM_TimeBaseInitStruct->TIM_CounterMode;
 362              		.loc 1 298 47
 363 004c 3B68     		ldr	r3, [r7]
 364 004e 5A88     		ldrh	r2, [r3, #2]
 365              		.loc 1 298 12
 366 0050 FB89     		ldrh	r3, [r7, #14]	@ movhi
 367 0052 1343     		orrs	r3, r3, r2
 368 0054 FB81     		strh	r3, [r7, #14]	@ movhi
 369              	.L21:
 299:./Library/stm32f4xx_tim.c ****   }
 300:./Library/stm32f4xx_tim.c ****  
 301:./Library/stm32f4xx_tim.c ****   if((TIMx != TIM6) && (TIMx != TIM7))
 370              		.loc 1 301 5
 371 0056 7B68     		ldr	r3, [r7, #4]
 372 0058 1D4A     		ldr	r2, .L25+20
 373 005a 9342     		cmp	r3, r2
 374 005c 0CD0     		beq	.L22
 375              		.loc 1 301 21 discriminator 1
 376 005e 7B68     		ldr	r3, [r7, #4]
 377 0060 1C4A     		ldr	r2, .L25+24
 378 0062 9342     		cmp	r3, r2
 379 0064 08D0     		beq	.L22
 302:./Library/stm32f4xx_tim.c ****   {
 303:./Library/stm32f4xx_tim.c ****     /* Set the clock division */
 304:./Library/stm32f4xx_tim.c ****     tmpcr1 &=  (uint16_t)(~TIM_CR1_CKD);
 380              		.loc 1 304 12
 381 0066 FB89     		ldrh	r3, [r7, #14]	@ movhi
 382 0068 23F44073 		bic	r3, r3, #768
 383 006c FB81     		strh	r3, [r7, #14]	@ movhi
 305:./Library/stm32f4xx_tim.c ****     tmpcr1 |= (uint32_t)TIM_TimeBaseInitStruct->TIM_ClockDivision;
 384              		.loc 1 305 47
 385 006e 3B68     		ldr	r3, [r7]
 386 0070 1A89     		ldrh	r2, [r3, #8]
 387              		.loc 1 305 12
 388 0072 FB89     		ldrh	r3, [r7, #14]	@ movhi
 389 0074 1343     		orrs	r3, r3, r2
 390 0076 FB81     		strh	r3, [r7, #14]	@ movhi
 391              	.L22:
 306:./Library/stm32f4xx_tim.c ****   }
 307:./Library/stm32f4xx_tim.c **** 
 308:./Library/stm32f4xx_tim.c ****   TIMx->CR1 = tmpcr1;
 392              		.loc 1 308 13
 393 0078 7B68     		ldr	r3, [r7, #4]
 394 007a FA89     		ldrh	r2, [r7, #14]	@ movhi
 395 007c 1A80     		strh	r2, [r3]	@ movhi
 309:./Library/stm32f4xx_tim.c **** 
 310:./Library/stm32f4xx_tim.c ****   /* Set the Autoreload value */
ARM GAS  /var/folders/yl/_q9l42k90g1g4mdhbs226msm0000gn/T//cclSErw0.s 			page 14


 311:./Library/stm32f4xx_tim.c ****   TIMx->ARR = TIM_TimeBaseInitStruct->TIM_Period ;
 396              		.loc 1 311 37
 397 007e 3B68     		ldr	r3, [r7]
 398 0080 5A68     		ldr	r2, [r3, #4]
 399              		.loc 1 311 13
 400 0082 7B68     		ldr	r3, [r7, #4]
 401 0084 DA62     		str	r2, [r3, #44]
 312:./Library/stm32f4xx_tim.c ****  
 313:./Library/stm32f4xx_tim.c ****   /* Set the Prescaler value */
 314:./Library/stm32f4xx_tim.c ****   TIMx->PSC = TIM_TimeBaseInitStruct->TIM_Prescaler;
 402              		.loc 1 314 37
 403 0086 3B68     		ldr	r3, [r7]
 404 0088 1A88     		ldrh	r2, [r3]
 405              		.loc 1 314 13
 406 008a 7B68     		ldr	r3, [r7, #4]
 407 008c 1A85     		strh	r2, [r3, #40]	@ movhi
 315:./Library/stm32f4xx_tim.c ****     
 316:./Library/stm32f4xx_tim.c ****   if ((TIMx == TIM1) || (TIMx == TIM8))  
 408              		.loc 1 316 6
 409 008e 7B68     		ldr	r3, [r7, #4]
 410 0090 0A4A     		ldr	r2, .L25
 411 0092 9342     		cmp	r3, r2
 412 0094 03D0     		beq	.L23
 413              		.loc 1 316 22 discriminator 1
 414 0096 7B68     		ldr	r3, [r7, #4]
 415 0098 094A     		ldr	r2, .L25+4
 416 009a 9342     		cmp	r3, r2
 417 009c 04D1     		bne	.L24
 418              	.L23:
 317:./Library/stm32f4xx_tim.c ****   {
 318:./Library/stm32f4xx_tim.c ****     /* Set the Repetition Counter value */
 319:./Library/stm32f4xx_tim.c ****     TIMx->RCR = TIM_TimeBaseInitStruct->TIM_RepetitionCounter;
 419              		.loc 1 319 39
 420 009e 3B68     		ldr	r3, [r7]
 421 00a0 9B7A     		ldrb	r3, [r3, #10]	@ zero_extendqisi2
 422 00a2 9AB2     		uxth	r2, r3
 423              		.loc 1 319 15
 424 00a4 7B68     		ldr	r3, [r7, #4]
 425 00a6 1A86     		strh	r2, [r3, #48]	@ movhi
 426              	.L24:
 320:./Library/stm32f4xx_tim.c ****   }
 321:./Library/stm32f4xx_tim.c **** 
 322:./Library/stm32f4xx_tim.c ****   /* Generate an update event to reload the Prescaler 
 323:./Library/stm32f4xx_tim.c ****      and the repetition counter(only for TIM1 and TIM8) value immediately */
 324:./Library/stm32f4xx_tim.c ****   TIMx->EGR = TIM_PSCReloadMode_Immediate;          
 427              		.loc 1 324 13
 428 00a8 7B68     		ldr	r3, [r7, #4]
 429 00aa 0122     		movs	r2, #1
 430 00ac 9A82     		strh	r2, [r3, #20]	@ movhi
 325:./Library/stm32f4xx_tim.c **** }
 431              		.loc 1 325 1
 432 00ae 00BF     		nop
 433 00b0 1437     		adds	r7, r7, #20
 434              	.LCFI8:
 435              		.cfi_def_cfa_offset 4
 436 00b2 BD46     		mov	sp, r7
 437              	.LCFI9:
ARM GAS  /var/folders/yl/_q9l42k90g1g4mdhbs226msm0000gn/T//cclSErw0.s 			page 15


 438              		.cfi_def_cfa_register 13
 439              		@ sp needed
 440 00b4 5DF8047B 		ldr	r7, [sp], #4
 441              	.LCFI10:
 442              		.cfi_restore 7
 443              		.cfi_def_cfa_offset 0
 444 00b8 7047     		bx	lr
 445              	.L26:
 446 00ba 00BF     		.align	2
 447              	.L25:
 448 00bc 00000140 		.word	1073807360
 449 00c0 00040140 		.word	1073808384
 450 00c4 00040040 		.word	1073742848
 451 00c8 00080040 		.word	1073743872
 452 00cc 000C0040 		.word	1073744896
 453 00d0 00100040 		.word	1073745920
 454 00d4 00140040 		.word	1073746944
 455              		.cfi_endproc
 456              	.LFE124:
 458              		.section	.text.TIM_TimeBaseStructInit,"ax",%progbits
 459              		.align	1
 460              		.global	TIM_TimeBaseStructInit
 461              		.syntax unified
 462              		.thumb
 463              		.thumb_func
 465              	TIM_TimeBaseStructInit:
 466              	.LFB125:
 326:./Library/stm32f4xx_tim.c **** 
 327:./Library/stm32f4xx_tim.c **** /**
 328:./Library/stm32f4xx_tim.c ****   * @brief  Fills each TIM_TimeBaseInitStruct member with its default value.
 329:./Library/stm32f4xx_tim.c ****   * @param  TIM_TimeBaseInitStruct : pointer to a TIM_TimeBaseInitTypeDef
 330:./Library/stm32f4xx_tim.c ****   *         structure which will be initialized.
 331:./Library/stm32f4xx_tim.c ****   * @retval None
 332:./Library/stm32f4xx_tim.c ****   */
 333:./Library/stm32f4xx_tim.c **** void TIM_TimeBaseStructInit(TIM_TimeBaseInitTypeDef* TIM_TimeBaseInitStruct)
 334:./Library/stm32f4xx_tim.c **** {
 467              		.loc 1 334 1
 468              		.cfi_startproc
 469              		@ args = 0, pretend = 0, frame = 8
 470              		@ frame_needed = 1, uses_anonymous_args = 0
 471              		@ link register save eliminated.
 472 0000 80B4     		push	{r7}
 473              	.LCFI11:
 474              		.cfi_def_cfa_offset 4
 475              		.cfi_offset 7, -4
 476 0002 83B0     		sub	sp, sp, #12
 477              	.LCFI12:
 478              		.cfi_def_cfa_offset 16
 479 0004 00AF     		add	r7, sp, #0
 480              	.LCFI13:
 481              		.cfi_def_cfa_register 7
 482 0006 7860     		str	r0, [r7, #4]
 335:./Library/stm32f4xx_tim.c ****   /* Set the default configuration */
 336:./Library/stm32f4xx_tim.c ****   TIM_TimeBaseInitStruct->TIM_Period = 0xFFFFFFFF;
 483              		.loc 1 336 38
 484 0008 7B68     		ldr	r3, [r7, #4]
 485 000a 4FF0FF32 		mov	r2, #-1
ARM GAS  /var/folders/yl/_q9l42k90g1g4mdhbs226msm0000gn/T//cclSErw0.s 			page 16


 486 000e 5A60     		str	r2, [r3, #4]
 337:./Library/stm32f4xx_tim.c ****   TIM_TimeBaseInitStruct->TIM_Prescaler = 0x0000;
 487              		.loc 1 337 41
 488 0010 7B68     		ldr	r3, [r7, #4]
 489 0012 0022     		movs	r2, #0
 490 0014 1A80     		strh	r2, [r3]	@ movhi
 338:./Library/stm32f4xx_tim.c ****   TIM_TimeBaseInitStruct->TIM_ClockDivision = TIM_CKD_DIV1;
 491              		.loc 1 338 45
 492 0016 7B68     		ldr	r3, [r7, #4]
 493 0018 0022     		movs	r2, #0
 494 001a 1A81     		strh	r2, [r3, #8]	@ movhi
 339:./Library/stm32f4xx_tim.c ****   TIM_TimeBaseInitStruct->TIM_CounterMode = TIM_CounterMode_Up;
 495              		.loc 1 339 43
 496 001c 7B68     		ldr	r3, [r7, #4]
 497 001e 0022     		movs	r2, #0
 498 0020 5A80     		strh	r2, [r3, #2]	@ movhi
 340:./Library/stm32f4xx_tim.c ****   TIM_TimeBaseInitStruct->TIM_RepetitionCounter = 0x0000;
 499              		.loc 1 340 49
 500 0022 7B68     		ldr	r3, [r7, #4]
 501 0024 0022     		movs	r2, #0
 502 0026 9A72     		strb	r2, [r3, #10]
 341:./Library/stm32f4xx_tim.c **** }
 503              		.loc 1 341 1
 504 0028 00BF     		nop
 505 002a 0C37     		adds	r7, r7, #12
 506              	.LCFI14:
 507              		.cfi_def_cfa_offset 4
 508 002c BD46     		mov	sp, r7
 509              	.LCFI15:
 510              		.cfi_def_cfa_register 13
 511              		@ sp needed
 512 002e 5DF8047B 		ldr	r7, [sp], #4
 513              	.LCFI16:
 514              		.cfi_restore 7
 515              		.cfi_def_cfa_offset 0
 516 0032 7047     		bx	lr
 517              		.cfi_endproc
 518              	.LFE125:
 520              		.section	.text.TIM_PrescalerConfig,"ax",%progbits
 521              		.align	1
 522              		.global	TIM_PrescalerConfig
 523              		.syntax unified
 524              		.thumb
 525              		.thumb_func
 527              	TIM_PrescalerConfig:
 528              	.LFB126:
 342:./Library/stm32f4xx_tim.c **** 
 343:./Library/stm32f4xx_tim.c **** /**
 344:./Library/stm32f4xx_tim.c ****   * @brief  Configures the TIMx Prescaler.
 345:./Library/stm32f4xx_tim.c ****   * @param  TIMx: where x can be  1 to 14 to select the TIM peripheral.
 346:./Library/stm32f4xx_tim.c ****   * @param  Prescaler: specifies the Prescaler Register value
 347:./Library/stm32f4xx_tim.c ****   * @param  TIM_PSCReloadMode: specifies the TIM Prescaler Reload mode
 348:./Library/stm32f4xx_tim.c ****   *          This parameter can be one of the following values:
 349:./Library/stm32f4xx_tim.c ****   *            @arg TIM_PSCReloadMode_Update: The Prescaler is loaded at the update event.
 350:./Library/stm32f4xx_tim.c ****   *            @arg TIM_PSCReloadMode_Immediate: The Prescaler is loaded immediately.
 351:./Library/stm32f4xx_tim.c ****   * @retval None
 352:./Library/stm32f4xx_tim.c ****   */
ARM GAS  /var/folders/yl/_q9l42k90g1g4mdhbs226msm0000gn/T//cclSErw0.s 			page 17


 353:./Library/stm32f4xx_tim.c **** void TIM_PrescalerConfig(TIM_TypeDef* TIMx, uint16_t Prescaler, uint16_t TIM_PSCReloadMode)
 354:./Library/stm32f4xx_tim.c **** {
 529              		.loc 1 354 1
 530              		.cfi_startproc
 531              		@ args = 0, pretend = 0, frame = 8
 532              		@ frame_needed = 1, uses_anonymous_args = 0
 533              		@ link register save eliminated.
 534 0000 80B4     		push	{r7}
 535              	.LCFI17:
 536              		.cfi_def_cfa_offset 4
 537              		.cfi_offset 7, -4
 538 0002 83B0     		sub	sp, sp, #12
 539              	.LCFI18:
 540              		.cfi_def_cfa_offset 16
 541 0004 00AF     		add	r7, sp, #0
 542              	.LCFI19:
 543              		.cfi_def_cfa_register 7
 544 0006 7860     		str	r0, [r7, #4]
 545 0008 0B46     		mov	r3, r1
 546 000a 7B80     		strh	r3, [r7, #2]	@ movhi
 547 000c 1346     		mov	r3, r2	@ movhi
 548 000e 3B80     		strh	r3, [r7]	@ movhi
 355:./Library/stm32f4xx_tim.c ****   /* Check the parameters */
 356:./Library/stm32f4xx_tim.c ****   assert_param(IS_TIM_ALL_PERIPH(TIMx));
 357:./Library/stm32f4xx_tim.c ****   assert_param(IS_TIM_PRESCALER_RELOAD(TIM_PSCReloadMode));
 358:./Library/stm32f4xx_tim.c ****   /* Set the Prescaler value */
 359:./Library/stm32f4xx_tim.c ****   TIMx->PSC = Prescaler;
 549              		.loc 1 359 13
 550 0010 7B68     		ldr	r3, [r7, #4]
 551 0012 7A88     		ldrh	r2, [r7, #2]	@ movhi
 552 0014 1A85     		strh	r2, [r3, #40]	@ movhi
 360:./Library/stm32f4xx_tim.c ****   /* Set or reset the UG Bit */
 361:./Library/stm32f4xx_tim.c ****   TIMx->EGR = TIM_PSCReloadMode;
 553              		.loc 1 361 13
 554 0016 7B68     		ldr	r3, [r7, #4]
 555 0018 3A88     		ldrh	r2, [r7]	@ movhi
 556 001a 9A82     		strh	r2, [r3, #20]	@ movhi
 362:./Library/stm32f4xx_tim.c **** }
 557              		.loc 1 362 1
 558 001c 00BF     		nop
 559 001e 0C37     		adds	r7, r7, #12
 560              	.LCFI20:
 561              		.cfi_def_cfa_offset 4
 562 0020 BD46     		mov	sp, r7
 563              	.LCFI21:
 564              		.cfi_def_cfa_register 13
 565              		@ sp needed
 566 0022 5DF8047B 		ldr	r7, [sp], #4
 567              	.LCFI22:
 568              		.cfi_restore 7
 569              		.cfi_def_cfa_offset 0
 570 0026 7047     		bx	lr
 571              		.cfi_endproc
 572              	.LFE126:
 574              		.section	.text.TIM_CounterModeConfig,"ax",%progbits
 575              		.align	1
 576              		.global	TIM_CounterModeConfig
ARM GAS  /var/folders/yl/_q9l42k90g1g4mdhbs226msm0000gn/T//cclSErw0.s 			page 18


 577              		.syntax unified
 578              		.thumb
 579              		.thumb_func
 581              	TIM_CounterModeConfig:
 582              	.LFB127:
 363:./Library/stm32f4xx_tim.c **** 
 364:./Library/stm32f4xx_tim.c **** /**
 365:./Library/stm32f4xx_tim.c ****   * @brief  Specifies the TIMx Counter Mode to be used.
 366:./Library/stm32f4xx_tim.c ****   * @param  TIMx: where x can be  1, 2, 3, 4, 5 or 8 to select the TIM peripheral.
 367:./Library/stm32f4xx_tim.c ****   * @param  TIM_CounterMode: specifies the Counter Mode to be used
 368:./Library/stm32f4xx_tim.c ****   *          This parameter can be one of the following values:
 369:./Library/stm32f4xx_tim.c ****   *            @arg TIM_CounterMode_Up: TIM Up Counting Mode
 370:./Library/stm32f4xx_tim.c ****   *            @arg TIM_CounterMode_Down: TIM Down Counting Mode
 371:./Library/stm32f4xx_tim.c ****   *            @arg TIM_CounterMode_CenterAligned1: TIM Center Aligned Mode1
 372:./Library/stm32f4xx_tim.c ****   *            @arg TIM_CounterMode_CenterAligned2: TIM Center Aligned Mode2
 373:./Library/stm32f4xx_tim.c ****   *            @arg TIM_CounterMode_CenterAligned3: TIM Center Aligned Mode3
 374:./Library/stm32f4xx_tim.c ****   * @retval None
 375:./Library/stm32f4xx_tim.c ****   */
 376:./Library/stm32f4xx_tim.c **** void TIM_CounterModeConfig(TIM_TypeDef* TIMx, uint16_t TIM_CounterMode)
 377:./Library/stm32f4xx_tim.c **** {
 583              		.loc 1 377 1
 584              		.cfi_startproc
 585              		@ args = 0, pretend = 0, frame = 16
 586              		@ frame_needed = 1, uses_anonymous_args = 0
 587              		@ link register save eliminated.
 588 0000 80B4     		push	{r7}
 589              	.LCFI23:
 590              		.cfi_def_cfa_offset 4
 591              		.cfi_offset 7, -4
 592 0002 85B0     		sub	sp, sp, #20
 593              	.LCFI24:
 594              		.cfi_def_cfa_offset 24
 595 0004 00AF     		add	r7, sp, #0
 596              	.LCFI25:
 597              		.cfi_def_cfa_register 7
 598 0006 7860     		str	r0, [r7, #4]
 599 0008 0B46     		mov	r3, r1
 600 000a 7B80     		strh	r3, [r7, #2]	@ movhi
 378:./Library/stm32f4xx_tim.c ****   uint16_t tmpcr1 = 0;
 601              		.loc 1 378 12
 602 000c 0023     		movs	r3, #0
 603 000e FB81     		strh	r3, [r7, #14]	@ movhi
 379:./Library/stm32f4xx_tim.c **** 
 380:./Library/stm32f4xx_tim.c ****   /* Check the parameters */
 381:./Library/stm32f4xx_tim.c ****   assert_param(IS_TIM_LIST3_PERIPH(TIMx));
 382:./Library/stm32f4xx_tim.c ****   assert_param(IS_TIM_COUNTER_MODE(TIM_CounterMode));
 383:./Library/stm32f4xx_tim.c **** 
 384:./Library/stm32f4xx_tim.c ****   tmpcr1 = TIMx->CR1;
 604              		.loc 1 384 10
 605 0010 7B68     		ldr	r3, [r7, #4]
 606 0012 1B88     		ldrh	r3, [r3]	@ movhi
 607 0014 FB81     		strh	r3, [r7, #14]	@ movhi
 385:./Library/stm32f4xx_tim.c **** 
 386:./Library/stm32f4xx_tim.c ****   /* Reset the CMS and DIR Bits */
 387:./Library/stm32f4xx_tim.c ****   tmpcr1 &= (uint16_t)~(TIM_CR1_DIR | TIM_CR1_CMS);
 608              		.loc 1 387 10
 609 0016 FB89     		ldrh	r3, [r7, #14]	@ movhi
ARM GAS  /var/folders/yl/_q9l42k90g1g4mdhbs226msm0000gn/T//cclSErw0.s 			page 19


 610 0018 23F07003 		bic	r3, r3, #112
 611 001c FB81     		strh	r3, [r7, #14]	@ movhi
 388:./Library/stm32f4xx_tim.c **** 
 389:./Library/stm32f4xx_tim.c ****   /* Set the Counter Mode */
 390:./Library/stm32f4xx_tim.c ****   tmpcr1 |= TIM_CounterMode;
 612              		.loc 1 390 10
 613 001e FA89     		ldrh	r2, [r7, #14]	@ movhi
 614 0020 7B88     		ldrh	r3, [r7, #2]	@ movhi
 615 0022 1343     		orrs	r3, r3, r2
 616 0024 FB81     		strh	r3, [r7, #14]	@ movhi
 391:./Library/stm32f4xx_tim.c **** 
 392:./Library/stm32f4xx_tim.c ****   /* Write to TIMx CR1 register */
 393:./Library/stm32f4xx_tim.c ****   TIMx->CR1 = tmpcr1;
 617              		.loc 1 393 13
 618 0026 7B68     		ldr	r3, [r7, #4]
 619 0028 FA89     		ldrh	r2, [r7, #14]	@ movhi
 620 002a 1A80     		strh	r2, [r3]	@ movhi
 394:./Library/stm32f4xx_tim.c **** }
 621              		.loc 1 394 1
 622 002c 00BF     		nop
 623 002e 1437     		adds	r7, r7, #20
 624              	.LCFI26:
 625              		.cfi_def_cfa_offset 4
 626 0030 BD46     		mov	sp, r7
 627              	.LCFI27:
 628              		.cfi_def_cfa_register 13
 629              		@ sp needed
 630 0032 5DF8047B 		ldr	r7, [sp], #4
 631              	.LCFI28:
 632              		.cfi_restore 7
 633              		.cfi_def_cfa_offset 0
 634 0036 7047     		bx	lr
 635              		.cfi_endproc
 636              	.LFE127:
 638              		.section	.text.TIM_SetCounter,"ax",%progbits
 639              		.align	1
 640              		.global	TIM_SetCounter
 641              		.syntax unified
 642              		.thumb
 643              		.thumb_func
 645              	TIM_SetCounter:
 646              	.LFB128:
 395:./Library/stm32f4xx_tim.c **** 
 396:./Library/stm32f4xx_tim.c **** /**
 397:./Library/stm32f4xx_tim.c ****   * @brief  Sets the TIMx Counter Register value
 398:./Library/stm32f4xx_tim.c ****   * @param  TIMx: where x can be 1 to 14 to select the TIM peripheral.
 399:./Library/stm32f4xx_tim.c ****   * @param  Counter: specifies the Counter register new value.
 400:./Library/stm32f4xx_tim.c ****   * @retval None
 401:./Library/stm32f4xx_tim.c ****   */
 402:./Library/stm32f4xx_tim.c **** void TIM_SetCounter(TIM_TypeDef* TIMx, uint32_t Counter)
 403:./Library/stm32f4xx_tim.c **** {
 647              		.loc 1 403 1
 648              		.cfi_startproc
 649              		@ args = 0, pretend = 0, frame = 8
 650              		@ frame_needed = 1, uses_anonymous_args = 0
 651              		@ link register save eliminated.
 652 0000 80B4     		push	{r7}
ARM GAS  /var/folders/yl/_q9l42k90g1g4mdhbs226msm0000gn/T//cclSErw0.s 			page 20


 653              	.LCFI29:
 654              		.cfi_def_cfa_offset 4
 655              		.cfi_offset 7, -4
 656 0002 83B0     		sub	sp, sp, #12
 657              	.LCFI30:
 658              		.cfi_def_cfa_offset 16
 659 0004 00AF     		add	r7, sp, #0
 660              	.LCFI31:
 661              		.cfi_def_cfa_register 7
 662 0006 7860     		str	r0, [r7, #4]
 663 0008 3960     		str	r1, [r7]
 404:./Library/stm32f4xx_tim.c ****   /* Check the parameters */
 405:./Library/stm32f4xx_tim.c ****    assert_param(IS_TIM_ALL_PERIPH(TIMx));
 406:./Library/stm32f4xx_tim.c **** 
 407:./Library/stm32f4xx_tim.c ****   /* Set the Counter Register value */
 408:./Library/stm32f4xx_tim.c ****   TIMx->CNT = Counter;
 664              		.loc 1 408 13
 665 000a 7B68     		ldr	r3, [r7, #4]
 666 000c 3A68     		ldr	r2, [r7]
 667 000e 5A62     		str	r2, [r3, #36]
 409:./Library/stm32f4xx_tim.c **** }
 668              		.loc 1 409 1
 669 0010 00BF     		nop
 670 0012 0C37     		adds	r7, r7, #12
 671              	.LCFI32:
 672              		.cfi_def_cfa_offset 4
 673 0014 BD46     		mov	sp, r7
 674              	.LCFI33:
 675              		.cfi_def_cfa_register 13
 676              		@ sp needed
 677 0016 5DF8047B 		ldr	r7, [sp], #4
 678              	.LCFI34:
 679              		.cfi_restore 7
 680              		.cfi_def_cfa_offset 0
 681 001a 7047     		bx	lr
 682              		.cfi_endproc
 683              	.LFE128:
 685              		.section	.text.TIM_SetAutoreload,"ax",%progbits
 686              		.align	1
 687              		.global	TIM_SetAutoreload
 688              		.syntax unified
 689              		.thumb
 690              		.thumb_func
 692              	TIM_SetAutoreload:
 693              	.LFB129:
 410:./Library/stm32f4xx_tim.c **** 
 411:./Library/stm32f4xx_tim.c **** /**
 412:./Library/stm32f4xx_tim.c ****   * @brief  Sets the TIMx Autoreload Register value
 413:./Library/stm32f4xx_tim.c ****   * @param  TIMx: where x can be 1 to 14 to select the TIM peripheral.
 414:./Library/stm32f4xx_tim.c ****   * @param  Autoreload: specifies the Autoreload register new value.
 415:./Library/stm32f4xx_tim.c ****   * @retval None
 416:./Library/stm32f4xx_tim.c ****   */
 417:./Library/stm32f4xx_tim.c **** void TIM_SetAutoreload(TIM_TypeDef* TIMx, uint32_t Autoreload)
 418:./Library/stm32f4xx_tim.c **** {
 694              		.loc 1 418 1
 695              		.cfi_startproc
 696              		@ args = 0, pretend = 0, frame = 8
ARM GAS  /var/folders/yl/_q9l42k90g1g4mdhbs226msm0000gn/T//cclSErw0.s 			page 21


 697              		@ frame_needed = 1, uses_anonymous_args = 0
 698              		@ link register save eliminated.
 699 0000 80B4     		push	{r7}
 700              	.LCFI35:
 701              		.cfi_def_cfa_offset 4
 702              		.cfi_offset 7, -4
 703 0002 83B0     		sub	sp, sp, #12
 704              	.LCFI36:
 705              		.cfi_def_cfa_offset 16
 706 0004 00AF     		add	r7, sp, #0
 707              	.LCFI37:
 708              		.cfi_def_cfa_register 7
 709 0006 7860     		str	r0, [r7, #4]
 710 0008 3960     		str	r1, [r7]
 419:./Library/stm32f4xx_tim.c ****   /* Check the parameters */
 420:./Library/stm32f4xx_tim.c ****   assert_param(IS_TIM_ALL_PERIPH(TIMx));
 421:./Library/stm32f4xx_tim.c ****   
 422:./Library/stm32f4xx_tim.c ****   /* Set the Autoreload Register value */
 423:./Library/stm32f4xx_tim.c ****   TIMx->ARR = Autoreload;
 711              		.loc 1 423 13
 712 000a 7B68     		ldr	r3, [r7, #4]
 713 000c 3A68     		ldr	r2, [r7]
 714 000e DA62     		str	r2, [r3, #44]
 424:./Library/stm32f4xx_tim.c **** }
 715              		.loc 1 424 1
 716 0010 00BF     		nop
 717 0012 0C37     		adds	r7, r7, #12
 718              	.LCFI38:
 719              		.cfi_def_cfa_offset 4
 720 0014 BD46     		mov	sp, r7
 721              	.LCFI39:
 722              		.cfi_def_cfa_register 13
 723              		@ sp needed
 724 0016 5DF8047B 		ldr	r7, [sp], #4
 725              	.LCFI40:
 726              		.cfi_restore 7
 727              		.cfi_def_cfa_offset 0
 728 001a 7047     		bx	lr
 729              		.cfi_endproc
 730              	.LFE129:
 732              		.section	.text.TIM_GetCounter,"ax",%progbits
 733              		.align	1
 734              		.global	TIM_GetCounter
 735              		.syntax unified
 736              		.thumb
 737              		.thumb_func
 739              	TIM_GetCounter:
 740              	.LFB130:
 425:./Library/stm32f4xx_tim.c **** 
 426:./Library/stm32f4xx_tim.c **** /**
 427:./Library/stm32f4xx_tim.c ****   * @brief  Gets the TIMx Counter value.
 428:./Library/stm32f4xx_tim.c ****   * @param  TIMx: where x can be 1 to 14 to select the TIM peripheral.
 429:./Library/stm32f4xx_tim.c ****   * @retval Counter Register value
 430:./Library/stm32f4xx_tim.c ****   */
 431:./Library/stm32f4xx_tim.c **** uint32_t TIM_GetCounter(TIM_TypeDef* TIMx)
 432:./Library/stm32f4xx_tim.c **** {
 741              		.loc 1 432 1
ARM GAS  /var/folders/yl/_q9l42k90g1g4mdhbs226msm0000gn/T//cclSErw0.s 			page 22


 742              		.cfi_startproc
 743              		@ args = 0, pretend = 0, frame = 8
 744              		@ frame_needed = 1, uses_anonymous_args = 0
 745              		@ link register save eliminated.
 746 0000 80B4     		push	{r7}
 747              	.LCFI41:
 748              		.cfi_def_cfa_offset 4
 749              		.cfi_offset 7, -4
 750 0002 83B0     		sub	sp, sp, #12
 751              	.LCFI42:
 752              		.cfi_def_cfa_offset 16
 753 0004 00AF     		add	r7, sp, #0
 754              	.LCFI43:
 755              		.cfi_def_cfa_register 7
 756 0006 7860     		str	r0, [r7, #4]
 433:./Library/stm32f4xx_tim.c ****   /* Check the parameters */
 434:./Library/stm32f4xx_tim.c ****   assert_param(IS_TIM_ALL_PERIPH(TIMx));
 435:./Library/stm32f4xx_tim.c **** 
 436:./Library/stm32f4xx_tim.c ****   /* Get the Counter Register value */
 437:./Library/stm32f4xx_tim.c ****   return TIMx->CNT;
 757              		.loc 1 437 14
 758 0008 7B68     		ldr	r3, [r7, #4]
 759 000a 5B6A     		ldr	r3, [r3, #36]
 438:./Library/stm32f4xx_tim.c **** }
 760              		.loc 1 438 1
 761 000c 1846     		mov	r0, r3
 762 000e 0C37     		adds	r7, r7, #12
 763              	.LCFI44:
 764              		.cfi_def_cfa_offset 4
 765 0010 BD46     		mov	sp, r7
 766              	.LCFI45:
 767              		.cfi_def_cfa_register 13
 768              		@ sp needed
 769 0012 5DF8047B 		ldr	r7, [sp], #4
 770              	.LCFI46:
 771              		.cfi_restore 7
 772              		.cfi_def_cfa_offset 0
 773 0016 7047     		bx	lr
 774              		.cfi_endproc
 775              	.LFE130:
 777              		.section	.text.TIM_GetPrescaler,"ax",%progbits
 778              		.align	1
 779              		.global	TIM_GetPrescaler
 780              		.syntax unified
 781              		.thumb
 782              		.thumb_func
 784              	TIM_GetPrescaler:
 785              	.LFB131:
 439:./Library/stm32f4xx_tim.c **** 
 440:./Library/stm32f4xx_tim.c **** /**
 441:./Library/stm32f4xx_tim.c ****   * @brief  Gets the TIMx Prescaler value.
 442:./Library/stm32f4xx_tim.c ****   * @param  TIMx: where x can be 1 to 14 to select the TIM peripheral.
 443:./Library/stm32f4xx_tim.c ****   * @retval Prescaler Register value.
 444:./Library/stm32f4xx_tim.c ****   */
 445:./Library/stm32f4xx_tim.c **** uint16_t TIM_GetPrescaler(TIM_TypeDef* TIMx)
 446:./Library/stm32f4xx_tim.c **** {
 786              		.loc 1 446 1
ARM GAS  /var/folders/yl/_q9l42k90g1g4mdhbs226msm0000gn/T//cclSErw0.s 			page 23


 787              		.cfi_startproc
 788              		@ args = 0, pretend = 0, frame = 8
 789              		@ frame_needed = 1, uses_anonymous_args = 0
 790              		@ link register save eliminated.
 791 0000 80B4     		push	{r7}
 792              	.LCFI47:
 793              		.cfi_def_cfa_offset 4
 794              		.cfi_offset 7, -4
 795 0002 83B0     		sub	sp, sp, #12
 796              	.LCFI48:
 797              		.cfi_def_cfa_offset 16
 798 0004 00AF     		add	r7, sp, #0
 799              	.LCFI49:
 800              		.cfi_def_cfa_register 7
 801 0006 7860     		str	r0, [r7, #4]
 447:./Library/stm32f4xx_tim.c ****   /* Check the parameters */
 448:./Library/stm32f4xx_tim.c ****   assert_param(IS_TIM_ALL_PERIPH(TIMx));
 449:./Library/stm32f4xx_tim.c **** 
 450:./Library/stm32f4xx_tim.c ****   /* Get the Prescaler Register value */
 451:./Library/stm32f4xx_tim.c ****   return TIMx->PSC;
 802              		.loc 1 451 14
 803 0008 7B68     		ldr	r3, [r7, #4]
 804 000a 1B8D     		ldrh	r3, [r3, #40]	@ movhi
 805 000c 9BB2     		uxth	r3, r3
 452:./Library/stm32f4xx_tim.c **** }
 806              		.loc 1 452 1
 807 000e 1846     		mov	r0, r3
 808 0010 0C37     		adds	r7, r7, #12
 809              	.LCFI50:
 810              		.cfi_def_cfa_offset 4
 811 0012 BD46     		mov	sp, r7
 812              	.LCFI51:
 813              		.cfi_def_cfa_register 13
 814              		@ sp needed
 815 0014 5DF8047B 		ldr	r7, [sp], #4
 816              	.LCFI52:
 817              		.cfi_restore 7
 818              		.cfi_def_cfa_offset 0
 819 0018 7047     		bx	lr
 820              		.cfi_endproc
 821              	.LFE131:
 823              		.section	.text.TIM_UpdateDisableConfig,"ax",%progbits
 824              		.align	1
 825              		.global	TIM_UpdateDisableConfig
 826              		.syntax unified
 827              		.thumb
 828              		.thumb_func
 830              	TIM_UpdateDisableConfig:
 831              	.LFB132:
 453:./Library/stm32f4xx_tim.c **** 
 454:./Library/stm32f4xx_tim.c **** /**
 455:./Library/stm32f4xx_tim.c ****   * @brief  Enables or Disables the TIMx Update event.
 456:./Library/stm32f4xx_tim.c ****   * @param  TIMx: where x can be 1 to 14 to select the TIM peripheral.
 457:./Library/stm32f4xx_tim.c ****   * @param  NewState: new state of the TIMx UDIS bit
 458:./Library/stm32f4xx_tim.c ****   *          This parameter can be: ENABLE or DISABLE.
 459:./Library/stm32f4xx_tim.c ****   * @retval None
 460:./Library/stm32f4xx_tim.c ****   */
ARM GAS  /var/folders/yl/_q9l42k90g1g4mdhbs226msm0000gn/T//cclSErw0.s 			page 24


 461:./Library/stm32f4xx_tim.c **** void TIM_UpdateDisableConfig(TIM_TypeDef* TIMx, FunctionalState NewState)
 462:./Library/stm32f4xx_tim.c **** {
 832              		.loc 1 462 1
 833              		.cfi_startproc
 834              		@ args = 0, pretend = 0, frame = 8
 835              		@ frame_needed = 1, uses_anonymous_args = 0
 836              		@ link register save eliminated.
 837 0000 80B4     		push	{r7}
 838              	.LCFI53:
 839              		.cfi_def_cfa_offset 4
 840              		.cfi_offset 7, -4
 841 0002 83B0     		sub	sp, sp, #12
 842              	.LCFI54:
 843              		.cfi_def_cfa_offset 16
 844 0004 00AF     		add	r7, sp, #0
 845              	.LCFI55:
 846              		.cfi_def_cfa_register 7
 847 0006 7860     		str	r0, [r7, #4]
 848 0008 0B46     		mov	r3, r1
 849 000a FB70     		strb	r3, [r7, #3]
 463:./Library/stm32f4xx_tim.c ****   /* Check the parameters */
 464:./Library/stm32f4xx_tim.c ****   assert_param(IS_TIM_ALL_PERIPH(TIMx));
 465:./Library/stm32f4xx_tim.c ****   assert_param(IS_FUNCTIONAL_STATE(NewState));
 466:./Library/stm32f4xx_tim.c **** 
 467:./Library/stm32f4xx_tim.c ****   if (NewState != DISABLE)
 850              		.loc 1 467 6
 851 000c FB78     		ldrb	r3, [r7, #3]	@ zero_extendqisi2
 852 000e 002B     		cmp	r3, #0
 853 0010 08D0     		beq	.L37
 468:./Library/stm32f4xx_tim.c ****   {
 469:./Library/stm32f4xx_tim.c ****     /* Set the Update Disable Bit */
 470:./Library/stm32f4xx_tim.c ****     TIMx->CR1 |= TIM_CR1_UDIS;
 854              		.loc 1 470 15
 855 0012 7B68     		ldr	r3, [r7, #4]
 856 0014 1B88     		ldrh	r3, [r3]	@ movhi
 857 0016 9BB2     		uxth	r3, r3
 858 0018 43F00203 		orr	r3, r3, #2
 859 001c 9AB2     		uxth	r2, r3
 860 001e 7B68     		ldr	r3, [r7, #4]
 861 0020 1A80     		strh	r2, [r3]	@ movhi
 471:./Library/stm32f4xx_tim.c ****   }
 472:./Library/stm32f4xx_tim.c ****   else
 473:./Library/stm32f4xx_tim.c ****   {
 474:./Library/stm32f4xx_tim.c ****     /* Reset the Update Disable Bit */
 475:./Library/stm32f4xx_tim.c ****     TIMx->CR1 &= (uint16_t)~TIM_CR1_UDIS;
 476:./Library/stm32f4xx_tim.c ****   }
 477:./Library/stm32f4xx_tim.c **** }
 862              		.loc 1 477 1
 863 0022 07E0     		b	.L39
 864              	.L37:
 475:./Library/stm32f4xx_tim.c ****   }
 865              		.loc 1 475 15
 866 0024 7B68     		ldr	r3, [r7, #4]
 867 0026 1B88     		ldrh	r3, [r3]	@ movhi
 868 0028 9BB2     		uxth	r3, r3
 869 002a 23F00203 		bic	r3, r3, #2
 870 002e 9AB2     		uxth	r2, r3
ARM GAS  /var/folders/yl/_q9l42k90g1g4mdhbs226msm0000gn/T//cclSErw0.s 			page 25


 871 0030 7B68     		ldr	r3, [r7, #4]
 872 0032 1A80     		strh	r2, [r3]	@ movhi
 873              	.L39:
 874              		.loc 1 477 1
 875 0034 00BF     		nop
 876 0036 0C37     		adds	r7, r7, #12
 877              	.LCFI56:
 878              		.cfi_def_cfa_offset 4
 879 0038 BD46     		mov	sp, r7
 880              	.LCFI57:
 881              		.cfi_def_cfa_register 13
 882              		@ sp needed
 883 003a 5DF8047B 		ldr	r7, [sp], #4
 884              	.LCFI58:
 885              		.cfi_restore 7
 886              		.cfi_def_cfa_offset 0
 887 003e 7047     		bx	lr
 888              		.cfi_endproc
 889              	.LFE132:
 891              		.section	.text.TIM_UpdateRequestConfig,"ax",%progbits
 892              		.align	1
 893              		.global	TIM_UpdateRequestConfig
 894              		.syntax unified
 895              		.thumb
 896              		.thumb_func
 898              	TIM_UpdateRequestConfig:
 899              	.LFB133:
 478:./Library/stm32f4xx_tim.c **** 
 479:./Library/stm32f4xx_tim.c **** /**
 480:./Library/stm32f4xx_tim.c ****   * @brief  Configures the TIMx Update Request Interrupt source.
 481:./Library/stm32f4xx_tim.c ****   * @param  TIMx: where x can be 1 to 14 to select the TIM peripheral.
 482:./Library/stm32f4xx_tim.c ****   * @param  TIM_UpdateSource: specifies the Update source.
 483:./Library/stm32f4xx_tim.c ****   *          This parameter can be one of the following values:
 484:./Library/stm32f4xx_tim.c ****   *            @arg TIM_UpdateSource_Global: Source of update is the counter
 485:./Library/stm32f4xx_tim.c ****   *                 overflow/underflow or the setting of UG bit, or an update
 486:./Library/stm32f4xx_tim.c ****   *                 generation through the slave mode controller.
 487:./Library/stm32f4xx_tim.c ****   *            @arg TIM_UpdateSource_Regular: Source of update is counter overflow/underflow.
 488:./Library/stm32f4xx_tim.c ****   * @retval None
 489:./Library/stm32f4xx_tim.c ****   */
 490:./Library/stm32f4xx_tim.c **** void TIM_UpdateRequestConfig(TIM_TypeDef* TIMx, uint16_t TIM_UpdateSource)
 491:./Library/stm32f4xx_tim.c **** {
 900              		.loc 1 491 1
 901              		.cfi_startproc
 902              		@ args = 0, pretend = 0, frame = 8
 903              		@ frame_needed = 1, uses_anonymous_args = 0
 904              		@ link register save eliminated.
 905 0000 80B4     		push	{r7}
 906              	.LCFI59:
 907              		.cfi_def_cfa_offset 4
 908              		.cfi_offset 7, -4
 909 0002 83B0     		sub	sp, sp, #12
 910              	.LCFI60:
 911              		.cfi_def_cfa_offset 16
 912 0004 00AF     		add	r7, sp, #0
 913              	.LCFI61:
 914              		.cfi_def_cfa_register 7
 915 0006 7860     		str	r0, [r7, #4]
ARM GAS  /var/folders/yl/_q9l42k90g1g4mdhbs226msm0000gn/T//cclSErw0.s 			page 26


 916 0008 0B46     		mov	r3, r1
 917 000a 7B80     		strh	r3, [r7, #2]	@ movhi
 492:./Library/stm32f4xx_tim.c ****   /* Check the parameters */
 493:./Library/stm32f4xx_tim.c ****   assert_param(IS_TIM_ALL_PERIPH(TIMx));
 494:./Library/stm32f4xx_tim.c ****   assert_param(IS_TIM_UPDATE_SOURCE(TIM_UpdateSource));
 495:./Library/stm32f4xx_tim.c **** 
 496:./Library/stm32f4xx_tim.c ****   if (TIM_UpdateSource != TIM_UpdateSource_Global)
 918              		.loc 1 496 6
 919 000c 7B88     		ldrh	r3, [r7, #2]
 920 000e 002B     		cmp	r3, #0
 921 0010 08D0     		beq	.L41
 497:./Library/stm32f4xx_tim.c ****   {
 498:./Library/stm32f4xx_tim.c ****     /* Set the URS Bit */
 499:./Library/stm32f4xx_tim.c ****     TIMx->CR1 |= TIM_CR1_URS;
 922              		.loc 1 499 15
 923 0012 7B68     		ldr	r3, [r7, #4]
 924 0014 1B88     		ldrh	r3, [r3]	@ movhi
 925 0016 9BB2     		uxth	r3, r3
 926 0018 43F00403 		orr	r3, r3, #4
 927 001c 9AB2     		uxth	r2, r3
 928 001e 7B68     		ldr	r3, [r7, #4]
 929 0020 1A80     		strh	r2, [r3]	@ movhi
 500:./Library/stm32f4xx_tim.c ****   }
 501:./Library/stm32f4xx_tim.c ****   else
 502:./Library/stm32f4xx_tim.c ****   {
 503:./Library/stm32f4xx_tim.c ****     /* Reset the URS Bit */
 504:./Library/stm32f4xx_tim.c ****     TIMx->CR1 &= (uint16_t)~TIM_CR1_URS;
 505:./Library/stm32f4xx_tim.c ****   }
 506:./Library/stm32f4xx_tim.c **** }
 930              		.loc 1 506 1
 931 0022 07E0     		b	.L43
 932              	.L41:
 504:./Library/stm32f4xx_tim.c ****   }
 933              		.loc 1 504 15
 934 0024 7B68     		ldr	r3, [r7, #4]
 935 0026 1B88     		ldrh	r3, [r3]	@ movhi
 936 0028 9BB2     		uxth	r3, r3
 937 002a 23F00403 		bic	r3, r3, #4
 938 002e 9AB2     		uxth	r2, r3
 939 0030 7B68     		ldr	r3, [r7, #4]
 940 0032 1A80     		strh	r2, [r3]	@ movhi
 941              	.L43:
 942              		.loc 1 506 1
 943 0034 00BF     		nop
 944 0036 0C37     		adds	r7, r7, #12
 945              	.LCFI62:
 946              		.cfi_def_cfa_offset 4
 947 0038 BD46     		mov	sp, r7
 948              	.LCFI63:
 949              		.cfi_def_cfa_register 13
 950              		@ sp needed
 951 003a 5DF8047B 		ldr	r7, [sp], #4
 952              	.LCFI64:
 953              		.cfi_restore 7
 954              		.cfi_def_cfa_offset 0
 955 003e 7047     		bx	lr
 956              		.cfi_endproc
ARM GAS  /var/folders/yl/_q9l42k90g1g4mdhbs226msm0000gn/T//cclSErw0.s 			page 27


 957              	.LFE133:
 959              		.section	.text.TIM_ARRPreloadConfig,"ax",%progbits
 960              		.align	1
 961              		.global	TIM_ARRPreloadConfig
 962              		.syntax unified
 963              		.thumb
 964              		.thumb_func
 966              	TIM_ARRPreloadConfig:
 967              	.LFB134:
 507:./Library/stm32f4xx_tim.c **** 
 508:./Library/stm32f4xx_tim.c **** /**
 509:./Library/stm32f4xx_tim.c ****   * @brief  Enables or disables TIMx peripheral Preload register on ARR.
 510:./Library/stm32f4xx_tim.c ****   * @param  TIMx: where x can be 1 to 14 to select the TIM peripheral.
 511:./Library/stm32f4xx_tim.c ****   * @param  NewState: new state of the TIMx peripheral Preload register
 512:./Library/stm32f4xx_tim.c ****   *          This parameter can be: ENABLE or DISABLE.
 513:./Library/stm32f4xx_tim.c ****   * @retval None
 514:./Library/stm32f4xx_tim.c ****   */
 515:./Library/stm32f4xx_tim.c **** void TIM_ARRPreloadConfig(TIM_TypeDef* TIMx, FunctionalState NewState)
 516:./Library/stm32f4xx_tim.c **** {
 968              		.loc 1 516 1
 969              		.cfi_startproc
 970              		@ args = 0, pretend = 0, frame = 8
 971              		@ frame_needed = 1, uses_anonymous_args = 0
 972              		@ link register save eliminated.
 973 0000 80B4     		push	{r7}
 974              	.LCFI65:
 975              		.cfi_def_cfa_offset 4
 976              		.cfi_offset 7, -4
 977 0002 83B0     		sub	sp, sp, #12
 978              	.LCFI66:
 979              		.cfi_def_cfa_offset 16
 980 0004 00AF     		add	r7, sp, #0
 981              	.LCFI67:
 982              		.cfi_def_cfa_register 7
 983 0006 7860     		str	r0, [r7, #4]
 984 0008 0B46     		mov	r3, r1
 985 000a FB70     		strb	r3, [r7, #3]
 517:./Library/stm32f4xx_tim.c ****   /* Check the parameters */
 518:./Library/stm32f4xx_tim.c ****   assert_param(IS_TIM_ALL_PERIPH(TIMx));
 519:./Library/stm32f4xx_tim.c ****   assert_param(IS_FUNCTIONAL_STATE(NewState));
 520:./Library/stm32f4xx_tim.c **** 
 521:./Library/stm32f4xx_tim.c ****   if (NewState != DISABLE)
 986              		.loc 1 521 6
 987 000c FB78     		ldrb	r3, [r7, #3]	@ zero_extendqisi2
 988 000e 002B     		cmp	r3, #0
 989 0010 08D0     		beq	.L45
 522:./Library/stm32f4xx_tim.c ****   {
 523:./Library/stm32f4xx_tim.c ****     /* Set the ARR Preload Bit */
 524:./Library/stm32f4xx_tim.c ****     TIMx->CR1 |= TIM_CR1_ARPE;
 990              		.loc 1 524 15
 991 0012 7B68     		ldr	r3, [r7, #4]
 992 0014 1B88     		ldrh	r3, [r3]	@ movhi
 993 0016 9BB2     		uxth	r3, r3
 994 0018 43F08003 		orr	r3, r3, #128
 995 001c 9AB2     		uxth	r2, r3
 996 001e 7B68     		ldr	r3, [r7, #4]
 997 0020 1A80     		strh	r2, [r3]	@ movhi
ARM GAS  /var/folders/yl/_q9l42k90g1g4mdhbs226msm0000gn/T//cclSErw0.s 			page 28


 525:./Library/stm32f4xx_tim.c ****   }
 526:./Library/stm32f4xx_tim.c ****   else
 527:./Library/stm32f4xx_tim.c ****   {
 528:./Library/stm32f4xx_tim.c ****     /* Reset the ARR Preload Bit */
 529:./Library/stm32f4xx_tim.c ****     TIMx->CR1 &= (uint16_t)~TIM_CR1_ARPE;
 530:./Library/stm32f4xx_tim.c ****   }
 531:./Library/stm32f4xx_tim.c **** }
 998              		.loc 1 531 1
 999 0022 07E0     		b	.L47
 1000              	.L45:
 529:./Library/stm32f4xx_tim.c ****   }
 1001              		.loc 1 529 15
 1002 0024 7B68     		ldr	r3, [r7, #4]
 1003 0026 1B88     		ldrh	r3, [r3]	@ movhi
 1004 0028 9BB2     		uxth	r3, r3
 1005 002a 23F08003 		bic	r3, r3, #128
 1006 002e 9AB2     		uxth	r2, r3
 1007 0030 7B68     		ldr	r3, [r7, #4]
 1008 0032 1A80     		strh	r2, [r3]	@ movhi
 1009              	.L47:
 1010              		.loc 1 531 1
 1011 0034 00BF     		nop
 1012 0036 0C37     		adds	r7, r7, #12
 1013              	.LCFI68:
 1014              		.cfi_def_cfa_offset 4
 1015 0038 BD46     		mov	sp, r7
 1016              	.LCFI69:
 1017              		.cfi_def_cfa_register 13
 1018              		@ sp needed
 1019 003a 5DF8047B 		ldr	r7, [sp], #4
 1020              	.LCFI70:
 1021              		.cfi_restore 7
 1022              		.cfi_def_cfa_offset 0
 1023 003e 7047     		bx	lr
 1024              		.cfi_endproc
 1025              	.LFE134:
 1027              		.section	.text.TIM_SelectOnePulseMode,"ax",%progbits
 1028              		.align	1
 1029              		.global	TIM_SelectOnePulseMode
 1030              		.syntax unified
 1031              		.thumb
 1032              		.thumb_func
 1034              	TIM_SelectOnePulseMode:
 1035              	.LFB135:
 532:./Library/stm32f4xx_tim.c **** 
 533:./Library/stm32f4xx_tim.c **** /**
 534:./Library/stm32f4xx_tim.c ****   * @brief  Selects the TIMx's One Pulse Mode.
 535:./Library/stm32f4xx_tim.c ****   * @param  TIMx: where x can be 1 to 14 to select the TIM peripheral.
 536:./Library/stm32f4xx_tim.c ****   * @param  TIM_OPMode: specifies the OPM Mode to be used.
 537:./Library/stm32f4xx_tim.c ****   *          This parameter can be one of the following values:
 538:./Library/stm32f4xx_tim.c ****   *            @arg TIM_OPMode_Single
 539:./Library/stm32f4xx_tim.c ****   *            @arg TIM_OPMode_Repetitive
 540:./Library/stm32f4xx_tim.c ****   * @retval None
 541:./Library/stm32f4xx_tim.c ****   */
 542:./Library/stm32f4xx_tim.c **** void TIM_SelectOnePulseMode(TIM_TypeDef* TIMx, uint16_t TIM_OPMode)
 543:./Library/stm32f4xx_tim.c **** {
 1036              		.loc 1 543 1
ARM GAS  /var/folders/yl/_q9l42k90g1g4mdhbs226msm0000gn/T//cclSErw0.s 			page 29


 1037              		.cfi_startproc
 1038              		@ args = 0, pretend = 0, frame = 8
 1039              		@ frame_needed = 1, uses_anonymous_args = 0
 1040              		@ link register save eliminated.
 1041 0000 80B4     		push	{r7}
 1042              	.LCFI71:
 1043              		.cfi_def_cfa_offset 4
 1044              		.cfi_offset 7, -4
 1045 0002 83B0     		sub	sp, sp, #12
 1046              	.LCFI72:
 1047              		.cfi_def_cfa_offset 16
 1048 0004 00AF     		add	r7, sp, #0
 1049              	.LCFI73:
 1050              		.cfi_def_cfa_register 7
 1051 0006 7860     		str	r0, [r7, #4]
 1052 0008 0B46     		mov	r3, r1
 1053 000a 7B80     		strh	r3, [r7, #2]	@ movhi
 544:./Library/stm32f4xx_tim.c ****   /* Check the parameters */
 545:./Library/stm32f4xx_tim.c ****   assert_param(IS_TIM_ALL_PERIPH(TIMx));
 546:./Library/stm32f4xx_tim.c ****   assert_param(IS_TIM_OPM_MODE(TIM_OPMode));
 547:./Library/stm32f4xx_tim.c **** 
 548:./Library/stm32f4xx_tim.c ****   /* Reset the OPM Bit */
 549:./Library/stm32f4xx_tim.c ****   TIMx->CR1 &= (uint16_t)~TIM_CR1_OPM;
 1054              		.loc 1 549 13
 1055 000c 7B68     		ldr	r3, [r7, #4]
 1056 000e 1B88     		ldrh	r3, [r3]	@ movhi
 1057 0010 9BB2     		uxth	r3, r3
 1058 0012 23F00803 		bic	r3, r3, #8
 1059 0016 9AB2     		uxth	r2, r3
 1060 0018 7B68     		ldr	r3, [r7, #4]
 1061 001a 1A80     		strh	r2, [r3]	@ movhi
 550:./Library/stm32f4xx_tim.c **** 
 551:./Library/stm32f4xx_tim.c ****   /* Configure the OPM Mode */
 552:./Library/stm32f4xx_tim.c ****   TIMx->CR1 |= TIM_OPMode;
 1062              		.loc 1 552 13
 1063 001c 7B68     		ldr	r3, [r7, #4]
 1064 001e 1B88     		ldrh	r3, [r3]	@ movhi
 1065 0020 9AB2     		uxth	r2, r3
 1066 0022 7B88     		ldrh	r3, [r7, #2]	@ movhi
 1067 0024 1343     		orrs	r3, r3, r2
 1068 0026 9AB2     		uxth	r2, r3
 1069 0028 7B68     		ldr	r3, [r7, #4]
 1070 002a 1A80     		strh	r2, [r3]	@ movhi
 553:./Library/stm32f4xx_tim.c **** }
 1071              		.loc 1 553 1
 1072 002c 00BF     		nop
 1073 002e 0C37     		adds	r7, r7, #12
 1074              	.LCFI74:
 1075              		.cfi_def_cfa_offset 4
 1076 0030 BD46     		mov	sp, r7
 1077              	.LCFI75:
 1078              		.cfi_def_cfa_register 13
 1079              		@ sp needed
 1080 0032 5DF8047B 		ldr	r7, [sp], #4
 1081              	.LCFI76:
 1082              		.cfi_restore 7
 1083              		.cfi_def_cfa_offset 0
ARM GAS  /var/folders/yl/_q9l42k90g1g4mdhbs226msm0000gn/T//cclSErw0.s 			page 30


 1084 0036 7047     		bx	lr
 1085              		.cfi_endproc
 1086              	.LFE135:
 1088              		.section	.text.TIM_SetClockDivision,"ax",%progbits
 1089              		.align	1
 1090              		.global	TIM_SetClockDivision
 1091              		.syntax unified
 1092              		.thumb
 1093              		.thumb_func
 1095              	TIM_SetClockDivision:
 1096              	.LFB136:
 554:./Library/stm32f4xx_tim.c **** 
 555:./Library/stm32f4xx_tim.c **** /**
 556:./Library/stm32f4xx_tim.c ****   * @brief  Sets the TIMx Clock Division value.
 557:./Library/stm32f4xx_tim.c ****   * @param  TIMx: where x can be 1 to 14 except 6 and 7, to select the TIM peripheral.
 558:./Library/stm32f4xx_tim.c ****   * @param  TIM_CKD: specifies the clock division value.
 559:./Library/stm32f4xx_tim.c ****   *          This parameter can be one of the following value:
 560:./Library/stm32f4xx_tim.c ****   *            @arg TIM_CKD_DIV1: TDTS = Tck_tim
 561:./Library/stm32f4xx_tim.c ****   *            @arg TIM_CKD_DIV2: TDTS = 2*Tck_tim
 562:./Library/stm32f4xx_tim.c ****   *            @arg TIM_CKD_DIV4: TDTS = 4*Tck_tim
 563:./Library/stm32f4xx_tim.c ****   * @retval None
 564:./Library/stm32f4xx_tim.c ****   */
 565:./Library/stm32f4xx_tim.c **** void TIM_SetClockDivision(TIM_TypeDef* TIMx, uint16_t TIM_CKD)
 566:./Library/stm32f4xx_tim.c **** {
 1097              		.loc 1 566 1
 1098              		.cfi_startproc
 1099              		@ args = 0, pretend = 0, frame = 8
 1100              		@ frame_needed = 1, uses_anonymous_args = 0
 1101              		@ link register save eliminated.
 1102 0000 80B4     		push	{r7}
 1103              	.LCFI77:
 1104              		.cfi_def_cfa_offset 4
 1105              		.cfi_offset 7, -4
 1106 0002 83B0     		sub	sp, sp, #12
 1107              	.LCFI78:
 1108              		.cfi_def_cfa_offset 16
 1109 0004 00AF     		add	r7, sp, #0
 1110              	.LCFI79:
 1111              		.cfi_def_cfa_register 7
 1112 0006 7860     		str	r0, [r7, #4]
 1113 0008 0B46     		mov	r3, r1
 1114 000a 7B80     		strh	r3, [r7, #2]	@ movhi
 567:./Library/stm32f4xx_tim.c ****   /* Check the parameters */
 568:./Library/stm32f4xx_tim.c ****   assert_param(IS_TIM_LIST1_PERIPH(TIMx));
 569:./Library/stm32f4xx_tim.c ****   assert_param(IS_TIM_CKD_DIV(TIM_CKD));
 570:./Library/stm32f4xx_tim.c **** 
 571:./Library/stm32f4xx_tim.c ****   /* Reset the CKD Bits */
 572:./Library/stm32f4xx_tim.c ****   TIMx->CR1 &= (uint16_t)(~TIM_CR1_CKD);
 1115              		.loc 1 572 13
 1116 000c 7B68     		ldr	r3, [r7, #4]
 1117 000e 1B88     		ldrh	r3, [r3]	@ movhi
 1118 0010 9BB2     		uxth	r3, r3
 1119 0012 23F44073 		bic	r3, r3, #768
 1120 0016 9AB2     		uxth	r2, r3
 1121 0018 7B68     		ldr	r3, [r7, #4]
 1122 001a 1A80     		strh	r2, [r3]	@ movhi
 573:./Library/stm32f4xx_tim.c **** 
ARM GAS  /var/folders/yl/_q9l42k90g1g4mdhbs226msm0000gn/T//cclSErw0.s 			page 31


 574:./Library/stm32f4xx_tim.c ****   /* Set the CKD value */
 575:./Library/stm32f4xx_tim.c ****   TIMx->CR1 |= TIM_CKD;
 1123              		.loc 1 575 13
 1124 001c 7B68     		ldr	r3, [r7, #4]
 1125 001e 1B88     		ldrh	r3, [r3]	@ movhi
 1126 0020 9AB2     		uxth	r2, r3
 1127 0022 7B88     		ldrh	r3, [r7, #2]	@ movhi
 1128 0024 1343     		orrs	r3, r3, r2
 1129 0026 9AB2     		uxth	r2, r3
 1130 0028 7B68     		ldr	r3, [r7, #4]
 1131 002a 1A80     		strh	r2, [r3]	@ movhi
 576:./Library/stm32f4xx_tim.c **** }
 1132              		.loc 1 576 1
 1133 002c 00BF     		nop
 1134 002e 0C37     		adds	r7, r7, #12
 1135              	.LCFI80:
 1136              		.cfi_def_cfa_offset 4
 1137 0030 BD46     		mov	sp, r7
 1138              	.LCFI81:
 1139              		.cfi_def_cfa_register 13
 1140              		@ sp needed
 1141 0032 5DF8047B 		ldr	r7, [sp], #4
 1142              	.LCFI82:
 1143              		.cfi_restore 7
 1144              		.cfi_def_cfa_offset 0
 1145 0036 7047     		bx	lr
 1146              		.cfi_endproc
 1147              	.LFE136:
 1149              		.section	.text.TIM_Cmd,"ax",%progbits
 1150              		.align	1
 1151              		.global	TIM_Cmd
 1152              		.syntax unified
 1153              		.thumb
 1154              		.thumb_func
 1156              	TIM_Cmd:
 1157              	.LFB137:
 577:./Library/stm32f4xx_tim.c **** 
 578:./Library/stm32f4xx_tim.c **** /**
 579:./Library/stm32f4xx_tim.c ****   * @brief  Enables or disables the specified TIM peripheral.
 580:./Library/stm32f4xx_tim.c ****   * @param  TIMx: where x can be 1 to 14 to select the TIMx peripheral.
 581:./Library/stm32f4xx_tim.c ****   * @param  NewState: new state of the TIMx peripheral.
 582:./Library/stm32f4xx_tim.c ****   *          This parameter can be: ENABLE or DISABLE.
 583:./Library/stm32f4xx_tim.c ****   * @retval None
 584:./Library/stm32f4xx_tim.c ****   */
 585:./Library/stm32f4xx_tim.c **** void TIM_Cmd(TIM_TypeDef* TIMx, FunctionalState NewState)
 586:./Library/stm32f4xx_tim.c **** {
 1158              		.loc 1 586 1
 1159              		.cfi_startproc
 1160              		@ args = 0, pretend = 0, frame = 8
 1161              		@ frame_needed = 1, uses_anonymous_args = 0
 1162              		@ link register save eliminated.
 1163 0000 80B4     		push	{r7}
 1164              	.LCFI83:
 1165              		.cfi_def_cfa_offset 4
 1166              		.cfi_offset 7, -4
 1167 0002 83B0     		sub	sp, sp, #12
 1168              	.LCFI84:
ARM GAS  /var/folders/yl/_q9l42k90g1g4mdhbs226msm0000gn/T//cclSErw0.s 			page 32


 1169              		.cfi_def_cfa_offset 16
 1170 0004 00AF     		add	r7, sp, #0
 1171              	.LCFI85:
 1172              		.cfi_def_cfa_register 7
 1173 0006 7860     		str	r0, [r7, #4]
 1174 0008 0B46     		mov	r3, r1
 1175 000a FB70     		strb	r3, [r7, #3]
 587:./Library/stm32f4xx_tim.c ****   /* Check the parameters */
 588:./Library/stm32f4xx_tim.c ****   assert_param(IS_TIM_ALL_PERIPH(TIMx)); 
 589:./Library/stm32f4xx_tim.c ****   assert_param(IS_FUNCTIONAL_STATE(NewState));
 590:./Library/stm32f4xx_tim.c ****   
 591:./Library/stm32f4xx_tim.c ****   if (NewState != DISABLE)
 1176              		.loc 1 591 6
 1177 000c FB78     		ldrb	r3, [r7, #3]	@ zero_extendqisi2
 1178 000e 002B     		cmp	r3, #0
 1179 0010 08D0     		beq	.L51
 592:./Library/stm32f4xx_tim.c ****   {
 593:./Library/stm32f4xx_tim.c ****     /* Enable the TIM Counter */
 594:./Library/stm32f4xx_tim.c ****     TIMx->CR1 |= TIM_CR1_CEN;
 1180              		.loc 1 594 15
 1181 0012 7B68     		ldr	r3, [r7, #4]
 1182 0014 1B88     		ldrh	r3, [r3]	@ movhi
 1183 0016 9BB2     		uxth	r3, r3
 1184 0018 43F00103 		orr	r3, r3, #1
 1185 001c 9AB2     		uxth	r2, r3
 1186 001e 7B68     		ldr	r3, [r7, #4]
 1187 0020 1A80     		strh	r2, [r3]	@ movhi
 595:./Library/stm32f4xx_tim.c ****   }
 596:./Library/stm32f4xx_tim.c ****   else
 597:./Library/stm32f4xx_tim.c ****   {
 598:./Library/stm32f4xx_tim.c ****     /* Disable the TIM Counter */
 599:./Library/stm32f4xx_tim.c ****     TIMx->CR1 &= (uint16_t)~TIM_CR1_CEN;
 600:./Library/stm32f4xx_tim.c ****   }
 601:./Library/stm32f4xx_tim.c **** }
 1188              		.loc 1 601 1
 1189 0022 07E0     		b	.L53
 1190              	.L51:
 599:./Library/stm32f4xx_tim.c ****   }
 1191              		.loc 1 599 15
 1192 0024 7B68     		ldr	r3, [r7, #4]
 1193 0026 1B88     		ldrh	r3, [r3]	@ movhi
 1194 0028 9BB2     		uxth	r3, r3
 1195 002a 23F00103 		bic	r3, r3, #1
 1196 002e 9AB2     		uxth	r2, r3
 1197 0030 7B68     		ldr	r3, [r7, #4]
 1198 0032 1A80     		strh	r2, [r3]	@ movhi
 1199              	.L53:
 1200              		.loc 1 601 1
 1201 0034 00BF     		nop
 1202 0036 0C37     		adds	r7, r7, #12
 1203              	.LCFI86:
 1204              		.cfi_def_cfa_offset 4
 1205 0038 BD46     		mov	sp, r7
 1206              	.LCFI87:
 1207              		.cfi_def_cfa_register 13
 1208              		@ sp needed
 1209 003a 5DF8047B 		ldr	r7, [sp], #4
ARM GAS  /var/folders/yl/_q9l42k90g1g4mdhbs226msm0000gn/T//cclSErw0.s 			page 33


 1210              	.LCFI88:
 1211              		.cfi_restore 7
 1212              		.cfi_def_cfa_offset 0
 1213 003e 7047     		bx	lr
 1214              		.cfi_endproc
 1215              	.LFE137:
 1217              		.section	.text.TIM_OC1Init,"ax",%progbits
 1218              		.align	1
 1219              		.global	TIM_OC1Init
 1220              		.syntax unified
 1221              		.thumb
 1222              		.thumb_func
 1224              	TIM_OC1Init:
 1225              	.LFB138:
 602:./Library/stm32f4xx_tim.c **** /**
 603:./Library/stm32f4xx_tim.c ****   * @}
 604:./Library/stm32f4xx_tim.c ****   */
 605:./Library/stm32f4xx_tim.c **** 
 606:./Library/stm32f4xx_tim.c **** /** @defgroup TIM_Group2 Output Compare management functions
 607:./Library/stm32f4xx_tim.c ****  *  @brief    Output Compare management functions 
 608:./Library/stm32f4xx_tim.c ****  *
 609:./Library/stm32f4xx_tim.c **** @verbatim   
 610:./Library/stm32f4xx_tim.c ****  ===============================================================================
 611:./Library/stm32f4xx_tim.c ****               ##### Output Compare management functions #####
 612:./Library/stm32f4xx_tim.c ****  ===============================================================================  
 613:./Library/stm32f4xx_tim.c ****    
 614:./Library/stm32f4xx_tim.c ****       
 615:./Library/stm32f4xx_tim.c ****         ##### TIM Driver: how to use it in Output Compare Mode #####
 616:./Library/stm32f4xx_tim.c ****  ===============================================================================
 617:./Library/stm32f4xx_tim.c ****     [..] 
 618:./Library/stm32f4xx_tim.c ****     To use the Timer in Output Compare mode, the following steps are mandatory:
 619:./Library/stm32f4xx_tim.c ****        
 620:./Library/stm32f4xx_tim.c ****       (#) Enable TIM clock using RCC_APBxPeriphClockCmd(RCC_APBxPeriph_TIMx, ENABLE) 
 621:./Library/stm32f4xx_tim.c ****           function
 622:./Library/stm32f4xx_tim.c ****        
 623:./Library/stm32f4xx_tim.c ****       (#) Configure the TIM pins by configuring the corresponding GPIO pins
 624:./Library/stm32f4xx_tim.c ****        
 625:./Library/stm32f4xx_tim.c ****       (#) Configure the Time base unit as described in the first part of this driver, 
 626:./Library/stm32f4xx_tim.c ****         (++) if needed, else the Timer will run with the default configuration:
 627:./Library/stm32f4xx_tim.c ****             Autoreload value = 0xFFFF
 628:./Library/stm32f4xx_tim.c ****         (++) Prescaler value = 0x0000
 629:./Library/stm32f4xx_tim.c ****         (++) Counter mode = Up counting
 630:./Library/stm32f4xx_tim.c ****         (++) Clock Division = TIM_CKD_DIV1
 631:./Library/stm32f4xx_tim.c ****           
 632:./Library/stm32f4xx_tim.c ****       (#) Fill the TIM_OCInitStruct with the desired parameters including:
 633:./Library/stm32f4xx_tim.c ****         (++) The TIM Output Compare mode: TIM_OCMode
 634:./Library/stm32f4xx_tim.c ****         (++) TIM Output State: TIM_OutputState
 635:./Library/stm32f4xx_tim.c ****         (++) TIM Pulse value: TIM_Pulse
 636:./Library/stm32f4xx_tim.c ****         (++) TIM Output Compare Polarity : TIM_OCPolarity
 637:./Library/stm32f4xx_tim.c ****        
 638:./Library/stm32f4xx_tim.c ****       (#) Call TIM_OCxInit(TIMx, &TIM_OCInitStruct) to configure the desired 
 639:./Library/stm32f4xx_tim.c ****           channel with the corresponding configuration
 640:./Library/stm32f4xx_tim.c ****        
 641:./Library/stm32f4xx_tim.c ****       (#) Call the TIM_Cmd(ENABLE) function to enable the TIM counter.
 642:./Library/stm32f4xx_tim.c ****        
 643:./Library/stm32f4xx_tim.c ****       -@- All other functions can be used separately to modify, if needed,
 644:./Library/stm32f4xx_tim.c ****           a specific feature of the Timer. 
ARM GAS  /var/folders/yl/_q9l42k90g1g4mdhbs226msm0000gn/T//cclSErw0.s 			page 34


 645:./Library/stm32f4xx_tim.c ****           
 646:./Library/stm32f4xx_tim.c ****       -@- In case of PWM mode, this function is mandatory:
 647:./Library/stm32f4xx_tim.c ****           TIM_OCxPreloadConfig(TIMx, TIM_OCPreload_ENABLE); 
 648:./Library/stm32f4xx_tim.c ****               
 649:./Library/stm32f4xx_tim.c ****       -@- If the corresponding interrupt or DMA request are needed, the user should:
 650:./Library/stm32f4xx_tim.c ****         (+@) Enable the NVIC (or the DMA) to use the TIM interrupts (or DMA requests). 
 651:./Library/stm32f4xx_tim.c ****         (+@) Enable the corresponding interrupt (or DMA request) using the function 
 652:./Library/stm32f4xx_tim.c ****              TIM_ITConfig(TIMx, TIM_IT_CCx) (or TIM_DMA_Cmd(TIMx, TIM_DMA_CCx))   
 653:./Library/stm32f4xx_tim.c **** 
 654:./Library/stm32f4xx_tim.c **** @endverbatim
 655:./Library/stm32f4xx_tim.c ****   * @{
 656:./Library/stm32f4xx_tim.c ****   */
 657:./Library/stm32f4xx_tim.c **** 
 658:./Library/stm32f4xx_tim.c **** /**
 659:./Library/stm32f4xx_tim.c ****   * @brief  Initializes the TIMx Channel1 according to the specified parameters in
 660:./Library/stm32f4xx_tim.c ****   *         the TIM_OCInitStruct.
 661:./Library/stm32f4xx_tim.c ****   * @param  TIMx: where x can be 1 to 14 except 6 and 7, to select the TIM peripheral.
 662:./Library/stm32f4xx_tim.c ****   * @param  TIM_OCInitStruct: pointer to a TIM_OCInitTypeDef structure that contains
 663:./Library/stm32f4xx_tim.c ****   *         the configuration information for the specified TIM peripheral.
 664:./Library/stm32f4xx_tim.c ****   * @retval None
 665:./Library/stm32f4xx_tim.c ****   */
 666:./Library/stm32f4xx_tim.c **** void TIM_OC1Init(TIM_TypeDef* TIMx, TIM_OCInitTypeDef* TIM_OCInitStruct)
 667:./Library/stm32f4xx_tim.c **** {
 1226              		.loc 1 667 1
 1227              		.cfi_startproc
 1228              		@ args = 0, pretend = 0, frame = 16
 1229              		@ frame_needed = 1, uses_anonymous_args = 0
 1230              		@ link register save eliminated.
 1231 0000 80B4     		push	{r7}
 1232              	.LCFI89:
 1233              		.cfi_def_cfa_offset 4
 1234              		.cfi_offset 7, -4
 1235 0002 85B0     		sub	sp, sp, #20
 1236              	.LCFI90:
 1237              		.cfi_def_cfa_offset 24
 1238 0004 00AF     		add	r7, sp, #0
 1239              	.LCFI91:
 1240              		.cfi_def_cfa_register 7
 1241 0006 7860     		str	r0, [r7, #4]
 1242 0008 3960     		str	r1, [r7]
 668:./Library/stm32f4xx_tim.c ****   uint16_t tmpccmrx = 0, tmpccer = 0, tmpcr2 = 0;
 1243              		.loc 1 668 12
 1244 000a 0023     		movs	r3, #0
 1245 000c 7B81     		strh	r3, [r7, #10]	@ movhi
 1246              		.loc 1 668 26
 1247 000e 0023     		movs	r3, #0
 1248 0010 FB81     		strh	r3, [r7, #14]	@ movhi
 1249              		.loc 1 668 39
 1250 0012 0023     		movs	r3, #0
 1251 0014 BB81     		strh	r3, [r7, #12]	@ movhi
 669:./Library/stm32f4xx_tim.c ****    
 670:./Library/stm32f4xx_tim.c ****   /* Check the parameters */
 671:./Library/stm32f4xx_tim.c ****   assert_param(IS_TIM_LIST1_PERIPH(TIMx)); 
 672:./Library/stm32f4xx_tim.c ****   assert_param(IS_TIM_OC_MODE(TIM_OCInitStruct->TIM_OCMode));
 673:./Library/stm32f4xx_tim.c ****   assert_param(IS_TIM_OUTPUT_STATE(TIM_OCInitStruct->TIM_OutputState));
 674:./Library/stm32f4xx_tim.c ****   assert_param(IS_TIM_OC_POLARITY(TIM_OCInitStruct->TIM_OCPolarity));   
 675:./Library/stm32f4xx_tim.c **** 
ARM GAS  /var/folders/yl/_q9l42k90g1g4mdhbs226msm0000gn/T//cclSErw0.s 			page 35


 676:./Library/stm32f4xx_tim.c ****   /* Disable the Channel 1: Reset the CC1E Bit */
 677:./Library/stm32f4xx_tim.c ****   TIMx->CCER &= (uint16_t)~TIM_CCER_CC1E;
 1252              		.loc 1 677 14
 1253 0016 7B68     		ldr	r3, [r7, #4]
 1254 0018 1B8C     		ldrh	r3, [r3, #32]	@ movhi
 1255 001a 9BB2     		uxth	r3, r3
 1256 001c 23F00103 		bic	r3, r3, #1
 1257 0020 9AB2     		uxth	r2, r3
 1258 0022 7B68     		ldr	r3, [r7, #4]
 1259 0024 1A84     		strh	r2, [r3, #32]	@ movhi
 678:./Library/stm32f4xx_tim.c ****   
 679:./Library/stm32f4xx_tim.c ****   /* Get the TIMx CCER register value */
 680:./Library/stm32f4xx_tim.c ****   tmpccer = TIMx->CCER;
 1260              		.loc 1 680 11
 1261 0026 7B68     		ldr	r3, [r7, #4]
 1262 0028 1B8C     		ldrh	r3, [r3, #32]	@ movhi
 1263 002a FB81     		strh	r3, [r7, #14]	@ movhi
 681:./Library/stm32f4xx_tim.c ****   /* Get the TIMx CR2 register value */
 682:./Library/stm32f4xx_tim.c ****   tmpcr2 =  TIMx->CR2;
 1264              		.loc 1 682 10
 1265 002c 7B68     		ldr	r3, [r7, #4]
 1266 002e 9B88     		ldrh	r3, [r3, #4]	@ movhi
 1267 0030 BB81     		strh	r3, [r7, #12]	@ movhi
 683:./Library/stm32f4xx_tim.c ****   
 684:./Library/stm32f4xx_tim.c ****   /* Get the TIMx CCMR1 register value */
 685:./Library/stm32f4xx_tim.c ****   tmpccmrx = TIMx->CCMR1;
 1268              		.loc 1 685 12
 1269 0032 7B68     		ldr	r3, [r7, #4]
 1270 0034 1B8B     		ldrh	r3, [r3, #24]	@ movhi
 1271 0036 7B81     		strh	r3, [r7, #10]	@ movhi
 686:./Library/stm32f4xx_tim.c ****     
 687:./Library/stm32f4xx_tim.c ****   /* Reset the Output Compare Mode Bits */
 688:./Library/stm32f4xx_tim.c ****   tmpccmrx &= (uint16_t)~TIM_CCMR1_OC1M;
 1272              		.loc 1 688 12
 1273 0038 7B89     		ldrh	r3, [r7, #10]	@ movhi
 1274 003a 23F07003 		bic	r3, r3, #112
 1275 003e 7B81     		strh	r3, [r7, #10]	@ movhi
 689:./Library/stm32f4xx_tim.c ****   tmpccmrx &= (uint16_t)~TIM_CCMR1_CC1S;
 1276              		.loc 1 689 12
 1277 0040 7B89     		ldrh	r3, [r7, #10]	@ movhi
 1278 0042 23F00303 		bic	r3, r3, #3
 1279 0046 7B81     		strh	r3, [r7, #10]	@ movhi
 690:./Library/stm32f4xx_tim.c ****   /* Select the Output Compare Mode */
 691:./Library/stm32f4xx_tim.c ****   tmpccmrx |= TIM_OCInitStruct->TIM_OCMode;
 1280              		.loc 1 691 31
 1281 0048 3B68     		ldr	r3, [r7]
 1282 004a 1A88     		ldrh	r2, [r3]
 1283              		.loc 1 691 12
 1284 004c 7B89     		ldrh	r3, [r7, #10]	@ movhi
 1285 004e 1343     		orrs	r3, r3, r2
 1286 0050 7B81     		strh	r3, [r7, #10]	@ movhi
 692:./Library/stm32f4xx_tim.c ****   
 693:./Library/stm32f4xx_tim.c ****   /* Reset the Output Polarity level */
 694:./Library/stm32f4xx_tim.c ****   tmpccer &= (uint16_t)~TIM_CCER_CC1P;
 1287              		.loc 1 694 11
 1288 0052 FB89     		ldrh	r3, [r7, #14]	@ movhi
 1289 0054 23F00203 		bic	r3, r3, #2
ARM GAS  /var/folders/yl/_q9l42k90g1g4mdhbs226msm0000gn/T//cclSErw0.s 			page 36


 1290 0058 FB81     		strh	r3, [r7, #14]	@ movhi
 695:./Library/stm32f4xx_tim.c ****   /* Set the Output Compare Polarity */
 696:./Library/stm32f4xx_tim.c ****   tmpccer |= TIM_OCInitStruct->TIM_OCPolarity;
 1291              		.loc 1 696 30
 1292 005a 3B68     		ldr	r3, [r7]
 1293 005c 9A89     		ldrh	r2, [r3, #12]
 1294              		.loc 1 696 11
 1295 005e FB89     		ldrh	r3, [r7, #14]	@ movhi
 1296 0060 1343     		orrs	r3, r3, r2
 1297 0062 FB81     		strh	r3, [r7, #14]	@ movhi
 697:./Library/stm32f4xx_tim.c ****   
 698:./Library/stm32f4xx_tim.c ****   /* Set the Output State */
 699:./Library/stm32f4xx_tim.c ****   tmpccer |= TIM_OCInitStruct->TIM_OutputState;
 1298              		.loc 1 699 30
 1299 0064 3B68     		ldr	r3, [r7]
 1300 0066 5A88     		ldrh	r2, [r3, #2]
 1301              		.loc 1 699 11
 1302 0068 FB89     		ldrh	r3, [r7, #14]	@ movhi
 1303 006a 1343     		orrs	r3, r3, r2
 1304 006c FB81     		strh	r3, [r7, #14]	@ movhi
 700:./Library/stm32f4xx_tim.c ****     
 701:./Library/stm32f4xx_tim.c ****   if((TIMx == TIM1) || (TIMx == TIM8))
 1305              		.loc 1 701 5
 1306 006e 7B68     		ldr	r3, [r7, #4]
 1307 0070 1E4A     		ldr	r2, .L57
 1308 0072 9342     		cmp	r3, r2
 1309 0074 03D0     		beq	.L55
 1310              		.loc 1 701 21 discriminator 1
 1311 0076 7B68     		ldr	r3, [r7, #4]
 1312 0078 1D4A     		ldr	r2, .L57+4
 1313 007a 9342     		cmp	r3, r2
 1314 007c 23D1     		bne	.L56
 1315              	.L55:
 702:./Library/stm32f4xx_tim.c ****   {
 703:./Library/stm32f4xx_tim.c ****     assert_param(IS_TIM_OUTPUTN_STATE(TIM_OCInitStruct->TIM_OutputNState));
 704:./Library/stm32f4xx_tim.c ****     assert_param(IS_TIM_OCN_POLARITY(TIM_OCInitStruct->TIM_OCNPolarity));
 705:./Library/stm32f4xx_tim.c ****     assert_param(IS_TIM_OCNIDLE_STATE(TIM_OCInitStruct->TIM_OCNIdleState));
 706:./Library/stm32f4xx_tim.c ****     assert_param(IS_TIM_OCIDLE_STATE(TIM_OCInitStruct->TIM_OCIdleState));
 707:./Library/stm32f4xx_tim.c ****     
 708:./Library/stm32f4xx_tim.c ****     /* Reset the Output N Polarity level */
 709:./Library/stm32f4xx_tim.c ****     tmpccer &= (uint16_t)~TIM_CCER_CC1NP;
 1316              		.loc 1 709 13
 1317 007e FB89     		ldrh	r3, [r7, #14]	@ movhi
 1318 0080 23F00803 		bic	r3, r3, #8
 1319 0084 FB81     		strh	r3, [r7, #14]	@ movhi
 710:./Library/stm32f4xx_tim.c ****     /* Set the Output N Polarity */
 711:./Library/stm32f4xx_tim.c ****     tmpccer |= TIM_OCInitStruct->TIM_OCNPolarity;
 1320              		.loc 1 711 32
 1321 0086 3B68     		ldr	r3, [r7]
 1322 0088 DA89     		ldrh	r2, [r3, #14]
 1323              		.loc 1 711 13
 1324 008a FB89     		ldrh	r3, [r7, #14]	@ movhi
 1325 008c 1343     		orrs	r3, r3, r2
 1326 008e FB81     		strh	r3, [r7, #14]	@ movhi
 712:./Library/stm32f4xx_tim.c ****     /* Reset the Output N State */
 713:./Library/stm32f4xx_tim.c ****     tmpccer &= (uint16_t)~TIM_CCER_CC1NE;
 1327              		.loc 1 713 13
ARM GAS  /var/folders/yl/_q9l42k90g1g4mdhbs226msm0000gn/T//cclSErw0.s 			page 37


 1328 0090 FB89     		ldrh	r3, [r7, #14]	@ movhi
 1329 0092 23F00403 		bic	r3, r3, #4
 1330 0096 FB81     		strh	r3, [r7, #14]	@ movhi
 714:./Library/stm32f4xx_tim.c ****     
 715:./Library/stm32f4xx_tim.c ****     /* Set the Output N State */
 716:./Library/stm32f4xx_tim.c ****     tmpccer |= TIM_OCInitStruct->TIM_OutputNState;
 1331              		.loc 1 716 32
 1332 0098 3B68     		ldr	r3, [r7]
 1333 009a 9A88     		ldrh	r2, [r3, #4]
 1334              		.loc 1 716 13
 1335 009c FB89     		ldrh	r3, [r7, #14]	@ movhi
 1336 009e 1343     		orrs	r3, r3, r2
 1337 00a0 FB81     		strh	r3, [r7, #14]	@ movhi
 717:./Library/stm32f4xx_tim.c ****     /* Reset the Output Compare and Output Compare N IDLE State */
 718:./Library/stm32f4xx_tim.c ****     tmpcr2 &= (uint16_t)~TIM_CR2_OIS1;
 1338              		.loc 1 718 12
 1339 00a2 BB89     		ldrh	r3, [r7, #12]	@ movhi
 1340 00a4 23F48073 		bic	r3, r3, #256
 1341 00a8 BB81     		strh	r3, [r7, #12]	@ movhi
 719:./Library/stm32f4xx_tim.c ****     tmpcr2 &= (uint16_t)~TIM_CR2_OIS1N;
 1342              		.loc 1 719 12
 1343 00aa BB89     		ldrh	r3, [r7, #12]	@ movhi
 1344 00ac 23F40073 		bic	r3, r3, #512
 1345 00b0 BB81     		strh	r3, [r7, #12]	@ movhi
 720:./Library/stm32f4xx_tim.c ****     /* Set the Output Idle state */
 721:./Library/stm32f4xx_tim.c ****     tmpcr2 |= TIM_OCInitStruct->TIM_OCIdleState;
 1346              		.loc 1 721 31
 1347 00b2 3B68     		ldr	r3, [r7]
 1348 00b4 1A8A     		ldrh	r2, [r3, #16]
 1349              		.loc 1 721 12
 1350 00b6 BB89     		ldrh	r3, [r7, #12]	@ movhi
 1351 00b8 1343     		orrs	r3, r3, r2
 1352 00ba BB81     		strh	r3, [r7, #12]	@ movhi
 722:./Library/stm32f4xx_tim.c ****     /* Set the Output N Idle state */
 723:./Library/stm32f4xx_tim.c ****     tmpcr2 |= TIM_OCInitStruct->TIM_OCNIdleState;
 1353              		.loc 1 723 31
 1354 00bc 3B68     		ldr	r3, [r7]
 1355 00be 5A8A     		ldrh	r2, [r3, #18]
 1356              		.loc 1 723 12
 1357 00c0 BB89     		ldrh	r3, [r7, #12]	@ movhi
 1358 00c2 1343     		orrs	r3, r3, r2
 1359 00c4 BB81     		strh	r3, [r7, #12]	@ movhi
 1360              	.L56:
 724:./Library/stm32f4xx_tim.c ****   }
 725:./Library/stm32f4xx_tim.c ****   /* Write to TIMx CR2 */
 726:./Library/stm32f4xx_tim.c ****   TIMx->CR2 = tmpcr2;
 1361              		.loc 1 726 13
 1362 00c6 7B68     		ldr	r3, [r7, #4]
 1363 00c8 BA89     		ldrh	r2, [r7, #12]	@ movhi
 1364 00ca 9A80     		strh	r2, [r3, #4]	@ movhi
 727:./Library/stm32f4xx_tim.c ****   
 728:./Library/stm32f4xx_tim.c ****   /* Write to TIMx CCMR1 */
 729:./Library/stm32f4xx_tim.c ****   TIMx->CCMR1 = tmpccmrx;
 1365              		.loc 1 729 15
 1366 00cc 7B68     		ldr	r3, [r7, #4]
 1367 00ce 7A89     		ldrh	r2, [r7, #10]	@ movhi
 1368 00d0 1A83     		strh	r2, [r3, #24]	@ movhi
ARM GAS  /var/folders/yl/_q9l42k90g1g4mdhbs226msm0000gn/T//cclSErw0.s 			page 38


 730:./Library/stm32f4xx_tim.c ****   
 731:./Library/stm32f4xx_tim.c ****   /* Set the Capture Compare Register value */
 732:./Library/stm32f4xx_tim.c ****   TIMx->CCR1 = TIM_OCInitStruct->TIM_Pulse;
 1369              		.loc 1 732 32
 1370 00d2 3B68     		ldr	r3, [r7]
 1371 00d4 9A68     		ldr	r2, [r3, #8]
 1372              		.loc 1 732 14
 1373 00d6 7B68     		ldr	r3, [r7, #4]
 1374 00d8 5A63     		str	r2, [r3, #52]
 733:./Library/stm32f4xx_tim.c ****   
 734:./Library/stm32f4xx_tim.c ****   /* Write to TIMx CCER */
 735:./Library/stm32f4xx_tim.c ****   TIMx->CCER = tmpccer;
 1375              		.loc 1 735 14
 1376 00da 7B68     		ldr	r3, [r7, #4]
 1377 00dc FA89     		ldrh	r2, [r7, #14]	@ movhi
 1378 00de 1A84     		strh	r2, [r3, #32]	@ movhi
 736:./Library/stm32f4xx_tim.c **** }
 1379              		.loc 1 736 1
 1380 00e0 00BF     		nop
 1381 00e2 1437     		adds	r7, r7, #20
 1382              	.LCFI92:
 1383              		.cfi_def_cfa_offset 4
 1384 00e4 BD46     		mov	sp, r7
 1385              	.LCFI93:
 1386              		.cfi_def_cfa_register 13
 1387              		@ sp needed
 1388 00e6 5DF8047B 		ldr	r7, [sp], #4
 1389              	.LCFI94:
 1390              		.cfi_restore 7
 1391              		.cfi_def_cfa_offset 0
 1392 00ea 7047     		bx	lr
 1393              	.L58:
 1394              		.align	2
 1395              	.L57:
 1396 00ec 00000140 		.word	1073807360
 1397 00f0 00040140 		.word	1073808384
 1398              		.cfi_endproc
 1399              	.LFE138:
 1401              		.section	.text.TIM_OC2Init,"ax",%progbits
 1402              		.align	1
 1403              		.global	TIM_OC2Init
 1404              		.syntax unified
 1405              		.thumb
 1406              		.thumb_func
 1408              	TIM_OC2Init:
 1409              	.LFB139:
 737:./Library/stm32f4xx_tim.c **** 
 738:./Library/stm32f4xx_tim.c **** /**
 739:./Library/stm32f4xx_tim.c ****   * @brief  Initializes the TIMx Channel2 according to the specified parameters 
 740:./Library/stm32f4xx_tim.c ****   *         in the TIM_OCInitStruct.
 741:./Library/stm32f4xx_tim.c ****   * @param  TIMx: where x can be 1, 2, 3, 4, 5, 8, 9 or 12 to select the TIM 
 742:./Library/stm32f4xx_tim.c ****   *         peripheral.
 743:./Library/stm32f4xx_tim.c ****   * @param  TIM_OCInitStruct: pointer to a TIM_OCInitTypeDef structure that contains
 744:./Library/stm32f4xx_tim.c ****   *         the configuration information for the specified TIM peripheral.
 745:./Library/stm32f4xx_tim.c ****   * @retval None
 746:./Library/stm32f4xx_tim.c ****   */
 747:./Library/stm32f4xx_tim.c **** void TIM_OC2Init(TIM_TypeDef* TIMx, TIM_OCInitTypeDef* TIM_OCInitStruct)
ARM GAS  /var/folders/yl/_q9l42k90g1g4mdhbs226msm0000gn/T//cclSErw0.s 			page 39


 748:./Library/stm32f4xx_tim.c **** {
 1410              		.loc 1 748 1
 1411              		.cfi_startproc
 1412              		@ args = 0, pretend = 0, frame = 16
 1413              		@ frame_needed = 1, uses_anonymous_args = 0
 1414              		@ link register save eliminated.
 1415 0000 80B4     		push	{r7}
 1416              	.LCFI95:
 1417              		.cfi_def_cfa_offset 4
 1418              		.cfi_offset 7, -4
 1419 0002 85B0     		sub	sp, sp, #20
 1420              	.LCFI96:
 1421              		.cfi_def_cfa_offset 24
 1422 0004 00AF     		add	r7, sp, #0
 1423              	.LCFI97:
 1424              		.cfi_def_cfa_register 7
 1425 0006 7860     		str	r0, [r7, #4]
 1426 0008 3960     		str	r1, [r7]
 749:./Library/stm32f4xx_tim.c ****   uint16_t tmpccmrx = 0, tmpccer = 0, tmpcr2 = 0;
 1427              		.loc 1 749 12
 1428 000a 0023     		movs	r3, #0
 1429 000c 7B81     		strh	r3, [r7, #10]	@ movhi
 1430              		.loc 1 749 26
 1431 000e 0023     		movs	r3, #0
 1432 0010 FB81     		strh	r3, [r7, #14]	@ movhi
 1433              		.loc 1 749 39
 1434 0012 0023     		movs	r3, #0
 1435 0014 BB81     		strh	r3, [r7, #12]	@ movhi
 750:./Library/stm32f4xx_tim.c ****    
 751:./Library/stm32f4xx_tim.c ****   /* Check the parameters */
 752:./Library/stm32f4xx_tim.c ****   assert_param(IS_TIM_LIST2_PERIPH(TIMx)); 
 753:./Library/stm32f4xx_tim.c ****   assert_param(IS_TIM_OC_MODE(TIM_OCInitStruct->TIM_OCMode));
 754:./Library/stm32f4xx_tim.c ****   assert_param(IS_TIM_OUTPUT_STATE(TIM_OCInitStruct->TIM_OutputState));
 755:./Library/stm32f4xx_tim.c ****   assert_param(IS_TIM_OC_POLARITY(TIM_OCInitStruct->TIM_OCPolarity));   
 756:./Library/stm32f4xx_tim.c **** 
 757:./Library/stm32f4xx_tim.c ****   /* Disable the Channel 2: Reset the CC2E Bit */
 758:./Library/stm32f4xx_tim.c ****   TIMx->CCER &= (uint16_t)~TIM_CCER_CC2E;
 1436              		.loc 1 758 14
 1437 0016 7B68     		ldr	r3, [r7, #4]
 1438 0018 1B8C     		ldrh	r3, [r3, #32]	@ movhi
 1439 001a 9BB2     		uxth	r3, r3
 1440 001c 23F01003 		bic	r3, r3, #16
 1441 0020 9AB2     		uxth	r2, r3
 1442 0022 7B68     		ldr	r3, [r7, #4]
 1443 0024 1A84     		strh	r2, [r3, #32]	@ movhi
 759:./Library/stm32f4xx_tim.c ****   
 760:./Library/stm32f4xx_tim.c ****   /* Get the TIMx CCER register value */  
 761:./Library/stm32f4xx_tim.c ****   tmpccer = TIMx->CCER;
 1444              		.loc 1 761 11
 1445 0026 7B68     		ldr	r3, [r7, #4]
 1446 0028 1B8C     		ldrh	r3, [r3, #32]	@ movhi
 1447 002a FB81     		strh	r3, [r7, #14]	@ movhi
 762:./Library/stm32f4xx_tim.c ****   /* Get the TIMx CR2 register value */
 763:./Library/stm32f4xx_tim.c ****   tmpcr2 =  TIMx->CR2;
 1448              		.loc 1 763 10
 1449 002c 7B68     		ldr	r3, [r7, #4]
 1450 002e 9B88     		ldrh	r3, [r3, #4]	@ movhi
ARM GAS  /var/folders/yl/_q9l42k90g1g4mdhbs226msm0000gn/T//cclSErw0.s 			page 40


 1451 0030 BB81     		strh	r3, [r7, #12]	@ movhi
 764:./Library/stm32f4xx_tim.c ****   
 765:./Library/stm32f4xx_tim.c ****   /* Get the TIMx CCMR1 register value */
 766:./Library/stm32f4xx_tim.c ****   tmpccmrx = TIMx->CCMR1;
 1452              		.loc 1 766 12
 1453 0032 7B68     		ldr	r3, [r7, #4]
 1454 0034 1B8B     		ldrh	r3, [r3, #24]	@ movhi
 1455 0036 7B81     		strh	r3, [r7, #10]	@ movhi
 767:./Library/stm32f4xx_tim.c ****     
 768:./Library/stm32f4xx_tim.c ****   /* Reset the Output Compare mode and Capture/Compare selection Bits */
 769:./Library/stm32f4xx_tim.c ****   tmpccmrx &= (uint16_t)~TIM_CCMR1_OC2M;
 1456              		.loc 1 769 12
 1457 0038 7B89     		ldrh	r3, [r7, #10]	@ movhi
 1458 003a 23F4E043 		bic	r3, r3, #28672
 1459 003e 7B81     		strh	r3, [r7, #10]	@ movhi
 770:./Library/stm32f4xx_tim.c ****   tmpccmrx &= (uint16_t)~TIM_CCMR1_CC2S;
 1460              		.loc 1 770 12
 1461 0040 7B89     		ldrh	r3, [r7, #10]	@ movhi
 1462 0042 23F44073 		bic	r3, r3, #768
 1463 0046 7B81     		strh	r3, [r7, #10]	@ movhi
 771:./Library/stm32f4xx_tim.c ****   
 772:./Library/stm32f4xx_tim.c ****   /* Select the Output Compare Mode */
 773:./Library/stm32f4xx_tim.c ****   tmpccmrx |= (uint16_t)(TIM_OCInitStruct->TIM_OCMode << 8);
 1464              		.loc 1 773 42
 1465 0048 3B68     		ldr	r3, [r7]
 1466 004a 1B88     		ldrh	r3, [r3]
 1467              		.loc 1 773 15
 1468 004c 1B02     		lsls	r3, r3, #8
 1469 004e 9AB2     		uxth	r2, r3
 1470              		.loc 1 773 12
 1471 0050 7B89     		ldrh	r3, [r7, #10]	@ movhi
 1472 0052 1343     		orrs	r3, r3, r2
 1473 0054 7B81     		strh	r3, [r7, #10]	@ movhi
 774:./Library/stm32f4xx_tim.c ****   
 775:./Library/stm32f4xx_tim.c ****   /* Reset the Output Polarity level */
 776:./Library/stm32f4xx_tim.c ****   tmpccer &= (uint16_t)~TIM_CCER_CC2P;
 1474              		.loc 1 776 11
 1475 0056 FB89     		ldrh	r3, [r7, #14]	@ movhi
 1476 0058 23F02003 		bic	r3, r3, #32
 1477 005c FB81     		strh	r3, [r7, #14]	@ movhi
 777:./Library/stm32f4xx_tim.c ****   /* Set the Output Compare Polarity */
 778:./Library/stm32f4xx_tim.c ****   tmpccer |= (uint16_t)(TIM_OCInitStruct->TIM_OCPolarity << 4);
 1478              		.loc 1 778 41
 1479 005e 3B68     		ldr	r3, [r7]
 1480 0060 9B89     		ldrh	r3, [r3, #12]
 1481              		.loc 1 778 14
 1482 0062 1B01     		lsls	r3, r3, #4
 1483 0064 9AB2     		uxth	r2, r3
 1484              		.loc 1 778 11
 1485 0066 FB89     		ldrh	r3, [r7, #14]	@ movhi
 1486 0068 1343     		orrs	r3, r3, r2
 1487 006a FB81     		strh	r3, [r7, #14]	@ movhi
 779:./Library/stm32f4xx_tim.c ****   
 780:./Library/stm32f4xx_tim.c ****   /* Set the Output State */
 781:./Library/stm32f4xx_tim.c ****   tmpccer |= (uint16_t)(TIM_OCInitStruct->TIM_OutputState << 4);
 1488              		.loc 1 781 41
 1489 006c 3B68     		ldr	r3, [r7]
ARM GAS  /var/folders/yl/_q9l42k90g1g4mdhbs226msm0000gn/T//cclSErw0.s 			page 41


 1490 006e 5B88     		ldrh	r3, [r3, #2]
 1491              		.loc 1 781 14
 1492 0070 1B01     		lsls	r3, r3, #4
 1493 0072 9AB2     		uxth	r2, r3
 1494              		.loc 1 781 11
 1495 0074 FB89     		ldrh	r3, [r7, #14]	@ movhi
 1496 0076 1343     		orrs	r3, r3, r2
 1497 0078 FB81     		strh	r3, [r7, #14]	@ movhi
 782:./Library/stm32f4xx_tim.c ****     
 783:./Library/stm32f4xx_tim.c ****   if((TIMx == TIM1) || (TIMx == TIM8))
 1498              		.loc 1 783 5
 1499 007a 7B68     		ldr	r3, [r7, #4]
 1500 007c 224A     		ldr	r2, .L62
 1501 007e 9342     		cmp	r3, r2
 1502 0080 03D0     		beq	.L60
 1503              		.loc 1 783 21 discriminator 1
 1504 0082 7B68     		ldr	r3, [r7, #4]
 1505 0084 214A     		ldr	r2, .L62+4
 1506 0086 9342     		cmp	r3, r2
 1507 0088 2BD1     		bne	.L61
 1508              	.L60:
 784:./Library/stm32f4xx_tim.c ****   {
 785:./Library/stm32f4xx_tim.c ****     assert_param(IS_TIM_OUTPUTN_STATE(TIM_OCInitStruct->TIM_OutputNState));
 786:./Library/stm32f4xx_tim.c ****     assert_param(IS_TIM_OCN_POLARITY(TIM_OCInitStruct->TIM_OCNPolarity));
 787:./Library/stm32f4xx_tim.c ****     assert_param(IS_TIM_OCNIDLE_STATE(TIM_OCInitStruct->TIM_OCNIdleState));
 788:./Library/stm32f4xx_tim.c ****     assert_param(IS_TIM_OCIDLE_STATE(TIM_OCInitStruct->TIM_OCIdleState));
 789:./Library/stm32f4xx_tim.c ****     
 790:./Library/stm32f4xx_tim.c ****     /* Reset the Output N Polarity level */
 791:./Library/stm32f4xx_tim.c ****     tmpccer &= (uint16_t)~TIM_CCER_CC2NP;
 1509              		.loc 1 791 13
 1510 008a FB89     		ldrh	r3, [r7, #14]	@ movhi
 1511 008c 23F08003 		bic	r3, r3, #128
 1512 0090 FB81     		strh	r3, [r7, #14]	@ movhi
 792:./Library/stm32f4xx_tim.c ****     /* Set the Output N Polarity */
 793:./Library/stm32f4xx_tim.c ****     tmpccer |= (uint16_t)(TIM_OCInitStruct->TIM_OCNPolarity << 4);
 1513              		.loc 1 793 43
 1514 0092 3B68     		ldr	r3, [r7]
 1515 0094 DB89     		ldrh	r3, [r3, #14]
 1516              		.loc 1 793 16
 1517 0096 1B01     		lsls	r3, r3, #4
 1518 0098 9AB2     		uxth	r2, r3
 1519              		.loc 1 793 13
 1520 009a FB89     		ldrh	r3, [r7, #14]	@ movhi
 1521 009c 1343     		orrs	r3, r3, r2
 1522 009e FB81     		strh	r3, [r7, #14]	@ movhi
 794:./Library/stm32f4xx_tim.c ****     /* Reset the Output N State */
 795:./Library/stm32f4xx_tim.c ****     tmpccer &= (uint16_t)~TIM_CCER_CC2NE;
 1523              		.loc 1 795 13
 1524 00a0 FB89     		ldrh	r3, [r7, #14]	@ movhi
 1525 00a2 23F04003 		bic	r3, r3, #64
 1526 00a6 FB81     		strh	r3, [r7, #14]	@ movhi
 796:./Library/stm32f4xx_tim.c ****     
 797:./Library/stm32f4xx_tim.c ****     /* Set the Output N State */
 798:./Library/stm32f4xx_tim.c ****     tmpccer |= (uint16_t)(TIM_OCInitStruct->TIM_OutputNState << 4);
 1527              		.loc 1 798 43
 1528 00a8 3B68     		ldr	r3, [r7]
 1529 00aa 9B88     		ldrh	r3, [r3, #4]
ARM GAS  /var/folders/yl/_q9l42k90g1g4mdhbs226msm0000gn/T//cclSErw0.s 			page 42


 1530              		.loc 1 798 16
 1531 00ac 1B01     		lsls	r3, r3, #4
 1532 00ae 9AB2     		uxth	r2, r3
 1533              		.loc 1 798 13
 1534 00b0 FB89     		ldrh	r3, [r7, #14]	@ movhi
 1535 00b2 1343     		orrs	r3, r3, r2
 1536 00b4 FB81     		strh	r3, [r7, #14]	@ movhi
 799:./Library/stm32f4xx_tim.c ****     /* Reset the Output Compare and Output Compare N IDLE State */
 800:./Library/stm32f4xx_tim.c ****     tmpcr2 &= (uint16_t)~TIM_CR2_OIS2;
 1537              		.loc 1 800 12
 1538 00b6 BB89     		ldrh	r3, [r7, #12]	@ movhi
 1539 00b8 23F48063 		bic	r3, r3, #1024
 1540 00bc BB81     		strh	r3, [r7, #12]	@ movhi
 801:./Library/stm32f4xx_tim.c ****     tmpcr2 &= (uint16_t)~TIM_CR2_OIS2N;
 1541              		.loc 1 801 12
 1542 00be BB89     		ldrh	r3, [r7, #12]	@ movhi
 1543 00c0 23F40063 		bic	r3, r3, #2048
 1544 00c4 BB81     		strh	r3, [r7, #12]	@ movhi
 802:./Library/stm32f4xx_tim.c ****     /* Set the Output Idle state */
 803:./Library/stm32f4xx_tim.c ****     tmpcr2 |= (uint16_t)(TIM_OCInitStruct->TIM_OCIdleState << 2);
 1545              		.loc 1 803 42
 1546 00c6 3B68     		ldr	r3, [r7]
 1547 00c8 1B8A     		ldrh	r3, [r3, #16]
 1548              		.loc 1 803 15
 1549 00ca 9B00     		lsls	r3, r3, #2
 1550 00cc 9AB2     		uxth	r2, r3
 1551              		.loc 1 803 12
 1552 00ce BB89     		ldrh	r3, [r7, #12]	@ movhi
 1553 00d0 1343     		orrs	r3, r3, r2
 1554 00d2 BB81     		strh	r3, [r7, #12]	@ movhi
 804:./Library/stm32f4xx_tim.c ****     /* Set the Output N Idle state */
 805:./Library/stm32f4xx_tim.c ****     tmpcr2 |= (uint16_t)(TIM_OCInitStruct->TIM_OCNIdleState << 2);
 1555              		.loc 1 805 42
 1556 00d4 3B68     		ldr	r3, [r7]
 1557 00d6 5B8A     		ldrh	r3, [r3, #18]
 1558              		.loc 1 805 15
 1559 00d8 9B00     		lsls	r3, r3, #2
 1560 00da 9AB2     		uxth	r2, r3
 1561              		.loc 1 805 12
 1562 00dc BB89     		ldrh	r3, [r7, #12]	@ movhi
 1563 00de 1343     		orrs	r3, r3, r2
 1564 00e0 BB81     		strh	r3, [r7, #12]	@ movhi
 1565              	.L61:
 806:./Library/stm32f4xx_tim.c ****   }
 807:./Library/stm32f4xx_tim.c ****   /* Write to TIMx CR2 */
 808:./Library/stm32f4xx_tim.c ****   TIMx->CR2 = tmpcr2;
 1566              		.loc 1 808 13
 1567 00e2 7B68     		ldr	r3, [r7, #4]
 1568 00e4 BA89     		ldrh	r2, [r7, #12]	@ movhi
 1569 00e6 9A80     		strh	r2, [r3, #4]	@ movhi
 809:./Library/stm32f4xx_tim.c ****   
 810:./Library/stm32f4xx_tim.c ****   /* Write to TIMx CCMR1 */
 811:./Library/stm32f4xx_tim.c ****   TIMx->CCMR1 = tmpccmrx;
 1570              		.loc 1 811 15
 1571 00e8 7B68     		ldr	r3, [r7, #4]
 1572 00ea 7A89     		ldrh	r2, [r7, #10]	@ movhi
 1573 00ec 1A83     		strh	r2, [r3, #24]	@ movhi
ARM GAS  /var/folders/yl/_q9l42k90g1g4mdhbs226msm0000gn/T//cclSErw0.s 			page 43


 812:./Library/stm32f4xx_tim.c ****   
 813:./Library/stm32f4xx_tim.c ****   /* Set the Capture Compare Register value */
 814:./Library/stm32f4xx_tim.c ****   TIMx->CCR2 = TIM_OCInitStruct->TIM_Pulse;
 1574              		.loc 1 814 32
 1575 00ee 3B68     		ldr	r3, [r7]
 1576 00f0 9A68     		ldr	r2, [r3, #8]
 1577              		.loc 1 814 14
 1578 00f2 7B68     		ldr	r3, [r7, #4]
 1579 00f4 9A63     		str	r2, [r3, #56]
 815:./Library/stm32f4xx_tim.c ****   
 816:./Library/stm32f4xx_tim.c ****   /* Write to TIMx CCER */
 817:./Library/stm32f4xx_tim.c ****   TIMx->CCER = tmpccer;
 1580              		.loc 1 817 14
 1581 00f6 7B68     		ldr	r3, [r7, #4]
 1582 00f8 FA89     		ldrh	r2, [r7, #14]	@ movhi
 1583 00fa 1A84     		strh	r2, [r3, #32]	@ movhi
 818:./Library/stm32f4xx_tim.c **** }
 1584              		.loc 1 818 1
 1585 00fc 00BF     		nop
 1586 00fe 1437     		adds	r7, r7, #20
 1587              	.LCFI98:
 1588              		.cfi_def_cfa_offset 4
 1589 0100 BD46     		mov	sp, r7
 1590              	.LCFI99:
 1591              		.cfi_def_cfa_register 13
 1592              		@ sp needed
 1593 0102 5DF8047B 		ldr	r7, [sp], #4
 1594              	.LCFI100:
 1595              		.cfi_restore 7
 1596              		.cfi_def_cfa_offset 0
 1597 0106 7047     		bx	lr
 1598              	.L63:
 1599              		.align	2
 1600              	.L62:
 1601 0108 00000140 		.word	1073807360
 1602 010c 00040140 		.word	1073808384
 1603              		.cfi_endproc
 1604              	.LFE139:
 1606              		.section	.text.TIM_OC3Init,"ax",%progbits
 1607              		.align	1
 1608              		.global	TIM_OC3Init
 1609              		.syntax unified
 1610              		.thumb
 1611              		.thumb_func
 1613              	TIM_OC3Init:
 1614              	.LFB140:
 819:./Library/stm32f4xx_tim.c **** 
 820:./Library/stm32f4xx_tim.c **** /**
 821:./Library/stm32f4xx_tim.c ****   * @brief  Initializes the TIMx Channel3 according to the specified parameters
 822:./Library/stm32f4xx_tim.c ****   *         in the TIM_OCInitStruct.
 823:./Library/stm32f4xx_tim.c ****   * @param  TIMx: where x can be 1, 2, 3, 4, 5 or 8 to select the TIM peripheral.
 824:./Library/stm32f4xx_tim.c ****   * @param  TIM_OCInitStruct: pointer to a TIM_OCInitTypeDef structure that contains
 825:./Library/stm32f4xx_tim.c ****   *         the configuration information for the specified TIM peripheral.
 826:./Library/stm32f4xx_tim.c ****   * @retval None
 827:./Library/stm32f4xx_tim.c ****   */
 828:./Library/stm32f4xx_tim.c **** void TIM_OC3Init(TIM_TypeDef* TIMx, TIM_OCInitTypeDef* TIM_OCInitStruct)
 829:./Library/stm32f4xx_tim.c **** {
ARM GAS  /var/folders/yl/_q9l42k90g1g4mdhbs226msm0000gn/T//cclSErw0.s 			page 44


 1615              		.loc 1 829 1
 1616              		.cfi_startproc
 1617              		@ args = 0, pretend = 0, frame = 16
 1618              		@ frame_needed = 1, uses_anonymous_args = 0
 1619              		@ link register save eliminated.
 1620 0000 80B4     		push	{r7}
 1621              	.LCFI101:
 1622              		.cfi_def_cfa_offset 4
 1623              		.cfi_offset 7, -4
 1624 0002 85B0     		sub	sp, sp, #20
 1625              	.LCFI102:
 1626              		.cfi_def_cfa_offset 24
 1627 0004 00AF     		add	r7, sp, #0
 1628              	.LCFI103:
 1629              		.cfi_def_cfa_register 7
 1630 0006 7860     		str	r0, [r7, #4]
 1631 0008 3960     		str	r1, [r7]
 830:./Library/stm32f4xx_tim.c ****   uint16_t tmpccmrx = 0, tmpccer = 0, tmpcr2 = 0;
 1632              		.loc 1 830 12
 1633 000a 0023     		movs	r3, #0
 1634 000c 7B81     		strh	r3, [r7, #10]	@ movhi
 1635              		.loc 1 830 26
 1636 000e 0023     		movs	r3, #0
 1637 0010 FB81     		strh	r3, [r7, #14]	@ movhi
 1638              		.loc 1 830 39
 1639 0012 0023     		movs	r3, #0
 1640 0014 BB81     		strh	r3, [r7, #12]	@ movhi
 831:./Library/stm32f4xx_tim.c ****    
 832:./Library/stm32f4xx_tim.c ****   /* Check the parameters */
 833:./Library/stm32f4xx_tim.c ****   assert_param(IS_TIM_LIST3_PERIPH(TIMx)); 
 834:./Library/stm32f4xx_tim.c ****   assert_param(IS_TIM_OC_MODE(TIM_OCInitStruct->TIM_OCMode));
 835:./Library/stm32f4xx_tim.c ****   assert_param(IS_TIM_OUTPUT_STATE(TIM_OCInitStruct->TIM_OutputState));
 836:./Library/stm32f4xx_tim.c ****   assert_param(IS_TIM_OC_POLARITY(TIM_OCInitStruct->TIM_OCPolarity));   
 837:./Library/stm32f4xx_tim.c **** 
 838:./Library/stm32f4xx_tim.c ****   /* Disable the Channel 3: Reset the CC2E Bit */
 839:./Library/stm32f4xx_tim.c ****   TIMx->CCER &= (uint16_t)~TIM_CCER_CC3E;
 1641              		.loc 1 839 14
 1642 0016 7B68     		ldr	r3, [r7, #4]
 1643 0018 1B8C     		ldrh	r3, [r3, #32]	@ movhi
 1644 001a 9BB2     		uxth	r3, r3
 1645 001c 23F48073 		bic	r3, r3, #256
 1646 0020 9AB2     		uxth	r2, r3
 1647 0022 7B68     		ldr	r3, [r7, #4]
 1648 0024 1A84     		strh	r2, [r3, #32]	@ movhi
 840:./Library/stm32f4xx_tim.c ****   
 841:./Library/stm32f4xx_tim.c ****   /* Get the TIMx CCER register value */
 842:./Library/stm32f4xx_tim.c ****   tmpccer = TIMx->CCER;
 1649              		.loc 1 842 11
 1650 0026 7B68     		ldr	r3, [r7, #4]
 1651 0028 1B8C     		ldrh	r3, [r3, #32]	@ movhi
 1652 002a FB81     		strh	r3, [r7, #14]	@ movhi
 843:./Library/stm32f4xx_tim.c ****   /* Get the TIMx CR2 register value */
 844:./Library/stm32f4xx_tim.c ****   tmpcr2 =  TIMx->CR2;
 1653              		.loc 1 844 10
 1654 002c 7B68     		ldr	r3, [r7, #4]
 1655 002e 9B88     		ldrh	r3, [r3, #4]	@ movhi
 1656 0030 BB81     		strh	r3, [r7, #12]	@ movhi
ARM GAS  /var/folders/yl/_q9l42k90g1g4mdhbs226msm0000gn/T//cclSErw0.s 			page 45


 845:./Library/stm32f4xx_tim.c ****   
 846:./Library/stm32f4xx_tim.c ****   /* Get the TIMx CCMR2 register value */
 847:./Library/stm32f4xx_tim.c ****   tmpccmrx = TIMx->CCMR2;
 1657              		.loc 1 847 12
 1658 0032 7B68     		ldr	r3, [r7, #4]
 1659 0034 9B8B     		ldrh	r3, [r3, #28]	@ movhi
 1660 0036 7B81     		strh	r3, [r7, #10]	@ movhi
 848:./Library/stm32f4xx_tim.c ****     
 849:./Library/stm32f4xx_tim.c ****   /* Reset the Output Compare mode and Capture/Compare selection Bits */
 850:./Library/stm32f4xx_tim.c ****   tmpccmrx &= (uint16_t)~TIM_CCMR2_OC3M;
 1661              		.loc 1 850 12
 1662 0038 7B89     		ldrh	r3, [r7, #10]	@ movhi
 1663 003a 23F07003 		bic	r3, r3, #112
 1664 003e 7B81     		strh	r3, [r7, #10]	@ movhi
 851:./Library/stm32f4xx_tim.c ****   tmpccmrx &= (uint16_t)~TIM_CCMR2_CC3S;  
 1665              		.loc 1 851 12
 1666 0040 7B89     		ldrh	r3, [r7, #10]	@ movhi
 1667 0042 23F00303 		bic	r3, r3, #3
 1668 0046 7B81     		strh	r3, [r7, #10]	@ movhi
 852:./Library/stm32f4xx_tim.c ****   /* Select the Output Compare Mode */
 853:./Library/stm32f4xx_tim.c ****   tmpccmrx |= TIM_OCInitStruct->TIM_OCMode;
 1669              		.loc 1 853 31
 1670 0048 3B68     		ldr	r3, [r7]
 1671 004a 1A88     		ldrh	r2, [r3]
 1672              		.loc 1 853 12
 1673 004c 7B89     		ldrh	r3, [r7, #10]	@ movhi
 1674 004e 1343     		orrs	r3, r3, r2
 1675 0050 7B81     		strh	r3, [r7, #10]	@ movhi
 854:./Library/stm32f4xx_tim.c ****   
 855:./Library/stm32f4xx_tim.c ****   /* Reset the Output Polarity level */
 856:./Library/stm32f4xx_tim.c ****   tmpccer &= (uint16_t)~TIM_CCER_CC3P;
 1676              		.loc 1 856 11
 1677 0052 FB89     		ldrh	r3, [r7, #14]	@ movhi
 1678 0054 23F40073 		bic	r3, r3, #512
 1679 0058 FB81     		strh	r3, [r7, #14]	@ movhi
 857:./Library/stm32f4xx_tim.c ****   /* Set the Output Compare Polarity */
 858:./Library/stm32f4xx_tim.c ****   tmpccer |= (uint16_t)(TIM_OCInitStruct->TIM_OCPolarity << 8);
 1680              		.loc 1 858 41
 1681 005a 3B68     		ldr	r3, [r7]
 1682 005c 9B89     		ldrh	r3, [r3, #12]
 1683              		.loc 1 858 14
 1684 005e 1B02     		lsls	r3, r3, #8
 1685 0060 9AB2     		uxth	r2, r3
 1686              		.loc 1 858 11
 1687 0062 FB89     		ldrh	r3, [r7, #14]	@ movhi
 1688 0064 1343     		orrs	r3, r3, r2
 1689 0066 FB81     		strh	r3, [r7, #14]	@ movhi
 859:./Library/stm32f4xx_tim.c ****   
 860:./Library/stm32f4xx_tim.c ****   /* Set the Output State */
 861:./Library/stm32f4xx_tim.c ****   tmpccer |= (uint16_t)(TIM_OCInitStruct->TIM_OutputState << 8);
 1690              		.loc 1 861 41
 1691 0068 3B68     		ldr	r3, [r7]
 1692 006a 5B88     		ldrh	r3, [r3, #2]
 1693              		.loc 1 861 14
 1694 006c 1B02     		lsls	r3, r3, #8
 1695 006e 9AB2     		uxth	r2, r3
 1696              		.loc 1 861 11
ARM GAS  /var/folders/yl/_q9l42k90g1g4mdhbs226msm0000gn/T//cclSErw0.s 			page 46


 1697 0070 FB89     		ldrh	r3, [r7, #14]	@ movhi
 1698 0072 1343     		orrs	r3, r3, r2
 1699 0074 FB81     		strh	r3, [r7, #14]	@ movhi
 862:./Library/stm32f4xx_tim.c ****     
 863:./Library/stm32f4xx_tim.c ****   if((TIMx == TIM1) || (TIMx == TIM8))
 1700              		.loc 1 863 5
 1701 0076 7B68     		ldr	r3, [r7, #4]
 1702 0078 224A     		ldr	r2, .L67
 1703 007a 9342     		cmp	r3, r2
 1704 007c 03D0     		beq	.L65
 1705              		.loc 1 863 21 discriminator 1
 1706 007e 7B68     		ldr	r3, [r7, #4]
 1707 0080 214A     		ldr	r2, .L67+4
 1708 0082 9342     		cmp	r3, r2
 1709 0084 2BD1     		bne	.L66
 1710              	.L65:
 864:./Library/stm32f4xx_tim.c ****   {
 865:./Library/stm32f4xx_tim.c ****     assert_param(IS_TIM_OUTPUTN_STATE(TIM_OCInitStruct->TIM_OutputNState));
 866:./Library/stm32f4xx_tim.c ****     assert_param(IS_TIM_OCN_POLARITY(TIM_OCInitStruct->TIM_OCNPolarity));
 867:./Library/stm32f4xx_tim.c ****     assert_param(IS_TIM_OCNIDLE_STATE(TIM_OCInitStruct->TIM_OCNIdleState));
 868:./Library/stm32f4xx_tim.c ****     assert_param(IS_TIM_OCIDLE_STATE(TIM_OCInitStruct->TIM_OCIdleState));
 869:./Library/stm32f4xx_tim.c ****     
 870:./Library/stm32f4xx_tim.c ****     /* Reset the Output N Polarity level */
 871:./Library/stm32f4xx_tim.c ****     tmpccer &= (uint16_t)~TIM_CCER_CC3NP;
 1711              		.loc 1 871 13
 1712 0086 FB89     		ldrh	r3, [r7, #14]	@ movhi
 1713 0088 23F40063 		bic	r3, r3, #2048
 1714 008c FB81     		strh	r3, [r7, #14]	@ movhi
 872:./Library/stm32f4xx_tim.c ****     /* Set the Output N Polarity */
 873:./Library/stm32f4xx_tim.c ****     tmpccer |= (uint16_t)(TIM_OCInitStruct->TIM_OCNPolarity << 8);
 1715              		.loc 1 873 43
 1716 008e 3B68     		ldr	r3, [r7]
 1717 0090 DB89     		ldrh	r3, [r3, #14]
 1718              		.loc 1 873 16
 1719 0092 1B02     		lsls	r3, r3, #8
 1720 0094 9AB2     		uxth	r2, r3
 1721              		.loc 1 873 13
 1722 0096 FB89     		ldrh	r3, [r7, #14]	@ movhi
 1723 0098 1343     		orrs	r3, r3, r2
 1724 009a FB81     		strh	r3, [r7, #14]	@ movhi
 874:./Library/stm32f4xx_tim.c ****     /* Reset the Output N State */
 875:./Library/stm32f4xx_tim.c ****     tmpccer &= (uint16_t)~TIM_CCER_CC3NE;
 1725              		.loc 1 875 13
 1726 009c FB89     		ldrh	r3, [r7, #14]	@ movhi
 1727 009e 23F48063 		bic	r3, r3, #1024
 1728 00a2 FB81     		strh	r3, [r7, #14]	@ movhi
 876:./Library/stm32f4xx_tim.c ****     
 877:./Library/stm32f4xx_tim.c ****     /* Set the Output N State */
 878:./Library/stm32f4xx_tim.c ****     tmpccer |= (uint16_t)(TIM_OCInitStruct->TIM_OutputNState << 8);
 1729              		.loc 1 878 43
 1730 00a4 3B68     		ldr	r3, [r7]
 1731 00a6 9B88     		ldrh	r3, [r3, #4]
 1732              		.loc 1 878 16
 1733 00a8 1B02     		lsls	r3, r3, #8
 1734 00aa 9AB2     		uxth	r2, r3
 1735              		.loc 1 878 13
 1736 00ac FB89     		ldrh	r3, [r7, #14]	@ movhi
ARM GAS  /var/folders/yl/_q9l42k90g1g4mdhbs226msm0000gn/T//cclSErw0.s 			page 47


 1737 00ae 1343     		orrs	r3, r3, r2
 1738 00b0 FB81     		strh	r3, [r7, #14]	@ movhi
 879:./Library/stm32f4xx_tim.c ****     /* Reset the Output Compare and Output Compare N IDLE State */
 880:./Library/stm32f4xx_tim.c ****     tmpcr2 &= (uint16_t)~TIM_CR2_OIS3;
 1739              		.loc 1 880 12
 1740 00b2 BB89     		ldrh	r3, [r7, #12]	@ movhi
 1741 00b4 23F48053 		bic	r3, r3, #4096
 1742 00b8 BB81     		strh	r3, [r7, #12]	@ movhi
 881:./Library/stm32f4xx_tim.c ****     tmpcr2 &= (uint16_t)~TIM_CR2_OIS3N;
 1743              		.loc 1 881 12
 1744 00ba BB89     		ldrh	r3, [r7, #12]	@ movhi
 1745 00bc 23F40053 		bic	r3, r3, #8192
 1746 00c0 BB81     		strh	r3, [r7, #12]	@ movhi
 882:./Library/stm32f4xx_tim.c ****     /* Set the Output Idle state */
 883:./Library/stm32f4xx_tim.c ****     tmpcr2 |= (uint16_t)(TIM_OCInitStruct->TIM_OCIdleState << 4);
 1747              		.loc 1 883 42
 1748 00c2 3B68     		ldr	r3, [r7]
 1749 00c4 1B8A     		ldrh	r3, [r3, #16]
 1750              		.loc 1 883 15
 1751 00c6 1B01     		lsls	r3, r3, #4
 1752 00c8 9AB2     		uxth	r2, r3
 1753              		.loc 1 883 12
 1754 00ca BB89     		ldrh	r3, [r7, #12]	@ movhi
 1755 00cc 1343     		orrs	r3, r3, r2
 1756 00ce BB81     		strh	r3, [r7, #12]	@ movhi
 884:./Library/stm32f4xx_tim.c ****     /* Set the Output N Idle state */
 885:./Library/stm32f4xx_tim.c ****     tmpcr2 |= (uint16_t)(TIM_OCInitStruct->TIM_OCNIdleState << 4);
 1757              		.loc 1 885 42
 1758 00d0 3B68     		ldr	r3, [r7]
 1759 00d2 5B8A     		ldrh	r3, [r3, #18]
 1760              		.loc 1 885 15
 1761 00d4 1B01     		lsls	r3, r3, #4
 1762 00d6 9AB2     		uxth	r2, r3
 1763              		.loc 1 885 12
 1764 00d8 BB89     		ldrh	r3, [r7, #12]	@ movhi
 1765 00da 1343     		orrs	r3, r3, r2
 1766 00dc BB81     		strh	r3, [r7, #12]	@ movhi
 1767              	.L66:
 886:./Library/stm32f4xx_tim.c ****   }
 887:./Library/stm32f4xx_tim.c ****   /* Write to TIMx CR2 */
 888:./Library/stm32f4xx_tim.c ****   TIMx->CR2 = tmpcr2;
 1768              		.loc 1 888 13
 1769 00de 7B68     		ldr	r3, [r7, #4]
 1770 00e0 BA89     		ldrh	r2, [r7, #12]	@ movhi
 1771 00e2 9A80     		strh	r2, [r3, #4]	@ movhi
 889:./Library/stm32f4xx_tim.c ****   
 890:./Library/stm32f4xx_tim.c ****   /* Write to TIMx CCMR2 */
 891:./Library/stm32f4xx_tim.c ****   TIMx->CCMR2 = tmpccmrx;
 1772              		.loc 1 891 15
 1773 00e4 7B68     		ldr	r3, [r7, #4]
 1774 00e6 7A89     		ldrh	r2, [r7, #10]	@ movhi
 1775 00e8 9A83     		strh	r2, [r3, #28]	@ movhi
 892:./Library/stm32f4xx_tim.c ****   
 893:./Library/stm32f4xx_tim.c ****   /* Set the Capture Compare Register value */
 894:./Library/stm32f4xx_tim.c ****   TIMx->CCR3 = TIM_OCInitStruct->TIM_Pulse;
 1776              		.loc 1 894 32
 1777 00ea 3B68     		ldr	r3, [r7]
ARM GAS  /var/folders/yl/_q9l42k90g1g4mdhbs226msm0000gn/T//cclSErw0.s 			page 48


 1778 00ec 9A68     		ldr	r2, [r3, #8]
 1779              		.loc 1 894 14
 1780 00ee 7B68     		ldr	r3, [r7, #4]
 1781 00f0 DA63     		str	r2, [r3, #60]
 895:./Library/stm32f4xx_tim.c ****   
 896:./Library/stm32f4xx_tim.c ****   /* Write to TIMx CCER */
 897:./Library/stm32f4xx_tim.c ****   TIMx->CCER = tmpccer;
 1782              		.loc 1 897 14
 1783 00f2 7B68     		ldr	r3, [r7, #4]
 1784 00f4 FA89     		ldrh	r2, [r7, #14]	@ movhi
 1785 00f6 1A84     		strh	r2, [r3, #32]	@ movhi
 898:./Library/stm32f4xx_tim.c **** }
 1786              		.loc 1 898 1
 1787 00f8 00BF     		nop
 1788 00fa 1437     		adds	r7, r7, #20
 1789              	.LCFI104:
 1790              		.cfi_def_cfa_offset 4
 1791 00fc BD46     		mov	sp, r7
 1792              	.LCFI105:
 1793              		.cfi_def_cfa_register 13
 1794              		@ sp needed
 1795 00fe 5DF8047B 		ldr	r7, [sp], #4
 1796              	.LCFI106:
 1797              		.cfi_restore 7
 1798              		.cfi_def_cfa_offset 0
 1799 0102 7047     		bx	lr
 1800              	.L68:
 1801              		.align	2
 1802              	.L67:
 1803 0104 00000140 		.word	1073807360
 1804 0108 00040140 		.word	1073808384
 1805              		.cfi_endproc
 1806              	.LFE140:
 1808              		.section	.text.TIM_OC4Init,"ax",%progbits
 1809              		.align	1
 1810              		.global	TIM_OC4Init
 1811              		.syntax unified
 1812              		.thumb
 1813              		.thumb_func
 1815              	TIM_OC4Init:
 1816              	.LFB141:
 899:./Library/stm32f4xx_tim.c **** 
 900:./Library/stm32f4xx_tim.c **** /**
 901:./Library/stm32f4xx_tim.c ****   * @brief  Initializes the TIMx Channel4 according to the specified parameters
 902:./Library/stm32f4xx_tim.c ****   *         in the TIM_OCInitStruct.
 903:./Library/stm32f4xx_tim.c ****   * @param  TIMx: where x can be 1, 2, 3, 4, 5 or 8 to select the TIM peripheral.
 904:./Library/stm32f4xx_tim.c ****   * @param  TIM_OCInitStruct: pointer to a TIM_OCInitTypeDef structure that contains
 905:./Library/stm32f4xx_tim.c ****   *         the configuration information for the specified TIM peripheral.
 906:./Library/stm32f4xx_tim.c ****   * @retval None
 907:./Library/stm32f4xx_tim.c ****   */
 908:./Library/stm32f4xx_tim.c **** void TIM_OC4Init(TIM_TypeDef* TIMx, TIM_OCInitTypeDef* TIM_OCInitStruct)
 909:./Library/stm32f4xx_tim.c **** {
 1817              		.loc 1 909 1
 1818              		.cfi_startproc
 1819              		@ args = 0, pretend = 0, frame = 16
 1820              		@ frame_needed = 1, uses_anonymous_args = 0
 1821              		@ link register save eliminated.
ARM GAS  /var/folders/yl/_q9l42k90g1g4mdhbs226msm0000gn/T//cclSErw0.s 			page 49


 1822 0000 80B4     		push	{r7}
 1823              	.LCFI107:
 1824              		.cfi_def_cfa_offset 4
 1825              		.cfi_offset 7, -4
 1826 0002 85B0     		sub	sp, sp, #20
 1827              	.LCFI108:
 1828              		.cfi_def_cfa_offset 24
 1829 0004 00AF     		add	r7, sp, #0
 1830              	.LCFI109:
 1831              		.cfi_def_cfa_register 7
 1832 0006 7860     		str	r0, [r7, #4]
 1833 0008 3960     		str	r1, [r7]
 910:./Library/stm32f4xx_tim.c ****   uint16_t tmpccmrx = 0, tmpccer = 0, tmpcr2 = 0;
 1834              		.loc 1 910 12
 1835 000a 0023     		movs	r3, #0
 1836 000c BB81     		strh	r3, [r7, #12]	@ movhi
 1837              		.loc 1 910 26
 1838 000e 0023     		movs	r3, #0
 1839 0010 7B81     		strh	r3, [r7, #10]	@ movhi
 1840              		.loc 1 910 39
 1841 0012 0023     		movs	r3, #0
 1842 0014 FB81     		strh	r3, [r7, #14]	@ movhi
 911:./Library/stm32f4xx_tim.c ****    
 912:./Library/stm32f4xx_tim.c ****   /* Check the parameters */
 913:./Library/stm32f4xx_tim.c ****   assert_param(IS_TIM_LIST3_PERIPH(TIMx)); 
 914:./Library/stm32f4xx_tim.c ****   assert_param(IS_TIM_OC_MODE(TIM_OCInitStruct->TIM_OCMode));
 915:./Library/stm32f4xx_tim.c ****   assert_param(IS_TIM_OUTPUT_STATE(TIM_OCInitStruct->TIM_OutputState));
 916:./Library/stm32f4xx_tim.c ****   assert_param(IS_TIM_OC_POLARITY(TIM_OCInitStruct->TIM_OCPolarity));   
 917:./Library/stm32f4xx_tim.c **** 
 918:./Library/stm32f4xx_tim.c ****   /* Disable the Channel 4: Reset the CC4E Bit */
 919:./Library/stm32f4xx_tim.c ****   TIMx->CCER &= (uint16_t)~TIM_CCER_CC4E;
 1843              		.loc 1 919 14
 1844 0016 7B68     		ldr	r3, [r7, #4]
 1845 0018 1B8C     		ldrh	r3, [r3, #32]	@ movhi
 1846 001a 9BB2     		uxth	r3, r3
 1847 001c 23F48053 		bic	r3, r3, #4096
 1848 0020 9AB2     		uxth	r2, r3
 1849 0022 7B68     		ldr	r3, [r7, #4]
 1850 0024 1A84     		strh	r2, [r3, #32]	@ movhi
 920:./Library/stm32f4xx_tim.c ****   
 921:./Library/stm32f4xx_tim.c ****   /* Get the TIMx CCER register value */
 922:./Library/stm32f4xx_tim.c ****   tmpccer = TIMx->CCER;
 1851              		.loc 1 922 11
 1852 0026 7B68     		ldr	r3, [r7, #4]
 1853 0028 1B8C     		ldrh	r3, [r3, #32]	@ movhi
 1854 002a 7B81     		strh	r3, [r7, #10]	@ movhi
 923:./Library/stm32f4xx_tim.c ****   /* Get the TIMx CR2 register value */
 924:./Library/stm32f4xx_tim.c ****   tmpcr2 =  TIMx->CR2;
 1855              		.loc 1 924 10
 1856 002c 7B68     		ldr	r3, [r7, #4]
 1857 002e 9B88     		ldrh	r3, [r3, #4]	@ movhi
 1858 0030 FB81     		strh	r3, [r7, #14]	@ movhi
 925:./Library/stm32f4xx_tim.c ****   
 926:./Library/stm32f4xx_tim.c ****   /* Get the TIMx CCMR2 register value */
 927:./Library/stm32f4xx_tim.c ****   tmpccmrx = TIMx->CCMR2;
 1859              		.loc 1 927 12
 1860 0032 7B68     		ldr	r3, [r7, #4]
ARM GAS  /var/folders/yl/_q9l42k90g1g4mdhbs226msm0000gn/T//cclSErw0.s 			page 50


 1861 0034 9B8B     		ldrh	r3, [r3, #28]	@ movhi
 1862 0036 BB81     		strh	r3, [r7, #12]	@ movhi
 928:./Library/stm32f4xx_tim.c ****     
 929:./Library/stm32f4xx_tim.c ****   /* Reset the Output Compare mode and Capture/Compare selection Bits */
 930:./Library/stm32f4xx_tim.c ****   tmpccmrx &= (uint16_t)~TIM_CCMR2_OC4M;
 1863              		.loc 1 930 12
 1864 0038 BB89     		ldrh	r3, [r7, #12]	@ movhi
 1865 003a 23F4E043 		bic	r3, r3, #28672
 1866 003e BB81     		strh	r3, [r7, #12]	@ movhi
 931:./Library/stm32f4xx_tim.c ****   tmpccmrx &= (uint16_t)~TIM_CCMR2_CC4S;
 1867              		.loc 1 931 12
 1868 0040 BB89     		ldrh	r3, [r7, #12]	@ movhi
 1869 0042 23F44073 		bic	r3, r3, #768
 1870 0046 BB81     		strh	r3, [r7, #12]	@ movhi
 932:./Library/stm32f4xx_tim.c ****   
 933:./Library/stm32f4xx_tim.c ****   /* Select the Output Compare Mode */
 934:./Library/stm32f4xx_tim.c ****   tmpccmrx |= (uint16_t)(TIM_OCInitStruct->TIM_OCMode << 8);
 1871              		.loc 1 934 42
 1872 0048 3B68     		ldr	r3, [r7]
 1873 004a 1B88     		ldrh	r3, [r3]
 1874              		.loc 1 934 15
 1875 004c 1B02     		lsls	r3, r3, #8
 1876 004e 9AB2     		uxth	r2, r3
 1877              		.loc 1 934 12
 1878 0050 BB89     		ldrh	r3, [r7, #12]	@ movhi
 1879 0052 1343     		orrs	r3, r3, r2
 1880 0054 BB81     		strh	r3, [r7, #12]	@ movhi
 935:./Library/stm32f4xx_tim.c ****   
 936:./Library/stm32f4xx_tim.c ****   /* Reset the Output Polarity level */
 937:./Library/stm32f4xx_tim.c ****   tmpccer &= (uint16_t)~TIM_CCER_CC4P;
 1881              		.loc 1 937 11
 1882 0056 7B89     		ldrh	r3, [r7, #10]	@ movhi
 1883 0058 23F40053 		bic	r3, r3, #8192
 1884 005c 7B81     		strh	r3, [r7, #10]	@ movhi
 938:./Library/stm32f4xx_tim.c ****   /* Set the Output Compare Polarity */
 939:./Library/stm32f4xx_tim.c ****   tmpccer |= (uint16_t)(TIM_OCInitStruct->TIM_OCPolarity << 12);
 1885              		.loc 1 939 41
 1886 005e 3B68     		ldr	r3, [r7]
 1887 0060 9B89     		ldrh	r3, [r3, #12]
 1888              		.loc 1 939 14
 1889 0062 1B03     		lsls	r3, r3, #12
 1890 0064 9AB2     		uxth	r2, r3
 1891              		.loc 1 939 11
 1892 0066 7B89     		ldrh	r3, [r7, #10]	@ movhi
 1893 0068 1343     		orrs	r3, r3, r2
 1894 006a 7B81     		strh	r3, [r7, #10]	@ movhi
 940:./Library/stm32f4xx_tim.c ****   
 941:./Library/stm32f4xx_tim.c ****   /* Set the Output State */
 942:./Library/stm32f4xx_tim.c ****   tmpccer |= (uint16_t)(TIM_OCInitStruct->TIM_OutputState << 12);
 1895              		.loc 1 942 41
 1896 006c 3B68     		ldr	r3, [r7]
 1897 006e 5B88     		ldrh	r3, [r3, #2]
 1898              		.loc 1 942 14
 1899 0070 1B03     		lsls	r3, r3, #12
 1900 0072 9AB2     		uxth	r2, r3
 1901              		.loc 1 942 11
 1902 0074 7B89     		ldrh	r3, [r7, #10]	@ movhi
ARM GAS  /var/folders/yl/_q9l42k90g1g4mdhbs226msm0000gn/T//cclSErw0.s 			page 51


 1903 0076 1343     		orrs	r3, r3, r2
 1904 0078 7B81     		strh	r3, [r7, #10]	@ movhi
 943:./Library/stm32f4xx_tim.c ****   
 944:./Library/stm32f4xx_tim.c ****   if((TIMx == TIM1) || (TIMx == TIM8))
 1905              		.loc 1 944 5
 1906 007a 7B68     		ldr	r3, [r7, #4]
 1907 007c 124A     		ldr	r2, .L72
 1908 007e 9342     		cmp	r3, r2
 1909 0080 03D0     		beq	.L70
 1910              		.loc 1 944 21 discriminator 1
 1911 0082 7B68     		ldr	r3, [r7, #4]
 1912 0084 114A     		ldr	r2, .L72+4
 1913 0086 9342     		cmp	r3, r2
 1914 0088 0AD1     		bne	.L71
 1915              	.L70:
 945:./Library/stm32f4xx_tim.c ****   {
 946:./Library/stm32f4xx_tim.c ****     assert_param(IS_TIM_OCIDLE_STATE(TIM_OCInitStruct->TIM_OCIdleState));
 947:./Library/stm32f4xx_tim.c ****     /* Reset the Output Compare IDLE State */
 948:./Library/stm32f4xx_tim.c ****     tmpcr2 &=(uint16_t) ~TIM_CR2_OIS4;
 1916              		.loc 1 948 12
 1917 008a FB89     		ldrh	r3, [r7, #14]	@ movhi
 1918 008c 23F48043 		bic	r3, r3, #16384
 1919 0090 FB81     		strh	r3, [r7, #14]	@ movhi
 949:./Library/stm32f4xx_tim.c ****     /* Set the Output Idle state */
 950:./Library/stm32f4xx_tim.c ****     tmpcr2 |= (uint16_t)(TIM_OCInitStruct->TIM_OCIdleState << 6);
 1920              		.loc 1 950 42
 1921 0092 3B68     		ldr	r3, [r7]
 1922 0094 1B8A     		ldrh	r3, [r3, #16]
 1923              		.loc 1 950 15
 1924 0096 9B01     		lsls	r3, r3, #6
 1925 0098 9AB2     		uxth	r2, r3
 1926              		.loc 1 950 12
 1927 009a FB89     		ldrh	r3, [r7, #14]	@ movhi
 1928 009c 1343     		orrs	r3, r3, r2
 1929 009e FB81     		strh	r3, [r7, #14]	@ movhi
 1930              	.L71:
 951:./Library/stm32f4xx_tim.c ****   }
 952:./Library/stm32f4xx_tim.c ****   /* Write to TIMx CR2 */
 953:./Library/stm32f4xx_tim.c ****   TIMx->CR2 = tmpcr2;
 1931              		.loc 1 953 13
 1932 00a0 7B68     		ldr	r3, [r7, #4]
 1933 00a2 FA89     		ldrh	r2, [r7, #14]	@ movhi
 1934 00a4 9A80     		strh	r2, [r3, #4]	@ movhi
 954:./Library/stm32f4xx_tim.c ****   
 955:./Library/stm32f4xx_tim.c ****   /* Write to TIMx CCMR2 */  
 956:./Library/stm32f4xx_tim.c ****   TIMx->CCMR2 = tmpccmrx;
 1935              		.loc 1 956 15
 1936 00a6 7B68     		ldr	r3, [r7, #4]
 1937 00a8 BA89     		ldrh	r2, [r7, #12]	@ movhi
 1938 00aa 9A83     		strh	r2, [r3, #28]	@ movhi
 957:./Library/stm32f4xx_tim.c ****     
 958:./Library/stm32f4xx_tim.c ****   /* Set the Capture Compare Register value */
 959:./Library/stm32f4xx_tim.c ****   TIMx->CCR4 = TIM_OCInitStruct->TIM_Pulse;
 1939              		.loc 1 959 32
 1940 00ac 3B68     		ldr	r3, [r7]
 1941 00ae 9A68     		ldr	r2, [r3, #8]
 1942              		.loc 1 959 14
ARM GAS  /var/folders/yl/_q9l42k90g1g4mdhbs226msm0000gn/T//cclSErw0.s 			page 52


 1943 00b0 7B68     		ldr	r3, [r7, #4]
 1944 00b2 1A64     		str	r2, [r3, #64]
 960:./Library/stm32f4xx_tim.c ****   
 961:./Library/stm32f4xx_tim.c ****   /* Write to TIMx CCER */
 962:./Library/stm32f4xx_tim.c ****   TIMx->CCER = tmpccer;
 1945              		.loc 1 962 14
 1946 00b4 7B68     		ldr	r3, [r7, #4]
 1947 00b6 7A89     		ldrh	r2, [r7, #10]	@ movhi
 1948 00b8 1A84     		strh	r2, [r3, #32]	@ movhi
 963:./Library/stm32f4xx_tim.c **** }
 1949              		.loc 1 963 1
 1950 00ba 00BF     		nop
 1951 00bc 1437     		adds	r7, r7, #20
 1952              	.LCFI110:
 1953              		.cfi_def_cfa_offset 4
 1954 00be BD46     		mov	sp, r7
 1955              	.LCFI111:
 1956              		.cfi_def_cfa_register 13
 1957              		@ sp needed
 1958 00c0 5DF8047B 		ldr	r7, [sp], #4
 1959              	.LCFI112:
 1960              		.cfi_restore 7
 1961              		.cfi_def_cfa_offset 0
 1962 00c4 7047     		bx	lr
 1963              	.L73:
 1964 00c6 00BF     		.align	2
 1965              	.L72:
 1966 00c8 00000140 		.word	1073807360
 1967 00cc 00040140 		.word	1073808384
 1968              		.cfi_endproc
 1969              	.LFE141:
 1971              		.section	.text.TIM_OCStructInit,"ax",%progbits
 1972              		.align	1
 1973              		.global	TIM_OCStructInit
 1974              		.syntax unified
 1975              		.thumb
 1976              		.thumb_func
 1978              	TIM_OCStructInit:
 1979              	.LFB142:
 964:./Library/stm32f4xx_tim.c **** 
 965:./Library/stm32f4xx_tim.c **** /**
 966:./Library/stm32f4xx_tim.c ****   * @brief  Fills each TIM_OCInitStruct member with its default value.
 967:./Library/stm32f4xx_tim.c ****   * @param  TIM_OCInitStruct: pointer to a TIM_OCInitTypeDef structure which will
 968:./Library/stm32f4xx_tim.c ****   *         be initialized.
 969:./Library/stm32f4xx_tim.c ****   * @retval None
 970:./Library/stm32f4xx_tim.c ****   */
 971:./Library/stm32f4xx_tim.c **** void TIM_OCStructInit(TIM_OCInitTypeDef* TIM_OCInitStruct)
 972:./Library/stm32f4xx_tim.c **** {
 1980              		.loc 1 972 1
 1981              		.cfi_startproc
 1982              		@ args = 0, pretend = 0, frame = 8
 1983              		@ frame_needed = 1, uses_anonymous_args = 0
 1984              		@ link register save eliminated.
 1985 0000 80B4     		push	{r7}
 1986              	.LCFI113:
 1987              		.cfi_def_cfa_offset 4
 1988              		.cfi_offset 7, -4
ARM GAS  /var/folders/yl/_q9l42k90g1g4mdhbs226msm0000gn/T//cclSErw0.s 			page 53


 1989 0002 83B0     		sub	sp, sp, #12
 1990              	.LCFI114:
 1991              		.cfi_def_cfa_offset 16
 1992 0004 00AF     		add	r7, sp, #0
 1993              	.LCFI115:
 1994              		.cfi_def_cfa_register 7
 1995 0006 7860     		str	r0, [r7, #4]
 973:./Library/stm32f4xx_tim.c ****   /* Set the default configuration */
 974:./Library/stm32f4xx_tim.c ****   TIM_OCInitStruct->TIM_OCMode = TIM_OCMode_Timing;
 1996              		.loc 1 974 32
 1997 0008 7B68     		ldr	r3, [r7, #4]
 1998 000a 0022     		movs	r2, #0
 1999 000c 1A80     		strh	r2, [r3]	@ movhi
 975:./Library/stm32f4xx_tim.c ****   TIM_OCInitStruct->TIM_OutputState = TIM_OutputState_Disable;
 2000              		.loc 1 975 37
 2001 000e 7B68     		ldr	r3, [r7, #4]
 2002 0010 0022     		movs	r2, #0
 2003 0012 5A80     		strh	r2, [r3, #2]	@ movhi
 976:./Library/stm32f4xx_tim.c ****   TIM_OCInitStruct->TIM_OutputNState = TIM_OutputNState_Disable;
 2004              		.loc 1 976 38
 2005 0014 7B68     		ldr	r3, [r7, #4]
 2006 0016 0022     		movs	r2, #0
 2007 0018 9A80     		strh	r2, [r3, #4]	@ movhi
 977:./Library/stm32f4xx_tim.c ****   TIM_OCInitStruct->TIM_Pulse = 0x00000000;
 2008              		.loc 1 977 31
 2009 001a 7B68     		ldr	r3, [r7, #4]
 2010 001c 0022     		movs	r2, #0
 2011 001e 9A60     		str	r2, [r3, #8]
 978:./Library/stm32f4xx_tim.c ****   TIM_OCInitStruct->TIM_OCPolarity = TIM_OCPolarity_High;
 2012              		.loc 1 978 36
 2013 0020 7B68     		ldr	r3, [r7, #4]
 2014 0022 0022     		movs	r2, #0
 2015 0024 9A81     		strh	r2, [r3, #12]	@ movhi
 979:./Library/stm32f4xx_tim.c ****   TIM_OCInitStruct->TIM_OCNPolarity = TIM_OCPolarity_High;
 2016              		.loc 1 979 37
 2017 0026 7B68     		ldr	r3, [r7, #4]
 2018 0028 0022     		movs	r2, #0
 2019 002a DA81     		strh	r2, [r3, #14]	@ movhi
 980:./Library/stm32f4xx_tim.c ****   TIM_OCInitStruct->TIM_OCIdleState = TIM_OCIdleState_Reset;
 2020              		.loc 1 980 37
 2021 002c 7B68     		ldr	r3, [r7, #4]
 2022 002e 0022     		movs	r2, #0
 2023 0030 1A82     		strh	r2, [r3, #16]	@ movhi
 981:./Library/stm32f4xx_tim.c ****   TIM_OCInitStruct->TIM_OCNIdleState = TIM_OCNIdleState_Reset;
 2024              		.loc 1 981 38
 2025 0032 7B68     		ldr	r3, [r7, #4]
 2026 0034 0022     		movs	r2, #0
 2027 0036 5A82     		strh	r2, [r3, #18]	@ movhi
 982:./Library/stm32f4xx_tim.c **** }
 2028              		.loc 1 982 1
 2029 0038 00BF     		nop
 2030 003a 0C37     		adds	r7, r7, #12
 2031              	.LCFI116:
 2032              		.cfi_def_cfa_offset 4
 2033 003c BD46     		mov	sp, r7
 2034              	.LCFI117:
 2035              		.cfi_def_cfa_register 13
ARM GAS  /var/folders/yl/_q9l42k90g1g4mdhbs226msm0000gn/T//cclSErw0.s 			page 54


 2036              		@ sp needed
 2037 003e 5DF8047B 		ldr	r7, [sp], #4
 2038              	.LCFI118:
 2039              		.cfi_restore 7
 2040              		.cfi_def_cfa_offset 0
 2041 0042 7047     		bx	lr
 2042              		.cfi_endproc
 2043              	.LFE142:
 2045              		.section	.text.TIM_SelectOCxM,"ax",%progbits
 2046              		.align	1
 2047              		.global	TIM_SelectOCxM
 2048              		.syntax unified
 2049              		.thumb
 2050              		.thumb_func
 2052              	TIM_SelectOCxM:
 2053              	.LFB143:
 983:./Library/stm32f4xx_tim.c **** 
 984:./Library/stm32f4xx_tim.c **** /**
 985:./Library/stm32f4xx_tim.c ****   * @brief  Selects the TIM Output Compare Mode.
 986:./Library/stm32f4xx_tim.c ****   * @note   This function disables the selected channel before changing the Output
 987:./Library/stm32f4xx_tim.c ****   *         Compare Mode. If needed, user has to enable this channel using
 988:./Library/stm32f4xx_tim.c ****   *         TIM_CCxCmd() and TIM_CCxNCmd() functions.
 989:./Library/stm32f4xx_tim.c ****   * @param  TIMx: where x can be 1 to 14 except 6 and 7, to select the TIM peripheral.
 990:./Library/stm32f4xx_tim.c ****   * @param  TIM_Channel: specifies the TIM Channel
 991:./Library/stm32f4xx_tim.c ****   *          This parameter can be one of the following values:
 992:./Library/stm32f4xx_tim.c ****   *            @arg TIM_Channel_1: TIM Channel 1
 993:./Library/stm32f4xx_tim.c ****   *            @arg TIM_Channel_2: TIM Channel 2
 994:./Library/stm32f4xx_tim.c ****   *            @arg TIM_Channel_3: TIM Channel 3
 995:./Library/stm32f4xx_tim.c ****   *            @arg TIM_Channel_4: TIM Channel 4
 996:./Library/stm32f4xx_tim.c ****   * @param  TIM_OCMode: specifies the TIM Output Compare Mode.
 997:./Library/stm32f4xx_tim.c ****   *           This parameter can be one of the following values:
 998:./Library/stm32f4xx_tim.c ****   *            @arg TIM_OCMode_Timing
 999:./Library/stm32f4xx_tim.c ****   *            @arg TIM_OCMode_Active
1000:./Library/stm32f4xx_tim.c ****   *            @arg TIM_OCMode_Toggle
1001:./Library/stm32f4xx_tim.c ****   *            @arg TIM_OCMode_PWM1
1002:./Library/stm32f4xx_tim.c ****   *            @arg TIM_OCMode_PWM2
1003:./Library/stm32f4xx_tim.c ****   *            @arg TIM_ForcedAction_Active
1004:./Library/stm32f4xx_tim.c ****   *            @arg TIM_ForcedAction_InActive
1005:./Library/stm32f4xx_tim.c ****   * @retval None
1006:./Library/stm32f4xx_tim.c ****   */
1007:./Library/stm32f4xx_tim.c **** void TIM_SelectOCxM(TIM_TypeDef* TIMx, uint16_t TIM_Channel, uint16_t TIM_OCMode)
1008:./Library/stm32f4xx_tim.c **** {
 2054              		.loc 1 1008 1
 2055              		.cfi_startproc
 2056              		@ args = 0, pretend = 0, frame = 16
 2057              		@ frame_needed = 1, uses_anonymous_args = 0
 2058              		@ link register save eliminated.
 2059 0000 80B4     		push	{r7}
 2060              	.LCFI119:
 2061              		.cfi_def_cfa_offset 4
 2062              		.cfi_offset 7, -4
 2063 0002 85B0     		sub	sp, sp, #20
 2064              	.LCFI120:
 2065              		.cfi_def_cfa_offset 24
 2066 0004 00AF     		add	r7, sp, #0
 2067              	.LCFI121:
 2068              		.cfi_def_cfa_register 7
ARM GAS  /var/folders/yl/_q9l42k90g1g4mdhbs226msm0000gn/T//cclSErw0.s 			page 55


 2069 0006 7860     		str	r0, [r7, #4]
 2070 0008 0B46     		mov	r3, r1
 2071 000a 7B80     		strh	r3, [r7, #2]	@ movhi
 2072 000c 1346     		mov	r3, r2	@ movhi
 2073 000e 3B80     		strh	r3, [r7]	@ movhi
1009:./Library/stm32f4xx_tim.c ****   uint32_t tmp = 0;
 2074              		.loc 1 1009 12
 2075 0010 0023     		movs	r3, #0
 2076 0012 FB60     		str	r3, [r7, #12]
1010:./Library/stm32f4xx_tim.c ****   uint16_t tmp1 = 0;
 2077              		.loc 1 1010 12
 2078 0014 0023     		movs	r3, #0
 2079 0016 7B81     		strh	r3, [r7, #10]	@ movhi
1011:./Library/stm32f4xx_tim.c **** 
1012:./Library/stm32f4xx_tim.c ****   /* Check the parameters */
1013:./Library/stm32f4xx_tim.c ****   assert_param(IS_TIM_LIST1_PERIPH(TIMx));
1014:./Library/stm32f4xx_tim.c ****   assert_param(IS_TIM_CHANNEL(TIM_Channel));
1015:./Library/stm32f4xx_tim.c ****   assert_param(IS_TIM_OCM(TIM_OCMode));
1016:./Library/stm32f4xx_tim.c **** 
1017:./Library/stm32f4xx_tim.c ****   tmp = (uint32_t) TIMx;
 2080              		.loc 1 1017 7
 2081 0018 7B68     		ldr	r3, [r7, #4]
 2082 001a FB60     		str	r3, [r7, #12]
1018:./Library/stm32f4xx_tim.c ****   tmp += CCMR_OFFSET;
 2083              		.loc 1 1018 7
 2084 001c FB68     		ldr	r3, [r7, #12]
 2085 001e 1833     		adds	r3, r3, #24
 2086 0020 FB60     		str	r3, [r7, #12]
1019:./Library/stm32f4xx_tim.c **** 
1020:./Library/stm32f4xx_tim.c ****   tmp1 = CCER_CCE_SET << (uint16_t)TIM_Channel;
 2087              		.loc 1 1020 26
 2088 0022 7B88     		ldrh	r3, [r7, #2]
 2089              		.loc 1 1020 23
 2090 0024 0122     		movs	r2, #1
 2091 0026 02FA03F3 		lsl	r3, r2, r3
 2092              		.loc 1 1020 8
 2093 002a 7B81     		strh	r3, [r7, #10]	@ movhi
1021:./Library/stm32f4xx_tim.c **** 
1022:./Library/stm32f4xx_tim.c ****   /* Disable the Channel: Reset the CCxE Bit */
1023:./Library/stm32f4xx_tim.c ****   TIMx->CCER &= (uint16_t) ~tmp1;
 2094              		.loc 1 1023 14
 2095 002c 7B68     		ldr	r3, [r7, #4]
 2096 002e 1B8C     		ldrh	r3, [r3, #32]	@ movhi
 2097 0030 9AB2     		uxth	r2, r3
 2098              		.loc 1 1023 17
 2099 0032 7B89     		ldrh	r3, [r7, #10]	@ movhi
 2100 0034 DB43     		mvns	r3, r3
 2101 0036 9BB2     		uxth	r3, r3
 2102              		.loc 1 1023 14
 2103 0038 1340     		ands	r3, r3, r2
 2104 003a 9AB2     		uxth	r2, r3
 2105 003c 7B68     		ldr	r3, [r7, #4]
 2106 003e 1A84     		strh	r2, [r3, #32]	@ movhi
1024:./Library/stm32f4xx_tim.c **** 
1025:./Library/stm32f4xx_tim.c ****   if((TIM_Channel == TIM_Channel_1) ||(TIM_Channel == TIM_Channel_3))
 2107              		.loc 1 1025 5
 2108 0040 7B88     		ldrh	r3, [r7, #2]
ARM GAS  /var/folders/yl/_q9l42k90g1g4mdhbs226msm0000gn/T//cclSErw0.s 			page 56


 2109 0042 002B     		cmp	r3, #0
 2110 0044 02D0     		beq	.L76
 2111              		.loc 1 1025 37 discriminator 1
 2112 0046 7B88     		ldrh	r3, [r7, #2]
 2113 0048 082B     		cmp	r3, #8
 2114 004a 14D1     		bne	.L77
 2115              	.L76:
1026:./Library/stm32f4xx_tim.c ****   {
1027:./Library/stm32f4xx_tim.c ****     tmp += (TIM_Channel>>1);
 2116              		.loc 1 1027 24
 2117 004c 7B88     		ldrh	r3, [r7, #2]
 2118 004e 5B08     		lsrs	r3, r3, #1
 2119 0050 9BB2     		uxth	r3, r3
 2120 0052 1A46     		mov	r2, r3
 2121              		.loc 1 1027 9
 2122 0054 FB68     		ldr	r3, [r7, #12]
 2123 0056 1344     		add	r3, r3, r2
 2124 0058 FB60     		str	r3, [r7, #12]
1028:./Library/stm32f4xx_tim.c **** 
1029:./Library/stm32f4xx_tim.c ****     /* Reset the OCxM bits in the CCMRx register */
1030:./Library/stm32f4xx_tim.c ****     *(__IO uint32_t *) tmp &= CCMR_OC13M_MASK;
 2125              		.loc 1 1030 28
 2126 005a FB68     		ldr	r3, [r7, #12]
 2127 005c 1968     		ldr	r1, [r3]
 2128 005e FA68     		ldr	r2, [r7, #12]
 2129 0060 4FF68F73 		movw	r3, #65423
 2130 0064 0B40     		ands	r3, r3, r1
 2131 0066 1360     		str	r3, [r2]
1031:./Library/stm32f4xx_tim.c ****    
1032:./Library/stm32f4xx_tim.c ****     /* Configure the OCxM bits in the CCMRx register */
1033:./Library/stm32f4xx_tim.c ****     *(__IO uint32_t *) tmp |= TIM_OCMode;
 2132              		.loc 1 1033 28
 2133 0068 FB68     		ldr	r3, [r7, #12]
 2134 006a 1968     		ldr	r1, [r3]
 2135 006c 3A88     		ldrh	r2, [r7]
 2136 006e FB68     		ldr	r3, [r7, #12]
 2137 0070 0A43     		orrs	r2, r2, r1
 2138 0072 1A60     		str	r2, [r3]
 2139 0074 19E0     		b	.L78
 2140              	.L77:
1034:./Library/stm32f4xx_tim.c ****   }
1035:./Library/stm32f4xx_tim.c ****   else
1036:./Library/stm32f4xx_tim.c ****   {
1037:./Library/stm32f4xx_tim.c ****     tmp += (uint16_t)(TIM_Channel - (uint16_t)4)>> (uint16_t)1;
 2141              		.loc 1 1037 12
 2142 0076 7B88     		ldrh	r3, [r7, #2]	@ movhi
 2143 0078 043B     		subs	r3, r3, #4
 2144 007a 9BB2     		uxth	r3, r3
 2145              		.loc 1 1037 49
 2146 007c 5B08     		lsrs	r3, r3, #1
 2147 007e 9BB2     		uxth	r3, r3
 2148 0080 1A46     		mov	r2, r3
 2149              		.loc 1 1037 9
 2150 0082 FB68     		ldr	r3, [r7, #12]
 2151 0084 1344     		add	r3, r3, r2
 2152 0086 FB60     		str	r3, [r7, #12]
1038:./Library/stm32f4xx_tim.c **** 
ARM GAS  /var/folders/yl/_q9l42k90g1g4mdhbs226msm0000gn/T//cclSErw0.s 			page 57


1039:./Library/stm32f4xx_tim.c ****     /* Reset the OCxM bits in the CCMRx register */
1040:./Library/stm32f4xx_tim.c ****     *(__IO uint32_t *) tmp &= CCMR_OC24M_MASK;
 2153              		.loc 1 1040 28
 2154 0088 FB68     		ldr	r3, [r7, #12]
 2155 008a 1968     		ldr	r1, [r3]
 2156 008c FA68     		ldr	r2, [r7, #12]
 2157 008e 48F6FF73 		movw	r3, #36863
 2158 0092 0B40     		ands	r3, r3, r1
 2159 0094 1360     		str	r3, [r2]
1041:./Library/stm32f4xx_tim.c ****     
1042:./Library/stm32f4xx_tim.c ****     /* Configure the OCxM bits in the CCMRx register */
1043:./Library/stm32f4xx_tim.c ****     *(__IO uint32_t *) tmp |= (uint16_t)(TIM_OCMode << 8);
 2160              		.loc 1 1043 28
 2161 0096 FB68     		ldr	r3, [r7, #12]
 2162 0098 1A68     		ldr	r2, [r3]
 2163              		.loc 1 1043 31
 2164 009a 3B88     		ldrh	r3, [r7]	@ movhi
 2165 009c 1B02     		lsls	r3, r3, #8
 2166 009e 9BB2     		uxth	r3, r3
 2167 00a0 1946     		mov	r1, r3
 2168              		.loc 1 1043 28
 2169 00a2 FB68     		ldr	r3, [r7, #12]
 2170 00a4 0A43     		orrs	r2, r2, r1
 2171 00a6 1A60     		str	r2, [r3]
1044:./Library/stm32f4xx_tim.c ****   }
1045:./Library/stm32f4xx_tim.c **** }
 2172              		.loc 1 1045 1
 2173 00a8 00BF     		nop
 2174              	.L78:
 2175 00aa 00BF     		nop
 2176 00ac 1437     		adds	r7, r7, #20
 2177              	.LCFI122:
 2178              		.cfi_def_cfa_offset 4
 2179 00ae BD46     		mov	sp, r7
 2180              	.LCFI123:
 2181              		.cfi_def_cfa_register 13
 2182              		@ sp needed
 2183 00b0 5DF8047B 		ldr	r7, [sp], #4
 2184              	.LCFI124:
 2185              		.cfi_restore 7
 2186              		.cfi_def_cfa_offset 0
 2187 00b4 7047     		bx	lr
 2188              		.cfi_endproc
 2189              	.LFE143:
 2191              		.section	.text.TIM_SetCompare1,"ax",%progbits
 2192              		.align	1
 2193              		.global	TIM_SetCompare1
 2194              		.syntax unified
 2195              		.thumb
 2196              		.thumb_func
 2198              	TIM_SetCompare1:
 2199              	.LFB144:
1046:./Library/stm32f4xx_tim.c **** 
1047:./Library/stm32f4xx_tim.c **** /**
1048:./Library/stm32f4xx_tim.c ****   * @brief  Sets the TIMx Capture Compare1 Register value
1049:./Library/stm32f4xx_tim.c ****   * @param  TIMx: where x can be 1 to 14 except 6 and 7, to select the TIM peripheral.
1050:./Library/stm32f4xx_tim.c ****   * @param  Compare1: specifies the Capture Compare1 register new value.
ARM GAS  /var/folders/yl/_q9l42k90g1g4mdhbs226msm0000gn/T//cclSErw0.s 			page 58


1051:./Library/stm32f4xx_tim.c ****   * @retval None
1052:./Library/stm32f4xx_tim.c ****   */
1053:./Library/stm32f4xx_tim.c **** void TIM_SetCompare1(TIM_TypeDef* TIMx, uint32_t Compare1)
1054:./Library/stm32f4xx_tim.c **** {
 2200              		.loc 1 1054 1
 2201              		.cfi_startproc
 2202              		@ args = 0, pretend = 0, frame = 8
 2203              		@ frame_needed = 1, uses_anonymous_args = 0
 2204              		@ link register save eliminated.
 2205 0000 80B4     		push	{r7}
 2206              	.LCFI125:
 2207              		.cfi_def_cfa_offset 4
 2208              		.cfi_offset 7, -4
 2209 0002 83B0     		sub	sp, sp, #12
 2210              	.LCFI126:
 2211              		.cfi_def_cfa_offset 16
 2212 0004 00AF     		add	r7, sp, #0
 2213              	.LCFI127:
 2214              		.cfi_def_cfa_register 7
 2215 0006 7860     		str	r0, [r7, #4]
 2216 0008 3960     		str	r1, [r7]
1055:./Library/stm32f4xx_tim.c ****   /* Check the parameters */
1056:./Library/stm32f4xx_tim.c ****   assert_param(IS_TIM_LIST1_PERIPH(TIMx));
1057:./Library/stm32f4xx_tim.c **** 
1058:./Library/stm32f4xx_tim.c ****   /* Set the Capture Compare1 Register value */
1059:./Library/stm32f4xx_tim.c ****   TIMx->CCR1 = Compare1;
 2217              		.loc 1 1059 14
 2218 000a 7B68     		ldr	r3, [r7, #4]
 2219 000c 3A68     		ldr	r2, [r7]
 2220 000e 5A63     		str	r2, [r3, #52]
1060:./Library/stm32f4xx_tim.c **** }
 2221              		.loc 1 1060 1
 2222 0010 00BF     		nop
 2223 0012 0C37     		adds	r7, r7, #12
 2224              	.LCFI128:
 2225              		.cfi_def_cfa_offset 4
 2226 0014 BD46     		mov	sp, r7
 2227              	.LCFI129:
 2228              		.cfi_def_cfa_register 13
 2229              		@ sp needed
 2230 0016 5DF8047B 		ldr	r7, [sp], #4
 2231              	.LCFI130:
 2232              		.cfi_restore 7
 2233              		.cfi_def_cfa_offset 0
 2234 001a 7047     		bx	lr
 2235              		.cfi_endproc
 2236              	.LFE144:
 2238              		.section	.text.TIM_SetCompare2,"ax",%progbits
 2239              		.align	1
 2240              		.global	TIM_SetCompare2
 2241              		.syntax unified
 2242              		.thumb
 2243              		.thumb_func
 2245              	TIM_SetCompare2:
 2246              	.LFB145:
1061:./Library/stm32f4xx_tim.c **** 
1062:./Library/stm32f4xx_tim.c **** /**
ARM GAS  /var/folders/yl/_q9l42k90g1g4mdhbs226msm0000gn/T//cclSErw0.s 			page 59


1063:./Library/stm32f4xx_tim.c ****   * @brief  Sets the TIMx Capture Compare2 Register value
1064:./Library/stm32f4xx_tim.c ****   * @param  TIMx: where x can be 1, 2, 3, 4, 5, 8, 9 or 12 to select the TIM 
1065:./Library/stm32f4xx_tim.c ****   *         peripheral.
1066:./Library/stm32f4xx_tim.c ****   * @param  Compare2: specifies the Capture Compare2 register new value.
1067:./Library/stm32f4xx_tim.c ****   * @retval None
1068:./Library/stm32f4xx_tim.c ****   */
1069:./Library/stm32f4xx_tim.c **** void TIM_SetCompare2(TIM_TypeDef* TIMx, uint32_t Compare2)
1070:./Library/stm32f4xx_tim.c **** {
 2247              		.loc 1 1070 1
 2248              		.cfi_startproc
 2249              		@ args = 0, pretend = 0, frame = 8
 2250              		@ frame_needed = 1, uses_anonymous_args = 0
 2251              		@ link register save eliminated.
 2252 0000 80B4     		push	{r7}
 2253              	.LCFI131:
 2254              		.cfi_def_cfa_offset 4
 2255              		.cfi_offset 7, -4
 2256 0002 83B0     		sub	sp, sp, #12
 2257              	.LCFI132:
 2258              		.cfi_def_cfa_offset 16
 2259 0004 00AF     		add	r7, sp, #0
 2260              	.LCFI133:
 2261              		.cfi_def_cfa_register 7
 2262 0006 7860     		str	r0, [r7, #4]
 2263 0008 3960     		str	r1, [r7]
1071:./Library/stm32f4xx_tim.c ****   /* Check the parameters */
1072:./Library/stm32f4xx_tim.c ****   assert_param(IS_TIM_LIST2_PERIPH(TIMx));
1073:./Library/stm32f4xx_tim.c **** 
1074:./Library/stm32f4xx_tim.c ****   /* Set the Capture Compare2 Register value */
1075:./Library/stm32f4xx_tim.c ****   TIMx->CCR2 = Compare2;
 2264              		.loc 1 1075 14
 2265 000a 7B68     		ldr	r3, [r7, #4]
 2266 000c 3A68     		ldr	r2, [r7]
 2267 000e 9A63     		str	r2, [r3, #56]
1076:./Library/stm32f4xx_tim.c **** }
 2268              		.loc 1 1076 1
 2269 0010 00BF     		nop
 2270 0012 0C37     		adds	r7, r7, #12
 2271              	.LCFI134:
 2272              		.cfi_def_cfa_offset 4
 2273 0014 BD46     		mov	sp, r7
 2274              	.LCFI135:
 2275              		.cfi_def_cfa_register 13
 2276              		@ sp needed
 2277 0016 5DF8047B 		ldr	r7, [sp], #4
 2278              	.LCFI136:
 2279              		.cfi_restore 7
 2280              		.cfi_def_cfa_offset 0
 2281 001a 7047     		bx	lr
 2282              		.cfi_endproc
 2283              	.LFE145:
 2285              		.section	.text.TIM_SetCompare3,"ax",%progbits
 2286              		.align	1
 2287              		.global	TIM_SetCompare3
 2288              		.syntax unified
 2289              		.thumb
 2290              		.thumb_func
ARM GAS  /var/folders/yl/_q9l42k90g1g4mdhbs226msm0000gn/T//cclSErw0.s 			page 60


 2292              	TIM_SetCompare3:
 2293              	.LFB146:
1077:./Library/stm32f4xx_tim.c **** 
1078:./Library/stm32f4xx_tim.c **** /**
1079:./Library/stm32f4xx_tim.c ****   * @brief  Sets the TIMx Capture Compare3 Register value
1080:./Library/stm32f4xx_tim.c ****   * @param  TIMx: where x can be 1, 2, 3, 4, 5 or 8 to select the TIM peripheral.
1081:./Library/stm32f4xx_tim.c ****   * @param  Compare3: specifies the Capture Compare3 register new value.
1082:./Library/stm32f4xx_tim.c ****   * @retval None
1083:./Library/stm32f4xx_tim.c ****   */
1084:./Library/stm32f4xx_tim.c **** void TIM_SetCompare3(TIM_TypeDef* TIMx, uint32_t Compare3)
1085:./Library/stm32f4xx_tim.c **** {
 2294              		.loc 1 1085 1
 2295              		.cfi_startproc
 2296              		@ args = 0, pretend = 0, frame = 8
 2297              		@ frame_needed = 1, uses_anonymous_args = 0
 2298              		@ link register save eliminated.
 2299 0000 80B4     		push	{r7}
 2300              	.LCFI137:
 2301              		.cfi_def_cfa_offset 4
 2302              		.cfi_offset 7, -4
 2303 0002 83B0     		sub	sp, sp, #12
 2304              	.LCFI138:
 2305              		.cfi_def_cfa_offset 16
 2306 0004 00AF     		add	r7, sp, #0
 2307              	.LCFI139:
 2308              		.cfi_def_cfa_register 7
 2309 0006 7860     		str	r0, [r7, #4]
 2310 0008 3960     		str	r1, [r7]
1086:./Library/stm32f4xx_tim.c ****   /* Check the parameters */
1087:./Library/stm32f4xx_tim.c ****   assert_param(IS_TIM_LIST3_PERIPH(TIMx));
1088:./Library/stm32f4xx_tim.c **** 
1089:./Library/stm32f4xx_tim.c ****   /* Set the Capture Compare3 Register value */
1090:./Library/stm32f4xx_tim.c ****   TIMx->CCR3 = Compare3;
 2311              		.loc 1 1090 14
 2312 000a 7B68     		ldr	r3, [r7, #4]
 2313 000c 3A68     		ldr	r2, [r7]
 2314 000e DA63     		str	r2, [r3, #60]
1091:./Library/stm32f4xx_tim.c **** }
 2315              		.loc 1 1091 1
 2316 0010 00BF     		nop
 2317 0012 0C37     		adds	r7, r7, #12
 2318              	.LCFI140:
 2319              		.cfi_def_cfa_offset 4
 2320 0014 BD46     		mov	sp, r7
 2321              	.LCFI141:
 2322              		.cfi_def_cfa_register 13
 2323              		@ sp needed
 2324 0016 5DF8047B 		ldr	r7, [sp], #4
 2325              	.LCFI142:
 2326              		.cfi_restore 7
 2327              		.cfi_def_cfa_offset 0
 2328 001a 7047     		bx	lr
 2329              		.cfi_endproc
 2330              	.LFE146:
 2332              		.section	.text.TIM_SetCompare4,"ax",%progbits
 2333              		.align	1
 2334              		.global	TIM_SetCompare4
ARM GAS  /var/folders/yl/_q9l42k90g1g4mdhbs226msm0000gn/T//cclSErw0.s 			page 61


 2335              		.syntax unified
 2336              		.thumb
 2337              		.thumb_func
 2339              	TIM_SetCompare4:
 2340              	.LFB147:
1092:./Library/stm32f4xx_tim.c **** 
1093:./Library/stm32f4xx_tim.c **** /**
1094:./Library/stm32f4xx_tim.c ****   * @brief  Sets the TIMx Capture Compare4 Register value
1095:./Library/stm32f4xx_tim.c ****   * @param  TIMx: where x can be 1, 2, 3, 4, 5 or 8 to select the TIM peripheral.
1096:./Library/stm32f4xx_tim.c ****   * @param  Compare4: specifies the Capture Compare4 register new value.
1097:./Library/stm32f4xx_tim.c ****   * @retval None
1098:./Library/stm32f4xx_tim.c ****   */
1099:./Library/stm32f4xx_tim.c **** void TIM_SetCompare4(TIM_TypeDef* TIMx, uint32_t Compare4)
1100:./Library/stm32f4xx_tim.c **** {
 2341              		.loc 1 1100 1
 2342              		.cfi_startproc
 2343              		@ args = 0, pretend = 0, frame = 8
 2344              		@ frame_needed = 1, uses_anonymous_args = 0
 2345              		@ link register save eliminated.
 2346 0000 80B4     		push	{r7}
 2347              	.LCFI143:
 2348              		.cfi_def_cfa_offset 4
 2349              		.cfi_offset 7, -4
 2350 0002 83B0     		sub	sp, sp, #12
 2351              	.LCFI144:
 2352              		.cfi_def_cfa_offset 16
 2353 0004 00AF     		add	r7, sp, #0
 2354              	.LCFI145:
 2355              		.cfi_def_cfa_register 7
 2356 0006 7860     		str	r0, [r7, #4]
 2357 0008 3960     		str	r1, [r7]
1101:./Library/stm32f4xx_tim.c ****   /* Check the parameters */
1102:./Library/stm32f4xx_tim.c ****   assert_param(IS_TIM_LIST3_PERIPH(TIMx));
1103:./Library/stm32f4xx_tim.c **** 
1104:./Library/stm32f4xx_tim.c ****   /* Set the Capture Compare4 Register value */
1105:./Library/stm32f4xx_tim.c ****   TIMx->CCR4 = Compare4;
 2358              		.loc 1 1105 14
 2359 000a 7B68     		ldr	r3, [r7, #4]
 2360 000c 3A68     		ldr	r2, [r7]
 2361 000e 1A64     		str	r2, [r3, #64]
1106:./Library/stm32f4xx_tim.c **** }
 2362              		.loc 1 1106 1
 2363 0010 00BF     		nop
 2364 0012 0C37     		adds	r7, r7, #12
 2365              	.LCFI146:
 2366              		.cfi_def_cfa_offset 4
 2367 0014 BD46     		mov	sp, r7
 2368              	.LCFI147:
 2369              		.cfi_def_cfa_register 13
 2370              		@ sp needed
 2371 0016 5DF8047B 		ldr	r7, [sp], #4
 2372              	.LCFI148:
 2373              		.cfi_restore 7
 2374              		.cfi_def_cfa_offset 0
 2375 001a 7047     		bx	lr
 2376              		.cfi_endproc
 2377              	.LFE147:
ARM GAS  /var/folders/yl/_q9l42k90g1g4mdhbs226msm0000gn/T//cclSErw0.s 			page 62


 2379              		.section	.text.TIM_ForcedOC1Config,"ax",%progbits
 2380              		.align	1
 2381              		.global	TIM_ForcedOC1Config
 2382              		.syntax unified
 2383              		.thumb
 2384              		.thumb_func
 2386              	TIM_ForcedOC1Config:
 2387              	.LFB148:
1107:./Library/stm32f4xx_tim.c **** 
1108:./Library/stm32f4xx_tim.c **** /**
1109:./Library/stm32f4xx_tim.c ****   * @brief  Forces the TIMx output 1 waveform to active or inactive level.
1110:./Library/stm32f4xx_tim.c ****   * @param  TIMx: where x can be 1 to 14 except 6 and 7, to select the TIM peripheral.
1111:./Library/stm32f4xx_tim.c ****   * @param  TIM_ForcedAction: specifies the forced Action to be set to the output waveform.
1112:./Library/stm32f4xx_tim.c ****   *          This parameter can be one of the following values:
1113:./Library/stm32f4xx_tim.c ****   *            @arg TIM_ForcedAction_Active: Force active level on OC1REF
1114:./Library/stm32f4xx_tim.c ****   *            @arg TIM_ForcedAction_InActive: Force inactive level on OC1REF.
1115:./Library/stm32f4xx_tim.c ****   * @retval None
1116:./Library/stm32f4xx_tim.c ****   */
1117:./Library/stm32f4xx_tim.c **** void TIM_ForcedOC1Config(TIM_TypeDef* TIMx, uint16_t TIM_ForcedAction)
1118:./Library/stm32f4xx_tim.c **** {
 2388              		.loc 1 1118 1
 2389              		.cfi_startproc
 2390              		@ args = 0, pretend = 0, frame = 16
 2391              		@ frame_needed = 1, uses_anonymous_args = 0
 2392              		@ link register save eliminated.
 2393 0000 80B4     		push	{r7}
 2394              	.LCFI149:
 2395              		.cfi_def_cfa_offset 4
 2396              		.cfi_offset 7, -4
 2397 0002 85B0     		sub	sp, sp, #20
 2398              	.LCFI150:
 2399              		.cfi_def_cfa_offset 24
 2400 0004 00AF     		add	r7, sp, #0
 2401              	.LCFI151:
 2402              		.cfi_def_cfa_register 7
 2403 0006 7860     		str	r0, [r7, #4]
 2404 0008 0B46     		mov	r3, r1
 2405 000a 7B80     		strh	r3, [r7, #2]	@ movhi
1119:./Library/stm32f4xx_tim.c ****   uint16_t tmpccmr1 = 0;
 2406              		.loc 1 1119 12
 2407 000c 0023     		movs	r3, #0
 2408 000e FB81     		strh	r3, [r7, #14]	@ movhi
1120:./Library/stm32f4xx_tim.c **** 
1121:./Library/stm32f4xx_tim.c ****   /* Check the parameters */
1122:./Library/stm32f4xx_tim.c ****   assert_param(IS_TIM_LIST1_PERIPH(TIMx));
1123:./Library/stm32f4xx_tim.c ****   assert_param(IS_TIM_FORCED_ACTION(TIM_ForcedAction));
1124:./Library/stm32f4xx_tim.c ****   tmpccmr1 = TIMx->CCMR1;
 2409              		.loc 1 1124 12
 2410 0010 7B68     		ldr	r3, [r7, #4]
 2411 0012 1B8B     		ldrh	r3, [r3, #24]	@ movhi
 2412 0014 FB81     		strh	r3, [r7, #14]	@ movhi
1125:./Library/stm32f4xx_tim.c **** 
1126:./Library/stm32f4xx_tim.c ****   /* Reset the OC1M Bits */
1127:./Library/stm32f4xx_tim.c ****   tmpccmr1 &= (uint16_t)~TIM_CCMR1_OC1M;
 2413              		.loc 1 1127 12
 2414 0016 FB89     		ldrh	r3, [r7, #14]	@ movhi
 2415 0018 23F07003 		bic	r3, r3, #112
ARM GAS  /var/folders/yl/_q9l42k90g1g4mdhbs226msm0000gn/T//cclSErw0.s 			page 63


 2416 001c FB81     		strh	r3, [r7, #14]	@ movhi
1128:./Library/stm32f4xx_tim.c **** 
1129:./Library/stm32f4xx_tim.c ****   /* Configure The Forced output Mode */
1130:./Library/stm32f4xx_tim.c ****   tmpccmr1 |= TIM_ForcedAction;
 2417              		.loc 1 1130 12
 2418 001e FA89     		ldrh	r2, [r7, #14]	@ movhi
 2419 0020 7B88     		ldrh	r3, [r7, #2]	@ movhi
 2420 0022 1343     		orrs	r3, r3, r2
 2421 0024 FB81     		strh	r3, [r7, #14]	@ movhi
1131:./Library/stm32f4xx_tim.c **** 
1132:./Library/stm32f4xx_tim.c ****   /* Write to TIMx CCMR1 register */
1133:./Library/stm32f4xx_tim.c ****   TIMx->CCMR1 = tmpccmr1;
 2422              		.loc 1 1133 15
 2423 0026 7B68     		ldr	r3, [r7, #4]
 2424 0028 FA89     		ldrh	r2, [r7, #14]	@ movhi
 2425 002a 1A83     		strh	r2, [r3, #24]	@ movhi
1134:./Library/stm32f4xx_tim.c **** }
 2426              		.loc 1 1134 1
 2427 002c 00BF     		nop
 2428 002e 1437     		adds	r7, r7, #20
 2429              	.LCFI152:
 2430              		.cfi_def_cfa_offset 4
 2431 0030 BD46     		mov	sp, r7
 2432              	.LCFI153:
 2433              		.cfi_def_cfa_register 13
 2434              		@ sp needed
 2435 0032 5DF8047B 		ldr	r7, [sp], #4
 2436              	.LCFI154:
 2437              		.cfi_restore 7
 2438              		.cfi_def_cfa_offset 0
 2439 0036 7047     		bx	lr
 2440              		.cfi_endproc
 2441              	.LFE148:
 2443              		.section	.text.TIM_ForcedOC2Config,"ax",%progbits
 2444              		.align	1
 2445              		.global	TIM_ForcedOC2Config
 2446              		.syntax unified
 2447              		.thumb
 2448              		.thumb_func
 2450              	TIM_ForcedOC2Config:
 2451              	.LFB149:
1135:./Library/stm32f4xx_tim.c **** 
1136:./Library/stm32f4xx_tim.c **** /**
1137:./Library/stm32f4xx_tim.c ****   * @brief  Forces the TIMx output 2 waveform to active or inactive level.
1138:./Library/stm32f4xx_tim.c ****   * @param  TIMx: where x can be  1, 2, 3, 4, 5, 8, 9 or 12 to select the TIM 
1139:./Library/stm32f4xx_tim.c ****   *         peripheral.
1140:./Library/stm32f4xx_tim.c ****   * @param  TIM_ForcedAction: specifies the forced Action to be set to the output waveform.
1141:./Library/stm32f4xx_tim.c ****   *          This parameter can be one of the following values:
1142:./Library/stm32f4xx_tim.c ****   *            @arg TIM_ForcedAction_Active: Force active level on OC2REF
1143:./Library/stm32f4xx_tim.c ****   *            @arg TIM_ForcedAction_InActive: Force inactive level on OC2REF.
1144:./Library/stm32f4xx_tim.c ****   * @retval None
1145:./Library/stm32f4xx_tim.c ****   */
1146:./Library/stm32f4xx_tim.c **** void TIM_ForcedOC2Config(TIM_TypeDef* TIMx, uint16_t TIM_ForcedAction)
1147:./Library/stm32f4xx_tim.c **** {
 2452              		.loc 1 1147 1
 2453              		.cfi_startproc
 2454              		@ args = 0, pretend = 0, frame = 16
ARM GAS  /var/folders/yl/_q9l42k90g1g4mdhbs226msm0000gn/T//cclSErw0.s 			page 64


 2455              		@ frame_needed = 1, uses_anonymous_args = 0
 2456              		@ link register save eliminated.
 2457 0000 80B4     		push	{r7}
 2458              	.LCFI155:
 2459              		.cfi_def_cfa_offset 4
 2460              		.cfi_offset 7, -4
 2461 0002 85B0     		sub	sp, sp, #20
 2462              	.LCFI156:
 2463              		.cfi_def_cfa_offset 24
 2464 0004 00AF     		add	r7, sp, #0
 2465              	.LCFI157:
 2466              		.cfi_def_cfa_register 7
 2467 0006 7860     		str	r0, [r7, #4]
 2468 0008 0B46     		mov	r3, r1
 2469 000a 7B80     		strh	r3, [r7, #2]	@ movhi
1148:./Library/stm32f4xx_tim.c ****   uint16_t tmpccmr1 = 0;
 2470              		.loc 1 1148 12
 2471 000c 0023     		movs	r3, #0
 2472 000e FB81     		strh	r3, [r7, #14]	@ movhi
1149:./Library/stm32f4xx_tim.c **** 
1150:./Library/stm32f4xx_tim.c ****   /* Check the parameters */
1151:./Library/stm32f4xx_tim.c ****   assert_param(IS_TIM_LIST2_PERIPH(TIMx));
1152:./Library/stm32f4xx_tim.c ****   assert_param(IS_TIM_FORCED_ACTION(TIM_ForcedAction));
1153:./Library/stm32f4xx_tim.c ****   tmpccmr1 = TIMx->CCMR1;
 2473              		.loc 1 1153 12
 2474 0010 7B68     		ldr	r3, [r7, #4]
 2475 0012 1B8B     		ldrh	r3, [r3, #24]	@ movhi
 2476 0014 FB81     		strh	r3, [r7, #14]	@ movhi
1154:./Library/stm32f4xx_tim.c **** 
1155:./Library/stm32f4xx_tim.c ****   /* Reset the OC2M Bits */
1156:./Library/stm32f4xx_tim.c ****   tmpccmr1 &= (uint16_t)~TIM_CCMR1_OC2M;
 2477              		.loc 1 1156 12
 2478 0016 FB89     		ldrh	r3, [r7, #14]	@ movhi
 2479 0018 23F4E043 		bic	r3, r3, #28672
 2480 001c FB81     		strh	r3, [r7, #14]	@ movhi
1157:./Library/stm32f4xx_tim.c **** 
1158:./Library/stm32f4xx_tim.c ****   /* Configure The Forced output Mode */
1159:./Library/stm32f4xx_tim.c ****   tmpccmr1 |= (uint16_t)(TIM_ForcedAction << 8);
 2481              		.loc 1 1159 15
 2482 001e 7B88     		ldrh	r3, [r7, #2]	@ movhi
 2483 0020 1B02     		lsls	r3, r3, #8
 2484 0022 9AB2     		uxth	r2, r3
 2485              		.loc 1 1159 12
 2486 0024 FB89     		ldrh	r3, [r7, #14]	@ movhi
 2487 0026 1343     		orrs	r3, r3, r2
 2488 0028 FB81     		strh	r3, [r7, #14]	@ movhi
1160:./Library/stm32f4xx_tim.c **** 
1161:./Library/stm32f4xx_tim.c ****   /* Write to TIMx CCMR1 register */
1162:./Library/stm32f4xx_tim.c ****   TIMx->CCMR1 = tmpccmr1;
 2489              		.loc 1 1162 15
 2490 002a 7B68     		ldr	r3, [r7, #4]
 2491 002c FA89     		ldrh	r2, [r7, #14]	@ movhi
 2492 002e 1A83     		strh	r2, [r3, #24]	@ movhi
1163:./Library/stm32f4xx_tim.c **** }
 2493              		.loc 1 1163 1
 2494 0030 00BF     		nop
 2495 0032 1437     		adds	r7, r7, #20
ARM GAS  /var/folders/yl/_q9l42k90g1g4mdhbs226msm0000gn/T//cclSErw0.s 			page 65


 2496              	.LCFI158:
 2497              		.cfi_def_cfa_offset 4
 2498 0034 BD46     		mov	sp, r7
 2499              	.LCFI159:
 2500              		.cfi_def_cfa_register 13
 2501              		@ sp needed
 2502 0036 5DF8047B 		ldr	r7, [sp], #4
 2503              	.LCFI160:
 2504              		.cfi_restore 7
 2505              		.cfi_def_cfa_offset 0
 2506 003a 7047     		bx	lr
 2507              		.cfi_endproc
 2508              	.LFE149:
 2510              		.section	.text.TIM_ForcedOC3Config,"ax",%progbits
 2511              		.align	1
 2512              		.global	TIM_ForcedOC3Config
 2513              		.syntax unified
 2514              		.thumb
 2515              		.thumb_func
 2517              	TIM_ForcedOC3Config:
 2518              	.LFB150:
1164:./Library/stm32f4xx_tim.c **** 
1165:./Library/stm32f4xx_tim.c **** /**
1166:./Library/stm32f4xx_tim.c ****   * @brief  Forces the TIMx output 3 waveform to active or inactive level.
1167:./Library/stm32f4xx_tim.c ****   * @param  TIMx: where x can be  1, 2, 3, 4, 5 or 8 to select the TIM peripheral.
1168:./Library/stm32f4xx_tim.c ****   * @param  TIM_ForcedAction: specifies the forced Action to be set to the output waveform.
1169:./Library/stm32f4xx_tim.c ****   *          This parameter can be one of the following values:
1170:./Library/stm32f4xx_tim.c ****   *            @arg TIM_ForcedAction_Active: Force active level on OC3REF
1171:./Library/stm32f4xx_tim.c ****   *            @arg TIM_ForcedAction_InActive: Force inactive level on OC3REF.
1172:./Library/stm32f4xx_tim.c ****   * @retval None
1173:./Library/stm32f4xx_tim.c ****   */
1174:./Library/stm32f4xx_tim.c **** void TIM_ForcedOC3Config(TIM_TypeDef* TIMx, uint16_t TIM_ForcedAction)
1175:./Library/stm32f4xx_tim.c **** {
 2519              		.loc 1 1175 1
 2520              		.cfi_startproc
 2521              		@ args = 0, pretend = 0, frame = 16
 2522              		@ frame_needed = 1, uses_anonymous_args = 0
 2523              		@ link register save eliminated.
 2524 0000 80B4     		push	{r7}
 2525              	.LCFI161:
 2526              		.cfi_def_cfa_offset 4
 2527              		.cfi_offset 7, -4
 2528 0002 85B0     		sub	sp, sp, #20
 2529              	.LCFI162:
 2530              		.cfi_def_cfa_offset 24
 2531 0004 00AF     		add	r7, sp, #0
 2532              	.LCFI163:
 2533              		.cfi_def_cfa_register 7
 2534 0006 7860     		str	r0, [r7, #4]
 2535 0008 0B46     		mov	r3, r1
 2536 000a 7B80     		strh	r3, [r7, #2]	@ movhi
1176:./Library/stm32f4xx_tim.c ****   uint16_t tmpccmr2 = 0;
 2537              		.loc 1 1176 12
 2538 000c 0023     		movs	r3, #0
 2539 000e FB81     		strh	r3, [r7, #14]	@ movhi
1177:./Library/stm32f4xx_tim.c **** 
1178:./Library/stm32f4xx_tim.c ****   /* Check the parameters */
ARM GAS  /var/folders/yl/_q9l42k90g1g4mdhbs226msm0000gn/T//cclSErw0.s 			page 66


1179:./Library/stm32f4xx_tim.c ****   assert_param(IS_TIM_LIST3_PERIPH(TIMx));
1180:./Library/stm32f4xx_tim.c ****   assert_param(IS_TIM_FORCED_ACTION(TIM_ForcedAction));
1181:./Library/stm32f4xx_tim.c **** 
1182:./Library/stm32f4xx_tim.c ****   tmpccmr2 = TIMx->CCMR2;
 2540              		.loc 1 1182 12
 2541 0010 7B68     		ldr	r3, [r7, #4]
 2542 0012 9B8B     		ldrh	r3, [r3, #28]	@ movhi
 2543 0014 FB81     		strh	r3, [r7, #14]	@ movhi
1183:./Library/stm32f4xx_tim.c **** 
1184:./Library/stm32f4xx_tim.c ****   /* Reset the OC1M Bits */
1185:./Library/stm32f4xx_tim.c ****   tmpccmr2 &= (uint16_t)~TIM_CCMR2_OC3M;
 2544              		.loc 1 1185 12
 2545 0016 FB89     		ldrh	r3, [r7, #14]	@ movhi
 2546 0018 23F07003 		bic	r3, r3, #112
 2547 001c FB81     		strh	r3, [r7, #14]	@ movhi
1186:./Library/stm32f4xx_tim.c **** 
1187:./Library/stm32f4xx_tim.c ****   /* Configure The Forced output Mode */
1188:./Library/stm32f4xx_tim.c ****   tmpccmr2 |= TIM_ForcedAction;
 2548              		.loc 1 1188 12
 2549 001e FA89     		ldrh	r2, [r7, #14]	@ movhi
 2550 0020 7B88     		ldrh	r3, [r7, #2]	@ movhi
 2551 0022 1343     		orrs	r3, r3, r2
 2552 0024 FB81     		strh	r3, [r7, #14]	@ movhi
1189:./Library/stm32f4xx_tim.c **** 
1190:./Library/stm32f4xx_tim.c ****   /* Write to TIMx CCMR2 register */
1191:./Library/stm32f4xx_tim.c ****   TIMx->CCMR2 = tmpccmr2;
 2553              		.loc 1 1191 15
 2554 0026 7B68     		ldr	r3, [r7, #4]
 2555 0028 FA89     		ldrh	r2, [r7, #14]	@ movhi
 2556 002a 9A83     		strh	r2, [r3, #28]	@ movhi
1192:./Library/stm32f4xx_tim.c **** }
 2557              		.loc 1 1192 1
 2558 002c 00BF     		nop
 2559 002e 1437     		adds	r7, r7, #20
 2560              	.LCFI164:
 2561              		.cfi_def_cfa_offset 4
 2562 0030 BD46     		mov	sp, r7
 2563              	.LCFI165:
 2564              		.cfi_def_cfa_register 13
 2565              		@ sp needed
 2566 0032 5DF8047B 		ldr	r7, [sp], #4
 2567              	.LCFI166:
 2568              		.cfi_restore 7
 2569              		.cfi_def_cfa_offset 0
 2570 0036 7047     		bx	lr
 2571              		.cfi_endproc
 2572              	.LFE150:
 2574              		.section	.text.TIM_ForcedOC4Config,"ax",%progbits
 2575              		.align	1
 2576              		.global	TIM_ForcedOC4Config
 2577              		.syntax unified
 2578              		.thumb
 2579              		.thumb_func
 2581              	TIM_ForcedOC4Config:
 2582              	.LFB151:
1193:./Library/stm32f4xx_tim.c **** 
1194:./Library/stm32f4xx_tim.c **** /**
ARM GAS  /var/folders/yl/_q9l42k90g1g4mdhbs226msm0000gn/T//cclSErw0.s 			page 67


1195:./Library/stm32f4xx_tim.c ****   * @brief  Forces the TIMx output 4 waveform to active or inactive level.
1196:./Library/stm32f4xx_tim.c ****   * @param  TIMx: where x can be  1, 2, 3, 4, 5 or 8 to select the TIM peripheral.
1197:./Library/stm32f4xx_tim.c ****   * @param  TIM_ForcedAction: specifies the forced Action to be set to the output waveform.
1198:./Library/stm32f4xx_tim.c ****   *          This parameter can be one of the following values:
1199:./Library/stm32f4xx_tim.c ****   *            @arg TIM_ForcedAction_Active: Force active level on OC4REF
1200:./Library/stm32f4xx_tim.c ****   *            @arg TIM_ForcedAction_InActive: Force inactive level on OC4REF.
1201:./Library/stm32f4xx_tim.c ****   * @retval None
1202:./Library/stm32f4xx_tim.c ****   */
1203:./Library/stm32f4xx_tim.c **** void TIM_ForcedOC4Config(TIM_TypeDef* TIMx, uint16_t TIM_ForcedAction)
1204:./Library/stm32f4xx_tim.c **** {
 2583              		.loc 1 1204 1
 2584              		.cfi_startproc
 2585              		@ args = 0, pretend = 0, frame = 16
 2586              		@ frame_needed = 1, uses_anonymous_args = 0
 2587              		@ link register save eliminated.
 2588 0000 80B4     		push	{r7}
 2589              	.LCFI167:
 2590              		.cfi_def_cfa_offset 4
 2591              		.cfi_offset 7, -4
 2592 0002 85B0     		sub	sp, sp, #20
 2593              	.LCFI168:
 2594              		.cfi_def_cfa_offset 24
 2595 0004 00AF     		add	r7, sp, #0
 2596              	.LCFI169:
 2597              		.cfi_def_cfa_register 7
 2598 0006 7860     		str	r0, [r7, #4]
 2599 0008 0B46     		mov	r3, r1
 2600 000a 7B80     		strh	r3, [r7, #2]	@ movhi
1205:./Library/stm32f4xx_tim.c ****   uint16_t tmpccmr2 = 0;
 2601              		.loc 1 1205 12
 2602 000c 0023     		movs	r3, #0
 2603 000e FB81     		strh	r3, [r7, #14]	@ movhi
1206:./Library/stm32f4xx_tim.c **** 
1207:./Library/stm32f4xx_tim.c ****   /* Check the parameters */
1208:./Library/stm32f4xx_tim.c ****   assert_param(IS_TIM_LIST3_PERIPH(TIMx));
1209:./Library/stm32f4xx_tim.c ****   assert_param(IS_TIM_FORCED_ACTION(TIM_ForcedAction));
1210:./Library/stm32f4xx_tim.c ****   tmpccmr2 = TIMx->CCMR2;
 2604              		.loc 1 1210 12
 2605 0010 7B68     		ldr	r3, [r7, #4]
 2606 0012 9B8B     		ldrh	r3, [r3, #28]	@ movhi
 2607 0014 FB81     		strh	r3, [r7, #14]	@ movhi
1211:./Library/stm32f4xx_tim.c **** 
1212:./Library/stm32f4xx_tim.c ****   /* Reset the OC2M Bits */
1213:./Library/stm32f4xx_tim.c ****   tmpccmr2 &= (uint16_t)~TIM_CCMR2_OC4M;
 2608              		.loc 1 1213 12
 2609 0016 FB89     		ldrh	r3, [r7, #14]	@ movhi
 2610 0018 23F4E043 		bic	r3, r3, #28672
 2611 001c FB81     		strh	r3, [r7, #14]	@ movhi
1214:./Library/stm32f4xx_tim.c **** 
1215:./Library/stm32f4xx_tim.c ****   /* Configure The Forced output Mode */
1216:./Library/stm32f4xx_tim.c ****   tmpccmr2 |= (uint16_t)(TIM_ForcedAction << 8);
 2612              		.loc 1 1216 15
 2613 001e 7B88     		ldrh	r3, [r7, #2]	@ movhi
 2614 0020 1B02     		lsls	r3, r3, #8
 2615 0022 9AB2     		uxth	r2, r3
 2616              		.loc 1 1216 12
 2617 0024 FB89     		ldrh	r3, [r7, #14]	@ movhi
ARM GAS  /var/folders/yl/_q9l42k90g1g4mdhbs226msm0000gn/T//cclSErw0.s 			page 68


 2618 0026 1343     		orrs	r3, r3, r2
 2619 0028 FB81     		strh	r3, [r7, #14]	@ movhi
1217:./Library/stm32f4xx_tim.c **** 
1218:./Library/stm32f4xx_tim.c ****   /* Write to TIMx CCMR2 register */
1219:./Library/stm32f4xx_tim.c ****   TIMx->CCMR2 = tmpccmr2;
 2620              		.loc 1 1219 15
 2621 002a 7B68     		ldr	r3, [r7, #4]
 2622 002c FA89     		ldrh	r2, [r7, #14]	@ movhi
 2623 002e 9A83     		strh	r2, [r3, #28]	@ movhi
1220:./Library/stm32f4xx_tim.c **** }
 2624              		.loc 1 1220 1
 2625 0030 00BF     		nop
 2626 0032 1437     		adds	r7, r7, #20
 2627              	.LCFI170:
 2628              		.cfi_def_cfa_offset 4
 2629 0034 BD46     		mov	sp, r7
 2630              	.LCFI171:
 2631              		.cfi_def_cfa_register 13
 2632              		@ sp needed
 2633 0036 5DF8047B 		ldr	r7, [sp], #4
 2634              	.LCFI172:
 2635              		.cfi_restore 7
 2636              		.cfi_def_cfa_offset 0
 2637 003a 7047     		bx	lr
 2638              		.cfi_endproc
 2639              	.LFE151:
 2641              		.section	.text.TIM_OC1PreloadConfig,"ax",%progbits
 2642              		.align	1
 2643              		.global	TIM_OC1PreloadConfig
 2644              		.syntax unified
 2645              		.thumb
 2646              		.thumb_func
 2648              	TIM_OC1PreloadConfig:
 2649              	.LFB152:
1221:./Library/stm32f4xx_tim.c **** 
1222:./Library/stm32f4xx_tim.c **** /**
1223:./Library/stm32f4xx_tim.c ****   * @brief  Enables or disables the TIMx peripheral Preload register on CCR1.
1224:./Library/stm32f4xx_tim.c ****   * @param  TIMx: where x can be 1 to 14 except 6 and 7, to select the TIM peripheral.
1225:./Library/stm32f4xx_tim.c ****   * @param  TIM_OCPreload: new state of the TIMx peripheral Preload register
1226:./Library/stm32f4xx_tim.c ****   *          This parameter can be one of the following values:
1227:./Library/stm32f4xx_tim.c ****   *            @arg TIM_OCPreload_Enable
1228:./Library/stm32f4xx_tim.c ****   *            @arg TIM_OCPreload_Disable
1229:./Library/stm32f4xx_tim.c ****   * @retval None
1230:./Library/stm32f4xx_tim.c ****   */
1231:./Library/stm32f4xx_tim.c **** void TIM_OC1PreloadConfig(TIM_TypeDef* TIMx, uint16_t TIM_OCPreload)
1232:./Library/stm32f4xx_tim.c **** {
 2650              		.loc 1 1232 1
 2651              		.cfi_startproc
 2652              		@ args = 0, pretend = 0, frame = 16
 2653              		@ frame_needed = 1, uses_anonymous_args = 0
 2654              		@ link register save eliminated.
 2655 0000 80B4     		push	{r7}
 2656              	.LCFI173:
 2657              		.cfi_def_cfa_offset 4
 2658              		.cfi_offset 7, -4
 2659 0002 85B0     		sub	sp, sp, #20
 2660              	.LCFI174:
ARM GAS  /var/folders/yl/_q9l42k90g1g4mdhbs226msm0000gn/T//cclSErw0.s 			page 69


 2661              		.cfi_def_cfa_offset 24
 2662 0004 00AF     		add	r7, sp, #0
 2663              	.LCFI175:
 2664              		.cfi_def_cfa_register 7
 2665 0006 7860     		str	r0, [r7, #4]
 2666 0008 0B46     		mov	r3, r1
 2667 000a 7B80     		strh	r3, [r7, #2]	@ movhi
1233:./Library/stm32f4xx_tim.c ****   uint16_t tmpccmr1 = 0;
 2668              		.loc 1 1233 12
 2669 000c 0023     		movs	r3, #0
 2670 000e FB81     		strh	r3, [r7, #14]	@ movhi
1234:./Library/stm32f4xx_tim.c **** 
1235:./Library/stm32f4xx_tim.c ****   /* Check the parameters */
1236:./Library/stm32f4xx_tim.c ****   assert_param(IS_TIM_LIST1_PERIPH(TIMx));
1237:./Library/stm32f4xx_tim.c ****   assert_param(IS_TIM_OCPRELOAD_STATE(TIM_OCPreload));
1238:./Library/stm32f4xx_tim.c **** 
1239:./Library/stm32f4xx_tim.c ****   tmpccmr1 = TIMx->CCMR1;
 2671              		.loc 1 1239 12
 2672 0010 7B68     		ldr	r3, [r7, #4]
 2673 0012 1B8B     		ldrh	r3, [r3, #24]	@ movhi
 2674 0014 FB81     		strh	r3, [r7, #14]	@ movhi
1240:./Library/stm32f4xx_tim.c **** 
1241:./Library/stm32f4xx_tim.c ****   /* Reset the OC1PE Bit */
1242:./Library/stm32f4xx_tim.c ****   tmpccmr1 &= (uint16_t)(~TIM_CCMR1_OC1PE);
 2675              		.loc 1 1242 12
 2676 0016 FB89     		ldrh	r3, [r7, #14]	@ movhi
 2677 0018 23F00803 		bic	r3, r3, #8
 2678 001c FB81     		strh	r3, [r7, #14]	@ movhi
1243:./Library/stm32f4xx_tim.c **** 
1244:./Library/stm32f4xx_tim.c ****   /* Enable or Disable the Output Compare Preload feature */
1245:./Library/stm32f4xx_tim.c ****   tmpccmr1 |= TIM_OCPreload;
 2679              		.loc 1 1245 12
 2680 001e FA89     		ldrh	r2, [r7, #14]	@ movhi
 2681 0020 7B88     		ldrh	r3, [r7, #2]	@ movhi
 2682 0022 1343     		orrs	r3, r3, r2
 2683 0024 FB81     		strh	r3, [r7, #14]	@ movhi
1246:./Library/stm32f4xx_tim.c **** 
1247:./Library/stm32f4xx_tim.c ****   /* Write to TIMx CCMR1 register */
1248:./Library/stm32f4xx_tim.c ****   TIMx->CCMR1 = tmpccmr1;
 2684              		.loc 1 1248 15
 2685 0026 7B68     		ldr	r3, [r7, #4]
 2686 0028 FA89     		ldrh	r2, [r7, #14]	@ movhi
 2687 002a 1A83     		strh	r2, [r3, #24]	@ movhi
1249:./Library/stm32f4xx_tim.c **** }
 2688              		.loc 1 1249 1
 2689 002c 00BF     		nop
 2690 002e 1437     		adds	r7, r7, #20
 2691              	.LCFI176:
 2692              		.cfi_def_cfa_offset 4
 2693 0030 BD46     		mov	sp, r7
 2694              	.LCFI177:
 2695              		.cfi_def_cfa_register 13
 2696              		@ sp needed
 2697 0032 5DF8047B 		ldr	r7, [sp], #4
 2698              	.LCFI178:
 2699              		.cfi_restore 7
 2700              		.cfi_def_cfa_offset 0
ARM GAS  /var/folders/yl/_q9l42k90g1g4mdhbs226msm0000gn/T//cclSErw0.s 			page 70


 2701 0036 7047     		bx	lr
 2702              		.cfi_endproc
 2703              	.LFE152:
 2705              		.section	.text.TIM_OC2PreloadConfig,"ax",%progbits
 2706              		.align	1
 2707              		.global	TIM_OC2PreloadConfig
 2708              		.syntax unified
 2709              		.thumb
 2710              		.thumb_func
 2712              	TIM_OC2PreloadConfig:
 2713              	.LFB153:
1250:./Library/stm32f4xx_tim.c **** 
1251:./Library/stm32f4xx_tim.c **** /**
1252:./Library/stm32f4xx_tim.c ****   * @brief  Enables or disables the TIMx peripheral Preload register on CCR2.
1253:./Library/stm32f4xx_tim.c ****   * @param  TIMx: where x can be  1, 2, 3, 4, 5, 8, 9 or 12 to select the TIM 
1254:./Library/stm32f4xx_tim.c ****   *         peripheral.
1255:./Library/stm32f4xx_tim.c ****   * @param  TIM_OCPreload: new state of the TIMx peripheral Preload register
1256:./Library/stm32f4xx_tim.c ****   *          This parameter can be one of the following values:
1257:./Library/stm32f4xx_tim.c ****   *            @arg TIM_OCPreload_Enable
1258:./Library/stm32f4xx_tim.c ****   *            @arg TIM_OCPreload_Disable
1259:./Library/stm32f4xx_tim.c ****   * @retval None
1260:./Library/stm32f4xx_tim.c ****   */
1261:./Library/stm32f4xx_tim.c **** void TIM_OC2PreloadConfig(TIM_TypeDef* TIMx, uint16_t TIM_OCPreload)
1262:./Library/stm32f4xx_tim.c **** {
 2714              		.loc 1 1262 1
 2715              		.cfi_startproc
 2716              		@ args = 0, pretend = 0, frame = 16
 2717              		@ frame_needed = 1, uses_anonymous_args = 0
 2718              		@ link register save eliminated.
 2719 0000 80B4     		push	{r7}
 2720              	.LCFI179:
 2721              		.cfi_def_cfa_offset 4
 2722              		.cfi_offset 7, -4
 2723 0002 85B0     		sub	sp, sp, #20
 2724              	.LCFI180:
 2725              		.cfi_def_cfa_offset 24
 2726 0004 00AF     		add	r7, sp, #0
 2727              	.LCFI181:
 2728              		.cfi_def_cfa_register 7
 2729 0006 7860     		str	r0, [r7, #4]
 2730 0008 0B46     		mov	r3, r1
 2731 000a 7B80     		strh	r3, [r7, #2]	@ movhi
1263:./Library/stm32f4xx_tim.c ****   uint16_t tmpccmr1 = 0;
 2732              		.loc 1 1263 12
 2733 000c 0023     		movs	r3, #0
 2734 000e FB81     		strh	r3, [r7, #14]	@ movhi
1264:./Library/stm32f4xx_tim.c **** 
1265:./Library/stm32f4xx_tim.c ****   /* Check the parameters */
1266:./Library/stm32f4xx_tim.c ****   assert_param(IS_TIM_LIST2_PERIPH(TIMx));
1267:./Library/stm32f4xx_tim.c ****   assert_param(IS_TIM_OCPRELOAD_STATE(TIM_OCPreload));
1268:./Library/stm32f4xx_tim.c **** 
1269:./Library/stm32f4xx_tim.c ****   tmpccmr1 = TIMx->CCMR1;
 2735              		.loc 1 1269 12
 2736 0010 7B68     		ldr	r3, [r7, #4]
 2737 0012 1B8B     		ldrh	r3, [r3, #24]	@ movhi
 2738 0014 FB81     		strh	r3, [r7, #14]	@ movhi
1270:./Library/stm32f4xx_tim.c **** 
ARM GAS  /var/folders/yl/_q9l42k90g1g4mdhbs226msm0000gn/T//cclSErw0.s 			page 71


1271:./Library/stm32f4xx_tim.c ****   /* Reset the OC2PE Bit */
1272:./Library/stm32f4xx_tim.c ****   tmpccmr1 &= (uint16_t)(~TIM_CCMR1_OC2PE);
 2739              		.loc 1 1272 12
 2740 0016 FB89     		ldrh	r3, [r7, #14]	@ movhi
 2741 0018 23F40063 		bic	r3, r3, #2048
 2742 001c FB81     		strh	r3, [r7, #14]	@ movhi
1273:./Library/stm32f4xx_tim.c **** 
1274:./Library/stm32f4xx_tim.c ****   /* Enable or Disable the Output Compare Preload feature */
1275:./Library/stm32f4xx_tim.c ****   tmpccmr1 |= (uint16_t)(TIM_OCPreload << 8);
 2743              		.loc 1 1275 15
 2744 001e 7B88     		ldrh	r3, [r7, #2]	@ movhi
 2745 0020 1B02     		lsls	r3, r3, #8
 2746 0022 9AB2     		uxth	r2, r3
 2747              		.loc 1 1275 12
 2748 0024 FB89     		ldrh	r3, [r7, #14]	@ movhi
 2749 0026 1343     		orrs	r3, r3, r2
 2750 0028 FB81     		strh	r3, [r7, #14]	@ movhi
1276:./Library/stm32f4xx_tim.c **** 
1277:./Library/stm32f4xx_tim.c ****   /* Write to TIMx CCMR1 register */
1278:./Library/stm32f4xx_tim.c ****   TIMx->CCMR1 = tmpccmr1;
 2751              		.loc 1 1278 15
 2752 002a 7B68     		ldr	r3, [r7, #4]
 2753 002c FA89     		ldrh	r2, [r7, #14]	@ movhi
 2754 002e 1A83     		strh	r2, [r3, #24]	@ movhi
1279:./Library/stm32f4xx_tim.c **** }
 2755              		.loc 1 1279 1
 2756 0030 00BF     		nop
 2757 0032 1437     		adds	r7, r7, #20
 2758              	.LCFI182:
 2759              		.cfi_def_cfa_offset 4
 2760 0034 BD46     		mov	sp, r7
 2761              	.LCFI183:
 2762              		.cfi_def_cfa_register 13
 2763              		@ sp needed
 2764 0036 5DF8047B 		ldr	r7, [sp], #4
 2765              	.LCFI184:
 2766              		.cfi_restore 7
 2767              		.cfi_def_cfa_offset 0
 2768 003a 7047     		bx	lr
 2769              		.cfi_endproc
 2770              	.LFE153:
 2772              		.section	.text.TIM_OC3PreloadConfig,"ax",%progbits
 2773              		.align	1
 2774              		.global	TIM_OC3PreloadConfig
 2775              		.syntax unified
 2776              		.thumb
 2777              		.thumb_func
 2779              	TIM_OC3PreloadConfig:
 2780              	.LFB154:
1280:./Library/stm32f4xx_tim.c **** 
1281:./Library/stm32f4xx_tim.c **** /**
1282:./Library/stm32f4xx_tim.c ****   * @brief  Enables or disables the TIMx peripheral Preload register on CCR3.
1283:./Library/stm32f4xx_tim.c ****   * @param  TIMx: where x can be  1, 2, 3, 4, 5 or 8 to select the TIM peripheral.
1284:./Library/stm32f4xx_tim.c ****   * @param  TIM_OCPreload: new state of the TIMx peripheral Preload register
1285:./Library/stm32f4xx_tim.c ****   *          This parameter can be one of the following values:
1286:./Library/stm32f4xx_tim.c ****   *            @arg TIM_OCPreload_Enable
1287:./Library/stm32f4xx_tim.c ****   *            @arg TIM_OCPreload_Disable
ARM GAS  /var/folders/yl/_q9l42k90g1g4mdhbs226msm0000gn/T//cclSErw0.s 			page 72


1288:./Library/stm32f4xx_tim.c ****   * @retval None
1289:./Library/stm32f4xx_tim.c ****   */
1290:./Library/stm32f4xx_tim.c **** void TIM_OC3PreloadConfig(TIM_TypeDef* TIMx, uint16_t TIM_OCPreload)
1291:./Library/stm32f4xx_tim.c **** {
 2781              		.loc 1 1291 1
 2782              		.cfi_startproc
 2783              		@ args = 0, pretend = 0, frame = 16
 2784              		@ frame_needed = 1, uses_anonymous_args = 0
 2785              		@ link register save eliminated.
 2786 0000 80B4     		push	{r7}
 2787              	.LCFI185:
 2788              		.cfi_def_cfa_offset 4
 2789              		.cfi_offset 7, -4
 2790 0002 85B0     		sub	sp, sp, #20
 2791              	.LCFI186:
 2792              		.cfi_def_cfa_offset 24
 2793 0004 00AF     		add	r7, sp, #0
 2794              	.LCFI187:
 2795              		.cfi_def_cfa_register 7
 2796 0006 7860     		str	r0, [r7, #4]
 2797 0008 0B46     		mov	r3, r1
 2798 000a 7B80     		strh	r3, [r7, #2]	@ movhi
1292:./Library/stm32f4xx_tim.c ****   uint16_t tmpccmr2 = 0;
 2799              		.loc 1 1292 12
 2800 000c 0023     		movs	r3, #0
 2801 000e FB81     		strh	r3, [r7, #14]	@ movhi
1293:./Library/stm32f4xx_tim.c **** 
1294:./Library/stm32f4xx_tim.c ****   /* Check the parameters */
1295:./Library/stm32f4xx_tim.c ****   assert_param(IS_TIM_LIST3_PERIPH(TIMx));
1296:./Library/stm32f4xx_tim.c ****   assert_param(IS_TIM_OCPRELOAD_STATE(TIM_OCPreload));
1297:./Library/stm32f4xx_tim.c **** 
1298:./Library/stm32f4xx_tim.c ****   tmpccmr2 = TIMx->CCMR2;
 2802              		.loc 1 1298 12
 2803 0010 7B68     		ldr	r3, [r7, #4]
 2804 0012 9B8B     		ldrh	r3, [r3, #28]	@ movhi
 2805 0014 FB81     		strh	r3, [r7, #14]	@ movhi
1299:./Library/stm32f4xx_tim.c **** 
1300:./Library/stm32f4xx_tim.c ****   /* Reset the OC3PE Bit */
1301:./Library/stm32f4xx_tim.c ****   tmpccmr2 &= (uint16_t)(~TIM_CCMR2_OC3PE);
 2806              		.loc 1 1301 12
 2807 0016 FB89     		ldrh	r3, [r7, #14]	@ movhi
 2808 0018 23F00803 		bic	r3, r3, #8
 2809 001c FB81     		strh	r3, [r7, #14]	@ movhi
1302:./Library/stm32f4xx_tim.c **** 
1303:./Library/stm32f4xx_tim.c ****   /* Enable or Disable the Output Compare Preload feature */
1304:./Library/stm32f4xx_tim.c ****   tmpccmr2 |= TIM_OCPreload;
 2810              		.loc 1 1304 12
 2811 001e FA89     		ldrh	r2, [r7, #14]	@ movhi
 2812 0020 7B88     		ldrh	r3, [r7, #2]	@ movhi
 2813 0022 1343     		orrs	r3, r3, r2
 2814 0024 FB81     		strh	r3, [r7, #14]	@ movhi
1305:./Library/stm32f4xx_tim.c **** 
1306:./Library/stm32f4xx_tim.c ****   /* Write to TIMx CCMR2 register */
1307:./Library/stm32f4xx_tim.c ****   TIMx->CCMR2 = tmpccmr2;
 2815              		.loc 1 1307 15
 2816 0026 7B68     		ldr	r3, [r7, #4]
 2817 0028 FA89     		ldrh	r2, [r7, #14]	@ movhi
ARM GAS  /var/folders/yl/_q9l42k90g1g4mdhbs226msm0000gn/T//cclSErw0.s 			page 73


 2818 002a 9A83     		strh	r2, [r3, #28]	@ movhi
1308:./Library/stm32f4xx_tim.c **** }
 2819              		.loc 1 1308 1
 2820 002c 00BF     		nop
 2821 002e 1437     		adds	r7, r7, #20
 2822              	.LCFI188:
 2823              		.cfi_def_cfa_offset 4
 2824 0030 BD46     		mov	sp, r7
 2825              	.LCFI189:
 2826              		.cfi_def_cfa_register 13
 2827              		@ sp needed
 2828 0032 5DF8047B 		ldr	r7, [sp], #4
 2829              	.LCFI190:
 2830              		.cfi_restore 7
 2831              		.cfi_def_cfa_offset 0
 2832 0036 7047     		bx	lr
 2833              		.cfi_endproc
 2834              	.LFE154:
 2836              		.section	.text.TIM_OC4PreloadConfig,"ax",%progbits
 2837              		.align	1
 2838              		.global	TIM_OC4PreloadConfig
 2839              		.syntax unified
 2840              		.thumb
 2841              		.thumb_func
 2843              	TIM_OC4PreloadConfig:
 2844              	.LFB155:
1309:./Library/stm32f4xx_tim.c **** 
1310:./Library/stm32f4xx_tim.c **** /**
1311:./Library/stm32f4xx_tim.c ****   * @brief  Enables or disables the TIMx peripheral Preload register on CCR4.
1312:./Library/stm32f4xx_tim.c ****   * @param  TIMx: where x can be  1, 2, 3, 4, 5 or 8 to select the TIM peripheral.
1313:./Library/stm32f4xx_tim.c ****   * @param  TIM_OCPreload: new state of the TIMx peripheral Preload register
1314:./Library/stm32f4xx_tim.c ****   *          This parameter can be one of the following values:
1315:./Library/stm32f4xx_tim.c ****   *            @arg TIM_OCPreload_Enable
1316:./Library/stm32f4xx_tim.c ****   *            @arg TIM_OCPreload_Disable
1317:./Library/stm32f4xx_tim.c ****   * @retval None
1318:./Library/stm32f4xx_tim.c ****   */
1319:./Library/stm32f4xx_tim.c **** void TIM_OC4PreloadConfig(TIM_TypeDef* TIMx, uint16_t TIM_OCPreload)
1320:./Library/stm32f4xx_tim.c **** {
 2845              		.loc 1 1320 1
 2846              		.cfi_startproc
 2847              		@ args = 0, pretend = 0, frame = 16
 2848              		@ frame_needed = 1, uses_anonymous_args = 0
 2849              		@ link register save eliminated.
 2850 0000 80B4     		push	{r7}
 2851              	.LCFI191:
 2852              		.cfi_def_cfa_offset 4
 2853              		.cfi_offset 7, -4
 2854 0002 85B0     		sub	sp, sp, #20
 2855              	.LCFI192:
 2856              		.cfi_def_cfa_offset 24
 2857 0004 00AF     		add	r7, sp, #0
 2858              	.LCFI193:
 2859              		.cfi_def_cfa_register 7
 2860 0006 7860     		str	r0, [r7, #4]
 2861 0008 0B46     		mov	r3, r1
 2862 000a 7B80     		strh	r3, [r7, #2]	@ movhi
1321:./Library/stm32f4xx_tim.c ****   uint16_t tmpccmr2 = 0;
ARM GAS  /var/folders/yl/_q9l42k90g1g4mdhbs226msm0000gn/T//cclSErw0.s 			page 74


 2863              		.loc 1 1321 12
 2864 000c 0023     		movs	r3, #0
 2865 000e FB81     		strh	r3, [r7, #14]	@ movhi
1322:./Library/stm32f4xx_tim.c **** 
1323:./Library/stm32f4xx_tim.c ****   /* Check the parameters */
1324:./Library/stm32f4xx_tim.c ****   assert_param(IS_TIM_LIST3_PERIPH(TIMx));
1325:./Library/stm32f4xx_tim.c ****   assert_param(IS_TIM_OCPRELOAD_STATE(TIM_OCPreload));
1326:./Library/stm32f4xx_tim.c **** 
1327:./Library/stm32f4xx_tim.c ****   tmpccmr2 = TIMx->CCMR2;
 2866              		.loc 1 1327 12
 2867 0010 7B68     		ldr	r3, [r7, #4]
 2868 0012 9B8B     		ldrh	r3, [r3, #28]	@ movhi
 2869 0014 FB81     		strh	r3, [r7, #14]	@ movhi
1328:./Library/stm32f4xx_tim.c **** 
1329:./Library/stm32f4xx_tim.c ****   /* Reset the OC4PE Bit */
1330:./Library/stm32f4xx_tim.c ****   tmpccmr2 &= (uint16_t)(~TIM_CCMR2_OC4PE);
 2870              		.loc 1 1330 12
 2871 0016 FB89     		ldrh	r3, [r7, #14]	@ movhi
 2872 0018 23F40063 		bic	r3, r3, #2048
 2873 001c FB81     		strh	r3, [r7, #14]	@ movhi
1331:./Library/stm32f4xx_tim.c **** 
1332:./Library/stm32f4xx_tim.c ****   /* Enable or Disable the Output Compare Preload feature */
1333:./Library/stm32f4xx_tim.c ****   tmpccmr2 |= (uint16_t)(TIM_OCPreload << 8);
 2874              		.loc 1 1333 15
 2875 001e 7B88     		ldrh	r3, [r7, #2]	@ movhi
 2876 0020 1B02     		lsls	r3, r3, #8
 2877 0022 9AB2     		uxth	r2, r3
 2878              		.loc 1 1333 12
 2879 0024 FB89     		ldrh	r3, [r7, #14]	@ movhi
 2880 0026 1343     		orrs	r3, r3, r2
 2881 0028 FB81     		strh	r3, [r7, #14]	@ movhi
1334:./Library/stm32f4xx_tim.c **** 
1335:./Library/stm32f4xx_tim.c ****   /* Write to TIMx CCMR2 register */
1336:./Library/stm32f4xx_tim.c ****   TIMx->CCMR2 = tmpccmr2;
 2882              		.loc 1 1336 15
 2883 002a 7B68     		ldr	r3, [r7, #4]
 2884 002c FA89     		ldrh	r2, [r7, #14]	@ movhi
 2885 002e 9A83     		strh	r2, [r3, #28]	@ movhi
1337:./Library/stm32f4xx_tim.c **** }
 2886              		.loc 1 1337 1
 2887 0030 00BF     		nop
 2888 0032 1437     		adds	r7, r7, #20
 2889              	.LCFI194:
 2890              		.cfi_def_cfa_offset 4
 2891 0034 BD46     		mov	sp, r7
 2892              	.LCFI195:
 2893              		.cfi_def_cfa_register 13
 2894              		@ sp needed
 2895 0036 5DF8047B 		ldr	r7, [sp], #4
 2896              	.LCFI196:
 2897              		.cfi_restore 7
 2898              		.cfi_def_cfa_offset 0
 2899 003a 7047     		bx	lr
 2900              		.cfi_endproc
 2901              	.LFE155:
 2903              		.section	.text.TIM_OC1FastConfig,"ax",%progbits
 2904              		.align	1
ARM GAS  /var/folders/yl/_q9l42k90g1g4mdhbs226msm0000gn/T//cclSErw0.s 			page 75


 2905              		.global	TIM_OC1FastConfig
 2906              		.syntax unified
 2907              		.thumb
 2908              		.thumb_func
 2910              	TIM_OC1FastConfig:
 2911              	.LFB156:
1338:./Library/stm32f4xx_tim.c **** 
1339:./Library/stm32f4xx_tim.c **** /**
1340:./Library/stm32f4xx_tim.c ****   * @brief  Configures the TIMx Output Compare 1 Fast feature.
1341:./Library/stm32f4xx_tim.c ****   * @param  TIMx: where x can be 1 to 14 except 6 and 7, to select the TIM peripheral.
1342:./Library/stm32f4xx_tim.c ****   * @param  TIM_OCFast: new state of the Output Compare Fast Enable Bit.
1343:./Library/stm32f4xx_tim.c ****   *          This parameter can be one of the following values:
1344:./Library/stm32f4xx_tim.c ****   *            @arg TIM_OCFast_Enable: TIM output compare fast enable
1345:./Library/stm32f4xx_tim.c ****   *            @arg TIM_OCFast_Disable: TIM output compare fast disable
1346:./Library/stm32f4xx_tim.c ****   * @retval None
1347:./Library/stm32f4xx_tim.c ****   */
1348:./Library/stm32f4xx_tim.c **** void TIM_OC1FastConfig(TIM_TypeDef* TIMx, uint16_t TIM_OCFast)
1349:./Library/stm32f4xx_tim.c **** {
 2912              		.loc 1 1349 1
 2913              		.cfi_startproc
 2914              		@ args = 0, pretend = 0, frame = 16
 2915              		@ frame_needed = 1, uses_anonymous_args = 0
 2916              		@ link register save eliminated.
 2917 0000 80B4     		push	{r7}
 2918              	.LCFI197:
 2919              		.cfi_def_cfa_offset 4
 2920              		.cfi_offset 7, -4
 2921 0002 85B0     		sub	sp, sp, #20
 2922              	.LCFI198:
 2923              		.cfi_def_cfa_offset 24
 2924 0004 00AF     		add	r7, sp, #0
 2925              	.LCFI199:
 2926              		.cfi_def_cfa_register 7
 2927 0006 7860     		str	r0, [r7, #4]
 2928 0008 0B46     		mov	r3, r1
 2929 000a 7B80     		strh	r3, [r7, #2]	@ movhi
1350:./Library/stm32f4xx_tim.c ****   uint16_t tmpccmr1 = 0;
 2930              		.loc 1 1350 12
 2931 000c 0023     		movs	r3, #0
 2932 000e FB81     		strh	r3, [r7, #14]	@ movhi
1351:./Library/stm32f4xx_tim.c **** 
1352:./Library/stm32f4xx_tim.c ****   /* Check the parameters */
1353:./Library/stm32f4xx_tim.c ****   assert_param(IS_TIM_LIST1_PERIPH(TIMx));
1354:./Library/stm32f4xx_tim.c ****   assert_param(IS_TIM_OCFAST_STATE(TIM_OCFast));
1355:./Library/stm32f4xx_tim.c **** 
1356:./Library/stm32f4xx_tim.c ****   /* Get the TIMx CCMR1 register value */
1357:./Library/stm32f4xx_tim.c ****   tmpccmr1 = TIMx->CCMR1;
 2933              		.loc 1 1357 12
 2934 0010 7B68     		ldr	r3, [r7, #4]
 2935 0012 1B8B     		ldrh	r3, [r3, #24]	@ movhi
 2936 0014 FB81     		strh	r3, [r7, #14]	@ movhi
1358:./Library/stm32f4xx_tim.c **** 
1359:./Library/stm32f4xx_tim.c ****   /* Reset the OC1FE Bit */
1360:./Library/stm32f4xx_tim.c ****   tmpccmr1 &= (uint16_t)~TIM_CCMR1_OC1FE;
 2937              		.loc 1 1360 12
 2938 0016 FB89     		ldrh	r3, [r7, #14]	@ movhi
 2939 0018 23F00403 		bic	r3, r3, #4
ARM GAS  /var/folders/yl/_q9l42k90g1g4mdhbs226msm0000gn/T//cclSErw0.s 			page 76


 2940 001c FB81     		strh	r3, [r7, #14]	@ movhi
1361:./Library/stm32f4xx_tim.c **** 
1362:./Library/stm32f4xx_tim.c ****   /* Enable or Disable the Output Compare Fast Bit */
1363:./Library/stm32f4xx_tim.c ****   tmpccmr1 |= TIM_OCFast;
 2941              		.loc 1 1363 12
 2942 001e FA89     		ldrh	r2, [r7, #14]	@ movhi
 2943 0020 7B88     		ldrh	r3, [r7, #2]	@ movhi
 2944 0022 1343     		orrs	r3, r3, r2
 2945 0024 FB81     		strh	r3, [r7, #14]	@ movhi
1364:./Library/stm32f4xx_tim.c **** 
1365:./Library/stm32f4xx_tim.c ****   /* Write to TIMx CCMR1 */
1366:./Library/stm32f4xx_tim.c ****   TIMx->CCMR1 = tmpccmr1;
 2946              		.loc 1 1366 15
 2947 0026 7B68     		ldr	r3, [r7, #4]
 2948 0028 FA89     		ldrh	r2, [r7, #14]	@ movhi
 2949 002a 1A83     		strh	r2, [r3, #24]	@ movhi
1367:./Library/stm32f4xx_tim.c **** }
 2950              		.loc 1 1367 1
 2951 002c 00BF     		nop
 2952 002e 1437     		adds	r7, r7, #20
 2953              	.LCFI200:
 2954              		.cfi_def_cfa_offset 4
 2955 0030 BD46     		mov	sp, r7
 2956              	.LCFI201:
 2957              		.cfi_def_cfa_register 13
 2958              		@ sp needed
 2959 0032 5DF8047B 		ldr	r7, [sp], #4
 2960              	.LCFI202:
 2961              		.cfi_restore 7
 2962              		.cfi_def_cfa_offset 0
 2963 0036 7047     		bx	lr
 2964              		.cfi_endproc
 2965              	.LFE156:
 2967              		.section	.text.TIM_OC2FastConfig,"ax",%progbits
 2968              		.align	1
 2969              		.global	TIM_OC2FastConfig
 2970              		.syntax unified
 2971              		.thumb
 2972              		.thumb_func
 2974              	TIM_OC2FastConfig:
 2975              	.LFB157:
1368:./Library/stm32f4xx_tim.c **** 
1369:./Library/stm32f4xx_tim.c **** /**
1370:./Library/stm32f4xx_tim.c ****   * @brief  Configures the TIMx Output Compare 2 Fast feature.
1371:./Library/stm32f4xx_tim.c ****   * @param  TIMx: where x can be  1, 2, 3, 4, 5, 8, 9 or 12 to select the TIM 
1372:./Library/stm32f4xx_tim.c ****   *         peripheral.
1373:./Library/stm32f4xx_tim.c ****   * @param  TIM_OCFast: new state of the Output Compare Fast Enable Bit.
1374:./Library/stm32f4xx_tim.c ****   *          This parameter can be one of the following values:
1375:./Library/stm32f4xx_tim.c ****   *            @arg TIM_OCFast_Enable: TIM output compare fast enable
1376:./Library/stm32f4xx_tim.c ****   *            @arg TIM_OCFast_Disable: TIM output compare fast disable
1377:./Library/stm32f4xx_tim.c ****   * @retval None
1378:./Library/stm32f4xx_tim.c ****   */
1379:./Library/stm32f4xx_tim.c **** void TIM_OC2FastConfig(TIM_TypeDef* TIMx, uint16_t TIM_OCFast)
1380:./Library/stm32f4xx_tim.c **** {
 2976              		.loc 1 1380 1
 2977              		.cfi_startproc
 2978              		@ args = 0, pretend = 0, frame = 16
ARM GAS  /var/folders/yl/_q9l42k90g1g4mdhbs226msm0000gn/T//cclSErw0.s 			page 77


 2979              		@ frame_needed = 1, uses_anonymous_args = 0
 2980              		@ link register save eliminated.
 2981 0000 80B4     		push	{r7}
 2982              	.LCFI203:
 2983              		.cfi_def_cfa_offset 4
 2984              		.cfi_offset 7, -4
 2985 0002 85B0     		sub	sp, sp, #20
 2986              	.LCFI204:
 2987              		.cfi_def_cfa_offset 24
 2988 0004 00AF     		add	r7, sp, #0
 2989              	.LCFI205:
 2990              		.cfi_def_cfa_register 7
 2991 0006 7860     		str	r0, [r7, #4]
 2992 0008 0B46     		mov	r3, r1
 2993 000a 7B80     		strh	r3, [r7, #2]	@ movhi
1381:./Library/stm32f4xx_tim.c ****   uint16_t tmpccmr1 = 0;
 2994              		.loc 1 1381 12
 2995 000c 0023     		movs	r3, #0
 2996 000e FB81     		strh	r3, [r7, #14]	@ movhi
1382:./Library/stm32f4xx_tim.c **** 
1383:./Library/stm32f4xx_tim.c ****   /* Check the parameters */
1384:./Library/stm32f4xx_tim.c ****   assert_param(IS_TIM_LIST2_PERIPH(TIMx));
1385:./Library/stm32f4xx_tim.c ****   assert_param(IS_TIM_OCFAST_STATE(TIM_OCFast));
1386:./Library/stm32f4xx_tim.c **** 
1387:./Library/stm32f4xx_tim.c ****   /* Get the TIMx CCMR1 register value */
1388:./Library/stm32f4xx_tim.c ****   tmpccmr1 = TIMx->CCMR1;
 2997              		.loc 1 1388 12
 2998 0010 7B68     		ldr	r3, [r7, #4]
 2999 0012 1B8B     		ldrh	r3, [r3, #24]	@ movhi
 3000 0014 FB81     		strh	r3, [r7, #14]	@ movhi
1389:./Library/stm32f4xx_tim.c **** 
1390:./Library/stm32f4xx_tim.c ****   /* Reset the OC2FE Bit */
1391:./Library/stm32f4xx_tim.c ****   tmpccmr1 &= (uint16_t)(~TIM_CCMR1_OC2FE);
 3001              		.loc 1 1391 12
 3002 0016 FB89     		ldrh	r3, [r7, #14]	@ movhi
 3003 0018 23F48063 		bic	r3, r3, #1024
 3004 001c FB81     		strh	r3, [r7, #14]	@ movhi
1392:./Library/stm32f4xx_tim.c **** 
1393:./Library/stm32f4xx_tim.c ****   /* Enable or Disable the Output Compare Fast Bit */
1394:./Library/stm32f4xx_tim.c ****   tmpccmr1 |= (uint16_t)(TIM_OCFast << 8);
 3005              		.loc 1 1394 15
 3006 001e 7B88     		ldrh	r3, [r7, #2]	@ movhi
 3007 0020 1B02     		lsls	r3, r3, #8
 3008 0022 9AB2     		uxth	r2, r3
 3009              		.loc 1 1394 12
 3010 0024 FB89     		ldrh	r3, [r7, #14]	@ movhi
 3011 0026 1343     		orrs	r3, r3, r2
 3012 0028 FB81     		strh	r3, [r7, #14]	@ movhi
1395:./Library/stm32f4xx_tim.c **** 
1396:./Library/stm32f4xx_tim.c ****   /* Write to TIMx CCMR1 */
1397:./Library/stm32f4xx_tim.c ****   TIMx->CCMR1 = tmpccmr1;
 3013              		.loc 1 1397 15
 3014 002a 7B68     		ldr	r3, [r7, #4]
 3015 002c FA89     		ldrh	r2, [r7, #14]	@ movhi
 3016 002e 1A83     		strh	r2, [r3, #24]	@ movhi
1398:./Library/stm32f4xx_tim.c **** }
 3017              		.loc 1 1398 1
ARM GAS  /var/folders/yl/_q9l42k90g1g4mdhbs226msm0000gn/T//cclSErw0.s 			page 78


 3018 0030 00BF     		nop
 3019 0032 1437     		adds	r7, r7, #20
 3020              	.LCFI206:
 3021              		.cfi_def_cfa_offset 4
 3022 0034 BD46     		mov	sp, r7
 3023              	.LCFI207:
 3024              		.cfi_def_cfa_register 13
 3025              		@ sp needed
 3026 0036 5DF8047B 		ldr	r7, [sp], #4
 3027              	.LCFI208:
 3028              		.cfi_restore 7
 3029              		.cfi_def_cfa_offset 0
 3030 003a 7047     		bx	lr
 3031              		.cfi_endproc
 3032              	.LFE157:
 3034              		.section	.text.TIM_OC3FastConfig,"ax",%progbits
 3035              		.align	1
 3036              		.global	TIM_OC3FastConfig
 3037              		.syntax unified
 3038              		.thumb
 3039              		.thumb_func
 3041              	TIM_OC3FastConfig:
 3042              	.LFB158:
1399:./Library/stm32f4xx_tim.c **** 
1400:./Library/stm32f4xx_tim.c **** /**
1401:./Library/stm32f4xx_tim.c ****   * @brief  Configures the TIMx Output Compare 3 Fast feature.
1402:./Library/stm32f4xx_tim.c ****   * @param  TIMx: where x can be  1, 2, 3, 4, 5 or 8 to select the TIM peripheral.
1403:./Library/stm32f4xx_tim.c ****   * @param  TIM_OCFast: new state of the Output Compare Fast Enable Bit.
1404:./Library/stm32f4xx_tim.c ****   *          This parameter can be one of the following values:
1405:./Library/stm32f4xx_tim.c ****   *            @arg TIM_OCFast_Enable: TIM output compare fast enable
1406:./Library/stm32f4xx_tim.c ****   *            @arg TIM_OCFast_Disable: TIM output compare fast disable
1407:./Library/stm32f4xx_tim.c ****   * @retval None
1408:./Library/stm32f4xx_tim.c ****   */
1409:./Library/stm32f4xx_tim.c **** void TIM_OC3FastConfig(TIM_TypeDef* TIMx, uint16_t TIM_OCFast)
1410:./Library/stm32f4xx_tim.c **** {
 3043              		.loc 1 1410 1
 3044              		.cfi_startproc
 3045              		@ args = 0, pretend = 0, frame = 16
 3046              		@ frame_needed = 1, uses_anonymous_args = 0
 3047              		@ link register save eliminated.
 3048 0000 80B4     		push	{r7}
 3049              	.LCFI209:
 3050              		.cfi_def_cfa_offset 4
 3051              		.cfi_offset 7, -4
 3052 0002 85B0     		sub	sp, sp, #20
 3053              	.LCFI210:
 3054              		.cfi_def_cfa_offset 24
 3055 0004 00AF     		add	r7, sp, #0
 3056              	.LCFI211:
 3057              		.cfi_def_cfa_register 7
 3058 0006 7860     		str	r0, [r7, #4]
 3059 0008 0B46     		mov	r3, r1
 3060 000a 7B80     		strh	r3, [r7, #2]	@ movhi
1411:./Library/stm32f4xx_tim.c ****   uint16_t tmpccmr2 = 0;
 3061              		.loc 1 1411 12
 3062 000c 0023     		movs	r3, #0
 3063 000e FB81     		strh	r3, [r7, #14]	@ movhi
ARM GAS  /var/folders/yl/_q9l42k90g1g4mdhbs226msm0000gn/T//cclSErw0.s 			page 79


1412:./Library/stm32f4xx_tim.c ****   
1413:./Library/stm32f4xx_tim.c ****   /* Check the parameters */
1414:./Library/stm32f4xx_tim.c ****   assert_param(IS_TIM_LIST3_PERIPH(TIMx));
1415:./Library/stm32f4xx_tim.c ****   assert_param(IS_TIM_OCFAST_STATE(TIM_OCFast));
1416:./Library/stm32f4xx_tim.c **** 
1417:./Library/stm32f4xx_tim.c ****   /* Get the TIMx CCMR2 register value */
1418:./Library/stm32f4xx_tim.c ****   tmpccmr2 = TIMx->CCMR2;
 3064              		.loc 1 1418 12
 3065 0010 7B68     		ldr	r3, [r7, #4]
 3066 0012 9B8B     		ldrh	r3, [r3, #28]	@ movhi
 3067 0014 FB81     		strh	r3, [r7, #14]	@ movhi
1419:./Library/stm32f4xx_tim.c **** 
1420:./Library/stm32f4xx_tim.c ****   /* Reset the OC3FE Bit */
1421:./Library/stm32f4xx_tim.c ****   tmpccmr2 &= (uint16_t)~TIM_CCMR2_OC3FE;
 3068              		.loc 1 1421 12
 3069 0016 FB89     		ldrh	r3, [r7, #14]	@ movhi
 3070 0018 23F00403 		bic	r3, r3, #4
 3071 001c FB81     		strh	r3, [r7, #14]	@ movhi
1422:./Library/stm32f4xx_tim.c **** 
1423:./Library/stm32f4xx_tim.c ****   /* Enable or Disable the Output Compare Fast Bit */
1424:./Library/stm32f4xx_tim.c ****   tmpccmr2 |= TIM_OCFast;
 3072              		.loc 1 1424 12
 3073 001e FA89     		ldrh	r2, [r7, #14]	@ movhi
 3074 0020 7B88     		ldrh	r3, [r7, #2]	@ movhi
 3075 0022 1343     		orrs	r3, r3, r2
 3076 0024 FB81     		strh	r3, [r7, #14]	@ movhi
1425:./Library/stm32f4xx_tim.c **** 
1426:./Library/stm32f4xx_tim.c ****   /* Write to TIMx CCMR2 */
1427:./Library/stm32f4xx_tim.c ****   TIMx->CCMR2 = tmpccmr2;
 3077              		.loc 1 1427 15
 3078 0026 7B68     		ldr	r3, [r7, #4]
 3079 0028 FA89     		ldrh	r2, [r7, #14]	@ movhi
 3080 002a 9A83     		strh	r2, [r3, #28]	@ movhi
1428:./Library/stm32f4xx_tim.c **** }
 3081              		.loc 1 1428 1
 3082 002c 00BF     		nop
 3083 002e 1437     		adds	r7, r7, #20
 3084              	.LCFI212:
 3085              		.cfi_def_cfa_offset 4
 3086 0030 BD46     		mov	sp, r7
 3087              	.LCFI213:
 3088              		.cfi_def_cfa_register 13
 3089              		@ sp needed
 3090 0032 5DF8047B 		ldr	r7, [sp], #4
 3091              	.LCFI214:
 3092              		.cfi_restore 7
 3093              		.cfi_def_cfa_offset 0
 3094 0036 7047     		bx	lr
 3095              		.cfi_endproc
 3096              	.LFE158:
 3098              		.section	.text.TIM_OC4FastConfig,"ax",%progbits
 3099              		.align	1
 3100              		.global	TIM_OC4FastConfig
 3101              		.syntax unified
 3102              		.thumb
 3103              		.thumb_func
 3105              	TIM_OC4FastConfig:
ARM GAS  /var/folders/yl/_q9l42k90g1g4mdhbs226msm0000gn/T//cclSErw0.s 			page 80


 3106              	.LFB159:
1429:./Library/stm32f4xx_tim.c **** 
1430:./Library/stm32f4xx_tim.c **** /**
1431:./Library/stm32f4xx_tim.c ****   * @brief  Configures the TIMx Output Compare 4 Fast feature.
1432:./Library/stm32f4xx_tim.c ****   * @param  TIMx: where x can be  1, 2, 3, 4, 5 or 8 to select the TIM peripheral.
1433:./Library/stm32f4xx_tim.c ****   * @param  TIM_OCFast: new state of the Output Compare Fast Enable Bit.
1434:./Library/stm32f4xx_tim.c ****   *          This parameter can be one of the following values:
1435:./Library/stm32f4xx_tim.c ****   *            @arg TIM_OCFast_Enable: TIM output compare fast enable
1436:./Library/stm32f4xx_tim.c ****   *            @arg TIM_OCFast_Disable: TIM output compare fast disable
1437:./Library/stm32f4xx_tim.c ****   * @retval None
1438:./Library/stm32f4xx_tim.c ****   */
1439:./Library/stm32f4xx_tim.c **** void TIM_OC4FastConfig(TIM_TypeDef* TIMx, uint16_t TIM_OCFast)
1440:./Library/stm32f4xx_tim.c **** {
 3107              		.loc 1 1440 1
 3108              		.cfi_startproc
 3109              		@ args = 0, pretend = 0, frame = 16
 3110              		@ frame_needed = 1, uses_anonymous_args = 0
 3111              		@ link register save eliminated.
 3112 0000 80B4     		push	{r7}
 3113              	.LCFI215:
 3114              		.cfi_def_cfa_offset 4
 3115              		.cfi_offset 7, -4
 3116 0002 85B0     		sub	sp, sp, #20
 3117              	.LCFI216:
 3118              		.cfi_def_cfa_offset 24
 3119 0004 00AF     		add	r7, sp, #0
 3120              	.LCFI217:
 3121              		.cfi_def_cfa_register 7
 3122 0006 7860     		str	r0, [r7, #4]
 3123 0008 0B46     		mov	r3, r1
 3124 000a 7B80     		strh	r3, [r7, #2]	@ movhi
1441:./Library/stm32f4xx_tim.c ****   uint16_t tmpccmr2 = 0;
 3125              		.loc 1 1441 12
 3126 000c 0023     		movs	r3, #0
 3127 000e FB81     		strh	r3, [r7, #14]	@ movhi
1442:./Library/stm32f4xx_tim.c **** 
1443:./Library/stm32f4xx_tim.c ****   /* Check the parameters */
1444:./Library/stm32f4xx_tim.c ****   assert_param(IS_TIM_LIST3_PERIPH(TIMx));
1445:./Library/stm32f4xx_tim.c ****   assert_param(IS_TIM_OCFAST_STATE(TIM_OCFast));
1446:./Library/stm32f4xx_tim.c **** 
1447:./Library/stm32f4xx_tim.c ****   /* Get the TIMx CCMR2 register value */
1448:./Library/stm32f4xx_tim.c ****   tmpccmr2 = TIMx->CCMR2;
 3128              		.loc 1 1448 12
 3129 0010 7B68     		ldr	r3, [r7, #4]
 3130 0012 9B8B     		ldrh	r3, [r3, #28]	@ movhi
 3131 0014 FB81     		strh	r3, [r7, #14]	@ movhi
1449:./Library/stm32f4xx_tim.c **** 
1450:./Library/stm32f4xx_tim.c ****   /* Reset the OC4FE Bit */
1451:./Library/stm32f4xx_tim.c ****   tmpccmr2 &= (uint16_t)(~TIM_CCMR2_OC4FE);
 3132              		.loc 1 1451 12
 3133 0016 FB89     		ldrh	r3, [r7, #14]	@ movhi
 3134 0018 23F48063 		bic	r3, r3, #1024
 3135 001c FB81     		strh	r3, [r7, #14]	@ movhi
1452:./Library/stm32f4xx_tim.c **** 
1453:./Library/stm32f4xx_tim.c ****   /* Enable or Disable the Output Compare Fast Bit */
1454:./Library/stm32f4xx_tim.c ****   tmpccmr2 |= (uint16_t)(TIM_OCFast << 8);
 3136              		.loc 1 1454 15
ARM GAS  /var/folders/yl/_q9l42k90g1g4mdhbs226msm0000gn/T//cclSErw0.s 			page 81


 3137 001e 7B88     		ldrh	r3, [r7, #2]	@ movhi
 3138 0020 1B02     		lsls	r3, r3, #8
 3139 0022 9AB2     		uxth	r2, r3
 3140              		.loc 1 1454 12
 3141 0024 FB89     		ldrh	r3, [r7, #14]	@ movhi
 3142 0026 1343     		orrs	r3, r3, r2
 3143 0028 FB81     		strh	r3, [r7, #14]	@ movhi
1455:./Library/stm32f4xx_tim.c **** 
1456:./Library/stm32f4xx_tim.c ****   /* Write to TIMx CCMR2 */
1457:./Library/stm32f4xx_tim.c ****   TIMx->CCMR2 = tmpccmr2;
 3144              		.loc 1 1457 15
 3145 002a 7B68     		ldr	r3, [r7, #4]
 3146 002c FA89     		ldrh	r2, [r7, #14]	@ movhi
 3147 002e 9A83     		strh	r2, [r3, #28]	@ movhi
1458:./Library/stm32f4xx_tim.c **** }
 3148              		.loc 1 1458 1
 3149 0030 00BF     		nop
 3150 0032 1437     		adds	r7, r7, #20
 3151              	.LCFI218:
 3152              		.cfi_def_cfa_offset 4
 3153 0034 BD46     		mov	sp, r7
 3154              	.LCFI219:
 3155              		.cfi_def_cfa_register 13
 3156              		@ sp needed
 3157 0036 5DF8047B 		ldr	r7, [sp], #4
 3158              	.LCFI220:
 3159              		.cfi_restore 7
 3160              		.cfi_def_cfa_offset 0
 3161 003a 7047     		bx	lr
 3162              		.cfi_endproc
 3163              	.LFE159:
 3165              		.section	.text.TIM_ClearOC1Ref,"ax",%progbits
 3166              		.align	1
 3167              		.global	TIM_ClearOC1Ref
 3168              		.syntax unified
 3169              		.thumb
 3170              		.thumb_func
 3172              	TIM_ClearOC1Ref:
 3173              	.LFB160:
1459:./Library/stm32f4xx_tim.c **** 
1460:./Library/stm32f4xx_tim.c **** /**
1461:./Library/stm32f4xx_tim.c ****   * @brief  Clears or safeguards the OCREF1 signal on an external event
1462:./Library/stm32f4xx_tim.c ****   * @param  TIMx: where x can be 1 to 14 except 6 and 7, to select the TIM peripheral.
1463:./Library/stm32f4xx_tim.c ****   * @param  TIM_OCClear: new state of the Output Compare Clear Enable Bit.
1464:./Library/stm32f4xx_tim.c ****   *          This parameter can be one of the following values:
1465:./Library/stm32f4xx_tim.c ****   *            @arg TIM_OCClear_Enable: TIM Output clear enable
1466:./Library/stm32f4xx_tim.c ****   *            @arg TIM_OCClear_Disable: TIM Output clear disable
1467:./Library/stm32f4xx_tim.c ****   * @retval None
1468:./Library/stm32f4xx_tim.c ****   */
1469:./Library/stm32f4xx_tim.c **** void TIM_ClearOC1Ref(TIM_TypeDef* TIMx, uint16_t TIM_OCClear)
1470:./Library/stm32f4xx_tim.c **** {
 3174              		.loc 1 1470 1
 3175              		.cfi_startproc
 3176              		@ args = 0, pretend = 0, frame = 16
 3177              		@ frame_needed = 1, uses_anonymous_args = 0
 3178              		@ link register save eliminated.
 3179 0000 80B4     		push	{r7}
ARM GAS  /var/folders/yl/_q9l42k90g1g4mdhbs226msm0000gn/T//cclSErw0.s 			page 82


 3180              	.LCFI221:
 3181              		.cfi_def_cfa_offset 4
 3182              		.cfi_offset 7, -4
 3183 0002 85B0     		sub	sp, sp, #20
 3184              	.LCFI222:
 3185              		.cfi_def_cfa_offset 24
 3186 0004 00AF     		add	r7, sp, #0
 3187              	.LCFI223:
 3188              		.cfi_def_cfa_register 7
 3189 0006 7860     		str	r0, [r7, #4]
 3190 0008 0B46     		mov	r3, r1
 3191 000a 7B80     		strh	r3, [r7, #2]	@ movhi
1471:./Library/stm32f4xx_tim.c ****   uint16_t tmpccmr1 = 0;
 3192              		.loc 1 1471 12
 3193 000c 0023     		movs	r3, #0
 3194 000e FB81     		strh	r3, [r7, #14]	@ movhi
1472:./Library/stm32f4xx_tim.c **** 
1473:./Library/stm32f4xx_tim.c ****   /* Check the parameters */
1474:./Library/stm32f4xx_tim.c ****   assert_param(IS_TIM_LIST1_PERIPH(TIMx));
1475:./Library/stm32f4xx_tim.c ****   assert_param(IS_TIM_OCCLEAR_STATE(TIM_OCClear));
1476:./Library/stm32f4xx_tim.c **** 
1477:./Library/stm32f4xx_tim.c ****   tmpccmr1 = TIMx->CCMR1;
 3195              		.loc 1 1477 12
 3196 0010 7B68     		ldr	r3, [r7, #4]
 3197 0012 1B8B     		ldrh	r3, [r3, #24]	@ movhi
 3198 0014 FB81     		strh	r3, [r7, #14]	@ movhi
1478:./Library/stm32f4xx_tim.c **** 
1479:./Library/stm32f4xx_tim.c ****   /* Reset the OC1CE Bit */
1480:./Library/stm32f4xx_tim.c ****   tmpccmr1 &= (uint16_t)~TIM_CCMR1_OC1CE;
 3199              		.loc 1 1480 12
 3200 0016 FB89     		ldrh	r3, [r7, #14]	@ movhi
 3201 0018 23F08003 		bic	r3, r3, #128
 3202 001c FB81     		strh	r3, [r7, #14]	@ movhi
1481:./Library/stm32f4xx_tim.c **** 
1482:./Library/stm32f4xx_tim.c ****   /* Enable or Disable the Output Compare Clear Bit */
1483:./Library/stm32f4xx_tim.c ****   tmpccmr1 |= TIM_OCClear;
 3203              		.loc 1 1483 12
 3204 001e FA89     		ldrh	r2, [r7, #14]	@ movhi
 3205 0020 7B88     		ldrh	r3, [r7, #2]	@ movhi
 3206 0022 1343     		orrs	r3, r3, r2
 3207 0024 FB81     		strh	r3, [r7, #14]	@ movhi
1484:./Library/stm32f4xx_tim.c **** 
1485:./Library/stm32f4xx_tim.c ****   /* Write to TIMx CCMR1 register */
1486:./Library/stm32f4xx_tim.c ****   TIMx->CCMR1 = tmpccmr1;
 3208              		.loc 1 1486 15
 3209 0026 7B68     		ldr	r3, [r7, #4]
 3210 0028 FA89     		ldrh	r2, [r7, #14]	@ movhi
 3211 002a 1A83     		strh	r2, [r3, #24]	@ movhi
1487:./Library/stm32f4xx_tim.c **** }
 3212              		.loc 1 1487 1
 3213 002c 00BF     		nop
 3214 002e 1437     		adds	r7, r7, #20
 3215              	.LCFI224:
 3216              		.cfi_def_cfa_offset 4
 3217 0030 BD46     		mov	sp, r7
 3218              	.LCFI225:
 3219              		.cfi_def_cfa_register 13
ARM GAS  /var/folders/yl/_q9l42k90g1g4mdhbs226msm0000gn/T//cclSErw0.s 			page 83


 3220              		@ sp needed
 3221 0032 5DF8047B 		ldr	r7, [sp], #4
 3222              	.LCFI226:
 3223              		.cfi_restore 7
 3224              		.cfi_def_cfa_offset 0
 3225 0036 7047     		bx	lr
 3226              		.cfi_endproc
 3227              	.LFE160:
 3229              		.section	.text.TIM_ClearOC2Ref,"ax",%progbits
 3230              		.align	1
 3231              		.global	TIM_ClearOC2Ref
 3232              		.syntax unified
 3233              		.thumb
 3234              		.thumb_func
 3236              	TIM_ClearOC2Ref:
 3237              	.LFB161:
1488:./Library/stm32f4xx_tim.c **** 
1489:./Library/stm32f4xx_tim.c **** /**
1490:./Library/stm32f4xx_tim.c ****   * @brief  Clears or safeguards the OCREF2 signal on an external event
1491:./Library/stm32f4xx_tim.c ****   * @param  TIMx: where x can be  1, 2, 3, 4, 5, 8, 9 or 12 to select the TIM 
1492:./Library/stm32f4xx_tim.c ****   *         peripheral.
1493:./Library/stm32f4xx_tim.c ****   * @param  TIM_OCClear: new state of the Output Compare Clear Enable Bit.
1494:./Library/stm32f4xx_tim.c ****   *          This parameter can be one of the following values:
1495:./Library/stm32f4xx_tim.c ****   *            @arg TIM_OCClear_Enable: TIM Output clear enable
1496:./Library/stm32f4xx_tim.c ****   *            @arg TIM_OCClear_Disable: TIM Output clear disable
1497:./Library/stm32f4xx_tim.c ****   * @retval None
1498:./Library/stm32f4xx_tim.c ****   */
1499:./Library/stm32f4xx_tim.c **** void TIM_ClearOC2Ref(TIM_TypeDef* TIMx, uint16_t TIM_OCClear)
1500:./Library/stm32f4xx_tim.c **** {
 3238              		.loc 1 1500 1
 3239              		.cfi_startproc
 3240              		@ args = 0, pretend = 0, frame = 16
 3241              		@ frame_needed = 1, uses_anonymous_args = 0
 3242              		@ link register save eliminated.
 3243 0000 80B4     		push	{r7}
 3244              	.LCFI227:
 3245              		.cfi_def_cfa_offset 4
 3246              		.cfi_offset 7, -4
 3247 0002 85B0     		sub	sp, sp, #20
 3248              	.LCFI228:
 3249              		.cfi_def_cfa_offset 24
 3250 0004 00AF     		add	r7, sp, #0
 3251              	.LCFI229:
 3252              		.cfi_def_cfa_register 7
 3253 0006 7860     		str	r0, [r7, #4]
 3254 0008 0B46     		mov	r3, r1
 3255 000a 7B80     		strh	r3, [r7, #2]	@ movhi
1501:./Library/stm32f4xx_tim.c ****   uint16_t tmpccmr1 = 0;
 3256              		.loc 1 1501 12
 3257 000c 0023     		movs	r3, #0
 3258 000e FB81     		strh	r3, [r7, #14]	@ movhi
1502:./Library/stm32f4xx_tim.c **** 
1503:./Library/stm32f4xx_tim.c ****   /* Check the parameters */
1504:./Library/stm32f4xx_tim.c ****   assert_param(IS_TIM_LIST2_PERIPH(TIMx));
1505:./Library/stm32f4xx_tim.c ****   assert_param(IS_TIM_OCCLEAR_STATE(TIM_OCClear));
1506:./Library/stm32f4xx_tim.c **** 
1507:./Library/stm32f4xx_tim.c ****   tmpccmr1 = TIMx->CCMR1;
ARM GAS  /var/folders/yl/_q9l42k90g1g4mdhbs226msm0000gn/T//cclSErw0.s 			page 84


 3259              		.loc 1 1507 12
 3260 0010 7B68     		ldr	r3, [r7, #4]
 3261 0012 1B8B     		ldrh	r3, [r3, #24]	@ movhi
 3262 0014 FB81     		strh	r3, [r7, #14]	@ movhi
1508:./Library/stm32f4xx_tim.c **** 
1509:./Library/stm32f4xx_tim.c ****   /* Reset the OC2CE Bit */
1510:./Library/stm32f4xx_tim.c ****   tmpccmr1 &= (uint16_t)~TIM_CCMR1_OC2CE;
 3263              		.loc 1 1510 12
 3264 0016 FB89     		ldrh	r3, [r7, #14]	@ movhi
 3265 0018 C3F30E03 		ubfx	r3, r3, #0, #15
 3266 001c FB81     		strh	r3, [r7, #14]	@ movhi
1511:./Library/stm32f4xx_tim.c **** 
1512:./Library/stm32f4xx_tim.c ****   /* Enable or Disable the Output Compare Clear Bit */
1513:./Library/stm32f4xx_tim.c ****   tmpccmr1 |= (uint16_t)(TIM_OCClear << 8);
 3267              		.loc 1 1513 15
 3268 001e 7B88     		ldrh	r3, [r7, #2]	@ movhi
 3269 0020 1B02     		lsls	r3, r3, #8
 3270 0022 9AB2     		uxth	r2, r3
 3271              		.loc 1 1513 12
 3272 0024 FB89     		ldrh	r3, [r7, #14]	@ movhi
 3273 0026 1343     		orrs	r3, r3, r2
 3274 0028 FB81     		strh	r3, [r7, #14]	@ movhi
1514:./Library/stm32f4xx_tim.c **** 
1515:./Library/stm32f4xx_tim.c ****   /* Write to TIMx CCMR1 register */
1516:./Library/stm32f4xx_tim.c ****   TIMx->CCMR1 = tmpccmr1;
 3275              		.loc 1 1516 15
 3276 002a 7B68     		ldr	r3, [r7, #4]
 3277 002c FA89     		ldrh	r2, [r7, #14]	@ movhi
 3278 002e 1A83     		strh	r2, [r3, #24]	@ movhi
1517:./Library/stm32f4xx_tim.c **** }
 3279              		.loc 1 1517 1
 3280 0030 00BF     		nop
 3281 0032 1437     		adds	r7, r7, #20
 3282              	.LCFI230:
 3283              		.cfi_def_cfa_offset 4
 3284 0034 BD46     		mov	sp, r7
 3285              	.LCFI231:
 3286              		.cfi_def_cfa_register 13
 3287              		@ sp needed
 3288 0036 5DF8047B 		ldr	r7, [sp], #4
 3289              	.LCFI232:
 3290              		.cfi_restore 7
 3291              		.cfi_def_cfa_offset 0
 3292 003a 7047     		bx	lr
 3293              		.cfi_endproc
 3294              	.LFE161:
 3296              		.section	.text.TIM_ClearOC3Ref,"ax",%progbits
 3297              		.align	1
 3298              		.global	TIM_ClearOC3Ref
 3299              		.syntax unified
 3300              		.thumb
 3301              		.thumb_func
 3303              	TIM_ClearOC3Ref:
 3304              	.LFB162:
1518:./Library/stm32f4xx_tim.c **** 
1519:./Library/stm32f4xx_tim.c **** /**
1520:./Library/stm32f4xx_tim.c ****   * @brief  Clears or safeguards the OCREF3 signal on an external event
ARM GAS  /var/folders/yl/_q9l42k90g1g4mdhbs226msm0000gn/T//cclSErw0.s 			page 85


1521:./Library/stm32f4xx_tim.c ****   * @param  TIMx: where x can be  1, 2, 3, 4, 5 or 8 to select the TIM peripheral.
1522:./Library/stm32f4xx_tim.c ****   * @param  TIM_OCClear: new state of the Output Compare Clear Enable Bit.
1523:./Library/stm32f4xx_tim.c ****   *          This parameter can be one of the following values:
1524:./Library/stm32f4xx_tim.c ****   *            @arg TIM_OCClear_Enable: TIM Output clear enable
1525:./Library/stm32f4xx_tim.c ****   *            @arg TIM_OCClear_Disable: TIM Output clear disable
1526:./Library/stm32f4xx_tim.c ****   * @retval None
1527:./Library/stm32f4xx_tim.c ****   */
1528:./Library/stm32f4xx_tim.c **** void TIM_ClearOC3Ref(TIM_TypeDef* TIMx, uint16_t TIM_OCClear)
1529:./Library/stm32f4xx_tim.c **** {
 3305              		.loc 1 1529 1
 3306              		.cfi_startproc
 3307              		@ args = 0, pretend = 0, frame = 16
 3308              		@ frame_needed = 1, uses_anonymous_args = 0
 3309              		@ link register save eliminated.
 3310 0000 80B4     		push	{r7}
 3311              	.LCFI233:
 3312              		.cfi_def_cfa_offset 4
 3313              		.cfi_offset 7, -4
 3314 0002 85B0     		sub	sp, sp, #20
 3315              	.LCFI234:
 3316              		.cfi_def_cfa_offset 24
 3317 0004 00AF     		add	r7, sp, #0
 3318              	.LCFI235:
 3319              		.cfi_def_cfa_register 7
 3320 0006 7860     		str	r0, [r7, #4]
 3321 0008 0B46     		mov	r3, r1
 3322 000a 7B80     		strh	r3, [r7, #2]	@ movhi
1530:./Library/stm32f4xx_tim.c ****   uint16_t tmpccmr2 = 0;
 3323              		.loc 1 1530 12
 3324 000c 0023     		movs	r3, #0
 3325 000e FB81     		strh	r3, [r7, #14]	@ movhi
1531:./Library/stm32f4xx_tim.c **** 
1532:./Library/stm32f4xx_tim.c ****   /* Check the parameters */
1533:./Library/stm32f4xx_tim.c ****   assert_param(IS_TIM_LIST3_PERIPH(TIMx));
1534:./Library/stm32f4xx_tim.c ****   assert_param(IS_TIM_OCCLEAR_STATE(TIM_OCClear));
1535:./Library/stm32f4xx_tim.c **** 
1536:./Library/stm32f4xx_tim.c ****   tmpccmr2 = TIMx->CCMR2;
 3326              		.loc 1 1536 12
 3327 0010 7B68     		ldr	r3, [r7, #4]
 3328 0012 9B8B     		ldrh	r3, [r3, #28]	@ movhi
 3329 0014 FB81     		strh	r3, [r7, #14]	@ movhi
1537:./Library/stm32f4xx_tim.c **** 
1538:./Library/stm32f4xx_tim.c ****   /* Reset the OC3CE Bit */
1539:./Library/stm32f4xx_tim.c ****   tmpccmr2 &= (uint16_t)~TIM_CCMR2_OC3CE;
 3330              		.loc 1 1539 12
 3331 0016 FB89     		ldrh	r3, [r7, #14]	@ movhi
 3332 0018 23F08003 		bic	r3, r3, #128
 3333 001c FB81     		strh	r3, [r7, #14]	@ movhi
1540:./Library/stm32f4xx_tim.c **** 
1541:./Library/stm32f4xx_tim.c ****   /* Enable or Disable the Output Compare Clear Bit */
1542:./Library/stm32f4xx_tim.c ****   tmpccmr2 |= TIM_OCClear;
 3334              		.loc 1 1542 12
 3335 001e FA89     		ldrh	r2, [r7, #14]	@ movhi
 3336 0020 7B88     		ldrh	r3, [r7, #2]	@ movhi
 3337 0022 1343     		orrs	r3, r3, r2
 3338 0024 FB81     		strh	r3, [r7, #14]	@ movhi
1543:./Library/stm32f4xx_tim.c **** 
ARM GAS  /var/folders/yl/_q9l42k90g1g4mdhbs226msm0000gn/T//cclSErw0.s 			page 86


1544:./Library/stm32f4xx_tim.c ****   /* Write to TIMx CCMR2 register */
1545:./Library/stm32f4xx_tim.c ****   TIMx->CCMR2 = tmpccmr2;
 3339              		.loc 1 1545 15
 3340 0026 7B68     		ldr	r3, [r7, #4]
 3341 0028 FA89     		ldrh	r2, [r7, #14]	@ movhi
 3342 002a 9A83     		strh	r2, [r3, #28]	@ movhi
1546:./Library/stm32f4xx_tim.c **** }
 3343              		.loc 1 1546 1
 3344 002c 00BF     		nop
 3345 002e 1437     		adds	r7, r7, #20
 3346              	.LCFI236:
 3347              		.cfi_def_cfa_offset 4
 3348 0030 BD46     		mov	sp, r7
 3349              	.LCFI237:
 3350              		.cfi_def_cfa_register 13
 3351              		@ sp needed
 3352 0032 5DF8047B 		ldr	r7, [sp], #4
 3353              	.LCFI238:
 3354              		.cfi_restore 7
 3355              		.cfi_def_cfa_offset 0
 3356 0036 7047     		bx	lr
 3357              		.cfi_endproc
 3358              	.LFE162:
 3360              		.section	.text.TIM_ClearOC4Ref,"ax",%progbits
 3361              		.align	1
 3362              		.global	TIM_ClearOC4Ref
 3363              		.syntax unified
 3364              		.thumb
 3365              		.thumb_func
 3367              	TIM_ClearOC4Ref:
 3368              	.LFB163:
1547:./Library/stm32f4xx_tim.c **** 
1548:./Library/stm32f4xx_tim.c **** /**
1549:./Library/stm32f4xx_tim.c ****   * @brief  Clears or safeguards the OCREF4 signal on an external event
1550:./Library/stm32f4xx_tim.c ****   * @param  TIMx: where x can be  1, 2, 3, 4, 5 or 8 to select the TIM peripheral.
1551:./Library/stm32f4xx_tim.c ****   * @param  TIM_OCClear: new state of the Output Compare Clear Enable Bit.
1552:./Library/stm32f4xx_tim.c ****   *          This parameter can be one of the following values:
1553:./Library/stm32f4xx_tim.c ****   *            @arg TIM_OCClear_Enable: TIM Output clear enable
1554:./Library/stm32f4xx_tim.c ****   *            @arg TIM_OCClear_Disable: TIM Output clear disable
1555:./Library/stm32f4xx_tim.c ****   * @retval None
1556:./Library/stm32f4xx_tim.c ****   */
1557:./Library/stm32f4xx_tim.c **** void TIM_ClearOC4Ref(TIM_TypeDef* TIMx, uint16_t TIM_OCClear)
1558:./Library/stm32f4xx_tim.c **** {
 3369              		.loc 1 1558 1
 3370              		.cfi_startproc
 3371              		@ args = 0, pretend = 0, frame = 16
 3372              		@ frame_needed = 1, uses_anonymous_args = 0
 3373              		@ link register save eliminated.
 3374 0000 80B4     		push	{r7}
 3375              	.LCFI239:
 3376              		.cfi_def_cfa_offset 4
 3377              		.cfi_offset 7, -4
 3378 0002 85B0     		sub	sp, sp, #20
 3379              	.LCFI240:
 3380              		.cfi_def_cfa_offset 24
 3381 0004 00AF     		add	r7, sp, #0
 3382              	.LCFI241:
ARM GAS  /var/folders/yl/_q9l42k90g1g4mdhbs226msm0000gn/T//cclSErw0.s 			page 87


 3383              		.cfi_def_cfa_register 7
 3384 0006 7860     		str	r0, [r7, #4]
 3385 0008 0B46     		mov	r3, r1
 3386 000a 7B80     		strh	r3, [r7, #2]	@ movhi
1559:./Library/stm32f4xx_tim.c ****   uint16_t tmpccmr2 = 0;
 3387              		.loc 1 1559 12
 3388 000c 0023     		movs	r3, #0
 3389 000e FB81     		strh	r3, [r7, #14]	@ movhi
1560:./Library/stm32f4xx_tim.c **** 
1561:./Library/stm32f4xx_tim.c ****   /* Check the parameters */
1562:./Library/stm32f4xx_tim.c ****   assert_param(IS_TIM_LIST3_PERIPH(TIMx));
1563:./Library/stm32f4xx_tim.c ****   assert_param(IS_TIM_OCCLEAR_STATE(TIM_OCClear));
1564:./Library/stm32f4xx_tim.c **** 
1565:./Library/stm32f4xx_tim.c ****   tmpccmr2 = TIMx->CCMR2;
 3390              		.loc 1 1565 12
 3391 0010 7B68     		ldr	r3, [r7, #4]
 3392 0012 9B8B     		ldrh	r3, [r3, #28]	@ movhi
 3393 0014 FB81     		strh	r3, [r7, #14]	@ movhi
1566:./Library/stm32f4xx_tim.c **** 
1567:./Library/stm32f4xx_tim.c ****   /* Reset the OC4CE Bit */
1568:./Library/stm32f4xx_tim.c ****   tmpccmr2 &= (uint16_t)~TIM_CCMR2_OC4CE;
 3394              		.loc 1 1568 12
 3395 0016 FB89     		ldrh	r3, [r7, #14]	@ movhi
 3396 0018 C3F30E03 		ubfx	r3, r3, #0, #15
 3397 001c FB81     		strh	r3, [r7, #14]	@ movhi
1569:./Library/stm32f4xx_tim.c **** 
1570:./Library/stm32f4xx_tim.c ****   /* Enable or Disable the Output Compare Clear Bit */
1571:./Library/stm32f4xx_tim.c ****   tmpccmr2 |= (uint16_t)(TIM_OCClear << 8);
 3398              		.loc 1 1571 15
 3399 001e 7B88     		ldrh	r3, [r7, #2]	@ movhi
 3400 0020 1B02     		lsls	r3, r3, #8
 3401 0022 9AB2     		uxth	r2, r3
 3402              		.loc 1 1571 12
 3403 0024 FB89     		ldrh	r3, [r7, #14]	@ movhi
 3404 0026 1343     		orrs	r3, r3, r2
 3405 0028 FB81     		strh	r3, [r7, #14]	@ movhi
1572:./Library/stm32f4xx_tim.c **** 
1573:./Library/stm32f4xx_tim.c ****   /* Write to TIMx CCMR2 register */
1574:./Library/stm32f4xx_tim.c ****   TIMx->CCMR2 = tmpccmr2;
 3406              		.loc 1 1574 15
 3407 002a 7B68     		ldr	r3, [r7, #4]
 3408 002c FA89     		ldrh	r2, [r7, #14]	@ movhi
 3409 002e 9A83     		strh	r2, [r3, #28]	@ movhi
1575:./Library/stm32f4xx_tim.c **** }
 3410              		.loc 1 1575 1
 3411 0030 00BF     		nop
 3412 0032 1437     		adds	r7, r7, #20
 3413              	.LCFI242:
 3414              		.cfi_def_cfa_offset 4
 3415 0034 BD46     		mov	sp, r7
 3416              	.LCFI243:
 3417              		.cfi_def_cfa_register 13
 3418              		@ sp needed
 3419 0036 5DF8047B 		ldr	r7, [sp], #4
 3420              	.LCFI244:
 3421              		.cfi_restore 7
 3422              		.cfi_def_cfa_offset 0
ARM GAS  /var/folders/yl/_q9l42k90g1g4mdhbs226msm0000gn/T//cclSErw0.s 			page 88


 3423 003a 7047     		bx	lr
 3424              		.cfi_endproc
 3425              	.LFE163:
 3427              		.section	.text.TIM_OC1PolarityConfig,"ax",%progbits
 3428              		.align	1
 3429              		.global	TIM_OC1PolarityConfig
 3430              		.syntax unified
 3431              		.thumb
 3432              		.thumb_func
 3434              	TIM_OC1PolarityConfig:
 3435              	.LFB164:
1576:./Library/stm32f4xx_tim.c **** 
1577:./Library/stm32f4xx_tim.c **** /**
1578:./Library/stm32f4xx_tim.c ****   * @brief  Configures the TIMx channel 1 polarity.
1579:./Library/stm32f4xx_tim.c ****   * @param  TIMx: where x can be 1 to 14 except 6 and 7, to select the TIM peripheral.
1580:./Library/stm32f4xx_tim.c ****   * @param  TIM_OCPolarity: specifies the OC1 Polarity
1581:./Library/stm32f4xx_tim.c ****   *          This parameter can be one of the following values:
1582:./Library/stm32f4xx_tim.c ****   *            @arg TIM_OCPolarity_High: Output Compare active high
1583:./Library/stm32f4xx_tim.c ****   *            @arg TIM_OCPolarity_Low: Output Compare active low
1584:./Library/stm32f4xx_tim.c ****   * @retval None
1585:./Library/stm32f4xx_tim.c ****   */
1586:./Library/stm32f4xx_tim.c **** void TIM_OC1PolarityConfig(TIM_TypeDef* TIMx, uint16_t TIM_OCPolarity)
1587:./Library/stm32f4xx_tim.c **** {
 3436              		.loc 1 1587 1
 3437              		.cfi_startproc
 3438              		@ args = 0, pretend = 0, frame = 16
 3439              		@ frame_needed = 1, uses_anonymous_args = 0
 3440              		@ link register save eliminated.
 3441 0000 80B4     		push	{r7}
