ARM GAS  /var/folders/yl/_q9l42k90g1g4mdhbs226msm0000gn/T//cc48f3PC.s 			page 1


   1              		.cpu cortex-m4
   2              		.arch armv7e-m
   3              		.fpu fpv4-sp-d16
   4              		.eabi_attribute 27, 1
   5              		.eabi_attribute 28, 1
   6              		.eabi_attribute 20, 1
   7              		.eabi_attribute 21, 1
   8              		.eabi_attribute 23, 3
   9              		.eabi_attribute 24, 1
  10              		.eabi_attribute 25, 1
  11              		.eabi_attribute 26, 1
  12              		.eabi_attribute 30, 6
  13              		.eabi_attribute 34, 1
  14              		.eabi_attribute 18, 4
  15              		.file	"stm32f4xx_sai.c"
  16              		.text
  17              	.Ltext0:
  18              		.cfi_sections	.debug_frame
  19              		.section	.text.SAI_DeInit,"ax",%progbits
  20              		.align	1
  21              		.global	SAI_DeInit
  22              		.syntax unified
  23              		.thumb
  24              		.thumb_func
  26              	SAI_DeInit:
  27              	.LFB123:
  28              		.file 1 "./Library/stm32f4xx_sai.c"
   1:./Library/stm32f4xx_sai.c **** /**
   2:./Library/stm32f4xx_sai.c ****   ******************************************************************************
   3:./Library/stm32f4xx_sai.c ****   * @file    stm32f4xx_sai.c
   4:./Library/stm32f4xx_sai.c ****   * @author  MCD Application Team
   5:./Library/stm32f4xx_sai.c ****   * @version V1.8.1
   6:./Library/stm32f4xx_sai.c ****   * @date    27-January-2022  
   7:./Library/stm32f4xx_sai.c ****   * @brief   This file provides firmware functions to manage the following 
   8:./Library/stm32f4xx_sai.c ****   *          functionalities of the Serial Audio Interface (SAI):
   9:./Library/stm32f4xx_sai.c ****   *           + Initialization and Configuration
  10:./Library/stm32f4xx_sai.c ****   *           + Data transfers functions
  11:./Library/stm32f4xx_sai.c ****   *           + DMA transfers management
  12:./Library/stm32f4xx_sai.c ****   *           + Interrupts and flags management 
  13:./Library/stm32f4xx_sai.c ****   *           
  14:./Library/stm32f4xx_sai.c ****   @verbatim
  15:./Library/stm32f4xx_sai.c ****  ===============================================================================
  16:./Library/stm32f4xx_sai.c ****                      ##### How to use this driver #####
  17:./Library/stm32f4xx_sai.c ****  ===============================================================================
  18:./Library/stm32f4xx_sai.c ****     [..] 
  19:./Library/stm32f4xx_sai.c ****     
  20:./Library/stm32f4xx_sai.c ****        (#) Enable peripheral clock using the following functions 
  21:./Library/stm32f4xx_sai.c ****            RCC_APB2PeriphClockCmd(RCC_APB2Periph_SAI1, ENABLE) for SAI1
  22:./Library/stm32f4xx_sai.c ****   
  23:./Library/stm32f4xx_sai.c ****        (#) For each SAI Block A/B enable SCK, SD, FS and MCLK GPIO clocks 
  24:./Library/stm32f4xx_sai.c ****            using RCC_AHB1PeriphClockCmd() function.
  25:./Library/stm32f4xx_sai.c ****   
  26:./Library/stm32f4xx_sai.c ****        (#) Peripherals alternate function: 
  27:./Library/stm32f4xx_sai.c ****            (++) Connect the pin to the desired peripherals' Alternate 
  28:./Library/stm32f4xx_sai.c ****                 Function (AF) using GPIO_PinAFConfig() function.
  29:./Library/stm32f4xx_sai.c ****            (++) Configure the desired pin in alternate function by:
  30:./Library/stm32f4xx_sai.c ****                 GPIO_InitStruct->GPIO_Mode = GPIO_Mode_AF
ARM GAS  /var/folders/yl/_q9l42k90g1g4mdhbs226msm0000gn/T//cc48f3PC.s 			page 2


  31:./Library/stm32f4xx_sai.c ****            (++) Select the type, pull-up/pull-down and output speed via 
  32:./Library/stm32f4xx_sai.c ****                 GPIO_PuPd, GPIO_OType and GPIO_Speed members
  33:./Library/stm32f4xx_sai.c ****            (++) Call GPIO_Init() function
  34:./Library/stm32f4xx_sai.c ****            -@@- If an external clock source is used then the I2S CKIN pin should be 
  35:./Library/stm32f4xx_sai.c ****                also configured in Alternate function Push-pull pull-up mode.
  36:./Library/stm32f4xx_sai.c ****                 
  37:./Library/stm32f4xx_sai.c ****       (#) The SAI clock can be generated from different clock source :
  38:./Library/stm32f4xx_sai.c ****           PLL I2S, PLL SAI or external clock source.
  39:./Library/stm32f4xx_sai.c ****           (++) The PLL I2S is configured using the following functions RCC_PLLI2SConfig(), 
  40:./Library/stm32f4xx_sai.c ****                RCC_PLLI2SCmd(ENABLE), RCC_GetFlagStatus(RCC_FLAG_PLLI2SRDY) and 
  41:./Library/stm32f4xx_sai.c ****                RCC_SAIPLLI2SClkDivConfig() or;
  42:./Library/stm32f4xx_sai.c ****               
  43:./Library/stm32f4xx_sai.c ****           (++) The PLL SAI is configured using the following functions RCC_PLLSAIConfig(), 
  44:./Library/stm32f4xx_sai.c ****                RCC_PLLSAICmd(ENABLE), RCC_GetFlagStatus(RCC_FLAG_PLLSAIRDY) and 
  45:./Library/stm32f4xx_sai.c ****                RCC_SAIPLLSAIClkDivConfig()or;          
  46:./Library/stm32f4xx_sai.c ****               
  47:./Library/stm32f4xx_sai.c ****           (++) External clock source is configured using the function 
  48:./Library/stm32f4xx_sai.c ****                RCC_I2SCLKConfig(RCC_I2S2CLKSource_Ext) and after setting correctly the 
  49:./Library/stm32f4xx_sai.c ****                define constant I2S_EXTERNAL_CLOCK_VAL in the stm32f4xx_conf.h file.      
  50:./Library/stm32f4xx_sai.c ****                 
  51:./Library/stm32f4xx_sai.c ****       (#) Each SAI Block A or B has its own clock generator to make these two blocks 
  52:./Library/stm32f4xx_sai.c ****           completely independent. The Clock generator is configured using RCC_SAIBlockACLKConfig() 
  53:./Library/stm32f4xx_sai.c ****           RCC_SAIBlockBCLKConfig() functions.
  54:./Library/stm32f4xx_sai.c ****                   
  55:./Library/stm32f4xx_sai.c ****       (#) Each SAI Block A or B can be configured separately : 
  56:./Library/stm32f4xx_sai.c ****           (++) Program the Master clock divider, Audio mode, Protocol, Data Length, Clock Strobing 
  57:./Library/stm32f4xx_sai.c ****                Synchronous mode, Output drive and FIFO Thresold using SAI_Init() function.   
  58:./Library/stm32f4xx_sai.c ****                In case of master mode, program the Master clock divider (MCKDIV) using 
  59:./Library/stm32f4xx_sai.c ****                the following formula :  
  60:./Library/stm32f4xx_sai.c ****                (+++) MCLK_x = SAI_CK_x / (MCKDIV * 2) with MCLK_x = 256 * FS
  61:./Library/stm32f4xx_sai.c ****                (+++) FS = SAI_CK_x / (MCKDIV * 2) * 256
  62:./Library/stm32f4xx_sai.c ****                (+++) MCKDIV = SAI_CK_x / FS * 512
  63:./Library/stm32f4xx_sai.c ****          (++) Program the Frame Length, Frame active Length, FS Definition, FS Polarity, 
  64:./Library/stm32f4xx_sai.c ****               FS Offset using SAI_FrameInit() function.    
  65:./Library/stm32f4xx_sai.c ****          (++) Program the Slot First Bit Offset, Slot Size, Slot Number, Slot Active 
  66:./Library/stm32f4xx_sai.c ****               using SAI_SlotInit() function. 
  67:./Library/stm32f4xx_sai.c ****                    
  68:./Library/stm32f4xx_sai.c ****       (#) Enable the NVIC and the corresponding interrupt using the function 
  69:./Library/stm32f4xx_sai.c ****           SAI_ITConfig() if you need to use interrupt mode. 
  70:./Library/stm32f4xx_sai.c ****   
  71:./Library/stm32f4xx_sai.c ****       (#) When using the DMA mode 
  72:./Library/stm32f4xx_sai.c ****           (++) Configure the DMA using DMA_Init() function
  73:./Library/stm32f4xx_sai.c ****           (++) Active the needed channel Request using SAI_DMACmd() function
  74:./Library/stm32f4xx_sai.c ****    
  75:./Library/stm32f4xx_sai.c ****       (#) Enable the SAI using the SAI_Cmd() function.
  76:./Library/stm32f4xx_sai.c ****    
  77:./Library/stm32f4xx_sai.c ****       (#) Enable the DMA using the DMA_Cmd() function when using DMA mode. 
  78:./Library/stm32f4xx_sai.c ****   
  79:./Library/stm32f4xx_sai.c ****       (#) The SAI has some specific functions which can be useful depending 
  80:./Library/stm32f4xx_sai.c ****           on the audio protocol selected.  
  81:./Library/stm32f4xx_sai.c ****           (++) Enable Mute mode when the audio block is a transmitter using SAI_MuteModeCmd()
  82:./Library/stm32f4xx_sai.c ****                function and configure the value transmitted during mute using SAI_MuteValueConfig()
  83:./Library/stm32f4xx_sai.c ****           (++) Detect the Mute mode when audio block is a receiver using SAI_MuteFrameCounterConfig
  84:./Library/stm32f4xx_sai.c ****           (++) Enable the MONO mode without any data preprocessing in memory when the number
  85:./Library/stm32f4xx_sai.c ****                of slot is equal to 2 using SAI_MonoModeConfig() function.
  86:./Library/stm32f4xx_sai.c ****           (++) Enable data companding algorithm (U law and A law) using SAI_CompandingModeConfig().
  87:./Library/stm32f4xx_sai.c ****           (++) Choose the behavior of the SD line in output when an inactive slot is sent 
ARM GAS  /var/folders/yl/_q9l42k90g1g4mdhbs226msm0000gn/T//cc48f3PC.s 			page 3


  88:./Library/stm32f4xx_sai.c ****                on the data line using SAI_TRIStateConfig() function.   
  89:./Library/stm32f4xx_sai.c ****   [..]               
  90:./Library/stm32f4xx_sai.c ****    (@)    In master TX mode: enabling the audio block immediately generates the bit clock 
  91:./Library/stm32f4xx_sai.c ****           for the external slaves even if there is no data in the FIFO, However FS signal 
  92:./Library/stm32f4xx_sai.c ****           generation is conditioned by the presence of data in the FIFO.
  93:./Library/stm32f4xx_sai.c ****                  
  94:./Library/stm32f4xx_sai.c ****    (@)    In master RX mode: enabling the audio block immediately generates the bit clock 
  95:./Library/stm32f4xx_sai.c ****           and FS signal for the external slaves. 
  96:./Library/stm32f4xx_sai.c ****                 
  97:./Library/stm32f4xx_sai.c ****    (@)    It is mandatory to respect the following conditions in order to avoid bad SAI behavior: 
  98:./Library/stm32f4xx_sai.c ****             (+@)  First bit Offset <= (SLOT size - Data size)
  99:./Library/stm32f4xx_sai.c ****             (+@)  Data size <= SLOT size
 100:./Library/stm32f4xx_sai.c ****             (+@)  Number of SLOT x SLOT size = Frame length
 101:./Library/stm32f4xx_sai.c ****             (+@)  The number of slots should be even when bit FSDEF in the SAI_xFRCR is set.    
 102:./Library/stm32f4xx_sai.c ****   
 103:./Library/stm32f4xx_sai.c ****     @endverbatim  
 104:./Library/stm32f4xx_sai.c **** 
 105:./Library/stm32f4xx_sai.c ****   ******************************************************************************
 106:./Library/stm32f4xx_sai.c ****   * @attention
 107:./Library/stm32f4xx_sai.c ****   *
 108:./Library/stm32f4xx_sai.c ****   * Copyright (c) 2016 STMicroelectronics.
 109:./Library/stm32f4xx_sai.c ****   * All rights reserved.
 110:./Library/stm32f4xx_sai.c ****   *
 111:./Library/stm32f4xx_sai.c ****   * This software is licensed under terms that can be found in the LICENSE file
 112:./Library/stm32f4xx_sai.c ****   * in the root directory of this software component.
 113:./Library/stm32f4xx_sai.c ****   * If no LICENSE file comes with this software, it is provided AS-IS.
 114:./Library/stm32f4xx_sai.c ****   *
 115:./Library/stm32f4xx_sai.c ****   ******************************************************************************
 116:./Library/stm32f4xx_sai.c ****   */
 117:./Library/stm32f4xx_sai.c **** 
 118:./Library/stm32f4xx_sai.c **** /* Includes ------------------------------------------------------------------*/
 119:./Library/stm32f4xx_sai.c **** #include "stm32f4xx_sai.h"
 120:./Library/stm32f4xx_sai.c **** #include "stm32f4xx_rcc.h"
 121:./Library/stm32f4xx_sai.c **** 
 122:./Library/stm32f4xx_sai.c **** /** @addtogroup STM32F4xx_StdPeriph_Driver
 123:./Library/stm32f4xx_sai.c ****   * @{
 124:./Library/stm32f4xx_sai.c ****   */
 125:./Library/stm32f4xx_sai.c **** 
 126:./Library/stm32f4xx_sai.c **** /** @defgroup SAI 
 127:./Library/stm32f4xx_sai.c ****   * @brief SAI driver modules
 128:./Library/stm32f4xx_sai.c ****   * @{
 129:./Library/stm32f4xx_sai.c ****   */ 
 130:./Library/stm32f4xx_sai.c **** #if defined (STM32F40_41xxx) || defined (STM32F427_437xx) || defined (STM32F429_439xx) || \
 131:./Library/stm32f4xx_sai.c ****     defined (STM32F401xx) || defined (STM32F411xE) || defined (STM32F446xx) || defined (STM32F469_4
 132:./Library/stm32f4xx_sai.c ****     defined (STM32F413_423xx)
 133:./Library/stm32f4xx_sai.c **** 
 134:./Library/stm32f4xx_sai.c **** /* Private typedef -----------------------------------------------------------*/
 135:./Library/stm32f4xx_sai.c **** /* Private define ------------------------------------------------------------*/
 136:./Library/stm32f4xx_sai.c **** 
 137:./Library/stm32f4xx_sai.c **** /* *SAI registers Masks */
 138:./Library/stm32f4xx_sai.c **** #define CR1_CLEAR_MASK            ((uint32_t)0xFF07C010)
 139:./Library/stm32f4xx_sai.c **** #define FRCR_CLEAR_MASK           ((uint32_t)0xFFF88000)
 140:./Library/stm32f4xx_sai.c **** #define SLOTR_CLEAR_MASK          ((uint32_t)0x0000F020)
 141:./Library/stm32f4xx_sai.c **** 
 142:./Library/stm32f4xx_sai.c **** /* Private macro -------------------------------------------------------------*/
 143:./Library/stm32f4xx_sai.c **** /* Private variables ---------------------------------------------------------*/
 144:./Library/stm32f4xx_sai.c **** /* Private function prototypes -----------------------------------------------*/
ARM GAS  /var/folders/yl/_q9l42k90g1g4mdhbs226msm0000gn/T//cc48f3PC.s 			page 4


 145:./Library/stm32f4xx_sai.c **** /* Private functions ---------------------------------------------------------*/
 146:./Library/stm32f4xx_sai.c **** 
 147:./Library/stm32f4xx_sai.c **** /** @defgroup SAI_Private_Functions
 148:./Library/stm32f4xx_sai.c ****   * @{
 149:./Library/stm32f4xx_sai.c ****   */
 150:./Library/stm32f4xx_sai.c **** 
 151:./Library/stm32f4xx_sai.c **** /** @defgroup SAI_Group1 Initialization and Configuration functions
 152:./Library/stm32f4xx_sai.c ****  *  @brief   Initialization and Configuration functions 
 153:./Library/stm32f4xx_sai.c ****  *
 154:./Library/stm32f4xx_sai.c **** @verbatim   
 155:./Library/stm32f4xx_sai.c ****  ===============================================================================
 156:./Library/stm32f4xx_sai.c ****             ##### Initialization and Configuration functions #####
 157:./Library/stm32f4xx_sai.c ****  ===============================================================================  
 158:./Library/stm32f4xx_sai.c ****   [..]
 159:./Library/stm32f4xx_sai.c ****   This section provides a set of functions allowing to initialize the SAI Audio 
 160:./Library/stm32f4xx_sai.c ****   Block Mode, Audio Protocol, Data size, Synchronization between audio block, 
 161:./Library/stm32f4xx_sai.c ****   Master clock Divider, Fifo threshold, Frame configuration, slot configuration,
 162:./Library/stm32f4xx_sai.c ****   Tristate mode, Companding mode and Mute mode.  
 163:./Library/stm32f4xx_sai.c ****   [..] 
 164:./Library/stm32f4xx_sai.c ****   The SAI_Init(), SAI_FrameInit() and SAI_SlotInit() functions follows the SAI Block
 165:./Library/stm32f4xx_sai.c ****   configuration procedures for Master mode and Slave mode (details for these procedures 
 166:./Library/stm32f4xx_sai.c ****   are available in reference manual(RM0090).
 167:./Library/stm32f4xx_sai.c ****   
 168:./Library/stm32f4xx_sai.c **** @endverbatim
 169:./Library/stm32f4xx_sai.c ****   * @{
 170:./Library/stm32f4xx_sai.c ****   */
 171:./Library/stm32f4xx_sai.c **** 
 172:./Library/stm32f4xx_sai.c **** /**
 173:./Library/stm32f4xx_sai.c ****   * @brief  Deinitialize the SAIx peripheral registers to their default reset values.
 174:./Library/stm32f4xx_sai.c ****   * @param  SAIx: To select the SAIx peripheral, where x can be the different instances 
 175:./Library/stm32f4xx_sai.c ****   *                     
 176:./Library/stm32f4xx_sai.c ****   * @retval None
 177:./Library/stm32f4xx_sai.c ****   */
 178:./Library/stm32f4xx_sai.c **** void SAI_DeInit(SAI_TypeDef* SAIx)
 179:./Library/stm32f4xx_sai.c **** {
  29              		.loc 1 179 1
  30              		.cfi_startproc
  31              		@ args = 0, pretend = 0, frame = 8
  32              		@ frame_needed = 1, uses_anonymous_args = 0
  33 0000 80B5     		push	{r7, lr}
  34              	.LCFI0:
  35              		.cfi_def_cfa_offset 8
  36              		.cfi_offset 7, -8
  37              		.cfi_offset 14, -4
  38 0002 82B0     		sub	sp, sp, #8
  39              	.LCFI1:
  40              		.cfi_def_cfa_offset 16
  41 0004 00AF     		add	r7, sp, #0
  42              	.LCFI2:
  43              		.cfi_def_cfa_register 7
  44 0006 7860     		str	r0, [r7, #4]
 180:./Library/stm32f4xx_sai.c ****   /* Check the parameters */
 181:./Library/stm32f4xx_sai.c ****   assert_param(IS_SAI_PERIPH(SAIx));
 182:./Library/stm32f4xx_sai.c ****   
 183:./Library/stm32f4xx_sai.c ****   if(SAIx == SAI1)
  45              		.loc 1 183 5
  46 0008 7B68     		ldr	r3, [r7, #4]
ARM GAS  /var/folders/yl/_q9l42k90g1g4mdhbs226msm0000gn/T//cc48f3PC.s 			page 5


  47 000a 084A     		ldr	r2, .L4
  48 000c 9342     		cmp	r3, r2
  49 000e 09D1     		bne	.L3
 184:./Library/stm32f4xx_sai.c ****   {
 185:./Library/stm32f4xx_sai.c ****     /* Enable SAI1 reset state */
 186:./Library/stm32f4xx_sai.c ****     RCC_APB2PeriphResetCmd(RCC_APB2Periph_SAI1, ENABLE);
  50              		.loc 1 186 5
  51 0010 0121     		movs	r1, #1
  52 0012 4FF48000 		mov	r0, #4194304
  53 0016 FFF7FEFF 		bl	RCC_APB2PeriphResetCmd
 187:./Library/stm32f4xx_sai.c ****     /* Release SAI1 from reset state */
 188:./Library/stm32f4xx_sai.c ****     RCC_APB2PeriphResetCmd(RCC_APB2Periph_SAI1, DISABLE); 
  54              		.loc 1 188 5
  55 001a 0021     		movs	r1, #0
  56 001c 4FF48000 		mov	r0, #4194304
  57 0020 FFF7FEFF 		bl	RCC_APB2PeriphResetCmd
  58              	.L3:
 189:./Library/stm32f4xx_sai.c ****   }
 190:./Library/stm32f4xx_sai.c ****   else
 191:./Library/stm32f4xx_sai.c ****   {
 192:./Library/stm32f4xx_sai.c **** #if defined(STM32F446xx)
 193:./Library/stm32f4xx_sai.c ****   if(SAIx == SAI2)
 194:./Library/stm32f4xx_sai.c ****     {
 195:./Library/stm32f4xx_sai.c ****       /* Enable SAI2 reset state */
 196:./Library/stm32f4xx_sai.c ****       RCC_APB2PeriphResetCmd(RCC_APB2Periph_SAI2, ENABLE);
 197:./Library/stm32f4xx_sai.c ****       /* Release SAI2 from reset state */
 198:./Library/stm32f4xx_sai.c ****       RCC_APB2PeriphResetCmd(RCC_APB2Periph_SAI2, DISABLE);   
 199:./Library/stm32f4xx_sai.c ****     }
 200:./Library/stm32f4xx_sai.c **** #endif /* STM32F446xx */
 201:./Library/stm32f4xx_sai.c ****   }
 202:./Library/stm32f4xx_sai.c **** }
  59              		.loc 1 202 1
  60 0024 00BF     		nop
  61 0026 0837     		adds	r7, r7, #8
  62              	.LCFI3:
  63              		.cfi_def_cfa_offset 8
  64 0028 BD46     		mov	sp, r7
  65              	.LCFI4:
  66              		.cfi_def_cfa_register 13
  67              		@ sp needed
  68 002a 80BD     		pop	{r7, pc}
  69              	.L5:
  70              		.align	2
  71              	.L4:
  72 002c 00580140 		.word	1073829888
  73              		.cfi_endproc
  74              	.LFE123:
  76              		.section	.text.SAI_Init,"ax",%progbits
  77              		.align	1
  78              		.global	SAI_Init
  79              		.syntax unified
  80              		.thumb
  81              		.thumb_func
  83              	SAI_Init:
  84              	.LFB124:
 203:./Library/stm32f4xx_sai.c **** 
 204:./Library/stm32f4xx_sai.c **** /**
ARM GAS  /var/folders/yl/_q9l42k90g1g4mdhbs226msm0000gn/T//cc48f3PC.s 			page 6


 205:./Library/stm32f4xx_sai.c ****   * @brief  Initializes the SAI Block x peripheral according to the specified 
 206:./Library/stm32f4xx_sai.c ****   *         parameters in the SAI_InitStruct.
 207:./Library/stm32f4xx_sai.c ****   *         
 208:./Library/stm32f4xx_sai.c ****   * @note   SAI clock is generated from a specific output of the PLLSAI or a specific  
 209:./Library/stm32f4xx_sai.c ****   *         output of the PLLI2S or from an alternate function bypassing the PLL I2S.
 210:./Library/stm32f4xx_sai.c ****   *        
 211:./Library/stm32f4xx_sai.c ****   * @param  SAI_Block_x: where x can be A or B to select the SAI Block peripheral.
 212:./Library/stm32f4xx_sai.c ****   * @param  SAI_InitStruct: pointer to a SAI_InitTypeDef structure that
 213:./Library/stm32f4xx_sai.c ****   *         contains the configuration information for the specified SAI Block peripheral.         
 214:./Library/stm32f4xx_sai.c ****   * @retval None
 215:./Library/stm32f4xx_sai.c ****   */
 216:./Library/stm32f4xx_sai.c **** void SAI_Init(SAI_Block_TypeDef* SAI_Block_x, SAI_InitTypeDef* SAI_InitStruct)
 217:./Library/stm32f4xx_sai.c **** {
  85              		.loc 1 217 1
  86              		.cfi_startproc
  87              		@ args = 0, pretend = 0, frame = 16
  88              		@ frame_needed = 1, uses_anonymous_args = 0
  89              		@ link register save eliminated.
  90 0000 80B4     		push	{r7}
  91              	.LCFI5:
  92              		.cfi_def_cfa_offset 4
  93              		.cfi_offset 7, -4
  94 0002 85B0     		sub	sp, sp, #20
  95              	.LCFI6:
  96              		.cfi_def_cfa_offset 24
  97 0004 00AF     		add	r7, sp, #0
  98              	.LCFI7:
  99              		.cfi_def_cfa_register 7
 100 0006 7860     		str	r0, [r7, #4]
 101 0008 3960     		str	r1, [r7]
 218:./Library/stm32f4xx_sai.c ****   uint32_t tmpreg = 0;
 102              		.loc 1 218 12
 103 000a 0023     		movs	r3, #0
 104 000c FB60     		str	r3, [r7, #12]
 219:./Library/stm32f4xx_sai.c ****   
 220:./Library/stm32f4xx_sai.c ****   /* Check the parameters */
 221:./Library/stm32f4xx_sai.c ****   assert_param(IS_SAI_BLOCK_PERIPH(SAI_Block_x));
 222:./Library/stm32f4xx_sai.c ****   
 223:./Library/stm32f4xx_sai.c ****   /* Check the SAI Block parameters */
 224:./Library/stm32f4xx_sai.c ****   assert_param(IS_SAI_BLOCK_MODE(SAI_InitStruct->SAI_AudioMode));
 225:./Library/stm32f4xx_sai.c ****   assert_param(IS_SAI_BLOCK_PROTOCOL(SAI_InitStruct->SAI_Protocol));
 226:./Library/stm32f4xx_sai.c ****   assert_param(IS_SAI_BLOCK_DATASIZE(SAI_InitStruct->SAI_DataSize));
 227:./Library/stm32f4xx_sai.c ****   assert_param(IS_SAI_BLOCK_FIRST_BIT(SAI_InitStruct->SAI_FirstBit));
 228:./Library/stm32f4xx_sai.c ****   assert_param(IS_SAI_BLOCK_CLOCK_STROBING(SAI_InitStruct->SAI_ClockStrobing));
 229:./Library/stm32f4xx_sai.c ****   assert_param(IS_SAI_BLOCK_SYNCHRO(SAI_InitStruct->SAI_Synchro));
 230:./Library/stm32f4xx_sai.c ****   assert_param(IS_SAI_BLOCK_SYNCEXT(SAI_InitStruct->SAI_SynchroExt));
 231:./Library/stm32f4xx_sai.c ****   assert_param(IS_SAI_BLOCK_OUTPUT_DRIVE(SAI_InitStruct->SAI_OUTDRIV));
 232:./Library/stm32f4xx_sai.c ****   assert_param(IS_SAI_BLOCK_NODIVIDER(SAI_InitStruct->SAI_NoDivider));
 233:./Library/stm32f4xx_sai.c ****   assert_param(IS_SAI_BLOCK_MASTER_DIVIDER(SAI_InitStruct->SAI_MasterDivider));
 234:./Library/stm32f4xx_sai.c ****   assert_param(IS_SAI_BLOCK_FIFO_THRESHOLD(SAI_InitStruct->SAI_FIFOThreshold));
 235:./Library/stm32f4xx_sai.c **** 
 236:./Library/stm32f4xx_sai.c ****   /* SAI Block_x CR1 Configuration */
 237:./Library/stm32f4xx_sai.c ****   /* Get the SAI Block_x CR1 value */
 238:./Library/stm32f4xx_sai.c ****   tmpreg = SAI_Block_x->CR1;
 105              		.loc 1 238 10
 106 000e 7B68     		ldr	r3, [r7, #4]
 107 0010 1B68     		ldr	r3, [r3]
ARM GAS  /var/folders/yl/_q9l42k90g1g4mdhbs226msm0000gn/T//cc48f3PC.s 			page 7


 108 0012 FB60     		str	r3, [r7, #12]
 239:./Library/stm32f4xx_sai.c ****   /* Clear MODE, PRTCFG, DS, LSBFIRST, CKSTR, SYNCEN, OUTDRIV, NODIV, and MCKDIV bits */
 240:./Library/stm32f4xx_sai.c ****   tmpreg &= CR1_CLEAR_MASK;
 109              		.loc 1 240 10
 110 0014 FA68     		ldr	r2, [r7, #12]
 111 0016 1E4B     		ldr	r3, .L7
 112 0018 1340     		ands	r3, r3, r2
 113 001a FB60     		str	r3, [r7, #12]
 241:./Library/stm32f4xx_sai.c ****   /* Configure SAI_Block_x: Audio mode, Protocol, Data Size, first transmitted bit, Clock strobing 
 242:./Library/stm32f4xx_sai.c ****      edge, Synchronization mode, Output drive, Master Divider and FIFO level */  
 243:./Library/stm32f4xx_sai.c ****   /* Set MODE bits according to SAI_AudioMode value       */
 244:./Library/stm32f4xx_sai.c ****   /* Set PRTCFG bits according to SAI_Protocol value      */
 245:./Library/stm32f4xx_sai.c ****   /* Set DS bits according to SAI_DataSize value          */
 246:./Library/stm32f4xx_sai.c ****   /* Set LSBFIRST bit according to SAI_FirstBit value     */
 247:./Library/stm32f4xx_sai.c ****   /* Set CKSTR bit according to SAI_ClockStrobing value   */
 248:./Library/stm32f4xx_sai.c ****   /* Set SYNCEN bit according to SAI_Synchro value        */
 249:./Library/stm32f4xx_sai.c ****   /* Set OUTDRIV bit according to SAI_OUTDRIV value       */
 250:./Library/stm32f4xx_sai.c ****   /* Set NODIV bit according to SAI_NoDivider value       */
 251:./Library/stm32f4xx_sai.c ****   /* Set MCKDIV bits according to SAI_MasterDivider value */
 252:./Library/stm32f4xx_sai.c ****   tmpreg |= (uint32_t)(SAI_InitStruct->SAI_AudioMode     | SAI_InitStruct->SAI_Protocol  |
 114              		.loc 1 252 38
 115 001c 3B68     		ldr	r3, [r7]
 116 001e 1A68     		ldr	r2, [r3]
 117              		.loc 1 252 74
 118 0020 3B68     		ldr	r3, [r7]
 119 0022 5B68     		ldr	r3, [r3, #4]
 120              		.loc 1 252 58
 121 0024 1A43     		orrs	r2, r2, r3
 253:./Library/stm32f4xx_sai.c ****                        SAI_InitStruct->SAI_DataSize      | SAI_InitStruct->SAI_FirstBit  |  
 122              		.loc 1 253 38
 123 0026 3B68     		ldr	r3, [r7]
 124 0028 9B68     		ldr	r3, [r3, #8]
 252:./Library/stm32f4xx_sai.c ****                        SAI_InitStruct->SAI_DataSize      | SAI_InitStruct->SAI_FirstBit  |  
 125              		.loc 1 252 90
 126 002a 1A43     		orrs	r2, r2, r3
 127              		.loc 1 253 74
 128 002c 3B68     		ldr	r3, [r7]
 129 002e DB68     		ldr	r3, [r3, #12]
 130              		.loc 1 253 58
 131 0030 1A43     		orrs	r2, r2, r3
 254:./Library/stm32f4xx_sai.c ****                        SAI_InitStruct->SAI_ClockStrobing | SAI_InitStruct->SAI_Synchro   |  
 132              		.loc 1 254 38
 133 0032 3B68     		ldr	r3, [r7]
 134 0034 1B69     		ldr	r3, [r3, #16]
 253:./Library/stm32f4xx_sai.c ****                        SAI_InitStruct->SAI_DataSize      | SAI_InitStruct->SAI_FirstBit  |  
 135              		.loc 1 253 90
 136 0036 1A43     		orrs	r2, r2, r3
 137              		.loc 1 254 74
 138 0038 3B68     		ldr	r3, [r7]
 139 003a 5B69     		ldr	r3, [r3, #20]
 140              		.loc 1 254 58
 141 003c 1A43     		orrs	r2, r2, r3
 255:./Library/stm32f4xx_sai.c ****                        SAI_InitStruct->SAI_OUTDRIV       | SAI_InitStruct->SAI_NoDivider |
 142              		.loc 1 255 38
 143 003e 3B68     		ldr	r3, [r7]
 144 0040 DB69     		ldr	r3, [r3, #28]
 254:./Library/stm32f4xx_sai.c ****                        SAI_InitStruct->SAI_ClockStrobing | SAI_InitStruct->SAI_Synchro   |  
ARM GAS  /var/folders/yl/_q9l42k90g1g4mdhbs226msm0000gn/T//cc48f3PC.s 			page 8


 145              		.loc 1 254 90
 146 0042 1A43     		orrs	r2, r2, r3
 147              		.loc 1 255 74
 148 0044 3B68     		ldr	r3, [r7]
 149 0046 1B6A     		ldr	r3, [r3, #32]
 150              		.loc 1 255 58
 151 0048 1A43     		orrs	r2, r2, r3
 256:./Library/stm32f4xx_sai.c ****                        SAI_InitStruct->SAI_SynchroExt    | (uint32_t)((SAI_InitStruct->SAI_MasterDi
 152              		.loc 1 256 38
 153 004a 3B68     		ldr	r3, [r7]
 154 004c 9B69     		ldr	r3, [r3, #24]
 255:./Library/stm32f4xx_sai.c ****                        SAI_InitStruct->SAI_OUTDRIV       | SAI_InitStruct->SAI_NoDivider |
 155              		.loc 1 255 90
 156 004e 1A43     		orrs	r2, r2, r3
 157              		.loc 1 256 86
 158 0050 3B68     		ldr	r3, [r7]
 159 0052 5B6A     		ldr	r3, [r3, #36]
 160              		.loc 1 256 107
 161 0054 1B05     		lsls	r3, r3, #20
 252:./Library/stm32f4xx_sai.c ****                        SAI_InitStruct->SAI_DataSize      | SAI_InitStruct->SAI_FirstBit  |  
 162              		.loc 1 252 13
 163 0056 1343     		orrs	r3, r3, r2
 252:./Library/stm32f4xx_sai.c ****                        SAI_InitStruct->SAI_DataSize      | SAI_InitStruct->SAI_FirstBit  |  
 164              		.loc 1 252 10
 165 0058 FA68     		ldr	r2, [r7, #12]
 166 005a 1343     		orrs	r3, r3, r2
 167 005c FB60     		str	r3, [r7, #12]
 257:./Library/stm32f4xx_sai.c ****   /* Write to SAI_Block_x CR1 */
 258:./Library/stm32f4xx_sai.c ****   SAI_Block_x->CR1 = tmpreg;
 168              		.loc 1 258 20
 169 005e 7B68     		ldr	r3, [r7, #4]
 170 0060 FA68     		ldr	r2, [r7, #12]
 171 0062 1A60     		str	r2, [r3]
 259:./Library/stm32f4xx_sai.c ****   
 260:./Library/stm32f4xx_sai.c ****   /* SAI Block_x CR2 Configuration */
 261:./Library/stm32f4xx_sai.c ****   /* Get the SAIBlock_x CR2 value */
 262:./Library/stm32f4xx_sai.c ****   tmpreg = SAI_Block_x->CR2;
 172              		.loc 1 262 10
 173 0064 7B68     		ldr	r3, [r7, #4]
 174 0066 5B68     		ldr	r3, [r3, #4]
 175 0068 FB60     		str	r3, [r7, #12]
 263:./Library/stm32f4xx_sai.c ****   /* Clear FTH bits */
 264:./Library/stm32f4xx_sai.c ****   tmpreg &= ~(SAI_xCR2_FTH);
 176              		.loc 1 264 10
 177 006a FB68     		ldr	r3, [r7, #12]
 178 006c 23F00303 		bic	r3, r3, #3
 179 0070 FB60     		str	r3, [r7, #12]
 265:./Library/stm32f4xx_sai.c ****   /* Configure the FIFO Level */
 266:./Library/stm32f4xx_sai.c ****   /* Set FTH bits according to SAI_FIFOThreshold value */ 
 267:./Library/stm32f4xx_sai.c ****   tmpreg |= (uint32_t)(SAI_InitStruct->SAI_FIFOThreshold);
 180              		.loc 1 267 38
 181 0072 3B68     		ldr	r3, [r7]
 182 0074 9B6A     		ldr	r3, [r3, #40]
 183              		.loc 1 267 10
 184 0076 FA68     		ldr	r2, [r7, #12]
 185 0078 1343     		orrs	r3, r3, r2
 186 007a FB60     		str	r3, [r7, #12]
ARM GAS  /var/folders/yl/_q9l42k90g1g4mdhbs226msm0000gn/T//cc48f3PC.s 			page 9


 268:./Library/stm32f4xx_sai.c ****   /* Write to SAI_Block_x CR2 */
 269:./Library/stm32f4xx_sai.c ****   SAI_Block_x->CR2 = tmpreg;
 187              		.loc 1 269 20
 188 007c 7B68     		ldr	r3, [r7, #4]
 189 007e FA68     		ldr	r2, [r7, #12]
 190 0080 5A60     		str	r2, [r3, #4]
 270:./Library/stm32f4xx_sai.c **** }
 191              		.loc 1 270 1
 192 0082 00BF     		nop
 193 0084 1437     		adds	r7, r7, #20
 194              	.LCFI8:
 195              		.cfi_def_cfa_offset 4
 196 0086 BD46     		mov	sp, r7
 197              	.LCFI9:
 198              		.cfi_def_cfa_register 13
 199              		@ sp needed
 200 0088 5DF8047B 		ldr	r7, [sp], #4
 201              	.LCFI10:
 202              		.cfi_restore 7
 203              		.cfi_def_cfa_offset 0
 204 008c 7047     		bx	lr
 205              	.L8:
 206 008e 00BF     		.align	2
 207              	.L7:
 208 0090 10C007FF 		.word	-16269296
 209              		.cfi_endproc
 210              	.LFE124:
 212              		.section	.text.SAI_FrameInit,"ax",%progbits
 213              		.align	1
 214              		.global	SAI_FrameInit
 215              		.syntax unified
 216              		.thumb
 217              		.thumb_func
 219              	SAI_FrameInit:
 220              	.LFB125:
 271:./Library/stm32f4xx_sai.c **** 
 272:./Library/stm32f4xx_sai.c **** /**
 273:./Library/stm32f4xx_sai.c ****   * @brief  Initializes the SAI Block Audio frame according to the specified 
 274:./Library/stm32f4xx_sai.c ****   *         parameters in the SAI_FrameInitStruct.
 275:./Library/stm32f4xx_sai.c ****   *         
 276:./Library/stm32f4xx_sai.c ****   * @note   this function has no meaning if the AC'97 or SPDIF audio protocol 
 277:./Library/stm32f4xx_sai.c ****   *         are selected. 
 278:./Library/stm32f4xx_sai.c ****   *               
 279:./Library/stm32f4xx_sai.c ****   * @param  SAI_Block_x: where x can be A or B to select the SAI Block peripheral.
 280:./Library/stm32f4xx_sai.c ****   * @param  SAI_FrameInitStruct: pointer to an SAI_FrameInitTypeDef structure that
 281:./Library/stm32f4xx_sai.c ****   *         contains the configuration of audio frame for a specified SAI Block                    
 282:./Library/stm32f4xx_sai.c ****   * @retval None
 283:./Library/stm32f4xx_sai.c ****   */
 284:./Library/stm32f4xx_sai.c **** void SAI_FrameInit(SAI_Block_TypeDef* SAI_Block_x, SAI_FrameInitTypeDef* SAI_FrameInitStruct)
 285:./Library/stm32f4xx_sai.c **** {
 221              		.loc 1 285 1
 222              		.cfi_startproc
 223              		@ args = 0, pretend = 0, frame = 16
 224              		@ frame_needed = 1, uses_anonymous_args = 0
 225              		@ link register save eliminated.
 226 0000 80B4     		push	{r7}
 227              	.LCFI11:
ARM GAS  /var/folders/yl/_q9l42k90g1g4mdhbs226msm0000gn/T//cc48f3PC.s 			page 10


 228              		.cfi_def_cfa_offset 4
 229              		.cfi_offset 7, -4
 230 0002 85B0     		sub	sp, sp, #20
 231              	.LCFI12:
 232              		.cfi_def_cfa_offset 24
 233 0004 00AF     		add	r7, sp, #0
 234              	.LCFI13:
 235              		.cfi_def_cfa_register 7
 236 0006 7860     		str	r0, [r7, #4]
 237 0008 3960     		str	r1, [r7]
 286:./Library/stm32f4xx_sai.c ****   uint32_t tmpreg = 0;
 238              		.loc 1 286 12
 239 000a 0023     		movs	r3, #0
 240 000c FB60     		str	r3, [r7, #12]
 287:./Library/stm32f4xx_sai.c ****   
 288:./Library/stm32f4xx_sai.c ****   /* Check the parameters */
 289:./Library/stm32f4xx_sai.c ****   assert_param(IS_SAI_BLOCK_PERIPH(SAI_Block_x));
 290:./Library/stm32f4xx_sai.c ****   
 291:./Library/stm32f4xx_sai.c ****   /* Check the SAI Block frame parameters */
 292:./Library/stm32f4xx_sai.c ****   assert_param(IS_SAI_BLOCK_FRAME_LENGTH(SAI_FrameInitStruct->SAI_FrameLength));
 293:./Library/stm32f4xx_sai.c ****   assert_param(IS_SAI_BLOCK_ACTIVE_FRAME(SAI_FrameInitStruct->SAI_ActiveFrameLength));
 294:./Library/stm32f4xx_sai.c ****   assert_param(IS_SAI_BLOCK_FS_DEFINITION(SAI_FrameInitStruct->SAI_FSDefinition));
 295:./Library/stm32f4xx_sai.c ****   assert_param(IS_SAI_BLOCK_FS_POLARITY(SAI_FrameInitStruct->SAI_FSPolarity));
 296:./Library/stm32f4xx_sai.c ****   assert_param(IS_SAI_BLOCK_FS_OFFSET(SAI_FrameInitStruct->SAI_FSOffset));
 297:./Library/stm32f4xx_sai.c **** 
 298:./Library/stm32f4xx_sai.c ****   /* SAI Block_x FRCR Configuration */
 299:./Library/stm32f4xx_sai.c ****   /* Get the SAI Block_x FRCR value */
 300:./Library/stm32f4xx_sai.c ****   tmpreg = SAI_Block_x->FRCR;
 241              		.loc 1 300 10
 242 000e 7B68     		ldr	r3, [r7, #4]
 243 0010 9B68     		ldr	r3, [r3, #8]
 244 0012 FB60     		str	r3, [r7, #12]
 301:./Library/stm32f4xx_sai.c ****   /* Clear FRL, FSALL, FSDEF, FSPOL, FSOFF bits */
 302:./Library/stm32f4xx_sai.c ****   tmpreg &= FRCR_CLEAR_MASK;
 245              		.loc 1 302 10
 246 0014 FA68     		ldr	r2, [r7, #12]
 247 0016 104B     		ldr	r3, .L10
 248 0018 1340     		ands	r3, r3, r2
 249 001a FB60     		str	r3, [r7, #12]
 303:./Library/stm32f4xx_sai.c ****   /* Configure SAI_Block_x Frame: Frame Length, Active Frame Length, Frame Synchronization
 304:./Library/stm32f4xx_sai.c ****      Definition, Frame Synchronization Polarity and Frame Synchronization Polarity */
 305:./Library/stm32f4xx_sai.c ****   /* Set FRL bits according to SAI_FrameLength value         */
 306:./Library/stm32f4xx_sai.c ****   /* Set FSALL bits according to SAI_ActiveFrameLength value */
 307:./Library/stm32f4xx_sai.c ****   /* Set FSDEF bit according to SAI_FSDefinition value       */
 308:./Library/stm32f4xx_sai.c ****   /* Set FSPOL bit according to SAI_FSPolarity value         */
 309:./Library/stm32f4xx_sai.c ****   /* Set FSOFF bit according to SAI_FSOffset value           */
 310:./Library/stm32f4xx_sai.c ****   tmpreg |= (uint32_t)((uint32_t)(SAI_FrameInitStruct->SAI_FrameLength - 1)  | 
 250              		.loc 1 310 54
 251 001c 3B68     		ldr	r3, [r7]
 252 001e 1B68     		ldr	r3, [r3]
 253              		.loc 1 310 24
 254 0020 5A1E     		subs	r2, r3, #1
 311:./Library/stm32f4xx_sai.c ****                        SAI_FrameInitStruct->SAI_FSOffset     | 
 255              		.loc 1 311 43
 256 0022 3B68     		ldr	r3, [r7]
 257 0024 1B69     		ldr	r3, [r3, #16]
 310:./Library/stm32f4xx_sai.c ****                        SAI_FrameInitStruct->SAI_FSOffset     | 
ARM GAS  /var/folders/yl/_q9l42k90g1g4mdhbs226msm0000gn/T//cc48f3PC.s 			page 11


 258              		.loc 1 310 78
 259 0026 1A43     		orrs	r2, r2, r3
 312:./Library/stm32f4xx_sai.c ****                        SAI_FrameInitStruct->SAI_FSDefinition |    
 260              		.loc 1 312 43
 261 0028 3B68     		ldr	r3, [r7]
 262 002a 9B68     		ldr	r3, [r3, #8]
 311:./Library/stm32f4xx_sai.c ****                        SAI_FrameInitStruct->SAI_FSOffset     | 
 263              		.loc 1 311 62
 264 002c 1A43     		orrs	r2, r2, r3
 313:./Library/stm32f4xx_sai.c ****                        SAI_FrameInitStruct->SAI_FSPolarity   |                        
 265              		.loc 1 313 43
 266 002e 3B68     		ldr	r3, [r7]
 267 0030 DB68     		ldr	r3, [r3, #12]
 312:./Library/stm32f4xx_sai.c ****                        SAI_FrameInitStruct->SAI_FSDefinition |    
 268              		.loc 1 312 62
 269 0032 1A43     		orrs	r2, r2, r3
 314:./Library/stm32f4xx_sai.c ****                        (uint32_t)((SAI_FrameInitStruct->SAI_ActiveFrameLength - 1) << 8));
 270              		.loc 1 314 55
 271 0034 3B68     		ldr	r3, [r7]
 272 0036 5B68     		ldr	r3, [r3, #4]
 273              		.loc 1 314 79
 274 0038 013B     		subs	r3, r3, #1
 275              		.loc 1 314 24
 276 003a 1B02     		lsls	r3, r3, #8
 310:./Library/stm32f4xx_sai.c ****                        SAI_FrameInitStruct->SAI_FSOffset     | 
 277              		.loc 1 310 13
 278 003c 1343     		orrs	r3, r3, r2
 310:./Library/stm32f4xx_sai.c ****                        SAI_FrameInitStruct->SAI_FSOffset     | 
 279              		.loc 1 310 10
 280 003e FA68     		ldr	r2, [r7, #12]
 281 0040 1343     		orrs	r3, r3, r2
 282 0042 FB60     		str	r3, [r7, #12]
 315:./Library/stm32f4xx_sai.c ****                        
 316:./Library/stm32f4xx_sai.c ****   /* Write to SAI_Block_x FRCR */
 317:./Library/stm32f4xx_sai.c ****   SAI_Block_x->FRCR = tmpreg;
 283              		.loc 1 317 21
 284 0044 7B68     		ldr	r3, [r7, #4]
 285 0046 FA68     		ldr	r2, [r7, #12]
 286 0048 9A60     		str	r2, [r3, #8]
 318:./Library/stm32f4xx_sai.c **** }
 287              		.loc 1 318 1
 288 004a 00BF     		nop
 289 004c 1437     		adds	r7, r7, #20
 290              	.LCFI14:
 291              		.cfi_def_cfa_offset 4
 292 004e BD46     		mov	sp, r7
 293              	.LCFI15:
 294              		.cfi_def_cfa_register 13
 295              		@ sp needed
 296 0050 5DF8047B 		ldr	r7, [sp], #4
 297              	.LCFI16:
 298              		.cfi_restore 7
 299              		.cfi_def_cfa_offset 0
 300 0054 7047     		bx	lr
 301              	.L11:
 302 0056 00BF     		.align	2
 303              	.L10:
ARM GAS  /var/folders/yl/_q9l42k90g1g4mdhbs226msm0000gn/T//cc48f3PC.s 			page 12


 304 0058 0080F8FF 		.word	-491520
 305              		.cfi_endproc
 306              	.LFE125:
 308              		.section	.text.SAI_SlotInit,"ax",%progbits
 309              		.align	1
 310              		.global	SAI_SlotInit
 311              		.syntax unified
 312              		.thumb
 313              		.thumb_func
 315              	SAI_SlotInit:
 316              	.LFB126:
 319:./Library/stm32f4xx_sai.c **** 
 320:./Library/stm32f4xx_sai.c **** /**
 321:./Library/stm32f4xx_sai.c ****   * @brief  Initializes the SAI Block audio Slot according to the specified 
 322:./Library/stm32f4xx_sai.c ****   *         parameters in the SAI_SlotInitStruct.
 323:./Library/stm32f4xx_sai.c ****   *         
 324:./Library/stm32f4xx_sai.c ****   * @note   this function has no meaning if the AC'97 or SPDIF audio protocol 
 325:./Library/stm32f4xx_sai.c ****   *         are selected.
 326:./Library/stm32f4xx_sai.c ****   *               
 327:./Library/stm32f4xx_sai.c ****   * @param  SAI_Block_x: where x can be A or B to select the SAI Block peripheral.
 328:./Library/stm32f4xx_sai.c ****   * @param  SAI_SlotInitStruct: pointer to an SAI_SlotInitTypeDef structure that
 329:./Library/stm32f4xx_sai.c ****   *         contains the configuration of audio slot for a specified SAI Block                     
 330:./Library/stm32f4xx_sai.c ****   * @retval None
 331:./Library/stm32f4xx_sai.c ****   */
 332:./Library/stm32f4xx_sai.c **** void SAI_SlotInit(SAI_Block_TypeDef* SAI_Block_x, SAI_SlotInitTypeDef* SAI_SlotInitStruct)
 333:./Library/stm32f4xx_sai.c **** {
 317              		.loc 1 333 1
 318              		.cfi_startproc
 319              		@ args = 0, pretend = 0, frame = 16
 320              		@ frame_needed = 1, uses_anonymous_args = 0
 321              		@ link register save eliminated.
 322 0000 80B4     		push	{r7}
 323              	.LCFI17:
 324              		.cfi_def_cfa_offset 4
 325              		.cfi_offset 7, -4
 326 0002 85B0     		sub	sp, sp, #20
 327              	.LCFI18:
 328              		.cfi_def_cfa_offset 24
 329 0004 00AF     		add	r7, sp, #0
 330              	.LCFI19:
 331              		.cfi_def_cfa_register 7
 332 0006 7860     		str	r0, [r7, #4]
 333 0008 3960     		str	r1, [r7]
 334:./Library/stm32f4xx_sai.c ****   uint32_t tmpreg = 0;
 334              		.loc 1 334 12
 335 000a 0023     		movs	r3, #0
 336 000c FB60     		str	r3, [r7, #12]
 335:./Library/stm32f4xx_sai.c ****   
 336:./Library/stm32f4xx_sai.c ****   /* Check the parameters */
 337:./Library/stm32f4xx_sai.c ****   assert_param(IS_SAI_BLOCK_PERIPH(SAI_Block_x));
 338:./Library/stm32f4xx_sai.c ****   
 339:./Library/stm32f4xx_sai.c ****   /* Check the SAI Block Slot parameters */
 340:./Library/stm32f4xx_sai.c ****   assert_param(IS_SAI_BLOCK_FIRSTBIT_OFFSET(SAI_SlotInitStruct->SAI_FirstBitOffset));
 341:./Library/stm32f4xx_sai.c ****   assert_param(IS_SAI_BLOCK_SLOT_SIZE(SAI_SlotInitStruct->SAI_SlotSize));
 342:./Library/stm32f4xx_sai.c ****   assert_param(IS_SAI_BLOCK_SLOT_NUMBER(SAI_SlotInitStruct->SAI_SlotNumber));
 343:./Library/stm32f4xx_sai.c ****   assert_param(IS_SAI_SLOT_ACTIVE(SAI_SlotInitStruct->SAI_SlotActive));
 344:./Library/stm32f4xx_sai.c **** 
ARM GAS  /var/folders/yl/_q9l42k90g1g4mdhbs226msm0000gn/T//cc48f3PC.s 			page 13


 345:./Library/stm32f4xx_sai.c ****   /* SAI Block_x SLOTR Configuration */
 346:./Library/stm32f4xx_sai.c ****   /* Get the SAI Block_x SLOTR value */
 347:./Library/stm32f4xx_sai.c ****   tmpreg = SAI_Block_x->SLOTR;
 337              		.loc 1 347 10
 338 000e 7B68     		ldr	r3, [r7, #4]
 339 0010 DB68     		ldr	r3, [r3, #12]
 340 0012 FB60     		str	r3, [r7, #12]
 348:./Library/stm32f4xx_sai.c ****   /* Clear FBOFF, SLOTSZ, NBSLOT, SLOTEN bits */
 349:./Library/stm32f4xx_sai.c ****   tmpreg &= SLOTR_CLEAR_MASK;
 341              		.loc 1 349 10
 342 0014 FA68     		ldr	r2, [r7, #12]
 343 0016 4FF22003 		movw	r3, #61472
 344 001a 1340     		ands	r3, r3, r2
 345 001c FB60     		str	r3, [r7, #12]
 350:./Library/stm32f4xx_sai.c ****   /* Configure SAI_Block_x Slot: First bit offset, Slot size, Number of Slot in  
 351:./Library/stm32f4xx_sai.c ****      audio frame and slots activated in audio frame */
 352:./Library/stm32f4xx_sai.c ****   /* Set FBOFF bits according to SAI_FirstBitOffset value  */
 353:./Library/stm32f4xx_sai.c ****   /* Set SLOTSZ bits according to SAI_SlotSize value       */
 354:./Library/stm32f4xx_sai.c ****   /* Set NBSLOT bits according to SAI_SlotNumber value     */
 355:./Library/stm32f4xx_sai.c ****   /* Set SLOTEN bits according to SAI_SlotActive value     */
 356:./Library/stm32f4xx_sai.c ****   tmpreg |= (uint32_t)(SAI_SlotInitStruct->SAI_FirstBitOffset | 
 346              		.loc 1 356 42
 347 001e 3B68     		ldr	r3, [r7]
 348 0020 1A68     		ldr	r2, [r3]
 357:./Library/stm32f4xx_sai.c ****                        SAI_SlotInitStruct->SAI_SlotSize       | 
 349              		.loc 1 357 42
 350 0022 3B68     		ldr	r3, [r7]
 351 0024 5B68     		ldr	r3, [r3, #4]
 356:./Library/stm32f4xx_sai.c ****                        SAI_SlotInitStruct->SAI_SlotSize       | 
 352              		.loc 1 356 63
 353 0026 1A43     		orrs	r2, r2, r3
 358:./Library/stm32f4xx_sai.c ****                        SAI_SlotInitStruct->SAI_SlotActive     |    
 354              		.loc 1 358 42
 355 0028 3B68     		ldr	r3, [r7]
 356 002a DB68     		ldr	r3, [r3, #12]
 357:./Library/stm32f4xx_sai.c ****                        SAI_SlotInitStruct->SAI_SlotSize       | 
 357              		.loc 1 357 63
 358 002c 1A43     		orrs	r2, r2, r3
 359:./Library/stm32f4xx_sai.c ****                        (uint32_t)((SAI_SlotInitStruct->SAI_SlotNumber - 1) <<  8));
 359              		.loc 1 359 54
 360 002e 3B68     		ldr	r3, [r7]
 361 0030 9B68     		ldr	r3, [r3, #8]
 362              		.loc 1 359 71
 363 0032 013B     		subs	r3, r3, #1
 364              		.loc 1 359 24
 365 0034 1B02     		lsls	r3, r3, #8
 356:./Library/stm32f4xx_sai.c ****                        SAI_SlotInitStruct->SAI_SlotSize       | 
 366              		.loc 1 356 13
 367 0036 1343     		orrs	r3, r3, r2
 356:./Library/stm32f4xx_sai.c ****                        SAI_SlotInitStruct->SAI_SlotSize       | 
 368              		.loc 1 356 10
 369 0038 FA68     		ldr	r2, [r7, #12]
 370 003a 1343     		orrs	r3, r3, r2
 371 003c FB60     		str	r3, [r7, #12]
 360:./Library/stm32f4xx_sai.c ****                        
 361:./Library/stm32f4xx_sai.c ****   /* Write to SAI_Block_x SLOTR */
 362:./Library/stm32f4xx_sai.c ****   SAI_Block_x->SLOTR = tmpreg;
ARM GAS  /var/folders/yl/_q9l42k90g1g4mdhbs226msm0000gn/T//cc48f3PC.s 			page 14


 372              		.loc 1 362 22
 373 003e 7B68     		ldr	r3, [r7, #4]
 374 0040 FA68     		ldr	r2, [r7, #12]
 375 0042 DA60     		str	r2, [r3, #12]
 363:./Library/stm32f4xx_sai.c **** }
 376              		.loc 1 363 1
 377 0044 00BF     		nop
 378 0046 1437     		adds	r7, r7, #20
 379              	.LCFI20:
 380              		.cfi_def_cfa_offset 4
 381 0048 BD46     		mov	sp, r7
 382              	.LCFI21:
 383              		.cfi_def_cfa_register 13
 384              		@ sp needed
 385 004a 5DF8047B 		ldr	r7, [sp], #4
 386              	.LCFI22:
 387              		.cfi_restore 7
 388              		.cfi_def_cfa_offset 0
 389 004e 7047     		bx	lr
 390              		.cfi_endproc
 391              	.LFE126:
 393              		.section	.text.SAI_StructInit,"ax",%progbits
 394              		.align	1
 395              		.global	SAI_StructInit
 396              		.syntax unified
 397              		.thumb
 398              		.thumb_func
 400              	SAI_StructInit:
 401              	.LFB127:
 364:./Library/stm32f4xx_sai.c **** 
 365:./Library/stm32f4xx_sai.c **** /**
 366:./Library/stm32f4xx_sai.c ****   * @brief  Fills each SAI_InitStruct member with its default value.
 367:./Library/stm32f4xx_sai.c ****   * @param  SAI_InitStruct: pointer to a SAI_InitTypeDef structure which will 
 368:./Library/stm32f4xx_sai.c ****   *         be initialized.  
 369:./Library/stm32f4xx_sai.c ****   * @retval None
 370:./Library/stm32f4xx_sai.c ****   */
 371:./Library/stm32f4xx_sai.c **** void SAI_StructInit(SAI_InitTypeDef* SAI_InitStruct)
 372:./Library/stm32f4xx_sai.c **** {
 402              		.loc 1 372 1
 403              		.cfi_startproc
 404              		@ args = 0, pretend = 0, frame = 8
 405              		@ frame_needed = 1, uses_anonymous_args = 0
 406              		@ link register save eliminated.
 407 0000 80B4     		push	{r7}
 408              	.LCFI23:
 409              		.cfi_def_cfa_offset 4
 410              		.cfi_offset 7, -4
 411 0002 83B0     		sub	sp, sp, #12
 412              	.LCFI24:
 413              		.cfi_def_cfa_offset 16
 414 0004 00AF     		add	r7, sp, #0
 415              	.LCFI25:
 416              		.cfi_def_cfa_register 7
 417 0006 7860     		str	r0, [r7, #4]
 373:./Library/stm32f4xx_sai.c ****   /* Reset SAI init structure parameters values */
 374:./Library/stm32f4xx_sai.c ****   /* Initialize the SAI_AudioMode member */
 375:./Library/stm32f4xx_sai.c ****   SAI_InitStruct->SAI_AudioMode = SAI_Mode_MasterTx;
ARM GAS  /var/folders/yl/_q9l42k90g1g4mdhbs226msm0000gn/T//cc48f3PC.s 			page 15


 418              		.loc 1 375 33
 419 0008 7B68     		ldr	r3, [r7, #4]
 420 000a 0022     		movs	r2, #0
 421 000c 1A60     		str	r2, [r3]
 376:./Library/stm32f4xx_sai.c ****   /* Initialize the SAI_Protocol member */
 377:./Library/stm32f4xx_sai.c ****   SAI_InitStruct->SAI_Protocol = SAI_Free_Protocol;
 422              		.loc 1 377 32
 423 000e 7B68     		ldr	r3, [r7, #4]
 424 0010 0022     		movs	r2, #0
 425 0012 5A60     		str	r2, [r3, #4]
 378:./Library/stm32f4xx_sai.c ****   /* Initialize the SAI_DataSize member */
 379:./Library/stm32f4xx_sai.c ****   SAI_InitStruct->SAI_DataSize = SAI_DataSize_8b;
 426              		.loc 1 379 32
 427 0014 7B68     		ldr	r3, [r7, #4]
 428 0016 4022     		movs	r2, #64
 429 0018 9A60     		str	r2, [r3, #8]
 380:./Library/stm32f4xx_sai.c ****   /* Initialize the SAI_FirstBit member */
 381:./Library/stm32f4xx_sai.c ****   SAI_InitStruct->SAI_FirstBit = SAI_FirstBit_MSB;
 430              		.loc 1 381 32
 431 001a 7B68     		ldr	r3, [r7, #4]
 432 001c 0022     		movs	r2, #0
 433 001e DA60     		str	r2, [r3, #12]
 382:./Library/stm32f4xx_sai.c ****   /* Initialize the SAI_ClockStrobing member */
 383:./Library/stm32f4xx_sai.c ****   SAI_InitStruct->SAI_ClockStrobing = SAI_ClockStrobing_FallingEdge;
 434              		.loc 1 383 37
 435 0020 7B68     		ldr	r3, [r7, #4]
 436 0022 0022     		movs	r2, #0
 437 0024 1A61     		str	r2, [r3, #16]
 384:./Library/stm32f4xx_sai.c ****   /* Initialize the SAI_Synchro member */
 385:./Library/stm32f4xx_sai.c ****   SAI_InitStruct->SAI_Synchro = SAI_Asynchronous;
 438              		.loc 1 385 31
 439 0026 7B68     		ldr	r3, [r7, #4]
 440 0028 0022     		movs	r2, #0
 441 002a 5A61     		str	r2, [r3, #20]
 386:./Library/stm32f4xx_sai.c ****     /* Initialize the SAI_SynchroExt member */
 387:./Library/stm32f4xx_sai.c ****   SAI_InitStruct->SAI_SynchroExt = SAI_SyncExt_Disable;
 442              		.loc 1 387 34
 443 002c 7B68     		ldr	r3, [r7, #4]
 444 002e 0022     		movs	r2, #0
 445 0030 9A61     		str	r2, [r3, #24]
 388:./Library/stm32f4xx_sai.c ****   /* Initialize the SAI_OUTDRIV member */
 389:./Library/stm32f4xx_sai.c ****   SAI_InitStruct->SAI_OUTDRIV = SAI_OutputDrive_Disabled;
 446              		.loc 1 389 31
 447 0032 7B68     		ldr	r3, [r7, #4]
 448 0034 0022     		movs	r2, #0
 449 0036 DA61     		str	r2, [r3, #28]
 390:./Library/stm32f4xx_sai.c ****   /* Initialize the SAI_NoDivider member */
 391:./Library/stm32f4xx_sai.c ****   SAI_InitStruct->SAI_NoDivider = SAI_MasterDivider_Enabled;
 450              		.loc 1 391 33
 451 0038 7B68     		ldr	r3, [r7, #4]
 452 003a 0022     		movs	r2, #0
 453 003c 1A62     		str	r2, [r3, #32]
 392:./Library/stm32f4xx_sai.c ****   /* Initialize the SAI_MasterDivider member */
 393:./Library/stm32f4xx_sai.c ****   SAI_InitStruct->SAI_MasterDivider = 0;
 454              		.loc 1 393 37
 455 003e 7B68     		ldr	r3, [r7, #4]
 456 0040 0022     		movs	r2, #0
ARM GAS  /var/folders/yl/_q9l42k90g1g4mdhbs226msm0000gn/T//cc48f3PC.s 			page 16


 457 0042 5A62     		str	r2, [r3, #36]
 394:./Library/stm32f4xx_sai.c ****   /* Initialize the SAI_FIFOThreshold member */
 395:./Library/stm32f4xx_sai.c ****   SAI_InitStruct->SAI_FIFOThreshold = SAI_Threshold_FIFOEmpty;
 458              		.loc 1 395 37
 459 0044 7B68     		ldr	r3, [r7, #4]
 460 0046 0022     		movs	r2, #0
 461 0048 9A62     		str	r2, [r3, #40]
 396:./Library/stm32f4xx_sai.c **** }
 462              		.loc 1 396 1
 463 004a 00BF     		nop
 464 004c 0C37     		adds	r7, r7, #12
 465              	.LCFI26:
 466              		.cfi_def_cfa_offset 4
 467 004e BD46     		mov	sp, r7
 468              	.LCFI27:
 469              		.cfi_def_cfa_register 13
 470              		@ sp needed
 471 0050 5DF8047B 		ldr	r7, [sp], #4
 472              	.LCFI28:
 473              		.cfi_restore 7
 474              		.cfi_def_cfa_offset 0
 475 0054 7047     		bx	lr
 476              		.cfi_endproc
 477              	.LFE127:
 479              		.section	.text.SAI_FrameStructInit,"ax",%progbits
 480              		.align	1
 481              		.global	SAI_FrameStructInit
 482              		.syntax unified
 483              		.thumb
 484              		.thumb_func
 486              	SAI_FrameStructInit:
 487              	.LFB128:
 397:./Library/stm32f4xx_sai.c **** 
 398:./Library/stm32f4xx_sai.c **** /**
 399:./Library/stm32f4xx_sai.c ****   * @brief  Fills each SAI_FrameInitStruct member with its default value.
 400:./Library/stm32f4xx_sai.c ****   * @param  SAI_FrameInitStruct: pointer to a SAI_FrameInitTypeDef structure 
 401:./Library/stm32f4xx_sai.c ****   *         which will be initialized.                     
 402:./Library/stm32f4xx_sai.c ****   * @retval None
 403:./Library/stm32f4xx_sai.c ****   */
 404:./Library/stm32f4xx_sai.c **** void SAI_FrameStructInit(SAI_FrameInitTypeDef* SAI_FrameInitStruct)
 405:./Library/stm32f4xx_sai.c **** {
 488              		.loc 1 405 1
 489              		.cfi_startproc
 490              		@ args = 0, pretend = 0, frame = 8
 491              		@ frame_needed = 1, uses_anonymous_args = 0
 492              		@ link register save eliminated.
 493 0000 80B4     		push	{r7}
 494              	.LCFI29:
 495              		.cfi_def_cfa_offset 4
 496              		.cfi_offset 7, -4
 497 0002 83B0     		sub	sp, sp, #12
 498              	.LCFI30:
 499              		.cfi_def_cfa_offset 16
 500 0004 00AF     		add	r7, sp, #0
 501              	.LCFI31:
 502              		.cfi_def_cfa_register 7
 503 0006 7860     		str	r0, [r7, #4]
ARM GAS  /var/folders/yl/_q9l42k90g1g4mdhbs226msm0000gn/T//cc48f3PC.s 			page 17


 406:./Library/stm32f4xx_sai.c ****   /* Reset SAI Frame init structure parameters values */
 407:./Library/stm32f4xx_sai.c ****   /* Initialize the SAI_FrameLength member */
 408:./Library/stm32f4xx_sai.c ****   SAI_FrameInitStruct->SAI_FrameLength = 8;
 504              		.loc 1 408 40
 505 0008 7B68     		ldr	r3, [r7, #4]
 506 000a 0822     		movs	r2, #8
 507 000c 1A60     		str	r2, [r3]
 409:./Library/stm32f4xx_sai.c ****   /* Initialize the SAI_ActiveFrameLength member */
 410:./Library/stm32f4xx_sai.c ****   SAI_FrameInitStruct->SAI_ActiveFrameLength = 1;
 508              		.loc 1 410 46
 509 000e 7B68     		ldr	r3, [r7, #4]
 510 0010 0122     		movs	r2, #1
 511 0012 5A60     		str	r2, [r3, #4]
 411:./Library/stm32f4xx_sai.c ****   /* Initialize the SAI_FSDefinition member */
 412:./Library/stm32f4xx_sai.c ****   SAI_FrameInitStruct->SAI_FSDefinition = SAI_FS_StartFrame;
 512              		.loc 1 412 41
 513 0014 7B68     		ldr	r3, [r7, #4]
 514 0016 0022     		movs	r2, #0
 515 0018 9A60     		str	r2, [r3, #8]
 413:./Library/stm32f4xx_sai.c ****   /* Initialize the SAI_FSPolarity member */
 414:./Library/stm32f4xx_sai.c ****   SAI_FrameInitStruct->SAI_FSPolarity = SAI_FS_ActiveLow;
 516              		.loc 1 414 39
 517 001a 7B68     		ldr	r3, [r7, #4]
 518 001c 0022     		movs	r2, #0
 519 001e DA60     		str	r2, [r3, #12]
 415:./Library/stm32f4xx_sai.c ****   /* Initialize the SAI_FSOffset member */
 416:./Library/stm32f4xx_sai.c ****   SAI_FrameInitStruct->SAI_FSOffset = SAI_FS_FirstBit;
 520              		.loc 1 416 37
 521 0020 7B68     		ldr	r3, [r7, #4]
 522 0022 0022     		movs	r2, #0
 523 0024 1A61     		str	r2, [r3, #16]
 417:./Library/stm32f4xx_sai.c **** }
 524              		.loc 1 417 1
 525 0026 00BF     		nop
 526 0028 0C37     		adds	r7, r7, #12
 527              	.LCFI32:
 528              		.cfi_def_cfa_offset 4
 529 002a BD46     		mov	sp, r7
 530              	.LCFI33:
 531              		.cfi_def_cfa_register 13
 532              		@ sp needed
 533 002c 5DF8047B 		ldr	r7, [sp], #4
 534              	.LCFI34:
 535              		.cfi_restore 7
 536              		.cfi_def_cfa_offset 0
 537 0030 7047     		bx	lr
 538              		.cfi_endproc
 539              	.LFE128:
 541              		.section	.text.SAI_SlotStructInit,"ax",%progbits
 542              		.align	1
 543              		.global	SAI_SlotStructInit
 544              		.syntax unified
 545              		.thumb
 546              		.thumb_func
 548              	SAI_SlotStructInit:
 549              	.LFB129:
 418:./Library/stm32f4xx_sai.c **** 
ARM GAS  /var/folders/yl/_q9l42k90g1g4mdhbs226msm0000gn/T//cc48f3PC.s 			page 18


 419:./Library/stm32f4xx_sai.c **** /**
 420:./Library/stm32f4xx_sai.c ****   * @brief  Fills each SAI_SlotInitStruct member with its default value.
 421:./Library/stm32f4xx_sai.c ****   * @param  SAI_SlotInitStruct: pointer to a SAI_SlotInitTypeDef structure 
 422:./Library/stm32f4xx_sai.c ****   *         which will be initialized.                     
 423:./Library/stm32f4xx_sai.c ****   * @retval None
 424:./Library/stm32f4xx_sai.c ****   */
 425:./Library/stm32f4xx_sai.c **** void SAI_SlotStructInit(SAI_SlotInitTypeDef* SAI_SlotInitStruct)
 426:./Library/stm32f4xx_sai.c **** {
 550              		.loc 1 426 1
 551              		.cfi_startproc
 552              		@ args = 0, pretend = 0, frame = 8
 553              		@ frame_needed = 1, uses_anonymous_args = 0
 554              		@ link register save eliminated.
 555 0000 80B4     		push	{r7}
 556              	.LCFI35:
 557              		.cfi_def_cfa_offset 4
 558              		.cfi_offset 7, -4
 559 0002 83B0     		sub	sp, sp, #12
 560              	.LCFI36:
 561              		.cfi_def_cfa_offset 16
 562 0004 00AF     		add	r7, sp, #0
 563              	.LCFI37:
 564              		.cfi_def_cfa_register 7
 565 0006 7860     		str	r0, [r7, #4]
 427:./Library/stm32f4xx_sai.c ****   /* Reset SAI Slot init structure parameters values */
 428:./Library/stm32f4xx_sai.c ****   /* Initialize the SAI_FirstBitOffset member */
 429:./Library/stm32f4xx_sai.c ****   SAI_SlotInitStruct->SAI_FirstBitOffset = 0;
 566              		.loc 1 429 42
 567 0008 7B68     		ldr	r3, [r7, #4]
 568 000a 0022     		movs	r2, #0
 569 000c 1A60     		str	r2, [r3]
 430:./Library/stm32f4xx_sai.c ****   /* Initialize the SAI_SlotSize member */
 431:./Library/stm32f4xx_sai.c ****   SAI_SlotInitStruct->SAI_SlotSize = SAI_SlotSize_DataSize;
 570              		.loc 1 431 36
 571 000e 7B68     		ldr	r3, [r7, #4]
 572 0010 0022     		movs	r2, #0
 573 0012 5A60     		str	r2, [r3, #4]
 432:./Library/stm32f4xx_sai.c ****   /* Initialize the SAI_SlotNumber member */
 433:./Library/stm32f4xx_sai.c ****   SAI_SlotInitStruct->SAI_SlotNumber = 1;
 574              		.loc 1 433 38
 575 0014 7B68     		ldr	r3, [r7, #4]
 576 0016 0122     		movs	r2, #1
 577 0018 9A60     		str	r2, [r3, #8]
 434:./Library/stm32f4xx_sai.c ****   /* Initialize the SAI_SlotActive member */
 435:./Library/stm32f4xx_sai.c ****   SAI_SlotInitStruct->SAI_SlotActive = SAI_Slot_NotActive;
 578              		.loc 1 435 38
 579 001a 7B68     		ldr	r3, [r7, #4]
 580 001c 0022     		movs	r2, #0
 581 001e DA60     		str	r2, [r3, #12]
 436:./Library/stm32f4xx_sai.c **** 
 437:./Library/stm32f4xx_sai.c **** }
 582              		.loc 1 437 1
 583 0020 00BF     		nop
 584 0022 0C37     		adds	r7, r7, #12
 585              	.LCFI38:
 586              		.cfi_def_cfa_offset 4
 587 0024 BD46     		mov	sp, r7
ARM GAS  /var/folders/yl/_q9l42k90g1g4mdhbs226msm0000gn/T//cc48f3PC.s 			page 19


 588              	.LCFI39:
 589              		.cfi_def_cfa_register 13
 590              		@ sp needed
 591 0026 5DF8047B 		ldr	r7, [sp], #4
 592              	.LCFI40:
 593              		.cfi_restore 7
 594              		.cfi_def_cfa_offset 0
 595 002a 7047     		bx	lr
 596              		.cfi_endproc
 597              	.LFE129:
 599              		.section	.text.SAI_Cmd,"ax",%progbits
 600              		.align	1
 601              		.global	SAI_Cmd
 602              		.syntax unified
 603              		.thumb
 604              		.thumb_func
 606              	SAI_Cmd:
 607              	.LFB130:
 438:./Library/stm32f4xx_sai.c **** 
 439:./Library/stm32f4xx_sai.c **** /**
 440:./Library/stm32f4xx_sai.c ****   * @brief  Enables or disables the specified SAI Block peripheral.
 441:./Library/stm32f4xx_sai.c ****   * @param  SAI_Block_x: where x can be A or B to select the SAI Block peripheral.
 442:./Library/stm32f4xx_sai.c ****   * @param  NewState: new state of the SAI_Block_x peripheral. 
 443:./Library/stm32f4xx_sai.c ****   *          This parameter can be: ENABLE or DISABLE.
 444:./Library/stm32f4xx_sai.c ****   * @retval None
 445:./Library/stm32f4xx_sai.c ****   */
 446:./Library/stm32f4xx_sai.c **** void SAI_Cmd(SAI_Block_TypeDef* SAI_Block_x, FunctionalState NewState)
 447:./Library/stm32f4xx_sai.c **** {
 608              		.loc 1 447 1
 609              		.cfi_startproc
 610              		@ args = 0, pretend = 0, frame = 8
 611              		@ frame_needed = 1, uses_anonymous_args = 0
 612              		@ link register save eliminated.
 613 0000 80B4     		push	{r7}
 614              	.LCFI41:
 615              		.cfi_def_cfa_offset 4
 616              		.cfi_offset 7, -4
 617 0002 83B0     		sub	sp, sp, #12
 618              	.LCFI42:
 619              		.cfi_def_cfa_offset 16
 620 0004 00AF     		add	r7, sp, #0
 621              	.LCFI43:
 622              		.cfi_def_cfa_register 7
 623 0006 7860     		str	r0, [r7, #4]
 624 0008 0B46     		mov	r3, r1
 625 000a FB70     		strb	r3, [r7, #3]
 448:./Library/stm32f4xx_sai.c ****   /* Check the parameters */
 449:./Library/stm32f4xx_sai.c ****   assert_param(IS_SAI_BLOCK_PERIPH(SAI_Block_x));
 450:./Library/stm32f4xx_sai.c ****   assert_param(IS_FUNCTIONAL_STATE(NewState));
 451:./Library/stm32f4xx_sai.c ****   if (NewState != DISABLE)
 626              		.loc 1 451 6
 627 000c FB78     		ldrb	r3, [r7, #3]	@ zero_extendqisi2
 628 000e 002B     		cmp	r3, #0
 629 0010 06D0     		beq	.L17
 452:./Library/stm32f4xx_sai.c ****   {
 453:./Library/stm32f4xx_sai.c ****     /* Enable the selected SAI peripheral */
 454:./Library/stm32f4xx_sai.c ****     SAI_Block_x->CR1 |= SAI_xCR1_SAIEN;
ARM GAS  /var/folders/yl/_q9l42k90g1g4mdhbs226msm0000gn/T//cc48f3PC.s 			page 20


 630              		.loc 1 454 22
 631 0012 7B68     		ldr	r3, [r7, #4]
 632 0014 1B68     		ldr	r3, [r3]
 633 0016 43F48032 		orr	r2, r3, #65536
 634 001a 7B68     		ldr	r3, [r7, #4]
 635 001c 1A60     		str	r2, [r3]
 455:./Library/stm32f4xx_sai.c ****   }
 456:./Library/stm32f4xx_sai.c ****   else
 457:./Library/stm32f4xx_sai.c ****   {
 458:./Library/stm32f4xx_sai.c ****     /* Disable the selected SAI peripheral */
 459:./Library/stm32f4xx_sai.c ****     SAI_Block_x->CR1 &= ~(SAI_xCR1_SAIEN);
 460:./Library/stm32f4xx_sai.c ****   }
 461:./Library/stm32f4xx_sai.c **** }
 636              		.loc 1 461 1
 637 001e 05E0     		b	.L19
 638              	.L17:
 459:./Library/stm32f4xx_sai.c ****   }
 639              		.loc 1 459 22
 640 0020 7B68     		ldr	r3, [r7, #4]
 641 0022 1B68     		ldr	r3, [r3]
 642 0024 23F48032 		bic	r2, r3, #65536
 643 0028 7B68     		ldr	r3, [r7, #4]
 644 002a 1A60     		str	r2, [r3]
 645              	.L19:
 646              		.loc 1 461 1
 647 002c 00BF     		nop
 648 002e 0C37     		adds	r7, r7, #12
 649              	.LCFI44:
 650              		.cfi_def_cfa_offset 4
 651 0030 BD46     		mov	sp, r7
 652              	.LCFI45:
 653              		.cfi_def_cfa_register 13
 654              		@ sp needed
 655 0032 5DF8047B 		ldr	r7, [sp], #4
 656              	.LCFI46:
 657              		.cfi_restore 7
 658              		.cfi_def_cfa_offset 0
 659 0036 7047     		bx	lr
 660              		.cfi_endproc
 661              	.LFE130:
 663              		.section	.text.SAI_MonoModeConfig,"ax",%progbits
 664              		.align	1
 665              		.global	SAI_MonoModeConfig
 666              		.syntax unified
 667              		.thumb
 668              		.thumb_func
 670              	SAI_MonoModeConfig:
 671              	.LFB131:
 462:./Library/stm32f4xx_sai.c **** 
 463:./Library/stm32f4xx_sai.c **** /**
 464:./Library/stm32f4xx_sai.c ****   * @brief  Configures the mono mode for the selected SAI block.
 465:./Library/stm32f4xx_sai.c ****   * 
 466:./Library/stm32f4xx_sai.c ****   * @note  This function has a meaning only when the number of slot is equal to 2. 
 467:./Library/stm32f4xx_sai.c ****   *      
 468:./Library/stm32f4xx_sai.c ****   * @param  SAI_Block_x: where x can be A or B to select the SAI Block peripheral.
 469:./Library/stm32f4xx_sai.c ****   * @param  SAI_MonoMode: specifies the SAI block mono mode.
 470:./Library/stm32f4xx_sai.c ****   *          This parameter can be one of the following values:
ARM GAS  /var/folders/yl/_q9l42k90g1g4mdhbs226msm0000gn/T//cc48f3PC.s 			page 21


 471:./Library/stm32f4xx_sai.c ****   *            @arg SAI_MonoMode : Set mono audio mode
 472:./Library/stm32f4xx_sai.c ****   *            @arg SAI_StreoMode : Set streo audio mode                       
 473:./Library/stm32f4xx_sai.c ****   * @retval None
 474:./Library/stm32f4xx_sai.c ****   */
 475:./Library/stm32f4xx_sai.c **** void SAI_MonoModeConfig(SAI_Block_TypeDef* SAI_Block_x, uint32_t SAI_Mono_StreoMode)
 476:./Library/stm32f4xx_sai.c **** {
 672              		.loc 1 476 1
 673              		.cfi_startproc
 674              		@ args = 0, pretend = 0, frame = 8
 675              		@ frame_needed = 1, uses_anonymous_args = 0
 676              		@ link register save eliminated.
 677 0000 80B4     		push	{r7}
 678              	.LCFI47:
 679              		.cfi_def_cfa_offset 4
 680              		.cfi_offset 7, -4
 681 0002 83B0     		sub	sp, sp, #12
 682              	.LCFI48:
 683              		.cfi_def_cfa_offset 16
 684 0004 00AF     		add	r7, sp, #0
 685              	.LCFI49:
 686              		.cfi_def_cfa_register 7
 687 0006 7860     		str	r0, [r7, #4]
 688 0008 3960     		str	r1, [r7]
 477:./Library/stm32f4xx_sai.c ****   /* Check the parameters */
 478:./Library/stm32f4xx_sai.c ****   assert_param(IS_SAI_BLOCK_PERIPH(SAI_Block_x));
 479:./Library/stm32f4xx_sai.c ****   assert_param(IS_SAI_BLOCK_MONO_STREO_MODE(SAI_MonoMode));
 480:./Library/stm32f4xx_sai.c ****   /* Clear MONO bit */
 481:./Library/stm32f4xx_sai.c ****   SAI_Block_x->CR1 &= ~(SAI_xCR1_MONO);
 689              		.loc 1 481 20
 690 000a 7B68     		ldr	r3, [r7, #4]
 691 000c 1B68     		ldr	r3, [r3]
 692 000e 23F48052 		bic	r2, r3, #4096
 693 0012 7B68     		ldr	r3, [r7, #4]
 694 0014 1A60     		str	r2, [r3]
 482:./Library/stm32f4xx_sai.c ****   /* Set new Mono Mode value */
 483:./Library/stm32f4xx_sai.c ****   SAI_Block_x->CR1 |= SAI_MonoMode;
 695              		.loc 1 483 20
 696 0016 7B68     		ldr	r3, [r7, #4]
 697 0018 1B68     		ldr	r3, [r3]
 698 001a 43F48052 		orr	r2, r3, #4096
 699 001e 7B68     		ldr	r3, [r7, #4]
 700 0020 1A60     		str	r2, [r3]
 484:./Library/stm32f4xx_sai.c **** }
 701              		.loc 1 484 1
 702 0022 00BF     		nop
 703 0024 0C37     		adds	r7, r7, #12
 704              	.LCFI50:
 705              		.cfi_def_cfa_offset 4
 706 0026 BD46     		mov	sp, r7
 707              	.LCFI51:
 708              		.cfi_def_cfa_register 13
 709              		@ sp needed
 710 0028 5DF8047B 		ldr	r7, [sp], #4
 711              	.LCFI52:
 712              		.cfi_restore 7
 713              		.cfi_def_cfa_offset 0
 714 002c 7047     		bx	lr
ARM GAS  /var/folders/yl/_q9l42k90g1g4mdhbs226msm0000gn/T//cc48f3PC.s 			page 22


 715              		.cfi_endproc
 716              	.LFE131:
 718              		.section	.text.SAI_TRIStateConfig,"ax",%progbits
 719              		.align	1
 720              		.global	SAI_TRIStateConfig
 721              		.syntax unified
 722              		.thumb
 723              		.thumb_func
 725              	SAI_TRIStateConfig:
 726              	.LFB132:
 485:./Library/stm32f4xx_sai.c **** 
 486:./Library/stm32f4xx_sai.c **** /**
 487:./Library/stm32f4xx_sai.c ****   * @brief  Configures the TRIState management on data line for the selected SAI block.
 488:./Library/stm32f4xx_sai.c ****   * 
 489:./Library/stm32f4xx_sai.c ****   * @note  This function has a meaning only when the SAI block is configured in transmitter 
 490:./Library/stm32f4xx_sai.c ****   *      
 491:./Library/stm32f4xx_sai.c ****   * @param  SAI_Block_x: where x can be A or B to select the SAI Block peripheral.
 492:./Library/stm32f4xx_sai.c ****   * @param  SAI_TRIState: specifies the SAI block TRIState management.
 493:./Library/stm32f4xx_sai.c ****   *          This parameter can be one of the following values:
 494:./Library/stm32f4xx_sai.c ****   *            @arg SAI_Output_NotReleased : SD output line is still driven by the SAI.
 495:./Library/stm32f4xx_sai.c ****   *            @arg SAI_Output_Released : SD output line is released (HI-Z)                       
 496:./Library/stm32f4xx_sai.c ****   * @retval None
 497:./Library/stm32f4xx_sai.c ****   */
 498:./Library/stm32f4xx_sai.c **** void SAI_TRIStateConfig(SAI_Block_TypeDef* SAI_Block_x, uint32_t SAI_TRIState)
 499:./Library/stm32f4xx_sai.c **** {
 727              		.loc 1 499 1
 728              		.cfi_startproc
 729              		@ args = 0, pretend = 0, frame = 8
 730              		@ frame_needed = 1, uses_anonymous_args = 0
 731              		@ link register save eliminated.
 732 0000 80B4     		push	{r7}
 733              	.LCFI53:
 734              		.cfi_def_cfa_offset 4
 735              		.cfi_offset 7, -4
 736 0002 83B0     		sub	sp, sp, #12
 737              	.LCFI54:
 738              		.cfi_def_cfa_offset 16
 739 0004 00AF     		add	r7, sp, #0
 740              	.LCFI55:
 741              		.cfi_def_cfa_register 7
 742 0006 7860     		str	r0, [r7, #4]
 743 0008 3960     		str	r1, [r7]
 500:./Library/stm32f4xx_sai.c ****   /* Check the parameters */
 501:./Library/stm32f4xx_sai.c ****   assert_param(IS_SAI_BLOCK_PERIPH(SAI_Block_x));
 502:./Library/stm32f4xx_sai.c ****   assert_param(IS_SAI_BLOCK_TRISTATE_MANAGEMENT(SAI_TRIState));
 503:./Library/stm32f4xx_sai.c ****   /* Clear MONO bit */
 504:./Library/stm32f4xx_sai.c ****   SAI_Block_x->CR1 &= ~(SAI_xCR1_MONO);
 744              		.loc 1 504 20
 745 000a 7B68     		ldr	r3, [r7, #4]
 746 000c 1B68     		ldr	r3, [r3]
 747 000e 23F48052 		bic	r2, r3, #4096
 748 0012 7B68     		ldr	r3, [r7, #4]
 749 0014 1A60     		str	r2, [r3]
 505:./Library/stm32f4xx_sai.c ****   /* Set new Mono Mode value */
 506:./Library/stm32f4xx_sai.c ****   SAI_Block_x->CR1 |= SAI_MonoMode;  
 750              		.loc 1 506 20
 751 0016 7B68     		ldr	r3, [r7, #4]
ARM GAS  /var/folders/yl/_q9l42k90g1g4mdhbs226msm0000gn/T//cc48f3PC.s 			page 23


 752 0018 1B68     		ldr	r3, [r3]
 753 001a 43F48052 		orr	r2, r3, #4096
 754 001e 7B68     		ldr	r3, [r7, #4]
 755 0020 1A60     		str	r2, [r3]
 507:./Library/stm32f4xx_sai.c ****   
 508:./Library/stm32f4xx_sai.c **** }
 756              		.loc 1 508 1
 757 0022 00BF     		nop
 758 0024 0C37     		adds	r7, r7, #12
 759              	.LCFI56:
 760              		.cfi_def_cfa_offset 4
 761 0026 BD46     		mov	sp, r7
 762              	.LCFI57:
 763              		.cfi_def_cfa_register 13
 764              		@ sp needed
 765 0028 5DF8047B 		ldr	r7, [sp], #4
 766              	.LCFI58:
 767              		.cfi_restore 7
 768              		.cfi_def_cfa_offset 0
 769 002c 7047     		bx	lr
 770              		.cfi_endproc
 771              	.LFE132:
 773              		.section	.text.SAI_CompandingModeConfig,"ax",%progbits
 774              		.align	1
 775              		.global	SAI_CompandingModeConfig
 776              		.syntax unified
 777              		.thumb
 778              		.thumb_func
 780              	SAI_CompandingModeConfig:
 781              	.LFB133:
 509:./Library/stm32f4xx_sai.c **** 
 510:./Library/stm32f4xx_sai.c **** /**
 511:./Library/stm32f4xx_sai.c ****   * @brief  Configures the companding mode for the selected SAI block.
 512:./Library/stm32f4xx_sai.c ****   * 
 513:./Library/stm32f4xx_sai.c ****   * @note  The data expansion or data compression are determined by the state of
 514:./Library/stm32f4xx_sai.c ****   *        SAI block selected (transmitter or receiver). 
 515:./Library/stm32f4xx_sai.c **** 
 516:./Library/stm32f4xx_sai.c ****   * @param  SAI_Block_x: where x can be A or B to select the SAI Block peripheral.              
 517:./Library/stm32f4xx_sai.c ****   * @param  SAI_CompandingMode: specifies the SAI block companding mode.
 518:./Library/stm32f4xx_sai.c ****   *          This parameter can be one of the following values:
 519:./Library/stm32f4xx_sai.c ****   *            @arg SAI_NoCompanding : no companding algorithm set
 520:./Library/stm32f4xx_sai.c ****   *            @arg SAI_ULaw_1CPL_Companding : Set U law (algorithm 1's complement representation)
 521:./Library/stm32f4xx_sai.c ****   *            @arg SAI_ALaw_1CPL_Companding : Set A law (algorithm 1's complement representation) 
 522:./Library/stm32f4xx_sai.c ****   *            @arg SAI_ULaw_2CPL_Companding : Set U law (algorithm 2's complement representation)
 523:./Library/stm32f4xx_sai.c ****   *            @arg SAI_ALaw_2CPL_Companding : Set A law (algorithm 2's complement representation) 
 524:./Library/stm32f4xx_sai.c ****   * @retval None
 525:./Library/stm32f4xx_sai.c ****   */
 526:./Library/stm32f4xx_sai.c **** void SAI_CompandingModeConfig(SAI_Block_TypeDef* SAI_Block_x, uint32_t SAI_CompandingMode)
 527:./Library/stm32f4xx_sai.c **** {
 782              		.loc 1 527 1
 783              		.cfi_startproc
 784              		@ args = 0, pretend = 0, frame = 8
 785              		@ frame_needed = 1, uses_anonymous_args = 0
 786              		@ link register save eliminated.
 787 0000 80B4     		push	{r7}
 788              	.LCFI59:
 789              		.cfi_def_cfa_offset 4
ARM GAS  /var/folders/yl/_q9l42k90g1g4mdhbs226msm0000gn/T//cc48f3PC.s 			page 24


 790              		.cfi_offset 7, -4
 791 0002 83B0     		sub	sp, sp, #12
 792              	.LCFI60:
 793              		.cfi_def_cfa_offset 16
 794 0004 00AF     		add	r7, sp, #0
 795              	.LCFI61:
 796              		.cfi_def_cfa_register 7
 797 0006 7860     		str	r0, [r7, #4]
 798 0008 3960     		str	r1, [r7]
 528:./Library/stm32f4xx_sai.c ****   /* Check the parameters */
 529:./Library/stm32f4xx_sai.c ****   assert_param(IS_SAI_BLOCK_PERIPH(SAI_Block_x));
 530:./Library/stm32f4xx_sai.c ****   assert_param(IS_SAI_BLOCK_COMPANDING_MODE(SAI_CompandingMode));
 531:./Library/stm32f4xx_sai.c ****   /* Clear Companding Mode bits */
 532:./Library/stm32f4xx_sai.c ****   SAI_Block_x->CR2 &= ~(SAI_xCR2_COMP);
 799              		.loc 1 532 20
 800 000a 7B68     		ldr	r3, [r7, #4]
 801 000c 5B68     		ldr	r3, [r3, #4]
 802 000e 23F44042 		bic	r2, r3, #49152
 803 0012 7B68     		ldr	r3, [r7, #4]
 804 0014 5A60     		str	r2, [r3, #4]
 533:./Library/stm32f4xx_sai.c ****   /* Set new Companding Mode value */
 534:./Library/stm32f4xx_sai.c ****   SAI_Block_x->CR2 |= SAI_CompandingMode;
 805              		.loc 1 534 20
 806 0016 7B68     		ldr	r3, [r7, #4]
 807 0018 5A68     		ldr	r2, [r3, #4]
 808 001a 3B68     		ldr	r3, [r7]
 809 001c 1A43     		orrs	r2, r2, r3
 810 001e 7B68     		ldr	r3, [r7, #4]
 811 0020 5A60     		str	r2, [r3, #4]
 535:./Library/stm32f4xx_sai.c **** }
 812              		.loc 1 535 1
 813 0022 00BF     		nop
 814 0024 0C37     		adds	r7, r7, #12
 815              	.LCFI62:
 816              		.cfi_def_cfa_offset 4
 817 0026 BD46     		mov	sp, r7
 818              	.LCFI63:
 819              		.cfi_def_cfa_register 13
 820              		@ sp needed
 821 0028 5DF8047B 		ldr	r7, [sp], #4
 822              	.LCFI64:
 823              		.cfi_restore 7
 824              		.cfi_def_cfa_offset 0
 825 002c 7047     		bx	lr
 826              		.cfi_endproc
 827              	.LFE133:
 829              		.section	.text.SAI_MuteModeCmd,"ax",%progbits
 830              		.align	1
 831              		.global	SAI_MuteModeCmd
 832              		.syntax unified
 833              		.thumb
 834              		.thumb_func
 836              	SAI_MuteModeCmd:
 837              	.LFB134:
 536:./Library/stm32f4xx_sai.c **** 
 537:./Library/stm32f4xx_sai.c **** /**
 538:./Library/stm32f4xx_sai.c ****   * @brief  Enables or disables the Mute mode for the selected SAI block.
ARM GAS  /var/folders/yl/_q9l42k90g1g4mdhbs226msm0000gn/T//cc48f3PC.s 			page 25


 539:./Library/stm32f4xx_sai.c ****   *    
 540:./Library/stm32f4xx_sai.c ****   * @note   This function has a meaning only when the audio block is transmitter
 541:./Library/stm32f4xx_sai.c ****   * @note   Mute mode is applied for an entire frame for all the valid slot
 542:./Library/stm32f4xx_sai.c ****   *         It becomes active at the end of an audio frame when set somewhere in a frame. 
 543:./Library/stm32f4xx_sai.c ****   *         Mute mode exit occurs at the end of the frame in which the bit MUTE has been set.
 544:./Library/stm32f4xx_sai.c ****   *
 545:./Library/stm32f4xx_sai.c ****   * @param  SAI_Block_x: where x can be A or B to select the SAI Block peripheral.
 546:./Library/stm32f4xx_sai.c ****   * @param  NewState: new state of the SAIx block. 
 547:./Library/stm32f4xx_sai.c ****   *          This parameter can be: ENABLE or DISABLE.
 548:./Library/stm32f4xx_sai.c ****   * @retval None
 549:./Library/stm32f4xx_sai.c ****   */
 550:./Library/stm32f4xx_sai.c **** void SAI_MuteModeCmd(SAI_Block_TypeDef* SAI_Block_x, FunctionalState NewState)
 551:./Library/stm32f4xx_sai.c **** {
 838              		.loc 1 551 1
 839              		.cfi_startproc
 840              		@ args = 0, pretend = 0, frame = 8
 841              		@ frame_needed = 1, uses_anonymous_args = 0
 842              		@ link register save eliminated.
 843 0000 80B4     		push	{r7}
 844              	.LCFI65:
 845              		.cfi_def_cfa_offset 4
 846              		.cfi_offset 7, -4
 847 0002 83B0     		sub	sp, sp, #12
 848              	.LCFI66:
 849              		.cfi_def_cfa_offset 16
 850 0004 00AF     		add	r7, sp, #0
 851              	.LCFI67:
 852              		.cfi_def_cfa_register 7
 853 0006 7860     		str	r0, [r7, #4]
 854 0008 0B46     		mov	r3, r1
 855 000a FB70     		strb	r3, [r7, #3]
 552:./Library/stm32f4xx_sai.c ****   /* Check the parameters */
 553:./Library/stm32f4xx_sai.c ****   assert_param(IS_SAI_BLOCK_PERIPH(SAI_Block_x));
 554:./Library/stm32f4xx_sai.c ****   assert_param(IS_FUNCTIONAL_STATE(NewState));
 555:./Library/stm32f4xx_sai.c ****   if (NewState != DISABLE)
 856              		.loc 1 555 6
 857 000c FB78     		ldrb	r3, [r7, #3]	@ zero_extendqisi2
 858 000e 002B     		cmp	r3, #0
 859 0010 06D0     		beq	.L24
 556:./Library/stm32f4xx_sai.c ****   {
 557:./Library/stm32f4xx_sai.c ****     /* Enable the selected SAI block mute mode */
 558:./Library/stm32f4xx_sai.c ****     SAI_Block_x->CR2 |= SAI_xCR2_MUTE;
 860              		.loc 1 558 22
 861 0012 7B68     		ldr	r3, [r7, #4]
 862 0014 5B68     		ldr	r3, [r3, #4]
 863 0016 43F02002 		orr	r2, r3, #32
 864 001a 7B68     		ldr	r3, [r7, #4]
 865 001c 5A60     		str	r2, [r3, #4]
 559:./Library/stm32f4xx_sai.c ****   }
 560:./Library/stm32f4xx_sai.c ****   else
 561:./Library/stm32f4xx_sai.c ****   {
 562:./Library/stm32f4xx_sai.c ****     /* Disable the selected SAI SS output */
 563:./Library/stm32f4xx_sai.c ****     SAI_Block_x->CR2 &= ~(SAI_xCR2_MUTE);
 564:./Library/stm32f4xx_sai.c ****   }
 565:./Library/stm32f4xx_sai.c **** }
 866              		.loc 1 565 1
 867 001e 05E0     		b	.L26
ARM GAS  /var/folders/yl/_q9l42k90g1g4mdhbs226msm0000gn/T//cc48f3PC.s 			page 26


 868              	.L24:
 563:./Library/stm32f4xx_sai.c ****   }
 869              		.loc 1 563 22
 870 0020 7B68     		ldr	r3, [r7, #4]
 871 0022 5B68     		ldr	r3, [r3, #4]
 872 0024 23F02002 		bic	r2, r3, #32
 873 0028 7B68     		ldr	r3, [r7, #4]
 874 002a 5A60     		str	r2, [r3, #4]
 875              	.L26:
 876              		.loc 1 565 1
 877 002c 00BF     		nop
 878 002e 0C37     		adds	r7, r7, #12
 879              	.LCFI68:
 880              		.cfi_def_cfa_offset 4
 881 0030 BD46     		mov	sp, r7
 882              	.LCFI69:
 883              		.cfi_def_cfa_register 13
 884              		@ sp needed
 885 0032 5DF8047B 		ldr	r7, [sp], #4
 886              	.LCFI70:
 887              		.cfi_restore 7
 888              		.cfi_def_cfa_offset 0
 889 0036 7047     		bx	lr
 890              		.cfi_endproc
 891              	.LFE134:
 893              		.section	.text.SAI_MuteValueConfig,"ax",%progbits
 894              		.align	1
 895              		.global	SAI_MuteValueConfig
 896              		.syntax unified
 897              		.thumb
 898              		.thumb_func
 900              	SAI_MuteValueConfig:
 901              	.LFB135:
 566:./Library/stm32f4xx_sai.c **** 
 567:./Library/stm32f4xx_sai.c **** /**
 568:./Library/stm32f4xx_sai.c ****   * @brief  Configure the mute value for the selected SAI block.
 569:./Library/stm32f4xx_sai.c ****   *    
 570:./Library/stm32f4xx_sai.c ****   * @note   This function has a meaning only when the audio block is transmitter
 571:./Library/stm32f4xx_sai.c ****   * @note   the configuration last value sent during mute mode has only a meaning 
 572:./Library/stm32f4xx_sai.c ****   *          when the number of slot is lower or equal to 2 and if the MUTE bit is set.
 573:./Library/stm32f4xx_sai.c ****   *           
 574:./Library/stm32f4xx_sai.c ****   * @param  SAI_Block_x: where x can be A or B to select the SAI Block peripheral.
 575:./Library/stm32f4xx_sai.c ****   * @param  SAI_MuteValue: specifies the SAI block mute value.
 576:./Library/stm32f4xx_sai.c ****   *          This parameter can be one of the following values:
 577:./Library/stm32f4xx_sai.c ****   *            @arg SAI_ZeroValue : bit value 0 is sent during Mute Mode
 578:./Library/stm32f4xx_sai.c ****   *            @arg SAI_LastSentValue : Last value is sent during Mute Mode  
 579:./Library/stm32f4xx_sai.c ****   * @retval None
 580:./Library/stm32f4xx_sai.c ****   */
 581:./Library/stm32f4xx_sai.c **** void SAI_MuteValueConfig(SAI_Block_TypeDef* SAI_Block_x, uint32_t SAI_MuteValue)
 582:./Library/stm32f4xx_sai.c **** {
 902              		.loc 1 582 1
 903              		.cfi_startproc
 904              		@ args = 0, pretend = 0, frame = 8
 905              		@ frame_needed = 1, uses_anonymous_args = 0
 906              		@ link register save eliminated.
 907 0000 80B4     		push	{r7}
 908              	.LCFI71:
ARM GAS  /var/folders/yl/_q9l42k90g1g4mdhbs226msm0000gn/T//cc48f3PC.s 			page 27


 909              		.cfi_def_cfa_offset 4
 910              		.cfi_offset 7, -4
 911 0002 83B0     		sub	sp, sp, #12
 912              	.LCFI72:
 913              		.cfi_def_cfa_offset 16
 914 0004 00AF     		add	r7, sp, #0
 915              	.LCFI73:
 916              		.cfi_def_cfa_register 7
 917 0006 7860     		str	r0, [r7, #4]
 918 0008 3960     		str	r1, [r7]
 583:./Library/stm32f4xx_sai.c ****   /* Check the parameters */
 584:./Library/stm32f4xx_sai.c ****   assert_param(IS_SAI_BLOCK_PERIPH(SAI_Block_x));
 585:./Library/stm32f4xx_sai.c ****   assert_param(IS_SAI_BLOCK_MUTE_VALUE(SAI_MuteValue));
 586:./Library/stm32f4xx_sai.c ****   
 587:./Library/stm32f4xx_sai.c ****   /* Clear Mute value bits */
 588:./Library/stm32f4xx_sai.c ****   SAI_Block_x->CR2 &= ~(SAI_xCR2_MUTEVAL);
 919              		.loc 1 588 20
 920 000a 7B68     		ldr	r3, [r7, #4]
 921 000c 5B68     		ldr	r3, [r3, #4]
 922 000e 23F04002 		bic	r2, r3, #64
 923 0012 7B68     		ldr	r3, [r7, #4]
 924 0014 5A60     		str	r2, [r3, #4]
 589:./Library/stm32f4xx_sai.c ****   /* Set new Mute value */
 590:./Library/stm32f4xx_sai.c ****   SAI_Block_x->CR2 |= SAI_MuteValue;
 925              		.loc 1 590 20
 926 0016 7B68     		ldr	r3, [r7, #4]
 927 0018 5A68     		ldr	r2, [r3, #4]
 928 001a 3B68     		ldr	r3, [r7]
 929 001c 1A43     		orrs	r2, r2, r3
 930 001e 7B68     		ldr	r3, [r7, #4]
 931 0020 5A60     		str	r2, [r3, #4]
 591:./Library/stm32f4xx_sai.c **** }
 932              		.loc 1 591 1
 933 0022 00BF     		nop
 934 0024 0C37     		adds	r7, r7, #12
 935              	.LCFI74:
 936              		.cfi_def_cfa_offset 4
 937 0026 BD46     		mov	sp, r7
 938              	.LCFI75:
 939              		.cfi_def_cfa_register 13
 940              		@ sp needed
 941 0028 5DF8047B 		ldr	r7, [sp], #4
 942              	.LCFI76:
 943              		.cfi_restore 7
 944              		.cfi_def_cfa_offset 0
 945 002c 7047     		bx	lr
 946              		.cfi_endproc
 947              	.LFE135:
 949              		.section	.text.SAI_MuteFrameCounterConfig,"ax",%progbits
 950              		.align	1
 951              		.global	SAI_MuteFrameCounterConfig
 952              		.syntax unified
 953              		.thumb
 954              		.thumb_func
 956              	SAI_MuteFrameCounterConfig:
 957              	.LFB136:
 592:./Library/stm32f4xx_sai.c **** 
ARM GAS  /var/folders/yl/_q9l42k90g1g4mdhbs226msm0000gn/T//cc48f3PC.s 			page 28


 593:./Library/stm32f4xx_sai.c **** /**
 594:./Library/stm32f4xx_sai.c ****   * @brief  Enables or disables the Mute mode for the selected SAI block. 
 595:./Library/stm32f4xx_sai.c ****   *
 596:./Library/stm32f4xx_sai.c ****   * @note   This function has a meaning only when the audio block is Receiver
 597:./Library/stm32f4xx_sai.c ****   * @param  SAI_Block_x: where x can be A or B to select the SAI Block peripheral.
 598:./Library/stm32f4xx_sai.c ****   * @param  SAI_MuteCounter: specifies the SAI block mute value.
 599:./Library/stm32f4xx_sai.c ****   *         This parameter can be a number between 0 and 63.  
 600:./Library/stm32f4xx_sai.c ****  
 601:./Library/stm32f4xx_sai.c ****   * @retval None
 602:./Library/stm32f4xx_sai.c ****   */
 603:./Library/stm32f4xx_sai.c **** void SAI_MuteFrameCounterConfig(SAI_Block_TypeDef* SAI_Block_x, uint32_t SAI_MuteCounter)
 604:./Library/stm32f4xx_sai.c **** {
 958              		.loc 1 604 1
 959              		.cfi_startproc
 960              		@ args = 0, pretend = 0, frame = 8
 961              		@ frame_needed = 1, uses_anonymous_args = 0
 962              		@ link register save eliminated.
 963 0000 80B4     		push	{r7}
 964              	.LCFI77:
 965              		.cfi_def_cfa_offset 4
 966              		.cfi_offset 7, -4
 967 0002 83B0     		sub	sp, sp, #12
 968              	.LCFI78:
 969              		.cfi_def_cfa_offset 16
 970 0004 00AF     		add	r7, sp, #0
 971              	.LCFI79:
 972              		.cfi_def_cfa_register 7
 973 0006 7860     		str	r0, [r7, #4]
 974 0008 3960     		str	r1, [r7]
 605:./Library/stm32f4xx_sai.c ****   /* Check the parameters */
 606:./Library/stm32f4xx_sai.c ****   assert_param(IS_SAI_BLOCK_PERIPH(SAI_Block_x));
 607:./Library/stm32f4xx_sai.c ****   assert_param(IS_SAI_BLOCK_MUTE_COUNTER(SAI_MuteCounter));
 608:./Library/stm32f4xx_sai.c ****   
 609:./Library/stm32f4xx_sai.c ****   /* Clear Mute value bits */
 610:./Library/stm32f4xx_sai.c ****   SAI_Block_x->CR2 &= ~(SAI_xCR2_MUTECNT);
 975              		.loc 1 610 20
 976 000a 7B68     		ldr	r3, [r7, #4]
 977 000c 5B68     		ldr	r3, [r3, #4]
 978 000e 23F4FC52 		bic	r2, r3, #8064
 979 0012 7B68     		ldr	r3, [r7, #4]
 980 0014 5A60     		str	r2, [r3, #4]
 611:./Library/stm32f4xx_sai.c ****   /* Set new Mute value */
 612:./Library/stm32f4xx_sai.c ****   SAI_Block_x->CR2 |= (SAI_MuteCounter << 7);
 981              		.loc 1 612 20
 982 0016 7B68     		ldr	r3, [r7, #4]
 983 0018 5A68     		ldr	r2, [r3, #4]
 984              		.loc 1 612 40
 985 001a 3B68     		ldr	r3, [r7]
 986 001c DB01     		lsls	r3, r3, #7
 987              		.loc 1 612 20
 988 001e 1A43     		orrs	r2, r2, r3
 989 0020 7B68     		ldr	r3, [r7, #4]
 990 0022 5A60     		str	r2, [r3, #4]
 613:./Library/stm32f4xx_sai.c **** }
 991              		.loc 1 613 1
 992 0024 00BF     		nop
 993 0026 0C37     		adds	r7, r7, #12
ARM GAS  /var/folders/yl/_q9l42k90g1g4mdhbs226msm0000gn/T//cc48f3PC.s 			page 29


 994              	.LCFI80:
 995              		.cfi_def_cfa_offset 4
 996 0028 BD46     		mov	sp, r7
 997              	.LCFI81:
 998              		.cfi_def_cfa_register 13
 999              		@ sp needed
 1000 002a 5DF8047B 		ldr	r7, [sp], #4
 1001              	.LCFI82:
 1002              		.cfi_restore 7
 1003              		.cfi_def_cfa_offset 0
 1004 002e 7047     		bx	lr
 1005              		.cfi_endproc
 1006              	.LFE136:
 1008              		.section	.text.SAI_FlushFIFO,"ax",%progbits
 1009              		.align	1
 1010              		.global	SAI_FlushFIFO
 1011              		.syntax unified
 1012              		.thumb
 1013              		.thumb_func
 1015              	SAI_FlushFIFO:
 1016              	.LFB137:
 614:./Library/stm32f4xx_sai.c **** #if defined(STM32F427xx) || defined(STM32F437xx) || defined(STM32F429xx) || defined(STM32F439xx) ||
 615:./Library/stm32f4xx_sai.c ****     defined(STM32F469_479xx) || defined(STM32F413_423xx) || defined(STM32F446xx)
 616:./Library/stm32f4xx_sai.c **** /**
 617:./Library/stm32f4xx_sai.c ****   * @brief  Configure SAI Block synchronization mode 
 618:./Library/stm32f4xx_sai.c ****   * @param  SAI_InitStruct: pointer to a SAI_InitTypeDef structure that
 619:./Library/stm32f4xx_sai.c ****   *         contains the configuration information for the specified SAI Block peripheral.
 620:./Library/stm32f4xx_sai.c ****   * @param  SAIx: To select the SAIx peripheral, where x can be the different instances
 621:./Library/stm32f4xx_sai.c ****   * @retval None 
 622:./Library/stm32f4xx_sai.c ****   */
 623:./Library/stm32f4xx_sai.c **** void SAI_BlockSynchroConfig(SAI_InitTypeDef* SAI_InitStruct, SAI_TypeDef* SAIx)
 624:./Library/stm32f4xx_sai.c **** {
 625:./Library/stm32f4xx_sai.c ****   uint32_t tmpregisterGCR = 0U;
 626:./Library/stm32f4xx_sai.c **** 
 627:./Library/stm32f4xx_sai.c **** #if defined(STM32F446xx)  
 628:./Library/stm32f4xx_sai.c ****   /* This setting must be done with both audio block (A & B) disabled         */
 629:./Library/stm32f4xx_sai.c ****   switch(SAI_InitStruct->SAI_SynchroExt)
 630:./Library/stm32f4xx_sai.c ****   {
 631:./Library/stm32f4xx_sai.c ****   case SAI_SyncExt_Disable :
 632:./Library/stm32f4xx_sai.c ****     tmpregisterGCR = 0U;
 633:./Library/stm32f4xx_sai.c ****     break;
 634:./Library/stm32f4xx_sai.c ****   case SAI_SyncExt_OutBlockA_Enable :
 635:./Library/stm32f4xx_sai.c ****     tmpregisterGCR = SAI_GCR_SYNCOUT_0;
 636:./Library/stm32f4xx_sai.c ****     break;
 637:./Library/stm32f4xx_sai.c ****   case SAI_SyncExt_OutBlockB_Enable :
 638:./Library/stm32f4xx_sai.c ****     tmpregisterGCR = SAI_GCR_SYNCOUT_1;
 639:./Library/stm32f4xx_sai.c ****     break;
 640:./Library/stm32f4xx_sai.c ****   default:
 641:./Library/stm32f4xx_sai.c ****     break;
 642:./Library/stm32f4xx_sai.c ****   }
 643:./Library/stm32f4xx_sai.c **** 
 644:./Library/stm32f4xx_sai.c ****   if(((SAI_InitStruct->SAI_Synchro) == SAI_Synchronous_Ext) && (SAIx == SAI1))
 645:./Library/stm32f4xx_sai.c ****   {
 646:./Library/stm32f4xx_sai.c ****     tmpregisterGCR |= SAI_GCR_SYNCIN_0;
 647:./Library/stm32f4xx_sai.c ****   }
 648:./Library/stm32f4xx_sai.c ****   
 649:./Library/stm32f4xx_sai.c ****   if(SAIx == SAI1)
ARM GAS  /var/folders/yl/_q9l42k90g1g4mdhbs226msm0000gn/T//cc48f3PC.s 			page 30


 650:./Library/stm32f4xx_sai.c ****   {
 651:./Library/stm32f4xx_sai.c ****    SAI1->GCR = tmpregisterGCR;
 652:./Library/stm32f4xx_sai.c ****   }
 653:./Library/stm32f4xx_sai.c ****   else
 654:./Library/stm32f4xx_sai.c ****   {
 655:./Library/stm32f4xx_sai.c ****    SAI2->GCR = tmpregisterGCR; 
 656:./Library/stm32f4xx_sai.c ****   }
 657:./Library/stm32f4xx_sai.c **** 
 658:./Library/stm32f4xx_sai.c **** #endif /* STM32F446xx */
 659:./Library/stm32f4xx_sai.c **** #if defined(STM32F427xx) || defined(STM32F437xx) || defined(STM32F429xx) || defined(STM32F439xx) ||
 660:./Library/stm32f4xx_sai.c ****     defined(STM32F469_479xx) || defined(STM32F413_423xx)
 661:./Library/stm32f4xx_sai.c ****   /* This setting must be done with both audio block (A & B) disabled         */
 662:./Library/stm32f4xx_sai.c ****   switch(SAI_InitStruct->SAI_SynchroExt)
 663:./Library/stm32f4xx_sai.c ****   {
 664:./Library/stm32f4xx_sai.c ****   case SAI_SyncExt_Disable :
 665:./Library/stm32f4xx_sai.c ****     tmpregisterGCR = 0U;
 666:./Library/stm32f4xx_sai.c ****     break;
 667:./Library/stm32f4xx_sai.c ****   case SAI_SyncExt_OutBlockA_Enable :
 668:./Library/stm32f4xx_sai.c ****     tmpregisterGCR = SAI_GCR_SYNCOUT_0;
 669:./Library/stm32f4xx_sai.c ****     break;
 670:./Library/stm32f4xx_sai.c ****   case SAI_SyncExt_OutBlockB_Enable :
 671:./Library/stm32f4xx_sai.c ****     tmpregisterGCR = SAI_GCR_SYNCOUT_1;
 672:./Library/stm32f4xx_sai.c ****     break;
 673:./Library/stm32f4xx_sai.c ****   default:
 674:./Library/stm32f4xx_sai.c ****     break;
 675:./Library/stm32f4xx_sai.c ****   }
 676:./Library/stm32f4xx_sai.c ****   SAI1->GCR = tmpregisterGCR;
 677:./Library/stm32f4xx_sai.c **** #endif /* STM32F427xx || STM32F437xx || STM32F429xx || STM32F439xx || STM32F469_479xx || STM32F413_
 678:./Library/stm32f4xx_sai.c **** }
 679:./Library/stm32f4xx_sai.c **** #endif /* STM32F427xx || STM32F437xx || STM32F429xx || STM32F439xx || STM32F469_479xx || STM32F413_
 680:./Library/stm32f4xx_sai.c **** 
 681:./Library/stm32f4xx_sai.c **** /**
 682:./Library/stm32f4xx_sai.c ****   * @brief  Reinitialize the FIFO pointer
 683:./Library/stm32f4xx_sai.c ****   *   
 684:./Library/stm32f4xx_sai.c ****   * @note   The FIFO pointers can be reinitialized at anytime The data present 
 685:./Library/stm32f4xx_sai.c ****   *         into the FIFO, if it is not empty, will be lost. 
 686:./Library/stm32f4xx_sai.c ****   * 
 687:./Library/stm32f4xx_sai.c ****   * @param  SAI_Block_x: where x can be A or B to select the SAI Block peripheral.
 688:./Library/stm32f4xx_sai.c ****   * @param  NewState: new state of the selected SAI TI communication mode.
 689:./Library/stm32f4xx_sai.c ****   *          This parameter can be: ENABLE or DISABLE.
 690:./Library/stm32f4xx_sai.c ****   * @retval None
 691:./Library/stm32f4xx_sai.c ****   */
 692:./Library/stm32f4xx_sai.c **** void SAI_FlushFIFO(SAI_Block_TypeDef* SAI_Block_x)
 693:./Library/stm32f4xx_sai.c **** {
 1017              		.loc 1 693 1
 1018              		.cfi_startproc
 1019              		@ args = 0, pretend = 0, frame = 8
 1020              		@ frame_needed = 1, uses_anonymous_args = 0
 1021              		@ link register save eliminated.
 1022 0000 80B4     		push	{r7}
 1023              	.LCFI83:
 1024              		.cfi_def_cfa_offset 4
 1025              		.cfi_offset 7, -4
 1026 0002 83B0     		sub	sp, sp, #12
 1027              	.LCFI84:
 1028              		.cfi_def_cfa_offset 16
 1029 0004 00AF     		add	r7, sp, #0
ARM GAS  /var/folders/yl/_q9l42k90g1g4mdhbs226msm0000gn/T//cc48f3PC.s 			page 31


 1030              	.LCFI85:
 1031              		.cfi_def_cfa_register 7
 1032 0006 7860     		str	r0, [r7, #4]
 694:./Library/stm32f4xx_sai.c ****   /* Check the parameters */
 695:./Library/stm32f4xx_sai.c ****   assert_param(IS_SAI_BLOCK_PERIPH(SAI_Block_x));
 696:./Library/stm32f4xx_sai.c **** 
 697:./Library/stm32f4xx_sai.c ****   /* FIFO flush */
 698:./Library/stm32f4xx_sai.c ****   SAI_Block_x->CR2 |= SAI_xCR2_FFLUSH;
 1033              		.loc 1 698 20
 1034 0008 7B68     		ldr	r3, [r7, #4]
 1035 000a 5B68     		ldr	r3, [r3, #4]
 1036 000c 43F00802 		orr	r2, r3, #8
 1037 0010 7B68     		ldr	r3, [r7, #4]
 1038 0012 5A60     		str	r2, [r3, #4]
 699:./Library/stm32f4xx_sai.c **** }
 1039              		.loc 1 699 1
 1040 0014 00BF     		nop
 1041 0016 0C37     		adds	r7, r7, #12
 1042              	.LCFI86:
 1043              		.cfi_def_cfa_offset 4
 1044 0018 BD46     		mov	sp, r7
 1045              	.LCFI87:
 1046              		.cfi_def_cfa_register 13
 1047              		@ sp needed
 1048 001a 5DF8047B 		ldr	r7, [sp], #4
 1049              	.LCFI88:
 1050              		.cfi_restore 7
 1051              		.cfi_def_cfa_offset 0
 1052 001e 7047     		bx	lr
 1053              		.cfi_endproc
 1054              	.LFE137:
 1056              		.section	.text.SAI_ReceiveData,"ax",%progbits
 1057              		.align	1
 1058              		.global	SAI_ReceiveData
 1059              		.syntax unified
 1060              		.thumb
 1061              		.thumb_func
 1063              	SAI_ReceiveData:
 1064              	.LFB138:
 700:./Library/stm32f4xx_sai.c **** 
 701:./Library/stm32f4xx_sai.c **** /**
 702:./Library/stm32f4xx_sai.c ****   * @}
 703:./Library/stm32f4xx_sai.c ****   */
 704:./Library/stm32f4xx_sai.c **** 
 705:./Library/stm32f4xx_sai.c **** /** @defgroup SAI_Group2 Data transfers functions
 706:./Library/stm32f4xx_sai.c ****  *  @brief   Data transfers functions
 707:./Library/stm32f4xx_sai.c ****  *
 708:./Library/stm32f4xx_sai.c **** @verbatim   
 709:./Library/stm32f4xx_sai.c ****  ===============================================================================
 710:./Library/stm32f4xx_sai.c ****                        ##### Data transfers functions #####
 711:./Library/stm32f4xx_sai.c ****  ===============================================================================  
 712:./Library/stm32f4xx_sai.c ****   [..]
 713:./Library/stm32f4xx_sai.c ****   This section provides a set of functions allowing to manage the SAI data transfers.
 714:./Library/stm32f4xx_sai.c ****   [..]
 715:./Library/stm32f4xx_sai.c ****   In reception, data are received and then stored into an internal FIFO while 
 716:./Library/stm32f4xx_sai.c ****   In transmission, data are first stored into an internal FIFO before being 
 717:./Library/stm32f4xx_sai.c ****   transmitted.
ARM GAS  /var/folders/yl/_q9l42k90g1g4mdhbs226msm0000gn/T//cc48f3PC.s 			page 32


 718:./Library/stm32f4xx_sai.c ****   [..]
 719:./Library/stm32f4xx_sai.c ****   The read access of the SAI_xDR register can be done using the SAI_ReceiveData()
 720:./Library/stm32f4xx_sai.c ****   function and returns the Rx buffered value. Whereas a write access to the SAI_DR 
 721:./Library/stm32f4xx_sai.c ****   can be done using SAI_SendData() function and stores the written data into 
 722:./Library/stm32f4xx_sai.c ****   Tx buffer.
 723:./Library/stm32f4xx_sai.c **** 
 724:./Library/stm32f4xx_sai.c **** @endverbatim
 725:./Library/stm32f4xx_sai.c ****   * @{
 726:./Library/stm32f4xx_sai.c ****   */
 727:./Library/stm32f4xx_sai.c **** 
 728:./Library/stm32f4xx_sai.c **** /**
 729:./Library/stm32f4xx_sai.c ****   * @brief  Returns the most recent received data by the SAI block x peripheral. 
 730:./Library/stm32f4xx_sai.c ****   * @param  SAI_Block_x: where x can be A or B to select the SAI Block peripheral. 
 731:./Library/stm32f4xx_sai.c ****   *         
 732:./Library/stm32f4xx_sai.c ****   * @retval The value of the received data.
 733:./Library/stm32f4xx_sai.c ****   */
 734:./Library/stm32f4xx_sai.c **** uint32_t SAI_ReceiveData(SAI_Block_TypeDef* SAI_Block_x)
 735:./Library/stm32f4xx_sai.c **** {
 1065              		.loc 1 735 1
 1066              		.cfi_startproc
 1067              		@ args = 0, pretend = 0, frame = 8
 1068              		@ frame_needed = 1, uses_anonymous_args = 0
 1069              		@ link register save eliminated.
 1070 0000 80B4     		push	{r7}
 1071              	.LCFI89:
 1072              		.cfi_def_cfa_offset 4
 1073              		.cfi_offset 7, -4
 1074 0002 83B0     		sub	sp, sp, #12
 1075              	.LCFI90:
 1076              		.cfi_def_cfa_offset 16
 1077 0004 00AF     		add	r7, sp, #0
 1078              	.LCFI91:
 1079              		.cfi_def_cfa_register 7
 1080 0006 7860     		str	r0, [r7, #4]
 736:./Library/stm32f4xx_sai.c ****   /* Check the parameters */
 737:./Library/stm32f4xx_sai.c ****   assert_param(IS_SAI_BLOCK_PERIPH(SAI_Block_x));
 738:./Library/stm32f4xx_sai.c ****   
 739:./Library/stm32f4xx_sai.c ****   /* Return the data in the DR register */
 740:./Library/stm32f4xx_sai.c ****   return SAI_Block_x->DR;
 1081              		.loc 1 740 21
 1082 0008 7B68     		ldr	r3, [r7, #4]
 1083 000a DB69     		ldr	r3, [r3, #28]
 741:./Library/stm32f4xx_sai.c **** }
 1084              		.loc 1 741 1
 1085 000c 1846     		mov	r0, r3
 1086 000e 0C37     		adds	r7, r7, #12
 1087              	.LCFI92:
 1088              		.cfi_def_cfa_offset 4
 1089 0010 BD46     		mov	sp, r7
 1090              	.LCFI93:
 1091              		.cfi_def_cfa_register 13
 1092              		@ sp needed
 1093 0012 5DF8047B 		ldr	r7, [sp], #4
 1094              	.LCFI94:
 1095              		.cfi_restore 7
 1096              		.cfi_def_cfa_offset 0
 1097 0016 7047     		bx	lr
ARM GAS  /var/folders/yl/_q9l42k90g1g4mdhbs226msm0000gn/T//cc48f3PC.s 			page 33


 1098              		.cfi_endproc
 1099              	.LFE138:
 1101              		.section	.text.SAI_SendData,"ax",%progbits
 1102              		.align	1
 1103              		.global	SAI_SendData
 1104              		.syntax unified
 1105              		.thumb
 1106              		.thumb_func
 1108              	SAI_SendData:
 1109              	.LFB139:
 742:./Library/stm32f4xx_sai.c **** 
 743:./Library/stm32f4xx_sai.c **** /**
 744:./Library/stm32f4xx_sai.c ****   * @brief  Transmits a Data through the SAI block x peripheral.
 745:./Library/stm32f4xx_sai.c ****   * @param  SAI_Block_x: where x can be A or B to select the SAI Block peripheral.
 746:./Library/stm32f4xx_sai.c ****   *        
 747:./Library/stm32f4xx_sai.c ****   * @param  Data: Data to be transmitted.
 748:./Library/stm32f4xx_sai.c ****   * @retval None
 749:./Library/stm32f4xx_sai.c ****   */
 750:./Library/stm32f4xx_sai.c **** void SAI_SendData(SAI_Block_TypeDef* SAI_Block_x, uint32_t Data)
 751:./Library/stm32f4xx_sai.c **** {
 1110              		.loc 1 751 1
 1111              		.cfi_startproc
 1112              		@ args = 0, pretend = 0, frame = 8
 1113              		@ frame_needed = 1, uses_anonymous_args = 0
 1114              		@ link register save eliminated.
 1115 0000 80B4     		push	{r7}
 1116              	.LCFI95:
 1117              		.cfi_def_cfa_offset 4
 1118              		.cfi_offset 7, -4
 1119 0002 83B0     		sub	sp, sp, #12
 1120              	.LCFI96:
 1121              		.cfi_def_cfa_offset 16
 1122 0004 00AF     		add	r7, sp, #0
 1123              	.LCFI97:
 1124              		.cfi_def_cfa_register 7
 1125 0006 7860     		str	r0, [r7, #4]
 1126 0008 3960     		str	r1, [r7]
 752:./Library/stm32f4xx_sai.c ****   /* Check the parameters */
 753:./Library/stm32f4xx_sai.c ****   assert_param(IS_SAI_BLOCK_PERIPH(SAI_Block_x));
 754:./Library/stm32f4xx_sai.c ****   
 755:./Library/stm32f4xx_sai.c ****   /* Write in the DR register the data to be sent */
 756:./Library/stm32f4xx_sai.c ****   SAI_Block_x->DR = Data;
 1127              		.loc 1 756 19
 1128 000a 7B68     		ldr	r3, [r7, #4]
 1129 000c 3A68     		ldr	r2, [r7]
 1130 000e DA61     		str	r2, [r3, #28]
 757:./Library/stm32f4xx_sai.c **** }
 1131              		.loc 1 757 1
 1132 0010 00BF     		nop
 1133 0012 0C37     		adds	r7, r7, #12
 1134              	.LCFI98:
 1135              		.cfi_def_cfa_offset 4
 1136 0014 BD46     		mov	sp, r7
 1137              	.LCFI99:
 1138              		.cfi_def_cfa_register 13
 1139              		@ sp needed
 1140 0016 5DF8047B 		ldr	r7, [sp], #4
ARM GAS  /var/folders/yl/_q9l42k90g1g4mdhbs226msm0000gn/T//cc48f3PC.s 			page 34


 1141              	.LCFI100:
 1142              		.cfi_restore 7
 1143              		.cfi_def_cfa_offset 0
 1144 001a 7047     		bx	lr
 1145              		.cfi_endproc
 1146              	.LFE139:
 1148              		.section	.text.SAI_DMACmd,"ax",%progbits
 1149              		.align	1
 1150              		.global	SAI_DMACmd
 1151              		.syntax unified
 1152              		.thumb
 1153              		.thumb_func
 1155              	SAI_DMACmd:
 1156              	.LFB140:
 758:./Library/stm32f4xx_sai.c **** 
 759:./Library/stm32f4xx_sai.c **** /**
 760:./Library/stm32f4xx_sai.c ****   * @}
 761:./Library/stm32f4xx_sai.c ****   */
 762:./Library/stm32f4xx_sai.c **** 
 763:./Library/stm32f4xx_sai.c **** /** @defgroup SAI_Group3 DMA transfers management functions
 764:./Library/stm32f4xx_sai.c ****  *  @brief   DMA transfers management functions
 765:./Library/stm32f4xx_sai.c ****   *
 766:./Library/stm32f4xx_sai.c **** @verbatim   
 767:./Library/stm32f4xx_sai.c ****  ===============================================================================
 768:./Library/stm32f4xx_sai.c ****                   ##### DMA transfers management functions #####
 769:./Library/stm32f4xx_sai.c ****  ===============================================================================  
 770:./Library/stm32f4xx_sai.c **** 
 771:./Library/stm32f4xx_sai.c **** @endverbatim
 772:./Library/stm32f4xx_sai.c ****   * @{
 773:./Library/stm32f4xx_sai.c ****   */
 774:./Library/stm32f4xx_sai.c **** 
 775:./Library/stm32f4xx_sai.c **** /**
 776:./Library/stm32f4xx_sai.c ****   * @brief  Enables or disables the SAI Block x DMA interface.
 777:./Library/stm32f4xx_sai.c ****   * @param  SAI_Block_x: where x can be A or B to select the SAI Block peripheral. 
 778:./Library/stm32f4xx_sai.c ****   * @param  NewState: new state of the selected SAI block DMA transfer request.
 779:./Library/stm32f4xx_sai.c ****   *          This parameter can be: ENABLE or DISABLE.
 780:./Library/stm32f4xx_sai.c ****   * @retval None
 781:./Library/stm32f4xx_sai.c ****   */
 782:./Library/stm32f4xx_sai.c **** void SAI_DMACmd(SAI_Block_TypeDef* SAI_Block_x, FunctionalState NewState)
 783:./Library/stm32f4xx_sai.c **** {
 1157              		.loc 1 783 1
 1158              		.cfi_startproc
 1159              		@ args = 0, pretend = 0, frame = 8
 1160              		@ frame_needed = 1, uses_anonymous_args = 0
 1161              		@ link register save eliminated.
 1162 0000 80B4     		push	{r7}
 1163              	.LCFI101:
 1164              		.cfi_def_cfa_offset 4
 1165              		.cfi_offset 7, -4
 1166 0002 83B0     		sub	sp, sp, #12
 1167              	.LCFI102:
 1168              		.cfi_def_cfa_offset 16
 1169 0004 00AF     		add	r7, sp, #0
 1170              	.LCFI103:
 1171              		.cfi_def_cfa_register 7
 1172 0006 7860     		str	r0, [r7, #4]
 1173 0008 0B46     		mov	r3, r1
ARM GAS  /var/folders/yl/_q9l42k90g1g4mdhbs226msm0000gn/T//cc48f3PC.s 			page 35


 1174 000a FB70     		strb	r3, [r7, #3]
 784:./Library/stm32f4xx_sai.c ****   /* Check the parameters */
 785:./Library/stm32f4xx_sai.c ****   assert_param(IS_SAI_BLOCK_PERIPH(SAI_Block_x));
 786:./Library/stm32f4xx_sai.c ****   assert_param(IS_FUNCTIONAL_STATE(NewState));
 787:./Library/stm32f4xx_sai.c ****   
 788:./Library/stm32f4xx_sai.c ****   if (NewState != DISABLE)
 1175              		.loc 1 788 6
 1176 000c FB78     		ldrb	r3, [r7, #3]	@ zero_extendqisi2
 1177 000e 002B     		cmp	r3, #0
 1178 0010 06D0     		beq	.L34
 789:./Library/stm32f4xx_sai.c ****   {
 790:./Library/stm32f4xx_sai.c ****     /* Enable the selected SAI block mute mode */
 791:./Library/stm32f4xx_sai.c ****     SAI_Block_x->CR1 |= SAI_xCR1_DMAEN;
 1179              		.loc 1 791 22
 1180 0012 7B68     		ldr	r3, [r7, #4]
 1181 0014 1B68     		ldr	r3, [r3]
 1182 0016 43F40032 		orr	r2, r3, #131072
 1183 001a 7B68     		ldr	r3, [r7, #4]
 1184 001c 1A60     		str	r2, [r3]
 792:./Library/stm32f4xx_sai.c ****   }
 793:./Library/stm32f4xx_sai.c ****   else
 794:./Library/stm32f4xx_sai.c ****   {
 795:./Library/stm32f4xx_sai.c ****     /* Disable the selected SAI SS output */
 796:./Library/stm32f4xx_sai.c ****     SAI_Block_x->CR1 &= ~(SAI_xCR1_DMAEN);
 797:./Library/stm32f4xx_sai.c ****   }
 798:./Library/stm32f4xx_sai.c **** }
 1185              		.loc 1 798 1
 1186 001e 05E0     		b	.L36
 1187              	.L34:
 796:./Library/stm32f4xx_sai.c ****   }
 1188              		.loc 1 796 22
 1189 0020 7B68     		ldr	r3, [r7, #4]
 1190 0022 1B68     		ldr	r3, [r3]
 1191 0024 23F40032 		bic	r2, r3, #131072
 1192 0028 7B68     		ldr	r3, [r7, #4]
 1193 002a 1A60     		str	r2, [r3]
 1194              	.L36:
 1195              		.loc 1 798 1
 1196 002c 00BF     		nop
 1197 002e 0C37     		adds	r7, r7, #12
 1198              	.LCFI104:
 1199              		.cfi_def_cfa_offset 4
 1200 0030 BD46     		mov	sp, r7
 1201              	.LCFI105:
 1202              		.cfi_def_cfa_register 13
 1203              		@ sp needed
 1204 0032 5DF8047B 		ldr	r7, [sp], #4
 1205              	.LCFI106:
 1206              		.cfi_restore 7
 1207              		.cfi_def_cfa_offset 0
 1208 0036 7047     		bx	lr
 1209              		.cfi_endproc
 1210              	.LFE140:
 1212              		.section	.text.SAI_ITConfig,"ax",%progbits
 1213              		.align	1
 1214              		.global	SAI_ITConfig
 1215              		.syntax unified
ARM GAS  /var/folders/yl/_q9l42k90g1g4mdhbs226msm0000gn/T//cc48f3PC.s 			page 36


 1216              		.thumb
 1217              		.thumb_func
 1219              	SAI_ITConfig:
 1220              	.LFB141:
 799:./Library/stm32f4xx_sai.c **** 
 800:./Library/stm32f4xx_sai.c **** /**
 801:./Library/stm32f4xx_sai.c ****   * @}
 802:./Library/stm32f4xx_sai.c ****   */
 803:./Library/stm32f4xx_sai.c **** 
 804:./Library/stm32f4xx_sai.c **** /** @defgroup SAI_Group4 Interrupts and flags management functions
 805:./Library/stm32f4xx_sai.c ****  *  @brief   Interrupts and flags management functions
 806:./Library/stm32f4xx_sai.c ****   *
 807:./Library/stm32f4xx_sai.c **** @verbatim   
 808:./Library/stm32f4xx_sai.c ****  ===============================================================================
 809:./Library/stm32f4xx_sai.c ****             ##### Interrupts and flags management functions #####
 810:./Library/stm32f4xx_sai.c ****  ===============================================================================  
 811:./Library/stm32f4xx_sai.c ****   [..]
 812:./Library/stm32f4xx_sai.c ****   This section provides a set of functions allowing to configure the SAI Interrupts 
 813:./Library/stm32f4xx_sai.c ****   sources and check or clear the flags or pending bits status.
 814:./Library/stm32f4xx_sai.c ****   The user should identify which mode will be used in his application to manage 
 815:./Library/stm32f4xx_sai.c ****   the communication: Polling mode, Interrupt mode or DMA mode. 
 816:./Library/stm32f4xx_sai.c ****     
 817:./Library/stm32f4xx_sai.c ****   *** Polling Mode ***
 818:./Library/stm32f4xx_sai.c ****   ====================
 819:./Library/stm32f4xx_sai.c ****   [..]
 820:./Library/stm32f4xx_sai.c ****   In Polling Mode, the SAI communication can be managed by 7 flags:
 821:./Library/stm32f4xx_sai.c ****      (#) SAI_FLAG_FREQ : to indicate if there is a FIFO Request to write or to read.
 822:./Library/stm32f4xx_sai.c ****      (#) SAI_FLAG_MUTEDET : to indicate if a MUTE frame detected
 823:./Library/stm32f4xx_sai.c ****      (#) SAI_FLAG_OVRUDR : to indicate if an Overrun or Underrun error occur
 824:./Library/stm32f4xx_sai.c ****      (#) SAI_FLAG_AFSDET : to indicate if there is the detection of a audio frame 
 825:./Library/stm32f4xx_sai.c ****                           synchronisation (FS) earlier than expected
 826:./Library/stm32f4xx_sai.c ****      (#) SAI_FLAG_LFSDET : to indicate if there is the detection of a audio frame 
 827:./Library/stm32f4xx_sai.c ****                           synchronisation (FS) later than expected              
 828:./Library/stm32f4xx_sai.c ****      (#) SAI_FLAG_CNRDY : to indicate if  the codec is not ready to communicate during 
 829:./Library/stm32f4xx_sai.c ****                          the reception of the TAG 0 (slot0) of the AC97 audio frame 
 830:./Library/stm32f4xx_sai.c ****      (#) SAI_FLAG_WCKCFG: to indicate if wrong clock configuration in master mode 
 831:./Library/stm32f4xx_sai.c ****                          error occurs.
 832:./Library/stm32f4xx_sai.c ****   [..]
 833:./Library/stm32f4xx_sai.c ****   In this Mode it is advised to use the following functions:
 834:./Library/stm32f4xx_sai.c ****      (+) FlagStatus SAI_GetFlagStatus(SAI_Block_TypeDef* SAI_Block_x, uint32_t SAI_FLAG);
 835:./Library/stm32f4xx_sai.c ****      (+) void SAI_ClearFlag(SAI_Block_TypeDef* SAI_Block_x, uint32_t SAI_FLAG);
 836:./Library/stm32f4xx_sai.c **** 
 837:./Library/stm32f4xx_sai.c ****   *** Interrupt Mode ***
 838:./Library/stm32f4xx_sai.c ****   ======================
 839:./Library/stm32f4xx_sai.c ****   [..]
 840:./Library/stm32f4xx_sai.c ****   In Interrupt Mode, the SAI communication can be managed by 7 interrupt sources
 841:./Library/stm32f4xx_sai.c ****   and 7 pending bits: 
 842:./Library/stm32f4xx_sai.c ****   (+) Pending Bits:
 843:./Library/stm32f4xx_sai.c ****      (##) SAI_IT_FREQ : to indicate if there is a FIFO Request to write or to read.
 844:./Library/stm32f4xx_sai.c ****      (##) SAI_IT_MUTEDET : to indicate if a MUTE frame detected.
 845:./Library/stm32f4xx_sai.c ****      (##) SAI_IT_OVRUDR : to indicate if an Overrun or Underrun error occur.
 846:./Library/stm32f4xx_sai.c ****      (##) SAI_IT_AFSDET : to indicate if there is the detection of a audio frame 
 847:./Library/stm32f4xx_sai.c ****                           synchronisation (FS) earlier than expected.
 848:./Library/stm32f4xx_sai.c ****      (##) SAI_IT_LFSDET : to indicate if there is the detection of a audio frame 
 849:./Library/stm32f4xx_sai.c ****                           synchronisation (FS) later than expected.              
 850:./Library/stm32f4xx_sai.c ****      (##) SAI_IT_CNRDY : to indicate if  the codec is not ready to communicate during 
 851:./Library/stm32f4xx_sai.c ****                          the reception of the TAG 0 (slot0) of the AC97 audio frame. 
ARM GAS  /var/folders/yl/_q9l42k90g1g4mdhbs226msm0000gn/T//cc48f3PC.s 			page 37


 852:./Library/stm32f4xx_sai.c ****      (##) SAI_IT_WCKCFG: to indicate if wrong clock configuration in master mode 
 853:./Library/stm32f4xx_sai.c ****                          error occurs.
 854:./Library/stm32f4xx_sai.c **** 
 855:./Library/stm32f4xx_sai.c ****   (+) Interrupt Source:
 856:./Library/stm32f4xx_sai.c ****      (##) SAI_IT_FREQ : specifies the interrupt source for FIFO Request.
 857:./Library/stm32f4xx_sai.c ****      (##) SAI_IT_MUTEDET : specifies the interrupt source for MUTE frame detected.
 858:./Library/stm32f4xx_sai.c ****      (##) SAI_IT_OVRUDR : specifies the interrupt source for overrun or underrun error.
 859:./Library/stm32f4xx_sai.c ****      (##) SAI_IT_AFSDET : specifies the interrupt source for anticipated frame synchronization
 860:./Library/stm32f4xx_sai.c ****                           detection interrupt.
 861:./Library/stm32f4xx_sai.c ****      (##) SAI_IT_LFSDET : specifies the interrupt source for late frame synchronization
 862:./Library/stm32f4xx_sai.c ****                           detection interrupt.             
 863:./Library/stm32f4xx_sai.c ****      (##) SAI_IT_CNRDY : specifies the interrupt source for codec not ready interrupt
 864:./Library/stm32f4xx_sai.c ****      (##) SAI_IT_WCKCFG: specifies the interrupt source for wrong clock configuration
 865:./Library/stm32f4xx_sai.c ****                          interrupt.
 866:./Library/stm32f4xx_sai.c ****   [..]                     
 867:./Library/stm32f4xx_sai.c ****   In this Mode it is advised to use the following functions:
 868:./Library/stm32f4xx_sai.c ****      (+) void SAI_ITConfig(SAI_Block_TypeDef* SAI_Block_x, uint32_t SAI_IT, FunctionalState NewStat
 869:./Library/stm32f4xx_sai.c ****      (+) ITStatus SAI_GetITStatus(SAI_Block_TypeDef* SAI_Block_x, uint32_t SAI_IT);
 870:./Library/stm32f4xx_sai.c ****      (+) void SAI_ClearITPendingBit(SAI_Block_TypeDef* SAI_Block_x, uint32_t SAI_IT);
 871:./Library/stm32f4xx_sai.c **** 
 872:./Library/stm32f4xx_sai.c ****   *** DMA Mode ***
 873:./Library/stm32f4xx_sai.c ****   ================
 874:./Library/stm32f4xx_sai.c ****   [..]
 875:./Library/stm32f4xx_sai.c ****   In DMA Mode, each SAI audio block has an independent DMA interface in order to 
 876:./Library/stm32f4xx_sai.c ****   read or to write into the SAI_xDR register (to hit the internal FIFO). 
 877:./Library/stm32f4xx_sai.c ****   There is one DMA channel by audio block following basic DMA request/acknowledge 
 878:./Library/stm32f4xx_sai.c ****   protocol.
 879:./Library/stm32f4xx_sai.c ****   [..]
 880:./Library/stm32f4xx_sai.c ****   In this Mode it is advised to use the following function:
 881:./Library/stm32f4xx_sai.c ****     (+) void SAI_DMACmd(SAI_Block_TypeDef* SAI_Block_x, FunctionalState NewState);
 882:./Library/stm32f4xx_sai.c ****   [..]
 883:./Library/stm32f4xx_sai.c ****   This section provides also functions allowing to
 884:./Library/stm32f4xx_sai.c ****    (+) Check the SAI Block enable status
 885:./Library/stm32f4xx_sai.c ****    (+)Check the FIFO status 
 886:./Library/stm32f4xx_sai.c ****    
 887:./Library/stm32f4xx_sai.c ****   *** SAI Block Enable status ***
 888:./Library/stm32f4xx_sai.c ****   ===============================
 889:./Library/stm32f4xx_sai.c ****   [..]
 890:./Library/stm32f4xx_sai.c ****   After disabling a SAI Block, it is recommended to check (or wait until) the SAI Block 
 891:./Library/stm32f4xx_sai.c ****   is effectively disabled. If a Block is disabled while an audio frame transfer is ongoing
 892:./Library/stm32f4xx_sai.c ****   the current frame will be transferred and the block will be effectively disabled only at 
 893:./Library/stm32f4xx_sai.c ****   the end of audio frame. 
 894:./Library/stm32f4xx_sai.c ****   To monitor this state it is possible to use the following function:
 895:./Library/stm32f4xx_sai.c ****     (+) FunctionalState SAI_GetCmdStatus(SAI_Block_TypeDef* SAI_Block_x); 
 896:./Library/stm32f4xx_sai.c ****  
 897:./Library/stm32f4xx_sai.c ****   *** SAI Block FIFO status ***
 898:./Library/stm32f4xx_sai.c ****   =============================
 899:./Library/stm32f4xx_sai.c ****   [..]
 900:./Library/stm32f4xx_sai.c ****   It is possible to monitor the FIFO status when a transfer is ongoing using the following 
 901:./Library/stm32f4xx_sai.c ****   function:
 902:./Library/stm32f4xx_sai.c ****     (+) uint32_t SAI_GetFIFOStatus(SAI_Block_TypeDef* SAI_Block_x);
 903:./Library/stm32f4xx_sai.c ****     
 904:./Library/stm32f4xx_sai.c **** @endverbatim
 905:./Library/stm32f4xx_sai.c ****   * @{
 906:./Library/stm32f4xx_sai.c ****   */
 907:./Library/stm32f4xx_sai.c **** 
 908:./Library/stm32f4xx_sai.c **** /**
ARM GAS  /var/folders/yl/_q9l42k90g1g4mdhbs226msm0000gn/T//cc48f3PC.s 			page 38


 909:./Library/stm32f4xx_sai.c ****   * @brief  Enables or disables the specified SAI Block interrupts.
 910:./Library/stm32f4xx_sai.c ****   * @param  SAI_Block_x: where x can be A or B to select the SAI Block peripheral. 
 911:./Library/stm32f4xx_sai.c ****   * @param  SAI_IT: specifies the SAI interrupt source to be enabled or disabled. 
 912:./Library/stm32f4xx_sai.c ****   *          This parameter can be one of the following values:
 913:./Library/stm32f4xx_sai.c ****   *            @arg SAI_IT_FREQ: FIFO Request interrupt mask
 914:./Library/stm32f4xx_sai.c ****   *            @arg SAI_IT_MUTEDET: MUTE detection interrupt mask
 915:./Library/stm32f4xx_sai.c ****   *            @arg SAI_IT_OVRUDR: overrun/underrun interrupt mask
 916:./Library/stm32f4xx_sai.c ****   *            @arg SAI_IT_AFSDET: anticipated frame synchronization detection 
 917:./Library/stm32f4xx_sai.c ****   *                                interrupt mask  
 918:./Library/stm32f4xx_sai.c ****   *            @arg SAI_IT_LFSDET: late frame synchronization detection interrupt 
 919:./Library/stm32f4xx_sai.c ****   *                                mask
 920:./Library/stm32f4xx_sai.c ****   *            @arg SAI_IT_CNRDY: codec not ready interrupt mask
 921:./Library/stm32f4xx_sai.c ****   *            @arg SAI_IT_WCKCFG: wrong clock configuration interrupt mask      
 922:./Library/stm32f4xx_sai.c ****   * @param  NewState: new state of the specified SAI interrupt.
 923:./Library/stm32f4xx_sai.c ****   *          This parameter can be: ENABLE or DISABLE.
 924:./Library/stm32f4xx_sai.c ****   * @retval None
 925:./Library/stm32f4xx_sai.c ****   */
 926:./Library/stm32f4xx_sai.c **** void SAI_ITConfig(SAI_Block_TypeDef* SAI_Block_x, uint32_t SAI_IT, FunctionalState NewState)
 927:./Library/stm32f4xx_sai.c **** { 
 1221              		.loc 1 927 1
 1222              		.cfi_startproc
 1223              		@ args = 0, pretend = 0, frame = 16
 1224              		@ frame_needed = 1, uses_anonymous_args = 0
 1225              		@ link register save eliminated.
 1226 0000 80B4     		push	{r7}
 1227              	.LCFI107:
 1228              		.cfi_def_cfa_offset 4
 1229              		.cfi_offset 7, -4
 1230 0002 85B0     		sub	sp, sp, #20
 1231              	.LCFI108:
 1232              		.cfi_def_cfa_offset 24
 1233 0004 00AF     		add	r7, sp, #0
 1234              	.LCFI109:
 1235              		.cfi_def_cfa_register 7
 1236 0006 F860     		str	r0, [r7, #12]
 1237 0008 B960     		str	r1, [r7, #8]
 1238 000a 1346     		mov	r3, r2
 1239 000c FB71     		strb	r3, [r7, #7]
 928:./Library/stm32f4xx_sai.c ****   /* Check the parameters */
 929:./Library/stm32f4xx_sai.c ****   assert_param(IS_SAI_BLOCK_PERIPH(SAI_Block_x));
 930:./Library/stm32f4xx_sai.c ****   assert_param(IS_FUNCTIONAL_STATE(NewState));
 931:./Library/stm32f4xx_sai.c ****   assert_param(IS_SAI_BLOCK_CONFIG_IT(SAI_IT));
 932:./Library/stm32f4xx_sai.c **** 
 933:./Library/stm32f4xx_sai.c ****   if (NewState != DISABLE)
 1240              		.loc 1 933 6
 1241 000e FB79     		ldrb	r3, [r7, #7]	@ zero_extendqisi2
 1242 0010 002B     		cmp	r3, #0
 1243 0012 06D0     		beq	.L38
 934:./Library/stm32f4xx_sai.c ****   {
 935:./Library/stm32f4xx_sai.c ****     /* Enable the selected SAI Block interrupt */
 936:./Library/stm32f4xx_sai.c ****     SAI_Block_x->IMR |= SAI_IT;
 1244              		.loc 1 936 22
 1245 0014 FB68     		ldr	r3, [r7, #12]
 1246 0016 1A69     		ldr	r2, [r3, #16]
 1247 0018 BB68     		ldr	r3, [r7, #8]
 1248 001a 1A43     		orrs	r2, r2, r3
 1249 001c FB68     		ldr	r3, [r7, #12]
ARM GAS  /var/folders/yl/_q9l42k90g1g4mdhbs226msm0000gn/T//cc48f3PC.s 			page 39


 1250 001e 1A61     		str	r2, [r3, #16]
 937:./Library/stm32f4xx_sai.c ****   }
 938:./Library/stm32f4xx_sai.c ****   else
 939:./Library/stm32f4xx_sai.c ****   {
 940:./Library/stm32f4xx_sai.c ****     /* Disable the selected SAI Block interrupt */
 941:./Library/stm32f4xx_sai.c ****     SAI_Block_x->IMR &= ~(SAI_IT);
 942:./Library/stm32f4xx_sai.c ****   }
 943:./Library/stm32f4xx_sai.c **** }
 1251              		.loc 1 943 1
 1252 0020 06E0     		b	.L40
 1253              	.L38:
 941:./Library/stm32f4xx_sai.c ****   }
 1254              		.loc 1 941 22
 1255 0022 FB68     		ldr	r3, [r7, #12]
 1256 0024 1A69     		ldr	r2, [r3, #16]
 941:./Library/stm32f4xx_sai.c ****   }
 1257              		.loc 1 941 25
 1258 0026 BB68     		ldr	r3, [r7, #8]
 1259 0028 DB43     		mvns	r3, r3
 941:./Library/stm32f4xx_sai.c ****   }
 1260              		.loc 1 941 22
 1261 002a 1A40     		ands	r2, r2, r3
 1262 002c FB68     		ldr	r3, [r7, #12]
 1263 002e 1A61     		str	r2, [r3, #16]
 1264              	.L40:
 1265              		.loc 1 943 1
 1266 0030 00BF     		nop
 1267 0032 1437     		adds	r7, r7, #20
 1268              	.LCFI110:
 1269              		.cfi_def_cfa_offset 4
 1270 0034 BD46     		mov	sp, r7
 1271              	.LCFI111:
 1272              		.cfi_def_cfa_register 13
 1273              		@ sp needed
 1274 0036 5DF8047B 		ldr	r7, [sp], #4
 1275              	.LCFI112:
 1276              		.cfi_restore 7
 1277              		.cfi_def_cfa_offset 0
 1278 003a 7047     		bx	lr
 1279              		.cfi_endproc
 1280              	.LFE141:
 1282              		.section	.text.SAI_GetFlagStatus,"ax",%progbits
 1283              		.align	1
 1284              		.global	SAI_GetFlagStatus
 1285              		.syntax unified
 1286              		.thumb
 1287              		.thumb_func
 1289              	SAI_GetFlagStatus:
 1290              	.LFB142:
 944:./Library/stm32f4xx_sai.c **** 
 945:./Library/stm32f4xx_sai.c **** /**
 946:./Library/stm32f4xx_sai.c ****   * @brief  Checks whether the specified SAI block x flag is set or not.
 947:./Library/stm32f4xx_sai.c ****   * @param  SAI_Block_x: where x can be A or B to select the SAI Block peripheral. 
 948:./Library/stm32f4xx_sai.c ****   * @param  SAI_FLAG: specifies the SAI block flag to check. 
 949:./Library/stm32f4xx_sai.c ****   *          This parameter can be one of the following values:
 950:./Library/stm32f4xx_sai.c ****   *            @arg SAI_FLAG_FREQ: FIFO Request flag.  
 951:./Library/stm32f4xx_sai.c ****   *            @arg SAI_FLAG_MUTEDET: MUTE detection flag.  
ARM GAS  /var/folders/yl/_q9l42k90g1g4mdhbs226msm0000gn/T//cc48f3PC.s 			page 40


 952:./Library/stm32f4xx_sai.c ****   *            @arg SAI_FLAG_OVRUDR: overrun/underrun flag.
 953:./Library/stm32f4xx_sai.c ****   *            @arg SAI_FLAG_WCKCFG: wrong clock configuration flag.            
 954:./Library/stm32f4xx_sai.c ****   *            @arg SAI_FLAG_CNRDY: codec not ready flag. 
 955:./Library/stm32f4xx_sai.c ****   *            @arg SAI_FLAG_AFSDET: anticipated frame synchronization detection flag.
 956:./Library/stm32f4xx_sai.c ****   *            @arg SAI_FLAG_LFSDET: late frame synchronization detection flag.
 957:./Library/stm32f4xx_sai.c ****   * @retval The new state of SAI_FLAG (SET or RESET).
 958:./Library/stm32f4xx_sai.c ****   */
 959:./Library/stm32f4xx_sai.c **** FlagStatus SAI_GetFlagStatus(SAI_Block_TypeDef* SAI_Block_x, uint32_t SAI_FLAG)
 960:./Library/stm32f4xx_sai.c **** {
 1291              		.loc 1 960 1
 1292              		.cfi_startproc
 1293              		@ args = 0, pretend = 0, frame = 16
 1294              		@ frame_needed = 1, uses_anonymous_args = 0
 1295              		@ link register save eliminated.
 1296 0000 80B4     		push	{r7}
 1297              	.LCFI113:
 1298              		.cfi_def_cfa_offset 4
 1299              		.cfi_offset 7, -4
 1300 0002 85B0     		sub	sp, sp, #20
 1301              	.LCFI114:
 1302              		.cfi_def_cfa_offset 24
 1303 0004 00AF     		add	r7, sp, #0
 1304              	.LCFI115:
 1305              		.cfi_def_cfa_register 7
 1306 0006 7860     		str	r0, [r7, #4]
 1307 0008 3960     		str	r1, [r7]
 961:./Library/stm32f4xx_sai.c ****   FlagStatus bitstatus = RESET;
 1308              		.loc 1 961 14
 1309 000a 0023     		movs	r3, #0
 1310 000c FB73     		strb	r3, [r7, #15]
 962:./Library/stm32f4xx_sai.c ****   
 963:./Library/stm32f4xx_sai.c ****   /* Check the parameters */
 964:./Library/stm32f4xx_sai.c ****   assert_param(IS_SAI_BLOCK_PERIPH(SAI_Block_x));
 965:./Library/stm32f4xx_sai.c ****   assert_param(IS_SAI_BLOCK_GET_FLAG(SAI_FLAG));
 966:./Library/stm32f4xx_sai.c ****   
 967:./Library/stm32f4xx_sai.c ****   /* Check the status of the specified SAI flag */
 968:./Library/stm32f4xx_sai.c ****   if ((SAI_Block_x->SR & SAI_FLAG) != (uint32_t)RESET)
 1311              		.loc 1 968 19
 1312 000e 7B68     		ldr	r3, [r7, #4]
 1313 0010 5A69     		ldr	r2, [r3, #20]
 1314              		.loc 1 968 24
 1315 0012 3B68     		ldr	r3, [r7]
 1316 0014 1340     		ands	r3, r3, r2
 1317              		.loc 1 968 6
 1318 0016 002B     		cmp	r3, #0
 1319 0018 02D0     		beq	.L42
 969:./Library/stm32f4xx_sai.c ****   {
 970:./Library/stm32f4xx_sai.c ****     /* SAI_FLAG is set */
 971:./Library/stm32f4xx_sai.c ****     bitstatus = SET;
 1320              		.loc 1 971 15
 1321 001a 0123     		movs	r3, #1
 1322 001c FB73     		strb	r3, [r7, #15]
 1323 001e 01E0     		b	.L43
 1324              	.L42:
 972:./Library/stm32f4xx_sai.c ****   }
 973:./Library/stm32f4xx_sai.c ****   else
 974:./Library/stm32f4xx_sai.c ****   {
ARM GAS  /var/folders/yl/_q9l42k90g1g4mdhbs226msm0000gn/T//cc48f3PC.s 			page 41


 975:./Library/stm32f4xx_sai.c ****     /* SAI_FLAG is reset */
 976:./Library/stm32f4xx_sai.c ****     bitstatus = RESET;
 1325              		.loc 1 976 15
 1326 0020 0023     		movs	r3, #0
 1327 0022 FB73     		strb	r3, [r7, #15]
 1328              	.L43:
 977:./Library/stm32f4xx_sai.c ****   }
 978:./Library/stm32f4xx_sai.c ****   /* Return the SAI_FLAG status */
 979:./Library/stm32f4xx_sai.c ****   return  bitstatus;
 1329              		.loc 1 979 11
 1330 0024 FB7B     		ldrb	r3, [r7, #15]	@ zero_extendqisi2
 980:./Library/stm32f4xx_sai.c **** }
 1331              		.loc 1 980 1
 1332 0026 1846     		mov	r0, r3
 1333 0028 1437     		adds	r7, r7, #20
 1334              	.LCFI116:
 1335              		.cfi_def_cfa_offset 4
 1336 002a BD46     		mov	sp, r7
 1337              	.LCFI117:
 1338              		.cfi_def_cfa_register 13
 1339              		@ sp needed
 1340 002c 5DF8047B 		ldr	r7, [sp], #4
 1341              	.LCFI118:
 1342              		.cfi_restore 7
 1343              		.cfi_def_cfa_offset 0
 1344 0030 7047     		bx	lr
 1345              		.cfi_endproc
 1346              	.LFE142:
 1348              		.section	.text.SAI_ClearFlag,"ax",%progbits
 1349              		.align	1
 1350              		.global	SAI_ClearFlag
 1351              		.syntax unified
 1352              		.thumb
 1353              		.thumb_func
 1355              	SAI_ClearFlag:
 1356              	.LFB143:
 981:./Library/stm32f4xx_sai.c **** 
 982:./Library/stm32f4xx_sai.c **** /**
 983:./Library/stm32f4xx_sai.c ****   * @brief  Clears the specified SAI Block x flag.
 984:./Library/stm32f4xx_sai.c ****   * @param  SAI_Block_x: where x can be A or B to select the SAI Block peripheral. 
 985:./Library/stm32f4xx_sai.c ****   * @param  SAI_FLAG: specifies the SAI block flag to check. 
 986:./Library/stm32f4xx_sai.c ****   *          This parameter can be one of the following values: 
 987:./Library/stm32f4xx_sai.c ****   *            @arg SAI_FLAG_MUTEDET: MUTE detection flag.  
 988:./Library/stm32f4xx_sai.c ****   *            @arg SAI_FLAG_OVRUDR: overrun/underrun flag.
 989:./Library/stm32f4xx_sai.c ****   *            @arg SAI_FLAG_WCKCFG: wrong clock configuration flag.            
 990:./Library/stm32f4xx_sai.c ****   *            @arg SAI_FLAG_CNRDY: codec not ready flag. 
 991:./Library/stm32f4xx_sai.c ****   *            @arg SAI_FLAG_AFSDET: anticipated frame synchronization detection flag.
 992:./Library/stm32f4xx_sai.c ****   *            @arg SAI_FLAG_LFSDET: late frame synchronization detection flag. 
 993:./Library/stm32f4xx_sai.c ****   *  
 994:./Library/stm32f4xx_sai.c ****   * @note    FREQ (FIFO Request) flag is cleared : 
 995:./Library/stm32f4xx_sai.c ****   *          - When the audio block is transmitter and the FIFO is full or the FIFO   
 996:./Library/stm32f4xx_sai.c ****   *            has one data (one buffer mode) depending the bit FTH in the
 997:./Library/stm32f4xx_sai.c ****   *            SAI_xCR2 register.
 998:./Library/stm32f4xx_sai.c ****   *          - When the audio block is receiver and the FIFO is not empty           
 999:./Library/stm32f4xx_sai.c ****   *  
1000:./Library/stm32f4xx_sai.c ****   * @retval None
1001:./Library/stm32f4xx_sai.c ****   */
ARM GAS  /var/folders/yl/_q9l42k90g1g4mdhbs226msm0000gn/T//cc48f3PC.s 			page 42


1002:./Library/stm32f4xx_sai.c **** void SAI_ClearFlag(SAI_Block_TypeDef* SAI_Block_x, uint32_t SAI_FLAG)
1003:./Library/stm32f4xx_sai.c **** {
 1357              		.loc 1 1003 1
 1358              		.cfi_startproc
 1359              		@ args = 0, pretend = 0, frame = 8
 1360              		@ frame_needed = 1, uses_anonymous_args = 0
 1361              		@ link register save eliminated.
 1362 0000 80B4     		push	{r7}
 1363              	.LCFI119:
 1364              		.cfi_def_cfa_offset 4
 1365              		.cfi_offset 7, -4
 1366 0002 83B0     		sub	sp, sp, #12
 1367              	.LCFI120:
 1368              		.cfi_def_cfa_offset 16
 1369 0004 00AF     		add	r7, sp, #0
 1370              	.LCFI121:
 1371              		.cfi_def_cfa_register 7
 1372 0006 7860     		str	r0, [r7, #4]
 1373 0008 3960     		str	r1, [r7]
1004:./Library/stm32f4xx_sai.c ****   /* Check the parameters */
1005:./Library/stm32f4xx_sai.c ****   assert_param(IS_SAI_BLOCK_PERIPH(SAI_Block_x));
1006:./Library/stm32f4xx_sai.c ****   assert_param(IS_SAI_BLOCK_CLEAR_FLAG(SAI_FLAG));
1007:./Library/stm32f4xx_sai.c ****     
1008:./Library/stm32f4xx_sai.c ****   /* Clear the selected SAI Block flag */
1009:./Library/stm32f4xx_sai.c ****   SAI_Block_x->CLRFR |= SAI_FLAG;
 1374              		.loc 1 1009 22
 1375 000a 7B68     		ldr	r3, [r7, #4]
 1376 000c 9A69     		ldr	r2, [r3, #24]
 1377 000e 3B68     		ldr	r3, [r7]
 1378 0010 1A43     		orrs	r2, r2, r3
 1379 0012 7B68     		ldr	r3, [r7, #4]
 1380 0014 9A61     		str	r2, [r3, #24]
1010:./Library/stm32f4xx_sai.c **** }
 1381              		.loc 1 1010 1
 1382 0016 00BF     		nop
 1383 0018 0C37     		adds	r7, r7, #12
 1384              	.LCFI122:
 1385              		.cfi_def_cfa_offset 4
 1386 001a BD46     		mov	sp, r7
 1387              	.LCFI123:
 1388              		.cfi_def_cfa_register 13
 1389              		@ sp needed
 1390 001c 5DF8047B 		ldr	r7, [sp], #4
 1391              	.LCFI124:
 1392              		.cfi_restore 7
 1393              		.cfi_def_cfa_offset 0
 1394 0020 7047     		bx	lr
 1395              		.cfi_endproc
 1396              	.LFE143:
 1398              		.section	.text.SAI_GetITStatus,"ax",%progbits
 1399              		.align	1
 1400              		.global	SAI_GetITStatus
 1401              		.syntax unified
 1402              		.thumb
 1403              		.thumb_func
 1405              	SAI_GetITStatus:
 1406              	.LFB144:
ARM GAS  /var/folders/yl/_q9l42k90g1g4mdhbs226msm0000gn/T//cc48f3PC.s 			page 43


1011:./Library/stm32f4xx_sai.c **** 
1012:./Library/stm32f4xx_sai.c **** /**
1013:./Library/stm32f4xx_sai.c ****   * @brief  Checks whether the specified SAI Block x interrupt has occurred or not.
1014:./Library/stm32f4xx_sai.c ****   * @param  SAI_Block_x: where x can be A or B to select the SAI Block peripheral. 
1015:./Library/stm32f4xx_sai.c ****   * @param  SAI_IT: specifies the SAI interrupt source to be enabled or disabled. 
1016:./Library/stm32f4xx_sai.c ****   *          This parameter can be one of the following values:
1017:./Library/stm32f4xx_sai.c ****   *            @arg SAI_IT_FREQ: FIFO Request interrupt 
1018:./Library/stm32f4xx_sai.c ****   *            @arg SAI_IT_MUTEDET: MUTE detection interrupt 
1019:./Library/stm32f4xx_sai.c ****   *            @arg SAI_IT_OVRUDR: overrun/underrun interrupt 
1020:./Library/stm32f4xx_sai.c ****   *            @arg SAI_IT_AFSDET: anticipated frame synchronization detection interrupt           
1021:./Library/stm32f4xx_sai.c ****   *            @arg SAI_IT_LFSDET: late frame synchronization detection interrupt                  
1022:./Library/stm32f4xx_sai.c ****   *            @arg SAI_IT_CNRDY: codec not ready interrupt 
1023:./Library/stm32f4xx_sai.c ****   *            @arg SAI_IT_WCKCFG: wrong clock configuration interrupt 
1024:./Library/stm32f4xx_sai.c ****   *                
1025:./Library/stm32f4xx_sai.c ****   * @retval The new state of SAI_IT (SET or RESET).
1026:./Library/stm32f4xx_sai.c ****   */
1027:./Library/stm32f4xx_sai.c **** ITStatus SAI_GetITStatus(SAI_Block_TypeDef* SAI_Block_x, uint32_t SAI_IT)
1028:./Library/stm32f4xx_sai.c **** {
 1407              		.loc 1 1028 1
 1408              		.cfi_startproc
 1409              		@ args = 0, pretend = 0, frame = 16
 1410              		@ frame_needed = 1, uses_anonymous_args = 0
 1411              		@ link register save eliminated.
 1412 0000 80B4     		push	{r7}
 1413              	.LCFI125:
 1414              		.cfi_def_cfa_offset 4
 1415              		.cfi_offset 7, -4
 1416 0002 85B0     		sub	sp, sp, #20
 1417              	.LCFI126:
 1418              		.cfi_def_cfa_offset 24
 1419 0004 00AF     		add	r7, sp, #0
 1420              	.LCFI127:
 1421              		.cfi_def_cfa_register 7
 1422 0006 7860     		str	r0, [r7, #4]
 1423 0008 3960     		str	r1, [r7]
1029:./Library/stm32f4xx_sai.c ****   ITStatus bitstatus = RESET;
 1424              		.loc 1 1029 12
 1425 000a 0023     		movs	r3, #0
 1426 000c FB73     		strb	r3, [r7, #15]
1030:./Library/stm32f4xx_sai.c ****   uint32_t  enablestatus = 0;
 1427              		.loc 1 1030 13
 1428 000e 0023     		movs	r3, #0
 1429 0010 BB60     		str	r3, [r7, #8]
1031:./Library/stm32f4xx_sai.c **** 
1032:./Library/stm32f4xx_sai.c ****   /* Check the parameters */
1033:./Library/stm32f4xx_sai.c ****   assert_param(IS_SAI_BLOCK_PERIPH(SAI_Block_x));
1034:./Library/stm32f4xx_sai.c ****   assert_param(IS_SAI_BLOCK_CONFIG_IT(SAI_IT));
1035:./Library/stm32f4xx_sai.c ****   
1036:./Library/stm32f4xx_sai.c ****   /* Get the SAI_IT enable bit status */
1037:./Library/stm32f4xx_sai.c ****   enablestatus = (SAI_Block_x->IMR & SAI_IT) ;
 1430              		.loc 1 1037 30
 1431 0012 7B68     		ldr	r3, [r7, #4]
 1432 0014 1B69     		ldr	r3, [r3, #16]
 1433              		.loc 1 1037 16
 1434 0016 3A68     		ldr	r2, [r7]
 1435 0018 1340     		ands	r3, r3, r2
 1436 001a BB60     		str	r3, [r7, #8]
ARM GAS  /var/folders/yl/_q9l42k90g1g4mdhbs226msm0000gn/T//cc48f3PC.s 			page 44


1038:./Library/stm32f4xx_sai.c **** 
1039:./Library/stm32f4xx_sai.c ****   /* Check the status of the specified SAI interrupt */
1040:./Library/stm32f4xx_sai.c ****   if (((SAI_Block_x->SR & SAI_IT) != (uint32_t)RESET) && (enablestatus != (uint32_t)RESET))
 1437              		.loc 1 1040 20
 1438 001c 7B68     		ldr	r3, [r7, #4]
 1439 001e 5A69     		ldr	r2, [r3, #20]
 1440              		.loc 1 1040 25
 1441 0020 3B68     		ldr	r3, [r7]
 1442 0022 1340     		ands	r3, r3, r2
 1443              		.loc 1 1040 6
 1444 0024 002B     		cmp	r3, #0
 1445 0026 05D0     		beq	.L47
 1446              		.loc 1 1040 55 discriminator 1
 1447 0028 BB68     		ldr	r3, [r7, #8]
 1448 002a 002B     		cmp	r3, #0
 1449 002c 02D0     		beq	.L47
1041:./Library/stm32f4xx_sai.c ****   {
1042:./Library/stm32f4xx_sai.c ****     /* SAI_IT is set */
1043:./Library/stm32f4xx_sai.c ****     bitstatus = SET;
 1450              		.loc 1 1043 15
 1451 002e 0123     		movs	r3, #1
 1452 0030 FB73     		strb	r3, [r7, #15]
 1453 0032 01E0     		b	.L48
 1454              	.L47:
1044:./Library/stm32f4xx_sai.c ****   }
1045:./Library/stm32f4xx_sai.c ****   else
1046:./Library/stm32f4xx_sai.c ****   {
1047:./Library/stm32f4xx_sai.c ****     /* SAI_IT is reset */
1048:./Library/stm32f4xx_sai.c ****     bitstatus = RESET;
 1455              		.loc 1 1048 15
 1456 0034 0023     		movs	r3, #0
 1457 0036 FB73     		strb	r3, [r7, #15]
 1458              	.L48:
1049:./Library/stm32f4xx_sai.c ****   }
1050:./Library/stm32f4xx_sai.c ****   /* Return the SAI_IT status */
1051:./Library/stm32f4xx_sai.c ****   return bitstatus;
 1459              		.loc 1 1051 10
 1460 0038 FB7B     		ldrb	r3, [r7, #15]	@ zero_extendqisi2
1052:./Library/stm32f4xx_sai.c **** }
 1461              		.loc 1 1052 1
 1462 003a 1846     		mov	r0, r3
 1463 003c 1437     		adds	r7, r7, #20
 1464              	.LCFI128:
 1465              		.cfi_def_cfa_offset 4
 1466 003e BD46     		mov	sp, r7
 1467              	.LCFI129:
 1468              		.cfi_def_cfa_register 13
 1469              		@ sp needed
 1470 0040 5DF8047B 		ldr	r7, [sp], #4
 1471              	.LCFI130:
 1472              		.cfi_restore 7
 1473              		.cfi_def_cfa_offset 0
 1474 0044 7047     		bx	lr
 1475              		.cfi_endproc
 1476              	.LFE144:
 1478              		.section	.text.SAI_ClearITPendingBit,"ax",%progbits
 1479              		.align	1
ARM GAS  /var/folders/yl/_q9l42k90g1g4mdhbs226msm0000gn/T//cc48f3PC.s 			page 45


 1480              		.global	SAI_ClearITPendingBit
 1481              		.syntax unified
 1482              		.thumb
 1483              		.thumb_func
 1485              	SAI_ClearITPendingBit:
 1486              	.LFB145:
1053:./Library/stm32f4xx_sai.c **** 
1054:./Library/stm32f4xx_sai.c **** /**
1055:./Library/stm32f4xx_sai.c ****   * @brief  Clears the SAI Block x interrupt pending bit.
1056:./Library/stm32f4xx_sai.c ****   * @param  SAI_Block_x: where x can be A or B to select the SAI Block peripheral. 
1057:./Library/stm32f4xx_sai.c ****   * @param  SAI_IT: specifies the SAI Block interrupt pending bit to clear. 
1058:./Library/stm32f4xx_sai.c ****   *          This parameter can be one of the following values:  
1059:./Library/stm32f4xx_sai.c ****   *            @arg SAI_IT_MUTEDET: MUTE detection interrupt.  
1060:./Library/stm32f4xx_sai.c ****   *            @arg SAI_IT_OVRUDR: overrun/underrun interrupt.
1061:./Library/stm32f4xx_sai.c ****   *            @arg SAI_IT_WCKCFG: wrong clock configuration interrupt.            
1062:./Library/stm32f4xx_sai.c ****   *            @arg SAI_IT_CNRDY: codec not ready interrupt. 
1063:./Library/stm32f4xx_sai.c ****   *            @arg SAI_IT_AFSDET: anticipated frame synchronization detection interrupt.
1064:./Library/stm32f4xx_sai.c ****   *            @arg SAI_IT_LFSDET: late frame synchronization detection interrupt. 
1065:./Library/stm32f4xx_sai.c ****   *  
1066:./Library/stm32f4xx_sai.c ****   * @note    FREQ (FIFO Request) flag is cleared : 
1067:./Library/stm32f4xx_sai.c ****   *          - When the audio block is transmitter and the FIFO is full or the FIFO   
1068:./Library/stm32f4xx_sai.c ****   *            has one data (one buffer mode) depending the bit FTH in the
1069:./Library/stm32f4xx_sai.c ****   *            SAI_xCR2 register.
1070:./Library/stm32f4xx_sai.c ****   *          - When the audio block is receiver and the FIFO is not empty  
1071:./Library/stm32f4xx_sai.c ****   *            
1072:./Library/stm32f4xx_sai.c ****   * @retval None
1073:./Library/stm32f4xx_sai.c ****   */
1074:./Library/stm32f4xx_sai.c **** void SAI_ClearITPendingBit(SAI_Block_TypeDef* SAI_Block_x, uint32_t SAI_IT)
1075:./Library/stm32f4xx_sai.c **** {
 1487              		.loc 1 1075 1
 1488              		.cfi_startproc
 1489              		@ args = 0, pretend = 0, frame = 8
 1490              		@ frame_needed = 1, uses_anonymous_args = 0
 1491              		@ link register save eliminated.
 1492 0000 80B4     		push	{r7}
 1493              	.LCFI131:
 1494              		.cfi_def_cfa_offset 4
 1495              		.cfi_offset 7, -4
 1496 0002 83B0     		sub	sp, sp, #12
 1497              	.LCFI132:
 1498              		.cfi_def_cfa_offset 16
 1499 0004 00AF     		add	r7, sp, #0
 1500              	.LCFI133:
 1501              		.cfi_def_cfa_register 7
 1502 0006 7860     		str	r0, [r7, #4]
 1503 0008 3960     		str	r1, [r7]
1076:./Library/stm32f4xx_sai.c ****   /* Check the parameters */
1077:./Library/stm32f4xx_sai.c ****   assert_param(IS_SAI_BLOCK_PERIPH(SAI_Block_x));
1078:./Library/stm32f4xx_sai.c ****   assert_param(IS_SAI_BLOCK_CONFIG_IT(SAI_IT));
1079:./Library/stm32f4xx_sai.c **** 
1080:./Library/stm32f4xx_sai.c ****   /* Clear the selected SAI Block x interrupt pending bit */
1081:./Library/stm32f4xx_sai.c ****   SAI_Block_x->CLRFR |= SAI_IT; 
 1504              		.loc 1 1081 22
 1505 000a 7B68     		ldr	r3, [r7, #4]
 1506 000c 9A69     		ldr	r2, [r3, #24]
 1507 000e 3B68     		ldr	r3, [r7]
 1508 0010 1A43     		orrs	r2, r2, r3
ARM GAS  /var/folders/yl/_q9l42k90g1g4mdhbs226msm0000gn/T//cc48f3PC.s 			page 46


 1509 0012 7B68     		ldr	r3, [r7, #4]
 1510 0014 9A61     		str	r2, [r3, #24]
1082:./Library/stm32f4xx_sai.c **** }
 1511              		.loc 1 1082 1
 1512 0016 00BF     		nop
 1513 0018 0C37     		adds	r7, r7, #12
 1514              	.LCFI134:
 1515              		.cfi_def_cfa_offset 4
 1516 001a BD46     		mov	sp, r7
 1517              	.LCFI135:
 1518              		.cfi_def_cfa_register 13
 1519              		@ sp needed
 1520 001c 5DF8047B 		ldr	r7, [sp], #4
 1521              	.LCFI136:
 1522              		.cfi_restore 7
 1523              		.cfi_def_cfa_offset 0
 1524 0020 7047     		bx	lr
 1525              		.cfi_endproc
 1526              	.LFE145:
 1528              		.section	.text.SAI_GetCmdStatus,"ax",%progbits
 1529              		.align	1
 1530              		.global	SAI_GetCmdStatus
 1531              		.syntax unified
 1532              		.thumb
 1533              		.thumb_func
 1535              	SAI_GetCmdStatus:
 1536              	.LFB146:
1083:./Library/stm32f4xx_sai.c **** 
1084:./Library/stm32f4xx_sai.c **** /**
1085:./Library/stm32f4xx_sai.c ****   * @brief  Returns the status of EN bit for the specified SAI Block x.
1086:./Library/stm32f4xx_sai.c ****   * @param  SAI_Block_x: where x can be A or B to select the SAI Block peripheral.
1087:./Library/stm32f4xx_sai.c ****   *   
1088:./Library/stm32f4xx_sai.c ****   * @note    After disabling a SAI Block, it is recommended to check (or wait until) 
1089:./Library/stm32f4xx_sai.c ****   *          the SAI Block is effectively disabled. If a Block is disabled while
1090:./Library/stm32f4xx_sai.c ****   *          an audio frame transfer is ongoing, the current frame will be 
1091:./Library/stm32f4xx_sai.c ****   *          transferred and the block will be effectively disabled only at 
1092:./Library/stm32f4xx_sai.c ****   *          the end of audio frame.  
1093:./Library/stm32f4xx_sai.c ****   *      
1094:./Library/stm32f4xx_sai.c ****   * @retval Current state of the DMAy Streamx (ENABLE or DISABLE).
1095:./Library/stm32f4xx_sai.c ****   */
1096:./Library/stm32f4xx_sai.c **** FunctionalState SAI_GetCmdStatus(SAI_Block_TypeDef* SAI_Block_x)
1097:./Library/stm32f4xx_sai.c **** {
 1537              		.loc 1 1097 1
 1538              		.cfi_startproc
 1539              		@ args = 0, pretend = 0, frame = 16
 1540              		@ frame_needed = 1, uses_anonymous_args = 0
 1541              		@ link register save eliminated.
 1542 0000 80B4     		push	{r7}
 1543              	.LCFI137:
 1544              		.cfi_def_cfa_offset 4
 1545              		.cfi_offset 7, -4
 1546 0002 85B0     		sub	sp, sp, #20
 1547              	.LCFI138:
 1548              		.cfi_def_cfa_offset 24
 1549 0004 00AF     		add	r7, sp, #0
 1550              	.LCFI139:
 1551              		.cfi_def_cfa_register 7
ARM GAS  /var/folders/yl/_q9l42k90g1g4mdhbs226msm0000gn/T//cc48f3PC.s 			page 47


 1552 0006 7860     		str	r0, [r7, #4]
1098:./Library/stm32f4xx_sai.c ****   FunctionalState state = DISABLE;
 1553              		.loc 1 1098 19
 1554 0008 0023     		movs	r3, #0
 1555 000a FB73     		strb	r3, [r7, #15]
1099:./Library/stm32f4xx_sai.c **** 
1100:./Library/stm32f4xx_sai.c ****   /* Check the parameters */
1101:./Library/stm32f4xx_sai.c ****   assert_param(IS_SAI_BLOCK_PERIPH(SAI_Block_x));
1102:./Library/stm32f4xx_sai.c ****   if ((SAI_Block_x->CR1 & (uint32_t)SAI_xCR1_SAIEN) != 0)
 1556              		.loc 1 1102 19
 1557 000c 7B68     		ldr	r3, [r7, #4]
 1558 000e 1B68     		ldr	r3, [r3]
 1559              		.loc 1 1102 25
 1560 0010 03F48033 		and	r3, r3, #65536
 1561              		.loc 1 1102 6
 1562 0014 002B     		cmp	r3, #0
 1563 0016 02D0     		beq	.L52
1103:./Library/stm32f4xx_sai.c ****   {
1104:./Library/stm32f4xx_sai.c ****     /* The selected SAI Block x EN bit is set (audio frame transfer is ongoing) */
1105:./Library/stm32f4xx_sai.c ****     state = ENABLE;
 1564              		.loc 1 1105 11
 1565 0018 0123     		movs	r3, #1
 1566 001a FB73     		strb	r3, [r7, #15]
 1567 001c 01E0     		b	.L53
 1568              	.L52:
1106:./Library/stm32f4xx_sai.c ****   }
1107:./Library/stm32f4xx_sai.c ****   else
1108:./Library/stm32f4xx_sai.c ****   {
1109:./Library/stm32f4xx_sai.c ****     /* The selected SAI Block x EN bit is cleared (SAI Block is disabled and 
1110:./Library/stm32f4xx_sai.c ****         all transfers are complete) */
1111:./Library/stm32f4xx_sai.c ****     state = DISABLE;
 1569              		.loc 1 1111 11
 1570 001e 0023     		movs	r3, #0
 1571 0020 FB73     		strb	r3, [r7, #15]
 1572              	.L53:
1112:./Library/stm32f4xx_sai.c ****   }
1113:./Library/stm32f4xx_sai.c ****   return state;
 1573              		.loc 1 1113 10
 1574 0022 FB7B     		ldrb	r3, [r7, #15]	@ zero_extendqisi2
1114:./Library/stm32f4xx_sai.c **** }
 1575              		.loc 1 1114 1
 1576 0024 1846     		mov	r0, r3
 1577 0026 1437     		adds	r7, r7, #20
 1578              	.LCFI140:
 1579              		.cfi_def_cfa_offset 4
 1580 0028 BD46     		mov	sp, r7
 1581              	.LCFI141:
 1582              		.cfi_def_cfa_register 13
 1583              		@ sp needed
 1584 002a 5DF8047B 		ldr	r7, [sp], #4
 1585              	.LCFI142:
 1586              		.cfi_restore 7
 1587              		.cfi_def_cfa_offset 0
 1588 002e 7047     		bx	lr
 1589              		.cfi_endproc
 1590              	.LFE146:
 1592              		.section	.text.SAI_GetFIFOStatus,"ax",%progbits
ARM GAS  /var/folders/yl/_q9l42k90g1g4mdhbs226msm0000gn/T//cc48f3PC.s 			page 48


 1593              		.align	1
 1594              		.global	SAI_GetFIFOStatus
 1595              		.syntax unified
 1596              		.thumb
 1597              		.thumb_func
 1599              	SAI_GetFIFOStatus:
 1600              	.LFB147:
1115:./Library/stm32f4xx_sai.c **** 
1116:./Library/stm32f4xx_sai.c **** /**
1117:./Library/stm32f4xx_sai.c ****   * @brief  Returns the current SAI Block x FIFO filled level.
1118:./Library/stm32f4xx_sai.c ****   * @param  SAI_Block_x: where x can be A or B to select the SAI Block peripheral.
1119:./Library/stm32f4xx_sai.c ****   *   
1120:./Library/stm32f4xx_sai.c ****   * @retval The FIFO filling state.
1121:./Library/stm32f4xx_sai.c ****   *           - SAI_FIFOStatus_Empty: when FIFO is empty  
1122:./Library/stm32f4xx_sai.c ****   *           - SAI_FIFOStatus_Less1QuarterFull: when FIFO is less than 1 quarter-full 
1123:./Library/stm32f4xx_sai.c ****   *                                               and not empty.
1124:./Library/stm32f4xx_sai.c ****   *           - SAI_FIFOStatus_1QuarterFull: if more than 1 quarter-full.
1125:./Library/stm32f4xx_sai.c ****   *           - SAI_FIFOStatus_HalfFull: if more than 1 half-full.
1126:./Library/stm32f4xx_sai.c ****   *           - SAI_FIFOStatus_3QuartersFull: if more than 3 quarters-full.
1127:./Library/stm32f4xx_sai.c ****   *           - SAI_FIFOStatus_Full: when FIFO is full
1128:./Library/stm32f4xx_sai.c ****   */
1129:./Library/stm32f4xx_sai.c **** uint32_t SAI_GetFIFOStatus(SAI_Block_TypeDef* SAI_Block_x)
1130:./Library/stm32f4xx_sai.c **** {
 1601              		.loc 1 1130 1
 1602              		.cfi_startproc
 1603              		@ args = 0, pretend = 0, frame = 16
 1604              		@ frame_needed = 1, uses_anonymous_args = 0
 1605              		@ link register save eliminated.
 1606 0000 80B4     		push	{r7}
 1607              	.LCFI143:
 1608              		.cfi_def_cfa_offset 4
 1609              		.cfi_offset 7, -4
 1610 0002 85B0     		sub	sp, sp, #20
 1611              	.LCFI144:
 1612              		.cfi_def_cfa_offset 24
 1613 0004 00AF     		add	r7, sp, #0
 1614              	.LCFI145:
 1615              		.cfi_def_cfa_register 7
 1616 0006 7860     		str	r0, [r7, #4]
1131:./Library/stm32f4xx_sai.c ****   uint32_t tmpreg = 0;
 1617              		.loc 1 1131 12
 1618 0008 0023     		movs	r3, #0
 1619 000a FB60     		str	r3, [r7, #12]
1132:./Library/stm32f4xx_sai.c ****  
1133:./Library/stm32f4xx_sai.c ****   /* Check the parameters */
1134:./Library/stm32f4xx_sai.c ****   assert_param(IS_SAI_BLOCK_PERIPH(SAI_Block_x));
1135:./Library/stm32f4xx_sai.c ****   
1136:./Library/stm32f4xx_sai.c ****   /* Get the FIFO level bits */
1137:./Library/stm32f4xx_sai.c ****   tmpreg = (uint32_t)((SAI_Block_x->SR & SAI_xSR_FLVL));
 1620              		.loc 1 1137 35
 1621 000c 7B68     		ldr	r3, [r7, #4]
 1622 000e 5B69     		ldr	r3, [r3, #20]
 1623              		.loc 1 1137 10
 1624 0010 03F4E023 		and	r3, r3, #458752
 1625 0014 FB60     		str	r3, [r7, #12]
1138:./Library/stm32f4xx_sai.c ****   
1139:./Library/stm32f4xx_sai.c ****   return tmpreg;
ARM GAS  /var/folders/yl/_q9l42k90g1g4mdhbs226msm0000gn/T//cc48f3PC.s 			page 49


 1626              		.loc 1 1139 10
 1627 0016 FB68     		ldr	r3, [r7, #12]
1140:./Library/stm32f4xx_sai.c **** }
 1628              		.loc 1 1140 1
 1629 0018 1846     		mov	r0, r3
 1630 001a 1437     		adds	r7, r7, #20
 1631              	.LCFI146:
 1632              		.cfi_def_cfa_offset 4
 1633 001c BD46     		mov	sp, r7
 1634              	.LCFI147:
 1635              		.cfi_def_cfa_register 13
 1636              		@ sp needed
 1637 001e 5DF8047B 		ldr	r7, [sp], #4
 1638              	.LCFI148:
 1639              		.cfi_restore 7
 1640              		.cfi_def_cfa_offset 0
 1641 0022 7047     		bx	lr
 1642              		.cfi_endproc
 1643              	.LFE147:
 1645              		.text
 1646              	.Letext0:
 1647              		.file 2 "/Applications/ARM/arm-none-eabi/include/machine/_default_types.h"
 1648              		.file 3 "/Applications/ARM/arm-none-eabi/include/sys/_stdint.h"
 1649              		.file 4 "./CORE/stm32f4xx.h"
 1650              		.file 5 "./Library/stm32f4xx_sai.h"
ARM GAS  /var/folders/yl/_q9l42k90g1g4mdhbs226msm0000gn/T//cc48f3PC.s 			page 50

