ARM GAS  /var/folders/yl/_q9l42k90g1g4mdhbs226msm0000gn/T//ccuhZ0Pj.s 			page 1


   1              		.cpu cortex-m4
   2              		.arch armv7e-m
   3              		.fpu fpv4-sp-d16
   4              		.eabi_attribute 27, 1
   5              		.eabi_attribute 28, 1
   6              		.eabi_attribute 20, 1
   7              		.eabi_attribute 21, 1
   8              		.eabi_attribute 23, 3
   9              		.eabi_attribute 24, 1
  10              		.eabi_attribute 25, 1
  11              		.eabi_attribute 26, 1
  12              		.eabi_attribute 30, 6
  13              		.eabi_attribute 34, 1
  14              		.eabi_attribute 18, 4
  15              		.file	"stm32f4xx_dcmi.c"
  16              		.text
  17              	.Ltext0:
  18              		.cfi_sections	.debug_frame
  19              		.section	.text.DCMI_DeInit,"ax",%progbits
  20              		.align	1
  21              		.global	DCMI_DeInit
  22              		.syntax unified
  23              		.thumb
  24              		.thumb_func
  26              	DCMI_DeInit:
  27              	.LFB123:
  28              		.file 1 "./Library/stm32f4xx_dcmi.c"
   1:./Library/stm32f4xx_dcmi.c **** /**
   2:./Library/stm32f4xx_dcmi.c ****   ******************************************************************************
   3:./Library/stm32f4xx_dcmi.c ****   * @file    stm32f4xx_dcmi.c
   4:./Library/stm32f4xx_dcmi.c ****   * @author  MCD Application Team
   5:./Library/stm32f4xx_dcmi.c ****   * @version V1.8.1
   6:./Library/stm32f4xx_dcmi.c ****   * @date    27-January-2022
   7:./Library/stm32f4xx_dcmi.c ****   * @brief   This file provides firmware functions to manage the following 
   8:./Library/stm32f4xx_dcmi.c ****   *          functionalities of the DCMI peripheral:           
   9:./Library/stm32f4xx_dcmi.c ****   *           + Initialization and Configuration
  10:./Library/stm32f4xx_dcmi.c ****   *           + Image capture functions  
  11:./Library/stm32f4xx_dcmi.c ****   *           + Interrupts and flags management
  12:./Library/stm32f4xx_dcmi.c ****   *
  13:./Library/stm32f4xx_dcmi.c ****  @verbatim          
  14:./Library/stm32f4xx_dcmi.c ****  ===============================================================================
  15:./Library/stm32f4xx_dcmi.c ****                         ##### How to use this driver #####
  16:./Library/stm32f4xx_dcmi.c ****  ===============================================================================  
  17:./Library/stm32f4xx_dcmi.c ****     [..]       
  18:./Library/stm32f4xx_dcmi.c ****       The sequence below describes how to use this driver to capture image
  19:./Library/stm32f4xx_dcmi.c ****       from a camera module connected to the DCMI Interface.
  20:./Library/stm32f4xx_dcmi.c ****       This sequence does not take into account the configuration of the  
  21:./Library/stm32f4xx_dcmi.c ****       camera module, which should be made before to configure and enable
  22:./Library/stm32f4xx_dcmi.c ****       the DCMI to capture images.
  23:./Library/stm32f4xx_dcmi.c ****              
  24:./Library/stm32f4xx_dcmi.c ****       (#) Enable the clock for the DCMI and associated GPIOs using the following 
  25:./Library/stm32f4xx_dcmi.c ****           functions:
  26:./Library/stm32f4xx_dcmi.c ****           RCC_AHB2PeriphClockCmd(RCC_AHB2Periph_DCMI, ENABLE);
  27:./Library/stm32f4xx_dcmi.c ****           RCC_AHB1PeriphClockCmd(RCC_AHB1Periph_GPIOx, ENABLE);
  28:./Library/stm32f4xx_dcmi.c ****   
  29:./Library/stm32f4xx_dcmi.c ****       (#) DCMI pins configuration 
  30:./Library/stm32f4xx_dcmi.c ****         (++) Connect the involved DCMI pins to AF13 using the following function 
ARM GAS  /var/folders/yl/_q9l42k90g1g4mdhbs226msm0000gn/T//ccuhZ0Pj.s 			page 2


  31:./Library/stm32f4xx_dcmi.c ****             GPIO_PinAFConfig(GPIOx, GPIO_PinSourcex, GPIO_AF_DCMI); 
  32:./Library/stm32f4xx_dcmi.c ****         (++) Configure these DCMI pins in alternate function mode by calling 
  33:./Library/stm32f4xx_dcmi.c ****             the function GPIO_Init();
  34:./Library/stm32f4xx_dcmi.c ****       
  35:./Library/stm32f4xx_dcmi.c ****       (#) Declare a DCMI_InitTypeDef structure, for example:
  36:./Library/stm32f4xx_dcmi.c ****           DCMI_InitTypeDef  DCMI_InitStructure;
  37:./Library/stm32f4xx_dcmi.c ****           and fill the DCMI_InitStructure variable with the allowed values
  38:./Library/stm32f4xx_dcmi.c ****           of the structure member.
  39:./Library/stm32f4xx_dcmi.c ****     
  40:./Library/stm32f4xx_dcmi.c ****       (#) Initialize the DCMI interface by calling the function
  41:./Library/stm32f4xx_dcmi.c ****           DCMI_Init(&DCMI_InitStructure); 
  42:./Library/stm32f4xx_dcmi.c ****     
  43:./Library/stm32f4xx_dcmi.c ****       (#) Configure the DMA2_Stream1 channel1 to transfer Data from DCMI DR
  44:./Library/stm32f4xx_dcmi.c ****           register to the destination memory buffer.
  45:./Library/stm32f4xx_dcmi.c ****     
  46:./Library/stm32f4xx_dcmi.c ****       (#) Enable DCMI interface using the function
  47:./Library/stm32f4xx_dcmi.c ****           DCMI_Cmd(ENABLE);
  48:./Library/stm32f4xx_dcmi.c ****                    
  49:./Library/stm32f4xx_dcmi.c ****       (#) Start the image capture using the function
  50:./Library/stm32f4xx_dcmi.c ****           DCMI_CaptureCmd(ENABLE);
  51:./Library/stm32f4xx_dcmi.c ****                    
  52:./Library/stm32f4xx_dcmi.c ****       (#) At this stage the DCMI interface waits for the first start of frame,
  53:./Library/stm32f4xx_dcmi.c ****           then a DMA request is generated continuously/once (depending on the
  54:./Library/stm32f4xx_dcmi.c ****           mode used, Continuous/Snapshot) to transfer the received data into
  55:./Library/stm32f4xx_dcmi.c ****           the destination memory. 
  56:./Library/stm32f4xx_dcmi.c ****      
  57:./Library/stm32f4xx_dcmi.c ****       -@-  If you need to capture only a rectangular window from the received
  58:./Library/stm32f4xx_dcmi.c ****            image, you have to use the DCMI_CROPConfig() function to configure 
  59:./Library/stm32f4xx_dcmi.c ****            the coordinates and size of the window to be captured, then enable 
  60:./Library/stm32f4xx_dcmi.c ****            the Crop feature using DCMI_CROPCmd(ENABLE);  
  61:./Library/stm32f4xx_dcmi.c ****            In this case, the Crop configuration should be made before to enable
  62:./Library/stm32f4xx_dcmi.c ****            and start the DCMI interface. 
  63:./Library/stm32f4xx_dcmi.c **** 
  64:./Library/stm32f4xx_dcmi.c ****  @endverbatim     
  65:./Library/stm32f4xx_dcmi.c ****   ******************************************************************************
  66:./Library/stm32f4xx_dcmi.c ****   * @attention
  67:./Library/stm32f4xx_dcmi.c ****   *
  68:./Library/stm32f4xx_dcmi.c ****   * Copyright (c) 2016 STMicroelectronics.
  69:./Library/stm32f4xx_dcmi.c ****   * All rights reserved.
  70:./Library/stm32f4xx_dcmi.c ****   *
  71:./Library/stm32f4xx_dcmi.c ****   * This software is licensed under terms that can be found in the LICENSE file
  72:./Library/stm32f4xx_dcmi.c ****   * in the root directory of this software component.
  73:./Library/stm32f4xx_dcmi.c ****   * If no LICENSE file comes with this software, it is provided AS-IS.
  74:./Library/stm32f4xx_dcmi.c ****   *
  75:./Library/stm32f4xx_dcmi.c ****   ******************************************************************************
  76:./Library/stm32f4xx_dcmi.c ****   */
  77:./Library/stm32f4xx_dcmi.c **** 
  78:./Library/stm32f4xx_dcmi.c **** /* Includes ------------------------------------------------------------------*/
  79:./Library/stm32f4xx_dcmi.c **** #include "stm32f4xx_dcmi.h"
  80:./Library/stm32f4xx_dcmi.c **** #include "stm32f4xx_rcc.h"
  81:./Library/stm32f4xx_dcmi.c **** 
  82:./Library/stm32f4xx_dcmi.c **** /** @addtogroup STM32F4xx_StdPeriph_Driver
  83:./Library/stm32f4xx_dcmi.c ****   * @{
  84:./Library/stm32f4xx_dcmi.c ****   */
  85:./Library/stm32f4xx_dcmi.c **** 
  86:./Library/stm32f4xx_dcmi.c **** /** @defgroup DCMI 
  87:./Library/stm32f4xx_dcmi.c ****   * @brief DCMI driver modules
ARM GAS  /var/folders/yl/_q9l42k90g1g4mdhbs226msm0000gn/T//ccuhZ0Pj.s 			page 3


  88:./Library/stm32f4xx_dcmi.c ****   * @{
  89:./Library/stm32f4xx_dcmi.c ****   */ 
  90:./Library/stm32f4xx_dcmi.c **** 
  91:./Library/stm32f4xx_dcmi.c **** /* Private typedef -----------------------------------------------------------*/
  92:./Library/stm32f4xx_dcmi.c **** /* Private define ------------------------------------------------------------*/
  93:./Library/stm32f4xx_dcmi.c **** /* Private macro -------------------------------------------------------------*/
  94:./Library/stm32f4xx_dcmi.c **** /* Private variables ---------------------------------------------------------*/
  95:./Library/stm32f4xx_dcmi.c **** /* Private function prototypes -----------------------------------------------*/
  96:./Library/stm32f4xx_dcmi.c **** /* Private functions ---------------------------------------------------------*/
  97:./Library/stm32f4xx_dcmi.c **** 
  98:./Library/stm32f4xx_dcmi.c **** /** @defgroup DCMI_Private_Functions
  99:./Library/stm32f4xx_dcmi.c ****   * @{
 100:./Library/stm32f4xx_dcmi.c ****   */ 
 101:./Library/stm32f4xx_dcmi.c **** 
 102:./Library/stm32f4xx_dcmi.c **** /** @defgroup DCMI_Group1 Initialization and Configuration functions
 103:./Library/stm32f4xx_dcmi.c ****  *  @brief   Initialization and Configuration functions 
 104:./Library/stm32f4xx_dcmi.c ****  *
 105:./Library/stm32f4xx_dcmi.c **** @verbatim   
 106:./Library/stm32f4xx_dcmi.c ****  ===============================================================================
 107:./Library/stm32f4xx_dcmi.c ****               ##### Initialization and Configuration functions #####
 108:./Library/stm32f4xx_dcmi.c ****  ===============================================================================  
 109:./Library/stm32f4xx_dcmi.c **** 
 110:./Library/stm32f4xx_dcmi.c **** @endverbatim
 111:./Library/stm32f4xx_dcmi.c ****   * @{
 112:./Library/stm32f4xx_dcmi.c ****   */
 113:./Library/stm32f4xx_dcmi.c **** 
 114:./Library/stm32f4xx_dcmi.c **** /**
 115:./Library/stm32f4xx_dcmi.c ****   * @brief  Deinitializes the DCMI registers to their default reset values.
 116:./Library/stm32f4xx_dcmi.c ****   * @param  None
 117:./Library/stm32f4xx_dcmi.c ****   * @retval None
 118:./Library/stm32f4xx_dcmi.c ****   */
 119:./Library/stm32f4xx_dcmi.c **** void DCMI_DeInit(void)
 120:./Library/stm32f4xx_dcmi.c **** {
  29              		.loc 1 120 1
  30              		.cfi_startproc
  31              		@ args = 0, pretend = 0, frame = 0
  32              		@ frame_needed = 1, uses_anonymous_args = 0
  33              		@ link register save eliminated.
  34 0000 80B4     		push	{r7}
  35              	.LCFI0:
  36              		.cfi_def_cfa_offset 4
  37              		.cfi_offset 7, -4
  38 0002 00AF     		add	r7, sp, #0
  39              	.LCFI1:
  40              		.cfi_def_cfa_register 7
 121:./Library/stm32f4xx_dcmi.c ****   DCMI->CR = 0x0;
  41              		.loc 1 121 7
  42 0004 0C4B     		ldr	r3, .L2
  43              		.loc 1 121 12
  44 0006 0022     		movs	r2, #0
  45 0008 1A60     		str	r2, [r3]
 122:./Library/stm32f4xx_dcmi.c ****   DCMI->IER = 0x0;
  46              		.loc 1 122 7
  47 000a 0B4B     		ldr	r3, .L2
  48              		.loc 1 122 13
  49 000c 0022     		movs	r2, #0
  50 000e DA60     		str	r2, [r3, #12]
ARM GAS  /var/folders/yl/_q9l42k90g1g4mdhbs226msm0000gn/T//ccuhZ0Pj.s 			page 4


 123:./Library/stm32f4xx_dcmi.c ****   DCMI->ICR = 0x1F;
  51              		.loc 1 123 7
  52 0010 094B     		ldr	r3, .L2
  53              		.loc 1 123 13
  54 0012 1F22     		movs	r2, #31
  55 0014 5A61     		str	r2, [r3, #20]
 124:./Library/stm32f4xx_dcmi.c ****   DCMI->ESCR = 0x0;
  56              		.loc 1 124 7
  57 0016 084B     		ldr	r3, .L2
  58              		.loc 1 124 14
  59 0018 0022     		movs	r2, #0
  60 001a 9A61     		str	r2, [r3, #24]
 125:./Library/stm32f4xx_dcmi.c ****   DCMI->ESUR = 0x0;
  61              		.loc 1 125 7
  62 001c 064B     		ldr	r3, .L2
  63              		.loc 1 125 14
  64 001e 0022     		movs	r2, #0
  65 0020 DA61     		str	r2, [r3, #28]
 126:./Library/stm32f4xx_dcmi.c ****   DCMI->CWSTRTR = 0x0;
  66              		.loc 1 126 7
  67 0022 054B     		ldr	r3, .L2
  68              		.loc 1 126 17
  69 0024 0022     		movs	r2, #0
  70 0026 1A62     		str	r2, [r3, #32]
 127:./Library/stm32f4xx_dcmi.c ****   DCMI->CWSIZER = 0x0;
  71              		.loc 1 127 7
  72 0028 034B     		ldr	r3, .L2
  73              		.loc 1 127 17
  74 002a 0022     		movs	r2, #0
  75 002c 5A62     		str	r2, [r3, #36]
 128:./Library/stm32f4xx_dcmi.c **** }
  76              		.loc 1 128 1
  77 002e 00BF     		nop
  78 0030 BD46     		mov	sp, r7
  79              	.LCFI2:
  80              		.cfi_def_cfa_register 13
  81              		@ sp needed
  82 0032 5DF8047B 		ldr	r7, [sp], #4
  83              	.LCFI3:
  84              		.cfi_restore 7
  85              		.cfi_def_cfa_offset 0
  86 0036 7047     		bx	lr
  87              	.L3:
  88              		.align	2
  89              	.L2:
  90 0038 00000550 		.word	1342504960
  91              		.cfi_endproc
  92              	.LFE123:
  94              		.section	.text.DCMI_Init,"ax",%progbits
  95              		.align	1
  96              		.global	DCMI_Init
  97              		.syntax unified
  98              		.thumb
  99              		.thumb_func
 101              	DCMI_Init:
 102              	.LFB124:
 129:./Library/stm32f4xx_dcmi.c **** 
ARM GAS  /var/folders/yl/_q9l42k90g1g4mdhbs226msm0000gn/T//ccuhZ0Pj.s 			page 5


 130:./Library/stm32f4xx_dcmi.c **** /**
 131:./Library/stm32f4xx_dcmi.c ****   * @brief  Initializes the DCMI according to the specified parameters in the DCMI_InitStruct.
 132:./Library/stm32f4xx_dcmi.c ****   * @param  DCMI_InitStruct: pointer to a DCMI_InitTypeDef structure that contains 
 133:./Library/stm32f4xx_dcmi.c ****   *         the configuration information for the DCMI.
 134:./Library/stm32f4xx_dcmi.c ****   * @retval None
 135:./Library/stm32f4xx_dcmi.c ****   */
 136:./Library/stm32f4xx_dcmi.c **** void DCMI_Init(DCMI_InitTypeDef* DCMI_InitStruct)
 137:./Library/stm32f4xx_dcmi.c **** {
 103              		.loc 1 137 1
 104              		.cfi_startproc
 105              		@ args = 0, pretend = 0, frame = 16
 106              		@ frame_needed = 1, uses_anonymous_args = 0
 107              		@ link register save eliminated.
 108 0000 80B4     		push	{r7}
 109              	.LCFI4:
 110              		.cfi_def_cfa_offset 4
 111              		.cfi_offset 7, -4
 112 0002 85B0     		sub	sp, sp, #20
 113              	.LCFI5:
 114              		.cfi_def_cfa_offset 24
 115 0004 00AF     		add	r7, sp, #0
 116              	.LCFI6:
 117              		.cfi_def_cfa_register 7
 118 0006 7860     		str	r0, [r7, #4]
 138:./Library/stm32f4xx_dcmi.c ****   uint32_t temp = 0x0;
 119              		.loc 1 138 12
 120 0008 0023     		movs	r3, #0
 121 000a FB60     		str	r3, [r7, #12]
 139:./Library/stm32f4xx_dcmi.c ****   
 140:./Library/stm32f4xx_dcmi.c ****   /* Check the parameters */
 141:./Library/stm32f4xx_dcmi.c ****   assert_param(IS_DCMI_CAPTURE_MODE(DCMI_InitStruct->DCMI_CaptureMode));
 142:./Library/stm32f4xx_dcmi.c ****   assert_param(IS_DCMI_SYNCHRO(DCMI_InitStruct->DCMI_SynchroMode));
 143:./Library/stm32f4xx_dcmi.c ****   assert_param(IS_DCMI_PCKPOLARITY(DCMI_InitStruct->DCMI_PCKPolarity));
 144:./Library/stm32f4xx_dcmi.c ****   assert_param(IS_DCMI_VSPOLARITY(DCMI_InitStruct->DCMI_VSPolarity));
 145:./Library/stm32f4xx_dcmi.c ****   assert_param(IS_DCMI_HSPOLARITY(DCMI_InitStruct->DCMI_HSPolarity));
 146:./Library/stm32f4xx_dcmi.c ****   assert_param(IS_DCMI_CAPTURE_RATE(DCMI_InitStruct->DCMI_CaptureRate));
 147:./Library/stm32f4xx_dcmi.c ****   assert_param(IS_DCMI_EXTENDED_DATA(DCMI_InitStruct->DCMI_ExtendedDataMode));
 148:./Library/stm32f4xx_dcmi.c **** 
 149:./Library/stm32f4xx_dcmi.c ****   /* The DCMI configuration registers should be programmed correctly before 
 150:./Library/stm32f4xx_dcmi.c ****   enabling the CR_ENABLE Bit and the CR_CAPTURE Bit */
 151:./Library/stm32f4xx_dcmi.c ****   DCMI->CR &= ~(DCMI_CR_ENABLE | DCMI_CR_CAPTURE);
 122              		.loc 1 151 12
 123 000c 1B4B     		ldr	r3, .L5
 124 000e 1B68     		ldr	r3, [r3]
 125 0010 1A4A     		ldr	r2, .L5
 126 0012 23F48043 		bic	r3, r3, #16384
 127 0016 23F00103 		bic	r3, r3, #1
 128 001a 1360     		str	r3, [r2]
 152:./Library/stm32f4xx_dcmi.c ****    
 153:./Library/stm32f4xx_dcmi.c ****   /* Reset the old DCMI configuration */
 154:./Library/stm32f4xx_dcmi.c ****   temp = DCMI->CR;
 129              		.loc 1 154 14
 130 001c 174B     		ldr	r3, .L5
 131              		.loc 1 154 8
 132 001e 1B68     		ldr	r3, [r3]
 133 0020 FB60     		str	r3, [r7, #12]
 155:./Library/stm32f4xx_dcmi.c ****   
ARM GAS  /var/folders/yl/_q9l42k90g1g4mdhbs226msm0000gn/T//ccuhZ0Pj.s 			page 6


 156:./Library/stm32f4xx_dcmi.c ****   temp &= ~((uint32_t)DCMI_CR_CM     | DCMI_CR_ESS   | DCMI_CR_PCKPOL |
 134              		.loc 1 156 8
 135 0022 FB68     		ldr	r3, [r7, #12]
 136 0024 23F47F63 		bic	r3, r3, #4080
 137 0028 23F00203 		bic	r3, r3, #2
 138 002c FB60     		str	r3, [r7, #12]
 157:./Library/stm32f4xx_dcmi.c ****                       DCMI_CR_HSPOL  | DCMI_CR_VSPOL | DCMI_CR_FCRC_0 | 
 158:./Library/stm32f4xx_dcmi.c ****                       DCMI_CR_FCRC_1 | DCMI_CR_EDM_0 | DCMI_CR_EDM_1); 
 159:./Library/stm32f4xx_dcmi.c ****                   
 160:./Library/stm32f4xx_dcmi.c ****   /* Sets the new configuration of the DCMI peripheral */
 161:./Library/stm32f4xx_dcmi.c ****   temp |= ((uint32_t)DCMI_InitStruct->DCMI_CaptureMode |
 139              		.loc 1 161 37
 140 002e 7B68     		ldr	r3, [r7, #4]
 141 0030 1A88     		ldrh	r2, [r3]
 162:./Library/stm32f4xx_dcmi.c ****                      DCMI_InitStruct->DCMI_SynchroMode |
 142              		.loc 1 162 37
 143 0032 7B68     		ldr	r3, [r7, #4]
 144 0034 5B88     		ldrh	r3, [r3, #2]
 163:./Library/stm32f4xx_dcmi.c ****                      DCMI_InitStruct->DCMI_PCKPolarity |
 164:./Library/stm32f4xx_dcmi.c ****                      DCMI_InitStruct->DCMI_VSPolarity |
 165:./Library/stm32f4xx_dcmi.c ****                      DCMI_InitStruct->DCMI_HSPolarity |
 166:./Library/stm32f4xx_dcmi.c ****                      DCMI_InitStruct->DCMI_CaptureRate |
 145              		.loc 1 166 56
 146 0036 1343     		orrs	r3, r3, r2
 147 0038 9AB2     		uxth	r2, r3
 163:./Library/stm32f4xx_dcmi.c ****                      DCMI_InitStruct->DCMI_PCKPolarity |
 148              		.loc 1 163 37
 149 003a 7B68     		ldr	r3, [r7, #4]
 150 003c 9B88     		ldrh	r3, [r3, #4]
 151              		.loc 1 166 56
 152 003e 1343     		orrs	r3, r3, r2
 153 0040 9AB2     		uxth	r2, r3
 164:./Library/stm32f4xx_dcmi.c ****                      DCMI_InitStruct->DCMI_HSPolarity |
 154              		.loc 1 164 37
 155 0042 7B68     		ldr	r3, [r7, #4]
 156 0044 DB88     		ldrh	r3, [r3, #6]
 157              		.loc 1 166 56
 158 0046 1343     		orrs	r3, r3, r2
 159 0048 9AB2     		uxth	r2, r3
 165:./Library/stm32f4xx_dcmi.c ****                      DCMI_InitStruct->DCMI_CaptureRate |
 160              		.loc 1 165 37
 161 004a 7B68     		ldr	r3, [r7, #4]
 162 004c 1B89     		ldrh	r3, [r3, #8]
 163              		.loc 1 166 56
 164 004e 1343     		orrs	r3, r3, r2
 165 0050 9AB2     		uxth	r2, r3
 166              		.loc 1 166 37
 167 0052 7B68     		ldr	r3, [r7, #4]
 168 0054 5B89     		ldrh	r3, [r3, #10]
 169              		.loc 1 166 56
 170 0056 1343     		orrs	r3, r3, r2
 171 0058 9AB2     		uxth	r2, r3
 167:./Library/stm32f4xx_dcmi.c ****                      DCMI_InitStruct->DCMI_ExtendedDataMode);
 172              		.loc 1 167 37
 173 005a 7B68     		ldr	r3, [r7, #4]
 174 005c 9B89     		ldrh	r3, [r3, #12]
 166:./Library/stm32f4xx_dcmi.c ****                      DCMI_InitStruct->DCMI_ExtendedDataMode);
ARM GAS  /var/folders/yl/_q9l42k90g1g4mdhbs226msm0000gn/T//ccuhZ0Pj.s 			page 7


 175              		.loc 1 166 56
 176 005e 1343     		orrs	r3, r3, r2
 177 0060 9BB2     		uxth	r3, r3
 178 0062 1A46     		mov	r2, r3
 161:./Library/stm32f4xx_dcmi.c ****                      DCMI_InitStruct->DCMI_SynchroMode |
 179              		.loc 1 161 8
 180 0064 FB68     		ldr	r3, [r7, #12]
 181 0066 1343     		orrs	r3, r3, r2
 182 0068 FB60     		str	r3, [r7, #12]
 168:./Library/stm32f4xx_dcmi.c **** 
 169:./Library/stm32f4xx_dcmi.c ****   DCMI->CR = temp;                              
 183              		.loc 1 169 7
 184 006a 044A     		ldr	r2, .L5
 185              		.loc 1 169 12
 186 006c FB68     		ldr	r3, [r7, #12]
 187 006e 1360     		str	r3, [r2]
 170:./Library/stm32f4xx_dcmi.c **** }
 188              		.loc 1 170 1
 189 0070 00BF     		nop
 190 0072 1437     		adds	r7, r7, #20
 191              	.LCFI7:
 192              		.cfi_def_cfa_offset 4
 193 0074 BD46     		mov	sp, r7
 194              	.LCFI8:
 195              		.cfi_def_cfa_register 13
 196              		@ sp needed
 197 0076 5DF8047B 		ldr	r7, [sp], #4
 198              	.LCFI9:
 199              		.cfi_restore 7
 200              		.cfi_def_cfa_offset 0
 201 007a 7047     		bx	lr
 202              	.L6:
 203              		.align	2
 204              	.L5:
 205 007c 00000550 		.word	1342504960
 206              		.cfi_endproc
 207              	.LFE124:
 209              		.section	.text.DCMI_StructInit,"ax",%progbits
 210              		.align	1
 211              		.global	DCMI_StructInit
 212              		.syntax unified
 213              		.thumb
 214              		.thumb_func
 216              	DCMI_StructInit:
 217              	.LFB125:
 171:./Library/stm32f4xx_dcmi.c **** 
 172:./Library/stm32f4xx_dcmi.c **** /**
 173:./Library/stm32f4xx_dcmi.c ****   * @brief  Fills each DCMI_InitStruct member with its default value.
 174:./Library/stm32f4xx_dcmi.c ****   * @param  DCMI_InitStruct : pointer to a DCMI_InitTypeDef structure which will
 175:./Library/stm32f4xx_dcmi.c ****   *         be initialized.
 176:./Library/stm32f4xx_dcmi.c ****   * @retval None
 177:./Library/stm32f4xx_dcmi.c ****   */
 178:./Library/stm32f4xx_dcmi.c **** void DCMI_StructInit(DCMI_InitTypeDef* DCMI_InitStruct)
 179:./Library/stm32f4xx_dcmi.c **** {
 218              		.loc 1 179 1
 219              		.cfi_startproc
 220              		@ args = 0, pretend = 0, frame = 8
ARM GAS  /var/folders/yl/_q9l42k90g1g4mdhbs226msm0000gn/T//ccuhZ0Pj.s 			page 8


 221              		@ frame_needed = 1, uses_anonymous_args = 0
 222              		@ link register save eliminated.
 223 0000 80B4     		push	{r7}
 224              	.LCFI10:
 225              		.cfi_def_cfa_offset 4
 226              		.cfi_offset 7, -4
 227 0002 83B0     		sub	sp, sp, #12
 228              	.LCFI11:
 229              		.cfi_def_cfa_offset 16
 230 0004 00AF     		add	r7, sp, #0
 231              	.LCFI12:
 232              		.cfi_def_cfa_register 7
 233 0006 7860     		str	r0, [r7, #4]
 180:./Library/stm32f4xx_dcmi.c ****   /* Set the default configuration */
 181:./Library/stm32f4xx_dcmi.c ****   DCMI_InitStruct->DCMI_CaptureMode = DCMI_CaptureMode_Continuous;
 234              		.loc 1 181 37
 235 0008 7B68     		ldr	r3, [r7, #4]
 236 000a 0022     		movs	r2, #0
 237 000c 1A80     		strh	r2, [r3]	@ movhi
 182:./Library/stm32f4xx_dcmi.c ****   DCMI_InitStruct->DCMI_SynchroMode = DCMI_SynchroMode_Hardware;
 238              		.loc 1 182 37
 239 000e 7B68     		ldr	r3, [r7, #4]
 240 0010 0022     		movs	r2, #0
 241 0012 5A80     		strh	r2, [r3, #2]	@ movhi
 183:./Library/stm32f4xx_dcmi.c ****   DCMI_InitStruct->DCMI_PCKPolarity = DCMI_PCKPolarity_Falling;
 242              		.loc 1 183 37
 243 0014 7B68     		ldr	r3, [r7, #4]
 244 0016 0022     		movs	r2, #0
 245 0018 9A80     		strh	r2, [r3, #4]	@ movhi
 184:./Library/stm32f4xx_dcmi.c ****   DCMI_InitStruct->DCMI_VSPolarity = DCMI_VSPolarity_Low;
 246              		.loc 1 184 36
 247 001a 7B68     		ldr	r3, [r7, #4]
 248 001c 0022     		movs	r2, #0
 249 001e DA80     		strh	r2, [r3, #6]	@ movhi
 185:./Library/stm32f4xx_dcmi.c ****   DCMI_InitStruct->DCMI_HSPolarity = DCMI_HSPolarity_Low;
 250              		.loc 1 185 36
 251 0020 7B68     		ldr	r3, [r7, #4]
 252 0022 0022     		movs	r2, #0
 253 0024 1A81     		strh	r2, [r3, #8]	@ movhi
 186:./Library/stm32f4xx_dcmi.c ****   DCMI_InitStruct->DCMI_CaptureRate = DCMI_CaptureRate_All_Frame;
 254              		.loc 1 186 37
 255 0026 7B68     		ldr	r3, [r7, #4]
 256 0028 0022     		movs	r2, #0
 257 002a 5A81     		strh	r2, [r3, #10]	@ movhi
 187:./Library/stm32f4xx_dcmi.c ****   DCMI_InitStruct->DCMI_ExtendedDataMode = DCMI_ExtendedDataMode_8b;
 258              		.loc 1 187 42
 259 002c 7B68     		ldr	r3, [r7, #4]
 260 002e 0022     		movs	r2, #0
 261 0030 9A81     		strh	r2, [r3, #12]	@ movhi
 188:./Library/stm32f4xx_dcmi.c **** }
 262              		.loc 1 188 1
 263 0032 00BF     		nop
 264 0034 0C37     		adds	r7, r7, #12
 265              	.LCFI13:
 266              		.cfi_def_cfa_offset 4
 267 0036 BD46     		mov	sp, r7
 268              	.LCFI14:
ARM GAS  /var/folders/yl/_q9l42k90g1g4mdhbs226msm0000gn/T//ccuhZ0Pj.s 			page 9


 269              		.cfi_def_cfa_register 13
 270              		@ sp needed
 271 0038 5DF8047B 		ldr	r7, [sp], #4
 272              	.LCFI15:
 273              		.cfi_restore 7
 274              		.cfi_def_cfa_offset 0
 275 003c 7047     		bx	lr
 276              		.cfi_endproc
 277              	.LFE125:
 279              		.section	.text.DCMI_CROPConfig,"ax",%progbits
 280              		.align	1
 281              		.global	DCMI_CROPConfig
 282              		.syntax unified
 283              		.thumb
 284              		.thumb_func
 286              	DCMI_CROPConfig:
 287              	.LFB126:
 189:./Library/stm32f4xx_dcmi.c **** 
 190:./Library/stm32f4xx_dcmi.c **** /**
 191:./Library/stm32f4xx_dcmi.c ****   * @brief  Initializes the DCMI peripheral CROP mode according to the specified
 192:./Library/stm32f4xx_dcmi.c ****   *         parameters in the DCMI_CROPInitStruct.
 193:./Library/stm32f4xx_dcmi.c ****   * @note   This function should be called before to enable and start the DCMI interface.   
 194:./Library/stm32f4xx_dcmi.c ****   * @param  DCMI_CROPInitStruct:  pointer to a DCMI_CROPInitTypeDef structure that 
 195:./Library/stm32f4xx_dcmi.c ****   *         contains the configuration information for the DCMI peripheral CROP mode.
 196:./Library/stm32f4xx_dcmi.c ****   * @retval None
 197:./Library/stm32f4xx_dcmi.c ****   */
 198:./Library/stm32f4xx_dcmi.c **** void DCMI_CROPConfig(DCMI_CROPInitTypeDef* DCMI_CROPInitStruct)
 199:./Library/stm32f4xx_dcmi.c **** {  
 288              		.loc 1 199 1
 289              		.cfi_startproc
 290              		@ args = 0, pretend = 0, frame = 8
 291              		@ frame_needed = 1, uses_anonymous_args = 0
 292              		@ link register save eliminated.
 293 0000 80B4     		push	{r7}
 294              	.LCFI16:
 295              		.cfi_def_cfa_offset 4
 296              		.cfi_offset 7, -4
 297 0002 83B0     		sub	sp, sp, #12
 298              	.LCFI17:
 299              		.cfi_def_cfa_offset 16
 300 0004 00AF     		add	r7, sp, #0
 301              	.LCFI18:
 302              		.cfi_def_cfa_register 7
 303 0006 7860     		str	r0, [r7, #4]
 200:./Library/stm32f4xx_dcmi.c ****   /* Sets the CROP window coordinates */
 201:./Library/stm32f4xx_dcmi.c ****   DCMI->CWSTRTR = (uint32_t)((uint32_t)DCMI_CROPInitStruct->DCMI_HorizontalOffsetCount |
 304              		.loc 1 201 59
 305 0008 7B68     		ldr	r3, [r7, #4]
 306 000a 5B88     		ldrh	r3, [r3, #2]
 307              		.loc 1 201 30
 308 000c 1946     		mov	r1, r3
 202:./Library/stm32f4xx_dcmi.c ****                   ((uint32_t)DCMI_CROPInitStruct->DCMI_VerticalStartLine << 16));
 309              		.loc 1 202 49
 310 000e 7B68     		ldr	r3, [r7, #4]
 311 0010 1B88     		ldrh	r3, [r3]
 312              		.loc 1 202 74
 313 0012 1B04     		lsls	r3, r3, #16
ARM GAS  /var/folders/yl/_q9l42k90g1g4mdhbs226msm0000gn/T//ccuhZ0Pj.s 			page 10


 201:./Library/stm32f4xx_dcmi.c ****                   ((uint32_t)DCMI_CROPInitStruct->DCMI_VerticalStartLine << 16));
 314              		.loc 1 201 7
 315 0014 084A     		ldr	r2, .L9
 201:./Library/stm32f4xx_dcmi.c ****                   ((uint32_t)DCMI_CROPInitStruct->DCMI_VerticalStartLine << 16));
 316              		.loc 1 201 19
 317 0016 0B43     		orrs	r3, r3, r1
 201:./Library/stm32f4xx_dcmi.c ****                   ((uint32_t)DCMI_CROPInitStruct->DCMI_VerticalStartLine << 16));
 318              		.loc 1 201 17
 319 0018 1362     		str	r3, [r2, #32]
 203:./Library/stm32f4xx_dcmi.c **** 
 204:./Library/stm32f4xx_dcmi.c ****   /* Sets the CROP window size */
 205:./Library/stm32f4xx_dcmi.c ****   DCMI->CWSIZER = (uint32_t)(DCMI_CROPInitStruct->DCMI_CaptureCount |
 320              		.loc 1 205 49
 321 001a 7B68     		ldr	r3, [r7, #4]
 322 001c DB88     		ldrh	r3, [r3, #6]
 323 001e 1946     		mov	r1, r3
 206:./Library/stm32f4xx_dcmi.c ****                   ((uint32_t)DCMI_CROPInitStruct->DCMI_VerticalLineCount << 16));
 324              		.loc 1 206 49
 325 0020 7B68     		ldr	r3, [r7, #4]
 326 0022 9B88     		ldrh	r3, [r3, #4]
 327              		.loc 1 206 74
 328 0024 1B04     		lsls	r3, r3, #16
 205:./Library/stm32f4xx_dcmi.c ****                   ((uint32_t)DCMI_CROPInitStruct->DCMI_VerticalLineCount << 16));
 329              		.loc 1 205 7
 330 0026 044A     		ldr	r2, .L9
 205:./Library/stm32f4xx_dcmi.c ****                   ((uint32_t)DCMI_CROPInitStruct->DCMI_VerticalLineCount << 16));
 331              		.loc 1 205 19
 332 0028 0B43     		orrs	r3, r3, r1
 205:./Library/stm32f4xx_dcmi.c ****                   ((uint32_t)DCMI_CROPInitStruct->DCMI_VerticalLineCount << 16));
 333              		.loc 1 205 17
 334 002a 5362     		str	r3, [r2, #36]
 207:./Library/stm32f4xx_dcmi.c **** }
 335              		.loc 1 207 1
 336 002c 00BF     		nop
 337 002e 0C37     		adds	r7, r7, #12
 338              	.LCFI19:
 339              		.cfi_def_cfa_offset 4
 340 0030 BD46     		mov	sp, r7
 341              	.LCFI20:
 342              		.cfi_def_cfa_register 13
 343              		@ sp needed
 344 0032 5DF8047B 		ldr	r7, [sp], #4
 345              	.LCFI21:
 346              		.cfi_restore 7
 347              		.cfi_def_cfa_offset 0
 348 0036 7047     		bx	lr
 349              	.L10:
 350              		.align	2
 351              	.L9:
 352 0038 00000550 		.word	1342504960
 353              		.cfi_endproc
 354              	.LFE126:
 356              		.section	.text.DCMI_CROPCmd,"ax",%progbits
 357              		.align	1
 358              		.global	DCMI_CROPCmd
 359              		.syntax unified
 360              		.thumb
ARM GAS  /var/folders/yl/_q9l42k90g1g4mdhbs226msm0000gn/T//ccuhZ0Pj.s 			page 11


 361              		.thumb_func
 363              	DCMI_CROPCmd:
 364              	.LFB127:
 208:./Library/stm32f4xx_dcmi.c **** 
 209:./Library/stm32f4xx_dcmi.c **** /**
 210:./Library/stm32f4xx_dcmi.c ****   * @brief  Enables or disables the DCMI Crop feature.
 211:./Library/stm32f4xx_dcmi.c ****   * @note   This function should be called before to enable and start the DCMI interface.
 212:./Library/stm32f4xx_dcmi.c ****   * @param  NewState: new state of the DCMI Crop feature. 
 213:./Library/stm32f4xx_dcmi.c ****   *          This parameter can be: ENABLE or DISABLE.
 214:./Library/stm32f4xx_dcmi.c ****   * @retval None
 215:./Library/stm32f4xx_dcmi.c ****   */
 216:./Library/stm32f4xx_dcmi.c **** void DCMI_CROPCmd(FunctionalState NewState)
 217:./Library/stm32f4xx_dcmi.c **** {
 365              		.loc 1 217 1
 366              		.cfi_startproc
 367              		@ args = 0, pretend = 0, frame = 8
 368              		@ frame_needed = 1, uses_anonymous_args = 0
 369              		@ link register save eliminated.
 370 0000 80B4     		push	{r7}
 371              	.LCFI22:
 372              		.cfi_def_cfa_offset 4
 373              		.cfi_offset 7, -4
 374 0002 83B0     		sub	sp, sp, #12
 375              	.LCFI23:
 376              		.cfi_def_cfa_offset 16
 377 0004 00AF     		add	r7, sp, #0
 378              	.LCFI24:
 379              		.cfi_def_cfa_register 7
 380 0006 0346     		mov	r3, r0
 381 0008 FB71     		strb	r3, [r7, #7]
 218:./Library/stm32f4xx_dcmi.c ****   /* Check the parameters */
 219:./Library/stm32f4xx_dcmi.c ****   assert_param(IS_FUNCTIONAL_STATE(NewState));
 220:./Library/stm32f4xx_dcmi.c ****     
 221:./Library/stm32f4xx_dcmi.c ****   if (NewState != DISABLE)
 382              		.loc 1 221 6
 383 000a FB79     		ldrb	r3, [r7, #7]	@ zero_extendqisi2
 384 000c 002B     		cmp	r3, #0
 385 000e 06D0     		beq	.L12
 222:./Library/stm32f4xx_dcmi.c ****   {
 223:./Library/stm32f4xx_dcmi.c ****     /* Enable the DCMI Crop feature */
 224:./Library/stm32f4xx_dcmi.c ****     DCMI->CR |= (uint32_t)DCMI_CR_CROP;
 386              		.loc 1 224 14
 387 0010 094B     		ldr	r3, .L15
 388 0012 1B68     		ldr	r3, [r3]
 389 0014 084A     		ldr	r2, .L15
 390 0016 43F00403 		orr	r3, r3, #4
 391 001a 1360     		str	r3, [r2]
 225:./Library/stm32f4xx_dcmi.c ****   }
 226:./Library/stm32f4xx_dcmi.c ****   else
 227:./Library/stm32f4xx_dcmi.c ****   {
 228:./Library/stm32f4xx_dcmi.c ****     /* Disable the DCMI Crop feature */
 229:./Library/stm32f4xx_dcmi.c ****     DCMI->CR &= ~(uint32_t)DCMI_CR_CROP;
 230:./Library/stm32f4xx_dcmi.c ****   }
 231:./Library/stm32f4xx_dcmi.c **** }
 392              		.loc 1 231 1
 393 001c 05E0     		b	.L14
 394              	.L12:
ARM GAS  /var/folders/yl/_q9l42k90g1g4mdhbs226msm0000gn/T//ccuhZ0Pj.s 			page 12


 229:./Library/stm32f4xx_dcmi.c ****   }
 395              		.loc 1 229 14
 396 001e 064B     		ldr	r3, .L15
 397 0020 1B68     		ldr	r3, [r3]
 398 0022 054A     		ldr	r2, .L15
 399 0024 23F00403 		bic	r3, r3, #4
 400 0028 1360     		str	r3, [r2]
 401              	.L14:
 402              		.loc 1 231 1
 403 002a 00BF     		nop
 404 002c 0C37     		adds	r7, r7, #12
 405              	.LCFI25:
 406              		.cfi_def_cfa_offset 4
 407 002e BD46     		mov	sp, r7
 408              	.LCFI26:
 409              		.cfi_def_cfa_register 13
 410              		@ sp needed
 411 0030 5DF8047B 		ldr	r7, [sp], #4
 412              	.LCFI27:
 413              		.cfi_restore 7
 414              		.cfi_def_cfa_offset 0
 415 0034 7047     		bx	lr
 416              	.L16:
 417 0036 00BF     		.align	2
 418              	.L15:
 419 0038 00000550 		.word	1342504960
 420              		.cfi_endproc
 421              	.LFE127:
 423              		.section	.text.DCMI_SetEmbeddedSynchroCodes,"ax",%progbits
 424              		.align	1
 425              		.global	DCMI_SetEmbeddedSynchroCodes
 426              		.syntax unified
 427              		.thumb
 428              		.thumb_func
 430              	DCMI_SetEmbeddedSynchroCodes:
 431              	.LFB128:
 232:./Library/stm32f4xx_dcmi.c **** 
 233:./Library/stm32f4xx_dcmi.c **** /**
 234:./Library/stm32f4xx_dcmi.c ****   * @brief  Sets the embedded synchronization codes
 235:./Library/stm32f4xx_dcmi.c ****   * @param  DCMI_CodesInitTypeDef: pointer to a DCMI_CodesInitTypeDef structure that
 236:./Library/stm32f4xx_dcmi.c ****   *         contains the embedded synchronization codes for the DCMI peripheral.
 237:./Library/stm32f4xx_dcmi.c ****   * @retval None
 238:./Library/stm32f4xx_dcmi.c ****   */
 239:./Library/stm32f4xx_dcmi.c **** void DCMI_SetEmbeddedSynchroCodes(DCMI_CodesInitTypeDef* DCMI_CodesInitStruct)
 240:./Library/stm32f4xx_dcmi.c **** {
 432              		.loc 1 240 1
 433              		.cfi_startproc
 434              		@ args = 0, pretend = 0, frame = 8
 435              		@ frame_needed = 1, uses_anonymous_args = 0
 436              		@ link register save eliminated.
 437 0000 80B4     		push	{r7}
 438              	.LCFI28:
 439              		.cfi_def_cfa_offset 4
 440              		.cfi_offset 7, -4
 441 0002 83B0     		sub	sp, sp, #12
 442              	.LCFI29:
 443              		.cfi_def_cfa_offset 16
ARM GAS  /var/folders/yl/_q9l42k90g1g4mdhbs226msm0000gn/T//ccuhZ0Pj.s 			page 13


 444 0004 00AF     		add	r7, sp, #0
 445              	.LCFI30:
 446              		.cfi_def_cfa_register 7
 447 0006 7860     		str	r0, [r7, #4]
 241:./Library/stm32f4xx_dcmi.c ****   DCMI->ESCR = (uint32_t)(DCMI_CodesInitStruct->DCMI_FrameStartCode |
 448              		.loc 1 241 47
 449 0008 7B68     		ldr	r3, [r7, #4]
 450 000a 1B78     		ldrb	r3, [r3]	@ zero_extendqisi2
 451 000c 1A46     		mov	r2, r3
 242:./Library/stm32f4xx_dcmi.c ****                           ((uint32_t)DCMI_CodesInitStruct->DCMI_LineStartCode << 8)|
 452              		.loc 1 242 58
 453 000e 7B68     		ldr	r3, [r7, #4]
 454 0010 5B78     		ldrb	r3, [r3, #1]	@ zero_extendqisi2
 455              		.loc 1 242 79
 456 0012 1B02     		lsls	r3, r3, #8
 241:./Library/stm32f4xx_dcmi.c ****   DCMI->ESCR = (uint32_t)(DCMI_CodesInitStruct->DCMI_FrameStartCode |
 457              		.loc 1 241 69
 458 0014 1A43     		orrs	r2, r2, r3
 243:./Library/stm32f4xx_dcmi.c ****                           ((uint32_t)DCMI_CodesInitStruct->DCMI_LineEndCode << 16)|
 459              		.loc 1 243 58
 460 0016 7B68     		ldr	r3, [r7, #4]
 461 0018 9B78     		ldrb	r3, [r3, #2]	@ zero_extendqisi2
 462              		.loc 1 243 77
 463 001a 1B04     		lsls	r3, r3, #16
 242:./Library/stm32f4xx_dcmi.c ****                           ((uint32_t)DCMI_CodesInitStruct->DCMI_LineStartCode << 8)|
 464              		.loc 1 242 84
 465 001c 1A43     		orrs	r2, r2, r3
 244:./Library/stm32f4xx_dcmi.c ****                           ((uint32_t)DCMI_CodesInitStruct->DCMI_FrameEndCode << 24));
 466              		.loc 1 244 58
 467 001e 7B68     		ldr	r3, [r7, #4]
 468 0020 DB78     		ldrb	r3, [r3, #3]	@ zero_extendqisi2
 469              		.loc 1 244 78
 470 0022 1B06     		lsls	r3, r3, #24
 241:./Library/stm32f4xx_dcmi.c ****                           ((uint32_t)DCMI_CodesInitStruct->DCMI_LineStartCode << 8)|
 471              		.loc 1 241 7
 472 0024 0449     		ldr	r1, .L18
 241:./Library/stm32f4xx_dcmi.c ****                           ((uint32_t)DCMI_CodesInitStruct->DCMI_LineStartCode << 8)|
 473              		.loc 1 241 16
 474 0026 1343     		orrs	r3, r3, r2
 241:./Library/stm32f4xx_dcmi.c ****                           ((uint32_t)DCMI_CodesInitStruct->DCMI_LineStartCode << 8)|
 475              		.loc 1 241 14
 476 0028 8B61     		str	r3, [r1, #24]
 245:./Library/stm32f4xx_dcmi.c **** }
 477              		.loc 1 245 1
 478 002a 00BF     		nop
 479 002c 0C37     		adds	r7, r7, #12
 480              	.LCFI31:
 481              		.cfi_def_cfa_offset 4
 482 002e BD46     		mov	sp, r7
 483              	.LCFI32:
 484              		.cfi_def_cfa_register 13
 485              		@ sp needed
 486 0030 5DF8047B 		ldr	r7, [sp], #4
 487              	.LCFI33:
 488              		.cfi_restore 7
 489              		.cfi_def_cfa_offset 0
 490 0034 7047     		bx	lr
ARM GAS  /var/folders/yl/_q9l42k90g1g4mdhbs226msm0000gn/T//ccuhZ0Pj.s 			page 14


 491              	.L19:
 492 0036 00BF     		.align	2
 493              	.L18:
 494 0038 00000550 		.word	1342504960
 495              		.cfi_endproc
 496              	.LFE128:
 498              		.section	.text.DCMI_JPEGCmd,"ax",%progbits
 499              		.align	1
 500              		.global	DCMI_JPEGCmd
 501              		.syntax unified
 502              		.thumb
 503              		.thumb_func
 505              	DCMI_JPEGCmd:
 506              	.LFB129:
 246:./Library/stm32f4xx_dcmi.c **** 
 247:./Library/stm32f4xx_dcmi.c **** /**
 248:./Library/stm32f4xx_dcmi.c ****   * @brief  Enables or disables the DCMI JPEG format.
 249:./Library/stm32f4xx_dcmi.c ****   * @note   The Crop and Embedded Synchronization features cannot be used in this mode.  
 250:./Library/stm32f4xx_dcmi.c ****   * @param  NewState: new state of the DCMI JPEG format. 
 251:./Library/stm32f4xx_dcmi.c ****   *          This parameter can be: ENABLE or DISABLE.
 252:./Library/stm32f4xx_dcmi.c ****   * @retval None
 253:./Library/stm32f4xx_dcmi.c ****   */
 254:./Library/stm32f4xx_dcmi.c **** void DCMI_JPEGCmd(FunctionalState NewState)
 255:./Library/stm32f4xx_dcmi.c **** {
 507              		.loc 1 255 1
 508              		.cfi_startproc
 509              		@ args = 0, pretend = 0, frame = 8
 510              		@ frame_needed = 1, uses_anonymous_args = 0
 511              		@ link register save eliminated.
 512 0000 80B4     		push	{r7}
 513              	.LCFI34:
 514              		.cfi_def_cfa_offset 4
 515              		.cfi_offset 7, -4
 516 0002 83B0     		sub	sp, sp, #12
 517              	.LCFI35:
 518              		.cfi_def_cfa_offset 16
 519 0004 00AF     		add	r7, sp, #0
 520              	.LCFI36:
 521              		.cfi_def_cfa_register 7
 522 0006 0346     		mov	r3, r0
 523 0008 FB71     		strb	r3, [r7, #7]
 256:./Library/stm32f4xx_dcmi.c ****   /* Check the parameters */
 257:./Library/stm32f4xx_dcmi.c ****   assert_param(IS_FUNCTIONAL_STATE(NewState));
 258:./Library/stm32f4xx_dcmi.c ****  
 259:./Library/stm32f4xx_dcmi.c ****   if (NewState != DISABLE)
 524              		.loc 1 259 6
 525 000a FB79     		ldrb	r3, [r7, #7]	@ zero_extendqisi2
 526 000c 002B     		cmp	r3, #0
 527 000e 06D0     		beq	.L21
 260:./Library/stm32f4xx_dcmi.c ****   {
 261:./Library/stm32f4xx_dcmi.c ****     /* Enable the DCMI JPEG format */
 262:./Library/stm32f4xx_dcmi.c ****     DCMI->CR |= (uint32_t)DCMI_CR_JPEG;
 528              		.loc 1 262 14
 529 0010 094B     		ldr	r3, .L24
 530 0012 1B68     		ldr	r3, [r3]
 531 0014 084A     		ldr	r2, .L24
 532 0016 43F00803 		orr	r3, r3, #8
ARM GAS  /var/folders/yl/_q9l42k90g1g4mdhbs226msm0000gn/T//ccuhZ0Pj.s 			page 15


 533 001a 1360     		str	r3, [r2]
 263:./Library/stm32f4xx_dcmi.c ****   }
 264:./Library/stm32f4xx_dcmi.c ****   else
 265:./Library/stm32f4xx_dcmi.c ****   {
 266:./Library/stm32f4xx_dcmi.c ****     /* Disable the DCMI JPEG format */
 267:./Library/stm32f4xx_dcmi.c ****     DCMI->CR &= ~(uint32_t)DCMI_CR_JPEG;
 268:./Library/stm32f4xx_dcmi.c ****   }
 269:./Library/stm32f4xx_dcmi.c **** }
 534              		.loc 1 269 1
 535 001c 05E0     		b	.L23
 536              	.L21:
 267:./Library/stm32f4xx_dcmi.c ****   }
 537              		.loc 1 267 14
 538 001e 064B     		ldr	r3, .L24
 539 0020 1B68     		ldr	r3, [r3]
 540 0022 054A     		ldr	r2, .L24
 541 0024 23F00803 		bic	r3, r3, #8
 542 0028 1360     		str	r3, [r2]
 543              	.L23:
 544              		.loc 1 269 1
 545 002a 00BF     		nop
 546 002c 0C37     		adds	r7, r7, #12
 547              	.LCFI37:
 548              		.cfi_def_cfa_offset 4
 549 002e BD46     		mov	sp, r7
 550              	.LCFI38:
 551              		.cfi_def_cfa_register 13
 552              		@ sp needed
 553 0030 5DF8047B 		ldr	r7, [sp], #4
 554              	.LCFI39:
 555              		.cfi_restore 7
 556              		.cfi_def_cfa_offset 0
 557 0034 7047     		bx	lr
 558              	.L25:
 559 0036 00BF     		.align	2
 560              	.L24:
 561 0038 00000550 		.word	1342504960
 562              		.cfi_endproc
 563              	.LFE129:
 565              		.section	.text.DCMI_Cmd,"ax",%progbits
 566              		.align	1
 567              		.global	DCMI_Cmd
 568              		.syntax unified
 569              		.thumb
 570              		.thumb_func
 572              	DCMI_Cmd:
 573              	.LFB130:
 270:./Library/stm32f4xx_dcmi.c **** /**
 271:./Library/stm32f4xx_dcmi.c ****   * @}
 272:./Library/stm32f4xx_dcmi.c ****   */
 273:./Library/stm32f4xx_dcmi.c **** 
 274:./Library/stm32f4xx_dcmi.c **** /** @defgroup DCMI_Group2 Image capture functions
 275:./Library/stm32f4xx_dcmi.c ****  *  @brief   Image capture functions
 276:./Library/stm32f4xx_dcmi.c ****  *
 277:./Library/stm32f4xx_dcmi.c **** @verbatim   
 278:./Library/stm32f4xx_dcmi.c ****  ===============================================================================
 279:./Library/stm32f4xx_dcmi.c ****                     ##### Image capture functions #####
ARM GAS  /var/folders/yl/_q9l42k90g1g4mdhbs226msm0000gn/T//ccuhZ0Pj.s 			page 16


 280:./Library/stm32f4xx_dcmi.c ****  ===============================================================================  
 281:./Library/stm32f4xx_dcmi.c **** 
 282:./Library/stm32f4xx_dcmi.c **** @endverbatim
 283:./Library/stm32f4xx_dcmi.c ****   * @{
 284:./Library/stm32f4xx_dcmi.c ****   */
 285:./Library/stm32f4xx_dcmi.c ****   
 286:./Library/stm32f4xx_dcmi.c **** /**
 287:./Library/stm32f4xx_dcmi.c ****   * @brief  Enables or disables the DCMI interface.
 288:./Library/stm32f4xx_dcmi.c ****   * @param  NewState: new state of the DCMI interface. 
 289:./Library/stm32f4xx_dcmi.c ****   *          This parameter can be: ENABLE or DISABLE.
 290:./Library/stm32f4xx_dcmi.c ****   * @retval None
 291:./Library/stm32f4xx_dcmi.c ****   */
 292:./Library/stm32f4xx_dcmi.c **** void DCMI_Cmd(FunctionalState NewState)
 293:./Library/stm32f4xx_dcmi.c **** {
 574              		.loc 1 293 1
 575              		.cfi_startproc
 576              		@ args = 0, pretend = 0, frame = 8
 577              		@ frame_needed = 1, uses_anonymous_args = 0
 578              		@ link register save eliminated.
 579 0000 80B4     		push	{r7}
 580              	.LCFI40:
 581              		.cfi_def_cfa_offset 4
 582              		.cfi_offset 7, -4
 583 0002 83B0     		sub	sp, sp, #12
 584              	.LCFI41:
 585              		.cfi_def_cfa_offset 16
 586 0004 00AF     		add	r7, sp, #0
 587              	.LCFI42:
 588              		.cfi_def_cfa_register 7
 589 0006 0346     		mov	r3, r0
 590 0008 FB71     		strb	r3, [r7, #7]
 294:./Library/stm32f4xx_dcmi.c ****   /* Check the parameters */
 295:./Library/stm32f4xx_dcmi.c ****   assert_param(IS_FUNCTIONAL_STATE(NewState));
 296:./Library/stm32f4xx_dcmi.c ****   
 297:./Library/stm32f4xx_dcmi.c ****   if (NewState != DISABLE)
 591              		.loc 1 297 6
 592 000a FB79     		ldrb	r3, [r7, #7]	@ zero_extendqisi2
 593 000c 002B     		cmp	r3, #0
 594 000e 06D0     		beq	.L27
 298:./Library/stm32f4xx_dcmi.c ****   {
 299:./Library/stm32f4xx_dcmi.c ****     /* Enable the DCMI by setting ENABLE bit */
 300:./Library/stm32f4xx_dcmi.c ****     DCMI->CR |= (uint32_t)DCMI_CR_ENABLE;
 595              		.loc 1 300 14
 596 0010 094B     		ldr	r3, .L30
 597 0012 1B68     		ldr	r3, [r3]
 598 0014 084A     		ldr	r2, .L30
 599 0016 43F48043 		orr	r3, r3, #16384
 600 001a 1360     		str	r3, [r2]
 301:./Library/stm32f4xx_dcmi.c ****   }
 302:./Library/stm32f4xx_dcmi.c ****   else
 303:./Library/stm32f4xx_dcmi.c ****   {
 304:./Library/stm32f4xx_dcmi.c ****     /* Disable the DCMI by clearing ENABLE bit */
 305:./Library/stm32f4xx_dcmi.c ****     DCMI->CR &= ~(uint32_t)DCMI_CR_ENABLE;
 306:./Library/stm32f4xx_dcmi.c ****   }
 307:./Library/stm32f4xx_dcmi.c **** }
 601              		.loc 1 307 1
 602 001c 05E0     		b	.L29
ARM GAS  /var/folders/yl/_q9l42k90g1g4mdhbs226msm0000gn/T//ccuhZ0Pj.s 			page 17


 603              	.L27:
 305:./Library/stm32f4xx_dcmi.c ****   }
 604              		.loc 1 305 14
 605 001e 064B     		ldr	r3, .L30
 606 0020 1B68     		ldr	r3, [r3]
 607 0022 054A     		ldr	r2, .L30
 608 0024 23F48043 		bic	r3, r3, #16384
 609 0028 1360     		str	r3, [r2]
 610              	.L29:
 611              		.loc 1 307 1
 612 002a 00BF     		nop
 613 002c 0C37     		adds	r7, r7, #12
 614              	.LCFI43:
 615              		.cfi_def_cfa_offset 4
 616 002e BD46     		mov	sp, r7
 617              	.LCFI44:
 618              		.cfi_def_cfa_register 13
 619              		@ sp needed
 620 0030 5DF8047B 		ldr	r7, [sp], #4
 621              	.LCFI45:
 622              		.cfi_restore 7
 623              		.cfi_def_cfa_offset 0
 624 0034 7047     		bx	lr
 625              	.L31:
 626 0036 00BF     		.align	2
 627              	.L30:
 628 0038 00000550 		.word	1342504960
 629              		.cfi_endproc
 630              	.LFE130:
 632              		.section	.text.DCMI_CaptureCmd,"ax",%progbits
 633              		.align	1
 634              		.global	DCMI_CaptureCmd
 635              		.syntax unified
 636              		.thumb
 637              		.thumb_func
 639              	DCMI_CaptureCmd:
 640              	.LFB131:
 308:./Library/stm32f4xx_dcmi.c **** 
 309:./Library/stm32f4xx_dcmi.c **** /**
 310:./Library/stm32f4xx_dcmi.c ****   * @brief  Enables or disables the DCMI Capture.
 311:./Library/stm32f4xx_dcmi.c ****   * @param  NewState: new state of the DCMI capture. 
 312:./Library/stm32f4xx_dcmi.c ****   *          This parameter can be: ENABLE or DISABLE.
 313:./Library/stm32f4xx_dcmi.c ****   * @retval None
 314:./Library/stm32f4xx_dcmi.c ****   */
 315:./Library/stm32f4xx_dcmi.c **** void DCMI_CaptureCmd(FunctionalState NewState)
 316:./Library/stm32f4xx_dcmi.c **** {
 641              		.loc 1 316 1
 642              		.cfi_startproc
 643              		@ args = 0, pretend = 0, frame = 8
 644              		@ frame_needed = 1, uses_anonymous_args = 0
 645              		@ link register save eliminated.
 646 0000 80B4     		push	{r7}
 647              	.LCFI46:
 648              		.cfi_def_cfa_offset 4
 649              		.cfi_offset 7, -4
 650 0002 83B0     		sub	sp, sp, #12
 651              	.LCFI47:
ARM GAS  /var/folders/yl/_q9l42k90g1g4mdhbs226msm0000gn/T//ccuhZ0Pj.s 			page 18


 652              		.cfi_def_cfa_offset 16
 653 0004 00AF     		add	r7, sp, #0
 654              	.LCFI48:
 655              		.cfi_def_cfa_register 7
 656 0006 0346     		mov	r3, r0
 657 0008 FB71     		strb	r3, [r7, #7]
 317:./Library/stm32f4xx_dcmi.c ****   /* Check the parameters */
 318:./Library/stm32f4xx_dcmi.c ****   assert_param(IS_FUNCTIONAL_STATE(NewState));
 319:./Library/stm32f4xx_dcmi.c ****     
 320:./Library/stm32f4xx_dcmi.c ****   if (NewState != DISABLE)
 658              		.loc 1 320 6
 659 000a FB79     		ldrb	r3, [r7, #7]	@ zero_extendqisi2
 660 000c 002B     		cmp	r3, #0
 661 000e 06D0     		beq	.L33
 321:./Library/stm32f4xx_dcmi.c ****   {
 322:./Library/stm32f4xx_dcmi.c ****     /* Enable the DCMI Capture */
 323:./Library/stm32f4xx_dcmi.c ****     DCMI->CR |= (uint32_t)DCMI_CR_CAPTURE;
 662              		.loc 1 323 14
 663 0010 094B     		ldr	r3, .L36
 664 0012 1B68     		ldr	r3, [r3]
 665 0014 084A     		ldr	r2, .L36
 666 0016 43F00103 		orr	r3, r3, #1
 667 001a 1360     		str	r3, [r2]
 324:./Library/stm32f4xx_dcmi.c ****   }
 325:./Library/stm32f4xx_dcmi.c ****   else
 326:./Library/stm32f4xx_dcmi.c ****   {
 327:./Library/stm32f4xx_dcmi.c ****     /* Disable the DCMI Capture */
 328:./Library/stm32f4xx_dcmi.c ****     DCMI->CR &= ~(uint32_t)DCMI_CR_CAPTURE;
 329:./Library/stm32f4xx_dcmi.c ****   }
 330:./Library/stm32f4xx_dcmi.c **** }
 668              		.loc 1 330 1
 669 001c 05E0     		b	.L35
 670              	.L33:
 328:./Library/stm32f4xx_dcmi.c ****   }
 671              		.loc 1 328 14
 672 001e 064B     		ldr	r3, .L36
 673 0020 1B68     		ldr	r3, [r3]
 674 0022 054A     		ldr	r2, .L36
 675 0024 23F00103 		bic	r3, r3, #1
 676 0028 1360     		str	r3, [r2]
 677              	.L35:
 678              		.loc 1 330 1
 679 002a 00BF     		nop
 680 002c 0C37     		adds	r7, r7, #12
 681              	.LCFI49:
 682              		.cfi_def_cfa_offset 4
 683 002e BD46     		mov	sp, r7
 684              	.LCFI50:
 685              		.cfi_def_cfa_register 13
 686              		@ sp needed
 687 0030 5DF8047B 		ldr	r7, [sp], #4
 688              	.LCFI51:
 689              		.cfi_restore 7
 690              		.cfi_def_cfa_offset 0
 691 0034 7047     		bx	lr
 692              	.L37:
 693 0036 00BF     		.align	2
ARM GAS  /var/folders/yl/_q9l42k90g1g4mdhbs226msm0000gn/T//ccuhZ0Pj.s 			page 19


 694              	.L36:
 695 0038 00000550 		.word	1342504960
 696              		.cfi_endproc
 697              	.LFE131:
 699              		.section	.text.DCMI_ReadData,"ax",%progbits
 700              		.align	1
 701              		.global	DCMI_ReadData
 702              		.syntax unified
 703              		.thumb
 704              		.thumb_func
 706              	DCMI_ReadData:
 707              	.LFB132:
 331:./Library/stm32f4xx_dcmi.c **** 
 332:./Library/stm32f4xx_dcmi.c **** /**
 333:./Library/stm32f4xx_dcmi.c ****   * @brief  Reads the data stored in the DR register.
 334:./Library/stm32f4xx_dcmi.c ****   * @param  None 
 335:./Library/stm32f4xx_dcmi.c ****   * @retval Data register value
 336:./Library/stm32f4xx_dcmi.c ****   */
 337:./Library/stm32f4xx_dcmi.c **** uint32_t DCMI_ReadData(void)
 338:./Library/stm32f4xx_dcmi.c **** {
 708              		.loc 1 338 1
 709              		.cfi_startproc
 710              		@ args = 0, pretend = 0, frame = 0
 711              		@ frame_needed = 1, uses_anonymous_args = 0
 712              		@ link register save eliminated.
 713 0000 80B4     		push	{r7}
 714              	.LCFI52:
 715              		.cfi_def_cfa_offset 4
 716              		.cfi_offset 7, -4
 717 0002 00AF     		add	r7, sp, #0
 718              	.LCFI53:
 719              		.cfi_def_cfa_register 7
 339:./Library/stm32f4xx_dcmi.c ****   return DCMI->DR;
 720              		.loc 1 339 14
 721 0004 034B     		ldr	r3, .L40
 722 0006 9B6A     		ldr	r3, [r3, #40]
 340:./Library/stm32f4xx_dcmi.c **** }
 723              		.loc 1 340 1
 724 0008 1846     		mov	r0, r3
 725 000a BD46     		mov	sp, r7
 726              	.LCFI54:
 727              		.cfi_def_cfa_register 13
 728              		@ sp needed
 729 000c 5DF8047B 		ldr	r7, [sp], #4
 730              	.LCFI55:
 731              		.cfi_restore 7
 732              		.cfi_def_cfa_offset 0
 733 0010 7047     		bx	lr
 734              	.L41:
 735 0012 00BF     		.align	2
 736              	.L40:
 737 0014 00000550 		.word	1342504960
 738              		.cfi_endproc
 739              	.LFE132:
 741              		.section	.text.DCMI_ITConfig,"ax",%progbits
 742              		.align	1
 743              		.global	DCMI_ITConfig
ARM GAS  /var/folders/yl/_q9l42k90g1g4mdhbs226msm0000gn/T//ccuhZ0Pj.s 			page 20


 744              		.syntax unified
 745              		.thumb
 746              		.thumb_func
 748              	DCMI_ITConfig:
 749              	.LFB133:
 341:./Library/stm32f4xx_dcmi.c **** /**
 342:./Library/stm32f4xx_dcmi.c ****   * @}
 343:./Library/stm32f4xx_dcmi.c ****   */
 344:./Library/stm32f4xx_dcmi.c **** 
 345:./Library/stm32f4xx_dcmi.c **** /** @defgroup DCMI_Group3 Interrupts and flags management functions
 346:./Library/stm32f4xx_dcmi.c ****  *  @brief   Interrupts and flags management functions
 347:./Library/stm32f4xx_dcmi.c ****  *
 348:./Library/stm32f4xx_dcmi.c **** @verbatim   
 349:./Library/stm32f4xx_dcmi.c ****  ===============================================================================
 350:./Library/stm32f4xx_dcmi.c ****              ##### Interrupts and flags management functions #####
 351:./Library/stm32f4xx_dcmi.c ****  ===============================================================================  
 352:./Library/stm32f4xx_dcmi.c **** 
 353:./Library/stm32f4xx_dcmi.c **** @endverbatim
 354:./Library/stm32f4xx_dcmi.c ****   * @{
 355:./Library/stm32f4xx_dcmi.c ****   */
 356:./Library/stm32f4xx_dcmi.c **** 
 357:./Library/stm32f4xx_dcmi.c **** /**
 358:./Library/stm32f4xx_dcmi.c ****   * @brief  Enables or disables the DCMI interface interrupts.
 359:./Library/stm32f4xx_dcmi.c ****   * @param  DCMI_IT: specifies the DCMI interrupt sources to be enabled or disabled. 
 360:./Library/stm32f4xx_dcmi.c ****   *          This parameter can be any combination of the following values:
 361:./Library/stm32f4xx_dcmi.c ****   *            @arg DCMI_IT_FRAME: Frame capture complete interrupt mask
 362:./Library/stm32f4xx_dcmi.c ****   *            @arg DCMI_IT_OVF: Overflow interrupt mask
 363:./Library/stm32f4xx_dcmi.c ****   *            @arg DCMI_IT_ERR: Synchronization error interrupt mask
 364:./Library/stm32f4xx_dcmi.c ****   *            @arg DCMI_IT_VSYNC: VSYNC interrupt mask
 365:./Library/stm32f4xx_dcmi.c ****   *            @arg DCMI_IT_LINE: Line interrupt mask
 366:./Library/stm32f4xx_dcmi.c ****   * @param  NewState: new state of the specified DCMI interrupts.
 367:./Library/stm32f4xx_dcmi.c ****   *          This parameter can be: ENABLE or DISABLE.
 368:./Library/stm32f4xx_dcmi.c ****   * @retval None
 369:./Library/stm32f4xx_dcmi.c ****   */
 370:./Library/stm32f4xx_dcmi.c **** void DCMI_ITConfig(uint16_t DCMI_IT, FunctionalState NewState)
 371:./Library/stm32f4xx_dcmi.c **** {
 750              		.loc 1 371 1
 751              		.cfi_startproc
 752              		@ args = 0, pretend = 0, frame = 8
 753              		@ frame_needed = 1, uses_anonymous_args = 0
 754              		@ link register save eliminated.
 755 0000 80B4     		push	{r7}
 756              	.LCFI56:
 757              		.cfi_def_cfa_offset 4
 758              		.cfi_offset 7, -4
 759 0002 83B0     		sub	sp, sp, #12
 760              	.LCFI57:
 761              		.cfi_def_cfa_offset 16
 762 0004 00AF     		add	r7, sp, #0
 763              	.LCFI58:
 764              		.cfi_def_cfa_register 7
 765 0006 0346     		mov	r3, r0
 766 0008 0A46     		mov	r2, r1
 767 000a FB80     		strh	r3, [r7, #6]	@ movhi
 768 000c 1346     		mov	r3, r2
 769 000e 7B71     		strb	r3, [r7, #5]
 372:./Library/stm32f4xx_dcmi.c ****   /* Check the parameters */
ARM GAS  /var/folders/yl/_q9l42k90g1g4mdhbs226msm0000gn/T//ccuhZ0Pj.s 			page 21


 373:./Library/stm32f4xx_dcmi.c ****   assert_param(IS_DCMI_CONFIG_IT(DCMI_IT));
 374:./Library/stm32f4xx_dcmi.c ****   assert_param(IS_FUNCTIONAL_STATE(NewState));
 375:./Library/stm32f4xx_dcmi.c ****   
 376:./Library/stm32f4xx_dcmi.c ****   if (NewState != DISABLE)
 770              		.loc 1 376 6
 771 0010 7B79     		ldrb	r3, [r7, #5]	@ zero_extendqisi2
 772 0012 002B     		cmp	r3, #0
 773 0014 06D0     		beq	.L43
 377:./Library/stm32f4xx_dcmi.c ****   {
 378:./Library/stm32f4xx_dcmi.c ****     /* Enable the Interrupt sources */
 379:./Library/stm32f4xx_dcmi.c ****     DCMI->IER |= DCMI_IT;
 774              		.loc 1 379 15
 775 0016 0B4B     		ldr	r3, .L46
 776 0018 DA68     		ldr	r2, [r3, #12]
 777 001a FB88     		ldrh	r3, [r7, #6]
 778 001c 0949     		ldr	r1, .L46
 779 001e 1343     		orrs	r3, r3, r2
 780 0020 CB60     		str	r3, [r1, #12]
 380:./Library/stm32f4xx_dcmi.c ****   }
 381:./Library/stm32f4xx_dcmi.c ****   else
 382:./Library/stm32f4xx_dcmi.c ****   {
 383:./Library/stm32f4xx_dcmi.c ****     /* Disable the Interrupt sources */
 384:./Library/stm32f4xx_dcmi.c ****     DCMI->IER &= (uint16_t)(~DCMI_IT);
 385:./Library/stm32f4xx_dcmi.c ****   }  
 386:./Library/stm32f4xx_dcmi.c **** }
 781              		.loc 1 386 1
 782 0022 08E0     		b	.L45
 783              	.L43:
 384:./Library/stm32f4xx_dcmi.c ****   }  
 784              		.loc 1 384 15
 785 0024 074B     		ldr	r3, .L46
 786 0026 DB68     		ldr	r3, [r3, #12]
 384:./Library/stm32f4xx_dcmi.c ****   }  
 787              		.loc 1 384 18
 788 0028 FA88     		ldrh	r2, [r7, #6]	@ movhi
 789 002a D243     		mvns	r2, r2
 790 002c 92B2     		uxth	r2, r2
 791 002e 1146     		mov	r1, r2
 384:./Library/stm32f4xx_dcmi.c ****   }  
 792              		.loc 1 384 15
 793 0030 044A     		ldr	r2, .L46
 794 0032 0B40     		ands	r3, r3, r1
 795 0034 D360     		str	r3, [r2, #12]
 796              	.L45:
 797              		.loc 1 386 1
 798 0036 00BF     		nop
 799 0038 0C37     		adds	r7, r7, #12
 800              	.LCFI59:
 801              		.cfi_def_cfa_offset 4
 802 003a BD46     		mov	sp, r7
 803              	.LCFI60:
 804              		.cfi_def_cfa_register 13
 805              		@ sp needed
 806 003c 5DF8047B 		ldr	r7, [sp], #4
 807              	.LCFI61:
 808              		.cfi_restore 7
 809              		.cfi_def_cfa_offset 0
ARM GAS  /var/folders/yl/_q9l42k90g1g4mdhbs226msm0000gn/T//ccuhZ0Pj.s 			page 22


 810 0040 7047     		bx	lr
 811              	.L47:
 812 0042 00BF     		.align	2
 813              	.L46:
 814 0044 00000550 		.word	1342504960
 815              		.cfi_endproc
 816              	.LFE133:
 818              		.section	.text.DCMI_GetFlagStatus,"ax",%progbits
 819              		.align	1
 820              		.global	DCMI_GetFlagStatus
 821              		.syntax unified
 822              		.thumb
 823              		.thumb_func
 825              	DCMI_GetFlagStatus:
 826              	.LFB134:
 387:./Library/stm32f4xx_dcmi.c **** 
 388:./Library/stm32f4xx_dcmi.c **** /**
 389:./Library/stm32f4xx_dcmi.c ****   * @brief  Checks whether the  DCMI interface flag is set or not.
 390:./Library/stm32f4xx_dcmi.c ****   * @param  DCMI_FLAG: specifies the flag to check.
 391:./Library/stm32f4xx_dcmi.c ****   *          This parameter can be one of the following values:
 392:./Library/stm32f4xx_dcmi.c ****   *            @arg DCMI_FLAG_FRAMERI: Frame capture complete Raw flag mask
 393:./Library/stm32f4xx_dcmi.c ****   *            @arg DCMI_FLAG_OVFRI: Overflow Raw flag mask
 394:./Library/stm32f4xx_dcmi.c ****   *            @arg DCMI_FLAG_ERRRI: Synchronization error Raw flag mask
 395:./Library/stm32f4xx_dcmi.c ****   *            @arg DCMI_FLAG_VSYNCRI: VSYNC Raw flag mask
 396:./Library/stm32f4xx_dcmi.c ****   *            @arg DCMI_FLAG_LINERI: Line Raw flag mask
 397:./Library/stm32f4xx_dcmi.c ****   *            @arg DCMI_FLAG_FRAMEMI: Frame capture complete Masked flag mask
 398:./Library/stm32f4xx_dcmi.c ****   *            @arg DCMI_FLAG_OVFMI: Overflow Masked flag mask
 399:./Library/stm32f4xx_dcmi.c ****   *            @arg DCMI_FLAG_ERRMI: Synchronization error Masked flag mask
 400:./Library/stm32f4xx_dcmi.c ****   *            @arg DCMI_FLAG_VSYNCMI: VSYNC Masked flag mask
 401:./Library/stm32f4xx_dcmi.c ****   *            @arg DCMI_FLAG_LINEMI: Line Masked flag mask
 402:./Library/stm32f4xx_dcmi.c ****   *            @arg DCMI_FLAG_HSYNC: HSYNC flag mask
 403:./Library/stm32f4xx_dcmi.c ****   *            @arg DCMI_FLAG_VSYNC: VSYNC flag mask
 404:./Library/stm32f4xx_dcmi.c ****   *            @arg DCMI_FLAG_FNE: Fifo not empty flag mask
 405:./Library/stm32f4xx_dcmi.c ****   * @retval The new state of DCMI_FLAG (SET or RESET).
 406:./Library/stm32f4xx_dcmi.c ****   */
 407:./Library/stm32f4xx_dcmi.c **** FlagStatus DCMI_GetFlagStatus(uint16_t DCMI_FLAG)
 408:./Library/stm32f4xx_dcmi.c **** {
 827              		.loc 1 408 1
 828              		.cfi_startproc
 829              		@ args = 0, pretend = 0, frame = 24
 830              		@ frame_needed = 1, uses_anonymous_args = 0
 831              		@ link register save eliminated.
 832 0000 80B4     		push	{r7}
 833              	.LCFI62:
 834              		.cfi_def_cfa_offset 4
 835              		.cfi_offset 7, -4
 836 0002 87B0     		sub	sp, sp, #28
 837              	.LCFI63:
 838              		.cfi_def_cfa_offset 32
 839 0004 00AF     		add	r7, sp, #0
 840              	.LCFI64:
 841              		.cfi_def_cfa_register 7
 842 0006 0346     		mov	r3, r0
 843 0008 FB80     		strh	r3, [r7, #6]	@ movhi
 409:./Library/stm32f4xx_dcmi.c ****   FlagStatus bitstatus = RESET;
 844              		.loc 1 409 14
 845 000a 0023     		movs	r3, #0
ARM GAS  /var/folders/yl/_q9l42k90g1g4mdhbs226msm0000gn/T//ccuhZ0Pj.s 			page 23


 846 000c FB75     		strb	r3, [r7, #23]
 410:./Library/stm32f4xx_dcmi.c ****   uint32_t dcmireg, tempreg = 0;
 847              		.loc 1 410 21
 848 000e 0023     		movs	r3, #0
 849 0010 3B61     		str	r3, [r7, #16]
 411:./Library/stm32f4xx_dcmi.c **** 
 412:./Library/stm32f4xx_dcmi.c ****   /* Check the parameters */
 413:./Library/stm32f4xx_dcmi.c ****   assert_param(IS_DCMI_GET_FLAG(DCMI_FLAG));
 414:./Library/stm32f4xx_dcmi.c ****   
 415:./Library/stm32f4xx_dcmi.c ****   /* Get the DCMI register index */
 416:./Library/stm32f4xx_dcmi.c ****   dcmireg = (((uint16_t)DCMI_FLAG) >> 12);
 850              		.loc 1 416 36
 851 0012 FB88     		ldrh	r3, [r7, #6]
 852 0014 1B0B     		lsrs	r3, r3, #12
 853 0016 9BB2     		uxth	r3, r3
 854              		.loc 1 416 11
 855 0018 FB60     		str	r3, [r7, #12]
 417:./Library/stm32f4xx_dcmi.c ****   
 418:./Library/stm32f4xx_dcmi.c ****   if (dcmireg == 0x00) /* The FLAG is in RISR register */
 856              		.loc 1 418 6
 857 001a FB68     		ldr	r3, [r7, #12]
 858 001c 002B     		cmp	r3, #0
 859 001e 03D1     		bne	.L49
 419:./Library/stm32f4xx_dcmi.c ****   {
 420:./Library/stm32f4xx_dcmi.c ****     tempreg= DCMI->RISR;
 860              		.loc 1 420 18
 861 0020 0F4B     		ldr	r3, .L55
 862              		.loc 1 420 12
 863 0022 9B68     		ldr	r3, [r3, #8]
 864 0024 3B61     		str	r3, [r7, #16]
 865 0026 09E0     		b	.L50
 866              	.L49:
 421:./Library/stm32f4xx_dcmi.c ****   }
 422:./Library/stm32f4xx_dcmi.c ****   else if (dcmireg == 0x02) /* The FLAG is in SR register */
 867              		.loc 1 422 11
 868 0028 FB68     		ldr	r3, [r7, #12]
 869 002a 022B     		cmp	r3, #2
 870 002c 03D1     		bne	.L51
 423:./Library/stm32f4xx_dcmi.c ****   {
 424:./Library/stm32f4xx_dcmi.c ****     tempreg = DCMI->SR;
 871              		.loc 1 424 19
 872 002e 0C4B     		ldr	r3, .L55
 873              		.loc 1 424 13
 874 0030 5B68     		ldr	r3, [r3, #4]
 875 0032 3B61     		str	r3, [r7, #16]
 876 0034 02E0     		b	.L50
 877              	.L51:
 425:./Library/stm32f4xx_dcmi.c ****   }
 426:./Library/stm32f4xx_dcmi.c ****   else /* The FLAG is in MISR register */
 427:./Library/stm32f4xx_dcmi.c ****   {
 428:./Library/stm32f4xx_dcmi.c ****     tempreg = DCMI->MISR;
 878              		.loc 1 428 19
 879 0036 0A4B     		ldr	r3, .L55
 880              		.loc 1 428 13
 881 0038 1B69     		ldr	r3, [r3, #16]
 882 003a 3B61     		str	r3, [r7, #16]
 883              	.L50:
ARM GAS  /var/folders/yl/_q9l42k90g1g4mdhbs226msm0000gn/T//ccuhZ0Pj.s 			page 24


 429:./Library/stm32f4xx_dcmi.c ****   }
 430:./Library/stm32f4xx_dcmi.c ****   
 431:./Library/stm32f4xx_dcmi.c ****   if ((tempreg & DCMI_FLAG) != (uint16_t)RESET )
 884              		.loc 1 431 16
 885 003c FA88     		ldrh	r2, [r7, #6]
 886 003e 3B69     		ldr	r3, [r7, #16]
 887 0040 1340     		ands	r3, r3, r2
 888              		.loc 1 431 6
 889 0042 002B     		cmp	r3, #0
 890 0044 02D0     		beq	.L52
 432:./Library/stm32f4xx_dcmi.c ****   {
 433:./Library/stm32f4xx_dcmi.c ****     bitstatus = SET;
 891              		.loc 1 433 15
 892 0046 0123     		movs	r3, #1
 893 0048 FB75     		strb	r3, [r7, #23]
 894 004a 01E0     		b	.L53
 895              	.L52:
 434:./Library/stm32f4xx_dcmi.c ****   }
 435:./Library/stm32f4xx_dcmi.c ****   else
 436:./Library/stm32f4xx_dcmi.c ****   {
 437:./Library/stm32f4xx_dcmi.c ****     bitstatus = RESET;
 896              		.loc 1 437 15
 897 004c 0023     		movs	r3, #0
 898 004e FB75     		strb	r3, [r7, #23]
 899              	.L53:
 438:./Library/stm32f4xx_dcmi.c ****   }
 439:./Library/stm32f4xx_dcmi.c ****   /* Return the DCMI_FLAG status */
 440:./Library/stm32f4xx_dcmi.c ****   return  bitstatus;
 900              		.loc 1 440 11
 901 0050 FB7D     		ldrb	r3, [r7, #23]	@ zero_extendqisi2
 441:./Library/stm32f4xx_dcmi.c **** }
 902              		.loc 1 441 1
 903 0052 1846     		mov	r0, r3
 904 0054 1C37     		adds	r7, r7, #28
 905              	.LCFI65:
 906              		.cfi_def_cfa_offset 4
 907 0056 BD46     		mov	sp, r7
 908              	.LCFI66:
 909              		.cfi_def_cfa_register 13
 910              		@ sp needed
 911 0058 5DF8047B 		ldr	r7, [sp], #4
 912              	.LCFI67:
 913              		.cfi_restore 7
 914              		.cfi_def_cfa_offset 0
 915 005c 7047     		bx	lr
 916              	.L56:
 917 005e 00BF     		.align	2
 918              	.L55:
 919 0060 00000550 		.word	1342504960
 920              		.cfi_endproc
 921              	.LFE134:
 923              		.section	.text.DCMI_ClearFlag,"ax",%progbits
 924              		.align	1
 925              		.global	DCMI_ClearFlag
 926              		.syntax unified
 927              		.thumb
 928              		.thumb_func
ARM GAS  /var/folders/yl/_q9l42k90g1g4mdhbs226msm0000gn/T//ccuhZ0Pj.s 			page 25


 930              	DCMI_ClearFlag:
 931              	.LFB135:
 442:./Library/stm32f4xx_dcmi.c **** 
 443:./Library/stm32f4xx_dcmi.c **** /**
 444:./Library/stm32f4xx_dcmi.c ****   * @brief  Clears the DCMI's pending flags.
 445:./Library/stm32f4xx_dcmi.c ****   * @param  DCMI_FLAG: specifies the flag to clear.
 446:./Library/stm32f4xx_dcmi.c ****   *          This parameter can be any combination of the following values:
 447:./Library/stm32f4xx_dcmi.c ****   *            @arg DCMI_FLAG_FRAMERI: Frame capture complete Raw flag mask
 448:./Library/stm32f4xx_dcmi.c ****   *            @arg DCMI_FLAG_OVFRI: Overflow Raw flag mask
 449:./Library/stm32f4xx_dcmi.c ****   *            @arg DCMI_FLAG_ERRRI: Synchronization error Raw flag mask
 450:./Library/stm32f4xx_dcmi.c ****   *            @arg DCMI_FLAG_VSYNCRI: VSYNC Raw flag mask
 451:./Library/stm32f4xx_dcmi.c ****   *            @arg DCMI_FLAG_LINERI: Line Raw flag mask
 452:./Library/stm32f4xx_dcmi.c ****   * @retval None
 453:./Library/stm32f4xx_dcmi.c ****   */
 454:./Library/stm32f4xx_dcmi.c **** void DCMI_ClearFlag(uint16_t DCMI_FLAG)
 455:./Library/stm32f4xx_dcmi.c **** {
 932              		.loc 1 455 1
 933              		.cfi_startproc
 934              		@ args = 0, pretend = 0, frame = 8
 935              		@ frame_needed = 1, uses_anonymous_args = 0
 936              		@ link register save eliminated.
 937 0000 80B4     		push	{r7}
 938              	.LCFI68:
 939              		.cfi_def_cfa_offset 4
 940              		.cfi_offset 7, -4
 941 0002 83B0     		sub	sp, sp, #12
 942              	.LCFI69:
 943              		.cfi_def_cfa_offset 16
 944 0004 00AF     		add	r7, sp, #0
 945              	.LCFI70:
 946              		.cfi_def_cfa_register 7
 947 0006 0346     		mov	r3, r0
 948 0008 FB80     		strh	r3, [r7, #6]	@ movhi
 456:./Library/stm32f4xx_dcmi.c ****   /* Check the parameters */
 457:./Library/stm32f4xx_dcmi.c ****   assert_param(IS_DCMI_CLEAR_FLAG(DCMI_FLAG));
 458:./Library/stm32f4xx_dcmi.c ****   
 459:./Library/stm32f4xx_dcmi.c ****   /* Clear the flag by writing in the ICR register 1 in the corresponding 
 460:./Library/stm32f4xx_dcmi.c ****   Flag position*/
 461:./Library/stm32f4xx_dcmi.c ****   
 462:./Library/stm32f4xx_dcmi.c ****   DCMI->ICR = DCMI_FLAG;
 949              		.loc 1 462 7
 950 000a 044A     		ldr	r2, .L58
 951              		.loc 1 462 13
 952 000c FB88     		ldrh	r3, [r7, #6]
 953 000e 5361     		str	r3, [r2, #20]
 463:./Library/stm32f4xx_dcmi.c **** }
 954              		.loc 1 463 1
 955 0010 00BF     		nop
 956 0012 0C37     		adds	r7, r7, #12
 957              	.LCFI71:
 958              		.cfi_def_cfa_offset 4
 959 0014 BD46     		mov	sp, r7
 960              	.LCFI72:
 961              		.cfi_def_cfa_register 13
 962              		@ sp needed
 963 0016 5DF8047B 		ldr	r7, [sp], #4
 964              	.LCFI73:
ARM GAS  /var/folders/yl/_q9l42k90g1g4mdhbs226msm0000gn/T//ccuhZ0Pj.s 			page 26


 965              		.cfi_restore 7
 966              		.cfi_def_cfa_offset 0
 967 001a 7047     		bx	lr
 968              	.L59:
 969              		.align	2
 970              	.L58:
 971 001c 00000550 		.word	1342504960
 972              		.cfi_endproc
 973              	.LFE135:
 975              		.section	.text.DCMI_GetITStatus,"ax",%progbits
 976              		.align	1
 977              		.global	DCMI_GetITStatus
 978              		.syntax unified
 979              		.thumb
 980              		.thumb_func
 982              	DCMI_GetITStatus:
 983              	.LFB136:
 464:./Library/stm32f4xx_dcmi.c **** 
 465:./Library/stm32f4xx_dcmi.c **** /**
 466:./Library/stm32f4xx_dcmi.c ****   * @brief  Checks whether the DCMI interrupt has occurred or not.
 467:./Library/stm32f4xx_dcmi.c ****   * @param  DCMI_IT: specifies the DCMI interrupt source to check.
 468:./Library/stm32f4xx_dcmi.c ****   *          This parameter can be one of the following values:
 469:./Library/stm32f4xx_dcmi.c ****   *            @arg DCMI_IT_FRAME: Frame capture complete interrupt mask
 470:./Library/stm32f4xx_dcmi.c ****   *            @arg DCMI_IT_OVF: Overflow interrupt mask
 471:./Library/stm32f4xx_dcmi.c ****   *            @arg DCMI_IT_ERR: Synchronization error interrupt mask
 472:./Library/stm32f4xx_dcmi.c ****   *            @arg DCMI_IT_VSYNC: VSYNC interrupt mask
 473:./Library/stm32f4xx_dcmi.c ****   *            @arg DCMI_IT_LINE: Line interrupt mask
 474:./Library/stm32f4xx_dcmi.c ****   * @retval The new state of DCMI_IT (SET or RESET).
 475:./Library/stm32f4xx_dcmi.c ****   */
 476:./Library/stm32f4xx_dcmi.c **** ITStatus DCMI_GetITStatus(uint16_t DCMI_IT)
 477:./Library/stm32f4xx_dcmi.c **** {
 984              		.loc 1 477 1
 985              		.cfi_startproc
 986              		@ args = 0, pretend = 0, frame = 16
 987              		@ frame_needed = 1, uses_anonymous_args = 0
 988              		@ link register save eliminated.
 989 0000 80B4     		push	{r7}
 990              	.LCFI74:
 991              		.cfi_def_cfa_offset 4
 992              		.cfi_offset 7, -4
 993 0002 85B0     		sub	sp, sp, #20
 994              	.LCFI75:
 995              		.cfi_def_cfa_offset 24
 996 0004 00AF     		add	r7, sp, #0
 997              	.LCFI76:
 998              		.cfi_def_cfa_register 7
 999 0006 0346     		mov	r3, r0
 1000 0008 FB80     		strh	r3, [r7, #6]	@ movhi
 478:./Library/stm32f4xx_dcmi.c ****   ITStatus bitstatus = RESET;
 1001              		.loc 1 478 12
 1002 000a 0023     		movs	r3, #0
 1003 000c FB73     		strb	r3, [r7, #15]
 479:./Library/stm32f4xx_dcmi.c ****   uint32_t itstatus = 0;
 1004              		.loc 1 479 12
 1005 000e 0023     		movs	r3, #0
 1006 0010 BB60     		str	r3, [r7, #8]
 480:./Library/stm32f4xx_dcmi.c ****   
ARM GAS  /var/folders/yl/_q9l42k90g1g4mdhbs226msm0000gn/T//ccuhZ0Pj.s 			page 27


 481:./Library/stm32f4xx_dcmi.c ****   /* Check the parameters */
 482:./Library/stm32f4xx_dcmi.c ****   assert_param(IS_DCMI_GET_IT(DCMI_IT));
 483:./Library/stm32f4xx_dcmi.c ****   
 484:./Library/stm32f4xx_dcmi.c ****   itstatus = DCMI->MISR & DCMI_IT; /* Only masked interrupts are checked */
 1007              		.loc 1 484 18
 1008 0012 0A4B     		ldr	r3, .L64
 1009 0014 1A69     		ldr	r2, [r3, #16]
 1010              		.loc 1 484 25
 1011 0016 FB88     		ldrh	r3, [r7, #6]
 1012              		.loc 1 484 12
 1013 0018 1340     		ands	r3, r3, r2
 1014 001a BB60     		str	r3, [r7, #8]
 485:./Library/stm32f4xx_dcmi.c ****   
 486:./Library/stm32f4xx_dcmi.c ****   if ((itstatus != (uint16_t)RESET))
 1015              		.loc 1 486 6
 1016 001c BB68     		ldr	r3, [r7, #8]
 1017 001e 002B     		cmp	r3, #0
 1018 0020 02D0     		beq	.L61
 487:./Library/stm32f4xx_dcmi.c ****   {
 488:./Library/stm32f4xx_dcmi.c ****     bitstatus = SET;
 1019              		.loc 1 488 15
 1020 0022 0123     		movs	r3, #1
 1021 0024 FB73     		strb	r3, [r7, #15]
 1022 0026 01E0     		b	.L62
 1023              	.L61:
 489:./Library/stm32f4xx_dcmi.c ****   }
 490:./Library/stm32f4xx_dcmi.c ****   else
 491:./Library/stm32f4xx_dcmi.c ****   {
 492:./Library/stm32f4xx_dcmi.c ****     bitstatus = RESET;
 1024              		.loc 1 492 15
 1025 0028 0023     		movs	r3, #0
 1026 002a FB73     		strb	r3, [r7, #15]
 1027              	.L62:
 493:./Library/stm32f4xx_dcmi.c ****   }
 494:./Library/stm32f4xx_dcmi.c ****   return bitstatus;
 1028              		.loc 1 494 10
 1029 002c FB7B     		ldrb	r3, [r7, #15]	@ zero_extendqisi2
 495:./Library/stm32f4xx_dcmi.c **** }
 1030              		.loc 1 495 1
 1031 002e 1846     		mov	r0, r3
 1032 0030 1437     		adds	r7, r7, #20
 1033              	.LCFI77:
 1034              		.cfi_def_cfa_offset 4
 1035 0032 BD46     		mov	sp, r7
 1036              	.LCFI78:
 1037              		.cfi_def_cfa_register 13
 1038              		@ sp needed
 1039 0034 5DF8047B 		ldr	r7, [sp], #4
 1040              	.LCFI79:
 1041              		.cfi_restore 7
 1042              		.cfi_def_cfa_offset 0
 1043 0038 7047     		bx	lr
 1044              	.L65:
 1045 003a 00BF     		.align	2
 1046              	.L64:
 1047 003c 00000550 		.word	1342504960
 1048              		.cfi_endproc
ARM GAS  /var/folders/yl/_q9l42k90g1g4mdhbs226msm0000gn/T//ccuhZ0Pj.s 			page 28


 1049              	.LFE136:
 1051              		.section	.text.DCMI_ClearITPendingBit,"ax",%progbits
 1052              		.align	1
 1053              		.global	DCMI_ClearITPendingBit
 1054              		.syntax unified
 1055              		.thumb
 1056              		.thumb_func
 1058              	DCMI_ClearITPendingBit:
 1059              	.LFB137:
 496:./Library/stm32f4xx_dcmi.c **** 
 497:./Library/stm32f4xx_dcmi.c **** /**
 498:./Library/stm32f4xx_dcmi.c ****   * @brief  Clears the DCMI's interrupt pending bits.
 499:./Library/stm32f4xx_dcmi.c ****   * @param  DCMI_IT: specifies the DCMI interrupt pending bit to clear.
 500:./Library/stm32f4xx_dcmi.c ****   *          This parameter can be any combination of the following values:
 501:./Library/stm32f4xx_dcmi.c ****   *            @arg DCMI_IT_FRAME: Frame capture complete interrupt mask
 502:./Library/stm32f4xx_dcmi.c ****   *            @arg DCMI_IT_OVF: Overflow interrupt mask
 503:./Library/stm32f4xx_dcmi.c ****   *            @arg DCMI_IT_ERR: Synchronization error interrupt mask
 504:./Library/stm32f4xx_dcmi.c ****   *            @arg DCMI_IT_VSYNC: VSYNC interrupt mask
 505:./Library/stm32f4xx_dcmi.c ****   *            @arg DCMI_IT_LINE: Line interrupt mask
 506:./Library/stm32f4xx_dcmi.c ****   * @retval None
 507:./Library/stm32f4xx_dcmi.c ****   */
 508:./Library/stm32f4xx_dcmi.c **** void DCMI_ClearITPendingBit(uint16_t DCMI_IT)
 509:./Library/stm32f4xx_dcmi.c **** {
 1060              		.loc 1 509 1
 1061              		.cfi_startproc
 1062              		@ args = 0, pretend = 0, frame = 8
 1063              		@ frame_needed = 1, uses_anonymous_args = 0
 1064              		@ link register save eliminated.
 1065 0000 80B4     		push	{r7}
 1066              	.LCFI80:
 1067              		.cfi_def_cfa_offset 4
 1068              		.cfi_offset 7, -4
 1069 0002 83B0     		sub	sp, sp, #12
 1070              	.LCFI81:
 1071              		.cfi_def_cfa_offset 16
 1072 0004 00AF     		add	r7, sp, #0
 1073              	.LCFI82:
 1074              		.cfi_def_cfa_register 7
 1075 0006 0346     		mov	r3, r0
 1076 0008 FB80     		strh	r3, [r7, #6]	@ movhi
 510:./Library/stm32f4xx_dcmi.c ****   /* Clear the interrupt pending Bit by writing in the ICR register 1 in the 
 511:./Library/stm32f4xx_dcmi.c ****   corresponding pending Bit position*/
 512:./Library/stm32f4xx_dcmi.c ****   
 513:./Library/stm32f4xx_dcmi.c ****   DCMI->ICR = DCMI_IT;
 1077              		.loc 1 513 7
 1078 000a 044A     		ldr	r2, .L67
 1079              		.loc 1 513 13
 1080 000c FB88     		ldrh	r3, [r7, #6]
 1081 000e 5361     		str	r3, [r2, #20]
 514:./Library/stm32f4xx_dcmi.c **** }
 1082              		.loc 1 514 1
 1083 0010 00BF     		nop
 1084 0012 0C37     		adds	r7, r7, #12
 1085              	.LCFI83:
 1086              		.cfi_def_cfa_offset 4
 1087 0014 BD46     		mov	sp, r7
 1088              	.LCFI84:
ARM GAS  /var/folders/yl/_q9l42k90g1g4mdhbs226msm0000gn/T//ccuhZ0Pj.s 			page 29


 1089              		.cfi_def_cfa_register 13
 1090              		@ sp needed
 1091 0016 5DF8047B 		ldr	r7, [sp], #4
 1092              	.LCFI85:
 1093              		.cfi_restore 7
 1094              		.cfi_def_cfa_offset 0
 1095 001a 7047     		bx	lr
 1096              	.L68:
 1097              		.align	2
 1098              	.L67:
 1099 001c 00000550 		.word	1342504960
 1100              		.cfi_endproc
 1101              	.LFE137:
 1103              		.text
 1104              	.Letext0:
 1105              		.file 2 "/Applications/ARM/arm-none-eabi/include/machine/_default_types.h"
 1106              		.file 3 "/Applications/ARM/arm-none-eabi/include/sys/_stdint.h"
 1107              		.file 4 "./CORE/stm32f4xx.h"
 1108              		.file 5 "./Library/stm32f4xx_dcmi.h"
ARM GAS  /var/folders/yl/_q9l42k90g1g4mdhbs226msm0000gn/T//ccuhZ0Pj.s 			page 30

