ARM GAS  /var/folders/yl/_q9l42k90g1g4mdhbs226msm0000gn/T//cckzC73U.s 			page 1


   1              		.cpu cortex-m4
   2              		.arch armv7e-m
   3              		.fpu fpv4-sp-d16
   4              		.eabi_attribute 27, 1
   5              		.eabi_attribute 28, 1
   6              		.eabi_attribute 20, 1
   7              		.eabi_attribute 21, 1
   8              		.eabi_attribute 23, 3
   9              		.eabi_attribute 24, 1
  10              		.eabi_attribute 25, 1
  11              		.eabi_attribute 26, 1
  12              		.eabi_attribute 30, 6
  13              		.eabi_attribute 34, 1
  14              		.eabi_attribute 18, 4
  15              		.file	"stm32f4xx_dac.c"
  16              		.text
  17              	.Ltext0:
  18              		.cfi_sections	.debug_frame
  19              		.section	.text.DAC_DeInit,"ax",%progbits
  20              		.align	1
  21              		.global	DAC_DeInit
  22              		.syntax unified
  23              		.thumb
  24              		.thumb_func
  26              	DAC_DeInit:
  27              	.LFB123:
  28              		.file 1 "./Library/stm32f4xx_dac.c"
   1:./Library/stm32f4xx_dac.c **** /**
   2:./Library/stm32f4xx_dac.c ****   ******************************************************************************
   3:./Library/stm32f4xx_dac.c ****   * @file    stm32f4xx_dac.c
   4:./Library/stm32f4xx_dac.c ****   * @author  MCD Application Team
   5:./Library/stm32f4xx_dac.c ****   * @version V1.8.1
   6:./Library/stm32f4xx_dac.c ****   * @date    27-January-2022
   7:./Library/stm32f4xx_dac.c ****    * @brief   This file provides firmware functions to manage the following 
   8:./Library/stm32f4xx_dac.c ****   *          functionalities of the Digital-to-Analog Converter (DAC) peripheral: 
   9:./Library/stm32f4xx_dac.c ****   *           + DAC channels configuration: trigger, output buffer, data format
  10:./Library/stm32f4xx_dac.c ****   *           + DMA management      
  11:./Library/stm32f4xx_dac.c ****   *           + Interrupts and flags management
  12:./Library/stm32f4xx_dac.c ****   *
  13:./Library/stm32f4xx_dac.c ****  @verbatim      
  14:./Library/stm32f4xx_dac.c ****  ===============================================================================
  15:./Library/stm32f4xx_dac.c ****                       ##### DAC Peripheral features #####
  16:./Library/stm32f4xx_dac.c ****  ===============================================================================
  17:./Library/stm32f4xx_dac.c ****     [..]        
  18:./Library/stm32f4xx_dac.c ****       *** DAC Channels ***
  19:./Library/stm32f4xx_dac.c ****       ====================  
  20:./Library/stm32f4xx_dac.c ****     [..]  
  21:./Library/stm32f4xx_dac.c ****     The device integrates two 12-bit Digital Analog Converters that can 
  22:./Library/stm32f4xx_dac.c ****     be used independently or simultaneously (dual mode):
  23:./Library/stm32f4xx_dac.c ****       (#) DAC channel1 with DAC_OUT1 (PA4) as output
  24:./Library/stm32f4xx_dac.c ****       (#) DAC channel2 with DAC_OUT2 (PA5) as output
  25:./Library/stm32f4xx_dac.c ****   
  26:./Library/stm32f4xx_dac.c ****       *** DAC Triggers ***
  27:./Library/stm32f4xx_dac.c ****       ====================
  28:./Library/stm32f4xx_dac.c ****     [..]
  29:./Library/stm32f4xx_dac.c ****     Digital to Analog conversion can be non-triggered using DAC_Trigger_None
  30:./Library/stm32f4xx_dac.c ****     and DAC_OUT1/DAC_OUT2 is available once writing to DHRx register 
ARM GAS  /var/folders/yl/_q9l42k90g1g4mdhbs226msm0000gn/T//cckzC73U.s 			page 2


  31:./Library/stm32f4xx_dac.c ****     using DAC_SetChannel1Data() / DAC_SetChannel2Data() functions.
  32:./Library/stm32f4xx_dac.c ****     [..] 
  33:./Library/stm32f4xx_dac.c ****     Digital to Analog conversion can be triggered by:
  34:./Library/stm32f4xx_dac.c ****       (#) External event: EXTI Line 9 (any GPIOx_Pin9) using DAC_Trigger_Ext_IT9.
  35:./Library/stm32f4xx_dac.c ****           The used pin (GPIOx_Pin9) must be configured in input mode.
  36:./Library/stm32f4xx_dac.c ****   
  37:./Library/stm32f4xx_dac.c ****       (#) Timers TRGO: TIM2, TIM4, TIM5, TIM6, TIM7 and TIM8 
  38:./Library/stm32f4xx_dac.c ****           (DAC_Trigger_T2_TRGO, DAC_Trigger_T4_TRGO...)
  39:./Library/stm32f4xx_dac.c ****           The timer TRGO event should be selected using TIM_SelectOutputTrigger()
  40:./Library/stm32f4xx_dac.c ****   
  41:./Library/stm32f4xx_dac.c ****       (#) Software using DAC_Trigger_Software
  42:./Library/stm32f4xx_dac.c ****   
  43:./Library/stm32f4xx_dac.c ****       *** DAC Buffer mode feature ***
  44:./Library/stm32f4xx_dac.c ****       =============================== 
  45:./Library/stm32f4xx_dac.c ****       [..] 
  46:./Library/stm32f4xx_dac.c ****       Each DAC channel integrates an output buffer that can be used to 
  47:./Library/stm32f4xx_dac.c ****       reduce the output impedance, and to drive external loads directly
  48:./Library/stm32f4xx_dac.c ****       without having to add an external operational amplifier.
  49:./Library/stm32f4xx_dac.c ****       To enable, the output buffer use  
  50:./Library/stm32f4xx_dac.c ****       DAC_InitStructure.DAC_OutputBuffer = DAC_OutputBuffer_Enable;
  51:./Library/stm32f4xx_dac.c ****       [..]           
  52:./Library/stm32f4xx_dac.c ****       (@) Refer to the device datasheet for more details about output 
  53:./Library/stm32f4xx_dac.c ****           impedance value with and without output buffer.
  54:./Library/stm32f4xx_dac.c ****             
  55:./Library/stm32f4xx_dac.c ****        *** DAC wave generation feature ***
  56:./Library/stm32f4xx_dac.c ****        =================================== 
  57:./Library/stm32f4xx_dac.c ****        [..]     
  58:./Library/stm32f4xx_dac.c ****        Both DAC channels can be used to generate
  59:./Library/stm32f4xx_dac.c ****          (#) Noise wave using DAC_WaveGeneration_Noise
  60:./Library/stm32f4xx_dac.c ****          (#) Triangle wave using DAC_WaveGeneration_Triangle
  61:./Library/stm32f4xx_dac.c ****           
  62:./Library/stm32f4xx_dac.c ****           -@-  Wave generation can be disabled using DAC_WaveGeneration_None
  63:./Library/stm32f4xx_dac.c ****   
  64:./Library/stm32f4xx_dac.c ****        *** DAC data format ***
  65:./Library/stm32f4xx_dac.c ****        =======================
  66:./Library/stm32f4xx_dac.c ****        [..]   
  67:./Library/stm32f4xx_dac.c ****        The DAC data format can be:
  68:./Library/stm32f4xx_dac.c ****          (#) 8-bit right alignment using DAC_Align_8b_R
  69:./Library/stm32f4xx_dac.c ****          (#) 12-bit left alignment using DAC_Align_12b_L
  70:./Library/stm32f4xx_dac.c ****          (#) 12-bit right alignment using DAC_Align_12b_R
  71:./Library/stm32f4xx_dac.c ****   
  72:./Library/stm32f4xx_dac.c ****        *** DAC data value to voltage correspondence ***  
  73:./Library/stm32f4xx_dac.c ****        ================================================ 
  74:./Library/stm32f4xx_dac.c ****        [..] 
  75:./Library/stm32f4xx_dac.c ****        The analog output voltage on each DAC channel pin is determined
  76:./Library/stm32f4xx_dac.c ****        by the following equation: 
  77:./Library/stm32f4xx_dac.c ****        DAC_OUTx = VREF+ * DOR / 4095
  78:./Library/stm32f4xx_dac.c ****        with  DOR is the Data Output Register
  79:./Library/stm32f4xx_dac.c ****           VEF+ is the input voltage reference (refer to the device datasheet)
  80:./Library/stm32f4xx_dac.c ****         e.g. To set DAC_OUT1 to 0.7V, use
  81:./Library/stm32f4xx_dac.c ****           DAC_SetChannel1Data(DAC_Align_12b_R, 868);
  82:./Library/stm32f4xx_dac.c ****           Assuming that VREF+ = 3.3V, DAC_OUT1 = (3.3 * 868) / 4095 = 0.7V
  83:./Library/stm32f4xx_dac.c ****   
  84:./Library/stm32f4xx_dac.c ****        *** DMA requests  ***
  85:./Library/stm32f4xx_dac.c ****        =====================
  86:./Library/stm32f4xx_dac.c ****        [..]    
  87:./Library/stm32f4xx_dac.c ****        A DMA1 request can be generated when an external trigger (but not
ARM GAS  /var/folders/yl/_q9l42k90g1g4mdhbs226msm0000gn/T//cckzC73U.s 			page 3


  88:./Library/stm32f4xx_dac.c ****        a software trigger) occurs if DMA1 requests are enabled using
  89:./Library/stm32f4xx_dac.c ****        DAC_DMACmd()
  90:./Library/stm32f4xx_dac.c ****        [..]
  91:./Library/stm32f4xx_dac.c ****        DMA1 requests are mapped as following:
  92:./Library/stm32f4xx_dac.c ****          (#) DAC channel1 : mapped on DMA1 Stream5 channel7 which must be 
  93:./Library/stm32f4xx_dac.c ****              already configured
  94:./Library/stm32f4xx_dac.c ****          (#) DAC channel2 : mapped on DMA1 Stream6 channel7 which must be 
  95:./Library/stm32f4xx_dac.c ****              already configured
  96:./Library/stm32f4xx_dac.c ****   
  97:./Library/stm32f4xx_dac.c ****       
  98:./Library/stm32f4xx_dac.c ****                       ##### How to use this driver #####
  99:./Library/stm32f4xx_dac.c ****  ===============================================================================
 100:./Library/stm32f4xx_dac.c ****     [..]          
 101:./Library/stm32f4xx_dac.c ****       (+) DAC APB clock must be enabled to get write access to DAC
 102:./Library/stm32f4xx_dac.c ****           registers using
 103:./Library/stm32f4xx_dac.c ****           RCC_APB1PeriphClockCmd(RCC_APB1Periph_DAC, ENABLE)
 104:./Library/stm32f4xx_dac.c ****       (+) Configure DAC_OUTx (DAC_OUT1: PA4, DAC_OUT2: PA5) in analog mode.
 105:./Library/stm32f4xx_dac.c ****       (+) Configure the DAC channel using DAC_Init() function
 106:./Library/stm32f4xx_dac.c ****       (+) Enable the DAC channel using DAC_Cmd() function
 107:./Library/stm32f4xx_dac.c ****    
 108:./Library/stm32f4xx_dac.c ****  @endverbatim    
 109:./Library/stm32f4xx_dac.c ****   ******************************************************************************
 110:./Library/stm32f4xx_dac.c ****   * @attention
 111:./Library/stm32f4xx_dac.c ****   *
 112:./Library/stm32f4xx_dac.c ****   * Copyright (c) 2016 STMicroelectronics.
 113:./Library/stm32f4xx_dac.c ****   * All rights reserved.
 114:./Library/stm32f4xx_dac.c ****   *
 115:./Library/stm32f4xx_dac.c ****   * This software is licensed under terms that can be found in the LICENSE file
 116:./Library/stm32f4xx_dac.c ****   * in the root directory of this software component.
 117:./Library/stm32f4xx_dac.c ****   * If no LICENSE file comes with this software, it is provided AS-IS.
 118:./Library/stm32f4xx_dac.c ****   *
 119:./Library/stm32f4xx_dac.c ****   ******************************************************************************
 120:./Library/stm32f4xx_dac.c ****   */
 121:./Library/stm32f4xx_dac.c **** 
 122:./Library/stm32f4xx_dac.c **** 
 123:./Library/stm32f4xx_dac.c **** /* Includes ------------------------------------------------------------------*/
 124:./Library/stm32f4xx_dac.c **** #include "stm32f4xx_dac.h"
 125:./Library/stm32f4xx_dac.c **** #include "stm32f4xx_rcc.h"
 126:./Library/stm32f4xx_dac.c **** 
 127:./Library/stm32f4xx_dac.c **** /** @addtogroup STM32F4xx_StdPeriph_Driver
 128:./Library/stm32f4xx_dac.c ****   * @{
 129:./Library/stm32f4xx_dac.c ****   */
 130:./Library/stm32f4xx_dac.c **** 
 131:./Library/stm32f4xx_dac.c **** /** @defgroup DAC 
 132:./Library/stm32f4xx_dac.c ****   * @brief DAC driver modules
 133:./Library/stm32f4xx_dac.c ****   * @{
 134:./Library/stm32f4xx_dac.c ****   */ 
 135:./Library/stm32f4xx_dac.c **** 
 136:./Library/stm32f4xx_dac.c **** /* Private typedef -----------------------------------------------------------*/
 137:./Library/stm32f4xx_dac.c **** /* Private define ------------------------------------------------------------*/
 138:./Library/stm32f4xx_dac.c **** 
 139:./Library/stm32f4xx_dac.c **** /* CR register Mask */
 140:./Library/stm32f4xx_dac.c **** #define CR_CLEAR_MASK              ((uint32_t)0x00000FFE)
 141:./Library/stm32f4xx_dac.c **** 
 142:./Library/stm32f4xx_dac.c **** /* DAC Dual Channels SWTRIG masks */
 143:./Library/stm32f4xx_dac.c **** #define DUAL_SWTRIG_SET            ((uint32_t)0x00000003)
 144:./Library/stm32f4xx_dac.c **** #define DUAL_SWTRIG_RESET          ((uint32_t)0xFFFFFFFC)
ARM GAS  /var/folders/yl/_q9l42k90g1g4mdhbs226msm0000gn/T//cckzC73U.s 			page 4


 145:./Library/stm32f4xx_dac.c **** 
 146:./Library/stm32f4xx_dac.c **** /* DHR registers offsets */
 147:./Library/stm32f4xx_dac.c **** #define DHR12R1_OFFSET             ((uint32_t)0x00000008)
 148:./Library/stm32f4xx_dac.c **** #define DHR12R2_OFFSET             ((uint32_t)0x00000014)
 149:./Library/stm32f4xx_dac.c **** #define DHR12RD_OFFSET             ((uint32_t)0x00000020)
 150:./Library/stm32f4xx_dac.c **** 
 151:./Library/stm32f4xx_dac.c **** /* DOR register offset */
 152:./Library/stm32f4xx_dac.c **** #define DOR_OFFSET                 ((uint32_t)0x0000002C)
 153:./Library/stm32f4xx_dac.c **** 
 154:./Library/stm32f4xx_dac.c **** /* Private macro -------------------------------------------------------------*/
 155:./Library/stm32f4xx_dac.c **** /* Private variables ---------------------------------------------------------*/
 156:./Library/stm32f4xx_dac.c **** /* Private function prototypes -----------------------------------------------*/
 157:./Library/stm32f4xx_dac.c **** /* Private functions ---------------------------------------------------------*/
 158:./Library/stm32f4xx_dac.c **** 
 159:./Library/stm32f4xx_dac.c **** /** @defgroup DAC_Private_Functions
 160:./Library/stm32f4xx_dac.c ****   * @{
 161:./Library/stm32f4xx_dac.c ****   */
 162:./Library/stm32f4xx_dac.c **** 
 163:./Library/stm32f4xx_dac.c **** /** @defgroup DAC_Group1 DAC channels configuration
 164:./Library/stm32f4xx_dac.c ****  *  @brief   DAC channels configuration: trigger, output buffer, data format 
 165:./Library/stm32f4xx_dac.c ****  *
 166:./Library/stm32f4xx_dac.c **** @verbatim   
 167:./Library/stm32f4xx_dac.c ****  ===============================================================================
 168:./Library/stm32f4xx_dac.c ****    ##### DAC channels configuration: trigger, output buffer, data format #####
 169:./Library/stm32f4xx_dac.c ****  ===============================================================================  
 170:./Library/stm32f4xx_dac.c **** 
 171:./Library/stm32f4xx_dac.c **** @endverbatim
 172:./Library/stm32f4xx_dac.c ****   * @{
 173:./Library/stm32f4xx_dac.c ****   */
 174:./Library/stm32f4xx_dac.c **** 
 175:./Library/stm32f4xx_dac.c **** /**
 176:./Library/stm32f4xx_dac.c ****   * @brief  Deinitializes the DAC peripheral registers to their default reset values.
 177:./Library/stm32f4xx_dac.c ****   * @param  None
 178:./Library/stm32f4xx_dac.c ****   * @retval None
 179:./Library/stm32f4xx_dac.c ****   */
 180:./Library/stm32f4xx_dac.c **** void DAC_DeInit(void)
 181:./Library/stm32f4xx_dac.c **** {
  29              		.loc 1 181 1
  30              		.cfi_startproc
  31              		@ args = 0, pretend = 0, frame = 0
  32              		@ frame_needed = 1, uses_anonymous_args = 0
  33 0000 80B5     		push	{r7, lr}
  34              	.LCFI0:
  35              		.cfi_def_cfa_offset 8
  36              		.cfi_offset 7, -8
  37              		.cfi_offset 14, -4
  38 0002 00AF     		add	r7, sp, #0
  39              	.LCFI1:
  40              		.cfi_def_cfa_register 7
 182:./Library/stm32f4xx_dac.c ****   /* Enable DAC reset state */
 183:./Library/stm32f4xx_dac.c ****   RCC_APB1PeriphResetCmd(RCC_APB1Periph_DAC, ENABLE);
  41              		.loc 1 183 3
  42 0004 0121     		movs	r1, #1
  43 0006 4FF00050 		mov	r0, #536870912
  44 000a FFF7FEFF 		bl	RCC_APB1PeriphResetCmd
 184:./Library/stm32f4xx_dac.c ****   /* Release DAC from reset state */
 185:./Library/stm32f4xx_dac.c ****   RCC_APB1PeriphResetCmd(RCC_APB1Periph_DAC, DISABLE);
ARM GAS  /var/folders/yl/_q9l42k90g1g4mdhbs226msm0000gn/T//cckzC73U.s 			page 5


  45              		.loc 1 185 3
  46 000e 0021     		movs	r1, #0
  47 0010 4FF00050 		mov	r0, #536870912
  48 0014 FFF7FEFF 		bl	RCC_APB1PeriphResetCmd
 186:./Library/stm32f4xx_dac.c **** }
  49              		.loc 1 186 1
  50 0018 00BF     		nop
  51 001a 80BD     		pop	{r7, pc}
  52              		.cfi_endproc
  53              	.LFE123:
  55              		.section	.text.DAC_Init,"ax",%progbits
  56              		.align	1
  57              		.global	DAC_Init
  58              		.syntax unified
  59              		.thumb
  60              		.thumb_func
  62              	DAC_Init:
  63              	.LFB124:
 187:./Library/stm32f4xx_dac.c **** 
 188:./Library/stm32f4xx_dac.c **** /**
 189:./Library/stm32f4xx_dac.c ****   * @brief  Initializes the DAC peripheral according to the specified parameters
 190:./Library/stm32f4xx_dac.c ****   *         in the DAC_InitStruct.
 191:./Library/stm32f4xx_dac.c ****   * @param  DAC_Channel: the selected DAC channel. 
 192:./Library/stm32f4xx_dac.c ****   *          This parameter can be one of the following values:
 193:./Library/stm32f4xx_dac.c ****   *            @arg DAC_Channel_1: DAC Channel1 selected
 194:./Library/stm32f4xx_dac.c ****   *            @arg DAC_Channel_2: DAC Channel2 selected
 195:./Library/stm32f4xx_dac.c ****   * @param  DAC_InitStruct: pointer to a DAC_InitTypeDef structure that contains
 196:./Library/stm32f4xx_dac.c ****   *         the configuration information for the  specified DAC channel.
 197:./Library/stm32f4xx_dac.c ****   * @retval None
 198:./Library/stm32f4xx_dac.c ****   */
 199:./Library/stm32f4xx_dac.c **** void DAC_Init(uint32_t DAC_Channel, DAC_InitTypeDef* DAC_InitStruct)
 200:./Library/stm32f4xx_dac.c **** {
  64              		.loc 1 200 1
  65              		.cfi_startproc
  66              		@ args = 0, pretend = 0, frame = 16
  67              		@ frame_needed = 1, uses_anonymous_args = 0
  68              		@ link register save eliminated.
  69 0000 80B4     		push	{r7}
  70              	.LCFI2:
  71              		.cfi_def_cfa_offset 4
  72              		.cfi_offset 7, -4
  73 0002 85B0     		sub	sp, sp, #20
  74              	.LCFI3:
  75              		.cfi_def_cfa_offset 24
  76 0004 00AF     		add	r7, sp, #0
  77              	.LCFI4:
  78              		.cfi_def_cfa_register 7
  79 0006 7860     		str	r0, [r7, #4]
  80 0008 3960     		str	r1, [r7]
 201:./Library/stm32f4xx_dac.c ****   uint32_t tmpreg1 = 0, tmpreg2 = 0;
  81              		.loc 1 201 12
  82 000a 0023     		movs	r3, #0
  83 000c FB60     		str	r3, [r7, #12]
  84              		.loc 1 201 25
  85 000e 0023     		movs	r3, #0
  86 0010 BB60     		str	r3, [r7, #8]
 202:./Library/stm32f4xx_dac.c **** 
ARM GAS  /var/folders/yl/_q9l42k90g1g4mdhbs226msm0000gn/T//cckzC73U.s 			page 6


 203:./Library/stm32f4xx_dac.c ****   /* Check the DAC parameters */
 204:./Library/stm32f4xx_dac.c ****   assert_param(IS_DAC_TRIGGER(DAC_InitStruct->DAC_Trigger));
 205:./Library/stm32f4xx_dac.c ****   assert_param(IS_DAC_GENERATE_WAVE(DAC_InitStruct->DAC_WaveGeneration));
 206:./Library/stm32f4xx_dac.c ****   assert_param(IS_DAC_LFSR_UNMASK_TRIANGLE_AMPLITUDE(DAC_InitStruct->DAC_LFSRUnmask_TriangleAmplitu
 207:./Library/stm32f4xx_dac.c ****   assert_param(IS_DAC_OUTPUT_BUFFER_STATE(DAC_InitStruct->DAC_OutputBuffer));
 208:./Library/stm32f4xx_dac.c **** 
 209:./Library/stm32f4xx_dac.c **** /*---------------------------- DAC CR Configuration --------------------------*/
 210:./Library/stm32f4xx_dac.c ****   /* Get the DAC CR value */
 211:./Library/stm32f4xx_dac.c ****   tmpreg1 = DAC->CR;
  87              		.loc 1 211 16
  88 0012 144B     		ldr	r3, .L3
  89              		.loc 1 211 11
  90 0014 1B68     		ldr	r3, [r3]
  91 0016 FB60     		str	r3, [r7, #12]
 212:./Library/stm32f4xx_dac.c ****   /* Clear BOFFx, TENx, TSELx, WAVEx and MAMPx bits */
 213:./Library/stm32f4xx_dac.c ****   tmpreg1 &= ~(CR_CLEAR_MASK << DAC_Channel);
  92              		.loc 1 213 30
  93 0018 40F6FE72 		movw	r2, #4094
  94 001c 7B68     		ldr	r3, [r7, #4]
  95 001e 02FA03F3 		lsl	r3, r2, r3
  96              		.loc 1 213 14
  97 0022 DB43     		mvns	r3, r3
  98              		.loc 1 213 11
  99 0024 FA68     		ldr	r2, [r7, #12]
 100 0026 1340     		ands	r3, r3, r2
 101 0028 FB60     		str	r3, [r7, #12]
 214:./Library/stm32f4xx_dac.c ****   /* Configure for the selected DAC channel: buffer output, trigger, 
 215:./Library/stm32f4xx_dac.c ****      wave generation, mask/amplitude for wave generation */
 216:./Library/stm32f4xx_dac.c ****   /* Set TSELx and TENx bits according to DAC_Trigger value */
 217:./Library/stm32f4xx_dac.c ****   /* Set WAVEx bits according to DAC_WaveGeneration value */
 218:./Library/stm32f4xx_dac.c ****   /* Set MAMPx bits according to DAC_LFSRUnmask_TriangleAmplitude value */ 
 219:./Library/stm32f4xx_dac.c ****   /* Set BOFFx bit according to DAC_OutputBuffer value */   
 220:./Library/stm32f4xx_dac.c ****   tmpreg2 = (DAC_InitStruct->DAC_Trigger | DAC_InitStruct->DAC_WaveGeneration |
 102              		.loc 1 220 28
 103 002a 3B68     		ldr	r3, [r7]
 104 002c 1A68     		ldr	r2, [r3]
 105              		.loc 1 220 58
 106 002e 3B68     		ldr	r3, [r7]
 107 0030 5B68     		ldr	r3, [r3, #4]
 108              		.loc 1 220 42
 109 0032 1A43     		orrs	r2, r2, r3
 221:./Library/stm32f4xx_dac.c ****              DAC_InitStruct->DAC_LFSRUnmask_TriangleAmplitude | \
 110              		.loc 1 221 28
 111 0034 3B68     		ldr	r3, [r7]
 112 0036 9B68     		ldr	r3, [r3, #8]
 220:./Library/stm32f4xx_dac.c ****              DAC_InitStruct->DAC_LFSRUnmask_TriangleAmplitude | \
 113              		.loc 1 220 79
 114 0038 1A43     		orrs	r2, r2, r3
 222:./Library/stm32f4xx_dac.c ****              DAC_InitStruct->DAC_OutputBuffer);
 115              		.loc 1 222 28
 116 003a 3B68     		ldr	r3, [r7]
 117 003c DB68     		ldr	r3, [r3, #12]
 220:./Library/stm32f4xx_dac.c ****              DAC_InitStruct->DAC_LFSRUnmask_TriangleAmplitude | \
 118              		.loc 1 220 11
 119 003e 1343     		orrs	r3, r3, r2
 120 0040 BB60     		str	r3, [r7, #8]
 223:./Library/stm32f4xx_dac.c ****   /* Calculate CR register value depending on DAC_Channel */
ARM GAS  /var/folders/yl/_q9l42k90g1g4mdhbs226msm0000gn/T//cckzC73U.s 			page 7


 224:./Library/stm32f4xx_dac.c ****   tmpreg1 |= tmpreg2 << DAC_Channel;
 121              		.loc 1 224 22
 122 0042 BA68     		ldr	r2, [r7, #8]
 123 0044 7B68     		ldr	r3, [r7, #4]
 124 0046 02FA03F3 		lsl	r3, r2, r3
 125              		.loc 1 224 11
 126 004a FA68     		ldr	r2, [r7, #12]
 127 004c 1343     		orrs	r3, r3, r2
 128 004e FB60     		str	r3, [r7, #12]
 225:./Library/stm32f4xx_dac.c ****   /* Write to DAC CR */
 226:./Library/stm32f4xx_dac.c ****   DAC->CR = tmpreg1;
 129              		.loc 1 226 6
 130 0050 044A     		ldr	r2, .L3
 131              		.loc 1 226 11
 132 0052 FB68     		ldr	r3, [r7, #12]
 133 0054 1360     		str	r3, [r2]
 227:./Library/stm32f4xx_dac.c **** }
 134              		.loc 1 227 1
 135 0056 00BF     		nop
 136 0058 1437     		adds	r7, r7, #20
 137              	.LCFI5:
 138              		.cfi_def_cfa_offset 4
 139 005a BD46     		mov	sp, r7
 140              	.LCFI6:
 141              		.cfi_def_cfa_register 13
 142              		@ sp needed
 143 005c 5DF8047B 		ldr	r7, [sp], #4
 144              	.LCFI7:
 145              		.cfi_restore 7
 146              		.cfi_def_cfa_offset 0
 147 0060 7047     		bx	lr
 148              	.L4:
 149 0062 00BF     		.align	2
 150              	.L3:
 151 0064 00740040 		.word	1073771520
 152              		.cfi_endproc
 153              	.LFE124:
 155              		.section	.text.DAC_StructInit,"ax",%progbits
 156              		.align	1
 157              		.global	DAC_StructInit
 158              		.syntax unified
 159              		.thumb
 160              		.thumb_func
 162              	DAC_StructInit:
 163              	.LFB125:
 228:./Library/stm32f4xx_dac.c **** 
 229:./Library/stm32f4xx_dac.c **** /**
 230:./Library/stm32f4xx_dac.c ****   * @brief  Fills each DAC_InitStruct member with its default value.
 231:./Library/stm32f4xx_dac.c ****   * @param  DAC_InitStruct: pointer to a DAC_InitTypeDef structure which will 
 232:./Library/stm32f4xx_dac.c ****   *         be initialized.
 233:./Library/stm32f4xx_dac.c ****   * @retval None
 234:./Library/stm32f4xx_dac.c ****   */
 235:./Library/stm32f4xx_dac.c **** void DAC_StructInit(DAC_InitTypeDef* DAC_InitStruct)
 236:./Library/stm32f4xx_dac.c **** {
 164              		.loc 1 236 1
 165              		.cfi_startproc
 166              		@ args = 0, pretend = 0, frame = 8
ARM GAS  /var/folders/yl/_q9l42k90g1g4mdhbs226msm0000gn/T//cckzC73U.s 			page 8


 167              		@ frame_needed = 1, uses_anonymous_args = 0
 168              		@ link register save eliminated.
 169 0000 80B4     		push	{r7}
 170              	.LCFI8:
 171              		.cfi_def_cfa_offset 4
 172              		.cfi_offset 7, -4
 173 0002 83B0     		sub	sp, sp, #12
 174              	.LCFI9:
 175              		.cfi_def_cfa_offset 16
 176 0004 00AF     		add	r7, sp, #0
 177              	.LCFI10:
 178              		.cfi_def_cfa_register 7
 179 0006 7860     		str	r0, [r7, #4]
 237:./Library/stm32f4xx_dac.c **** /*--------------- Reset DAC init structure parameters values -----------------*/
 238:./Library/stm32f4xx_dac.c ****   /* Initialize the DAC_Trigger member */
 239:./Library/stm32f4xx_dac.c ****   DAC_InitStruct->DAC_Trigger = DAC_Trigger_None;
 180              		.loc 1 239 31
 181 0008 7B68     		ldr	r3, [r7, #4]
 182 000a 0022     		movs	r2, #0
 183 000c 1A60     		str	r2, [r3]
 240:./Library/stm32f4xx_dac.c ****   /* Initialize the DAC_WaveGeneration member */
 241:./Library/stm32f4xx_dac.c ****   DAC_InitStruct->DAC_WaveGeneration = DAC_WaveGeneration_None;
 184              		.loc 1 241 38
 185 000e 7B68     		ldr	r3, [r7, #4]
 186 0010 0022     		movs	r2, #0
 187 0012 5A60     		str	r2, [r3, #4]
 242:./Library/stm32f4xx_dac.c ****   /* Initialize the DAC_LFSRUnmask_TriangleAmplitude member */
 243:./Library/stm32f4xx_dac.c ****   DAC_InitStruct->DAC_LFSRUnmask_TriangleAmplitude = DAC_LFSRUnmask_Bit0;
 188              		.loc 1 243 52
 189 0014 7B68     		ldr	r3, [r7, #4]
 190 0016 0022     		movs	r2, #0
 191 0018 9A60     		str	r2, [r3, #8]
 244:./Library/stm32f4xx_dac.c ****   /* Initialize the DAC_OutputBuffer member */
 245:./Library/stm32f4xx_dac.c ****   DAC_InitStruct->DAC_OutputBuffer = DAC_OutputBuffer_Enable;
 192              		.loc 1 245 36
 193 001a 7B68     		ldr	r3, [r7, #4]
 194 001c 0022     		movs	r2, #0
 195 001e DA60     		str	r2, [r3, #12]
 246:./Library/stm32f4xx_dac.c **** }
 196              		.loc 1 246 1
 197 0020 00BF     		nop
 198 0022 0C37     		adds	r7, r7, #12
 199              	.LCFI11:
 200              		.cfi_def_cfa_offset 4
 201 0024 BD46     		mov	sp, r7
 202              	.LCFI12:
 203              		.cfi_def_cfa_register 13
 204              		@ sp needed
 205 0026 5DF8047B 		ldr	r7, [sp], #4
 206              	.LCFI13:
 207              		.cfi_restore 7
 208              		.cfi_def_cfa_offset 0
 209 002a 7047     		bx	lr
 210              		.cfi_endproc
 211              	.LFE125:
 213              		.section	.text.DAC_Cmd,"ax",%progbits
 214              		.align	1
ARM GAS  /var/folders/yl/_q9l42k90g1g4mdhbs226msm0000gn/T//cckzC73U.s 			page 9


 215              		.global	DAC_Cmd
 216              		.syntax unified
 217              		.thumb
 218              		.thumb_func
 220              	DAC_Cmd:
 221              	.LFB126:
 247:./Library/stm32f4xx_dac.c **** 
 248:./Library/stm32f4xx_dac.c **** /**
 249:./Library/stm32f4xx_dac.c ****   * @brief  Enables or disables the specified DAC channel.
 250:./Library/stm32f4xx_dac.c ****   * @param  DAC_Channel: The selected DAC channel. 
 251:./Library/stm32f4xx_dac.c ****   *          This parameter can be one of the following values:
 252:./Library/stm32f4xx_dac.c ****   *            @arg DAC_Channel_1: DAC Channel1 selected
 253:./Library/stm32f4xx_dac.c ****   *            @arg DAC_Channel_2: DAC Channel2 selected
 254:./Library/stm32f4xx_dac.c ****   * @param  NewState: new state of the DAC channel. 
 255:./Library/stm32f4xx_dac.c ****   *          This parameter can be: ENABLE or DISABLE.
 256:./Library/stm32f4xx_dac.c ****   * @note   When the DAC channel is enabled the trigger source can no more be modified.
 257:./Library/stm32f4xx_dac.c ****   * @retval None
 258:./Library/stm32f4xx_dac.c ****   */
 259:./Library/stm32f4xx_dac.c **** void DAC_Cmd(uint32_t DAC_Channel, FunctionalState NewState)
 260:./Library/stm32f4xx_dac.c **** {
 222              		.loc 1 260 1
 223              		.cfi_startproc
 224              		@ args = 0, pretend = 0, frame = 8
 225              		@ frame_needed = 1, uses_anonymous_args = 0
 226              		@ link register save eliminated.
 227 0000 80B4     		push	{r7}
 228              	.LCFI14:
 229              		.cfi_def_cfa_offset 4
 230              		.cfi_offset 7, -4
 231 0002 83B0     		sub	sp, sp, #12
 232              	.LCFI15:
 233              		.cfi_def_cfa_offset 16
 234 0004 00AF     		add	r7, sp, #0
 235              	.LCFI16:
 236              		.cfi_def_cfa_register 7
 237 0006 7860     		str	r0, [r7, #4]
 238 0008 0B46     		mov	r3, r1
 239 000a FB70     		strb	r3, [r7, #3]
 261:./Library/stm32f4xx_dac.c ****   /* Check the parameters */
 262:./Library/stm32f4xx_dac.c ****   assert_param(IS_DAC_CHANNEL(DAC_Channel));
 263:./Library/stm32f4xx_dac.c ****   assert_param(IS_FUNCTIONAL_STATE(NewState));
 264:./Library/stm32f4xx_dac.c **** 
 265:./Library/stm32f4xx_dac.c ****   if (NewState != DISABLE)
 240              		.loc 1 265 6
 241 000c FB78     		ldrb	r3, [r7, #3]	@ zero_extendqisi2
 242 000e 002B     		cmp	r3, #0
 243 0010 09D0     		beq	.L7
 266:./Library/stm32f4xx_dac.c ****   {
 267:./Library/stm32f4xx_dac.c ****     /* Enable the selected DAC channel */
 268:./Library/stm32f4xx_dac.c ****     DAC->CR |= (DAC_CR_EN1 << DAC_Channel);
 244              		.loc 1 268 13
 245 0012 0D4B     		ldr	r3, .L10
 246 0014 1A68     		ldr	r2, [r3]
 247              		.loc 1 268 28
 248 0016 0121     		movs	r1, #1
 249 0018 7B68     		ldr	r3, [r7, #4]
 250 001a 01FA03F3 		lsl	r3, r1, r3
ARM GAS  /var/folders/yl/_q9l42k90g1g4mdhbs226msm0000gn/T//cckzC73U.s 			page 10


 251              		.loc 1 268 13
 252 001e 0A49     		ldr	r1, .L10
 253 0020 1343     		orrs	r3, r3, r2
 254 0022 0B60     		str	r3, [r1]
 269:./Library/stm32f4xx_dac.c ****   }
 270:./Library/stm32f4xx_dac.c ****   else
 271:./Library/stm32f4xx_dac.c ****   {
 272:./Library/stm32f4xx_dac.c ****     /* Disable the selected DAC channel */
 273:./Library/stm32f4xx_dac.c ****     DAC->CR &= (~(DAC_CR_EN1 << DAC_Channel));
 274:./Library/stm32f4xx_dac.c ****   }
 275:./Library/stm32f4xx_dac.c **** }
 255              		.loc 1 275 1
 256 0024 09E0     		b	.L9
 257              	.L7:
 273:./Library/stm32f4xx_dac.c ****   }
 258              		.loc 1 273 13
 259 0026 084B     		ldr	r3, .L10
 260 0028 1A68     		ldr	r2, [r3]
 273:./Library/stm32f4xx_dac.c ****   }
 261              		.loc 1 273 30
 262 002a 0121     		movs	r1, #1
 263 002c 7B68     		ldr	r3, [r7, #4]
 264 002e 01FA03F3 		lsl	r3, r1, r3
 273:./Library/stm32f4xx_dac.c ****   }
 265              		.loc 1 273 17
 266 0032 DB43     		mvns	r3, r3
 273:./Library/stm32f4xx_dac.c ****   }
 267              		.loc 1 273 13
 268 0034 0449     		ldr	r1, .L10
 269 0036 1340     		ands	r3, r3, r2
 270 0038 0B60     		str	r3, [r1]
 271              	.L9:
 272              		.loc 1 275 1
 273 003a 00BF     		nop
 274 003c 0C37     		adds	r7, r7, #12
 275              	.LCFI17:
 276              		.cfi_def_cfa_offset 4
 277 003e BD46     		mov	sp, r7
 278              	.LCFI18:
 279              		.cfi_def_cfa_register 13
 280              		@ sp needed
 281 0040 5DF8047B 		ldr	r7, [sp], #4
 282              	.LCFI19:
 283              		.cfi_restore 7
 284              		.cfi_def_cfa_offset 0
 285 0044 7047     		bx	lr
 286              	.L11:
 287 0046 00BF     		.align	2
 288              	.L10:
 289 0048 00740040 		.word	1073771520
 290              		.cfi_endproc
 291              	.LFE126:
 293              		.section	.text.DAC_SoftwareTriggerCmd,"ax",%progbits
 294              		.align	1
 295              		.global	DAC_SoftwareTriggerCmd
 296              		.syntax unified
 297              		.thumb
ARM GAS  /var/folders/yl/_q9l42k90g1g4mdhbs226msm0000gn/T//cckzC73U.s 			page 11


 298              		.thumb_func
 300              	DAC_SoftwareTriggerCmd:
 301              	.LFB127:
 276:./Library/stm32f4xx_dac.c **** 
 277:./Library/stm32f4xx_dac.c **** /**
 278:./Library/stm32f4xx_dac.c ****   * @brief  Enables or disables the selected DAC channel software trigger.
 279:./Library/stm32f4xx_dac.c ****   * @param  DAC_Channel: The selected DAC channel. 
 280:./Library/stm32f4xx_dac.c ****   *          This parameter can be one of the following values:
 281:./Library/stm32f4xx_dac.c ****   *            @arg DAC_Channel_1: DAC Channel1 selected
 282:./Library/stm32f4xx_dac.c ****   *            @arg DAC_Channel_2: DAC Channel2 selected
 283:./Library/stm32f4xx_dac.c ****   * @param  NewState: new state of the selected DAC channel software trigger.
 284:./Library/stm32f4xx_dac.c ****   *          This parameter can be: ENABLE or DISABLE.
 285:./Library/stm32f4xx_dac.c ****   * @retval None
 286:./Library/stm32f4xx_dac.c ****   */
 287:./Library/stm32f4xx_dac.c **** void DAC_SoftwareTriggerCmd(uint32_t DAC_Channel, FunctionalState NewState)
 288:./Library/stm32f4xx_dac.c **** {
 302              		.loc 1 288 1
 303              		.cfi_startproc
 304              		@ args = 0, pretend = 0, frame = 8
 305              		@ frame_needed = 1, uses_anonymous_args = 0
 306              		@ link register save eliminated.
 307 0000 80B4     		push	{r7}
 308              	.LCFI20:
 309              		.cfi_def_cfa_offset 4
 310              		.cfi_offset 7, -4
 311 0002 83B0     		sub	sp, sp, #12
 312              	.LCFI21:
 313              		.cfi_def_cfa_offset 16
 314 0004 00AF     		add	r7, sp, #0
 315              	.LCFI22:
 316              		.cfi_def_cfa_register 7
 317 0006 7860     		str	r0, [r7, #4]
 318 0008 0B46     		mov	r3, r1
 319 000a FB70     		strb	r3, [r7, #3]
 289:./Library/stm32f4xx_dac.c ****   /* Check the parameters */
 290:./Library/stm32f4xx_dac.c ****   assert_param(IS_DAC_CHANNEL(DAC_Channel));
 291:./Library/stm32f4xx_dac.c ****   assert_param(IS_FUNCTIONAL_STATE(NewState));
 292:./Library/stm32f4xx_dac.c **** 
 293:./Library/stm32f4xx_dac.c ****   if (NewState != DISABLE)
 320              		.loc 1 293 6
 321 000c FB78     		ldrb	r3, [r7, #3]	@ zero_extendqisi2
 322 000e 002B     		cmp	r3, #0
 323 0010 0AD0     		beq	.L13
 294:./Library/stm32f4xx_dac.c ****   {
 295:./Library/stm32f4xx_dac.c ****     /* Enable software trigger for the selected DAC channel */
 296:./Library/stm32f4xx_dac.c ****     DAC->SWTRIGR |= (uint32_t)DAC_SWTRIGR_SWTRIG1 << (DAC_Channel >> 4);
 324              		.loc 1 296 18
 325 0012 0E4B     		ldr	r3, .L16
 326 0014 5A68     		ldr	r2, [r3, #4]
 327              		.loc 1 296 67
 328 0016 7B68     		ldr	r3, [r7, #4]
 329 0018 1B09     		lsrs	r3, r3, #4
 330              		.loc 1 296 51
 331 001a 0121     		movs	r1, #1
 332 001c 01FA03F3 		lsl	r3, r1, r3
 333              		.loc 1 296 18
 334 0020 0A49     		ldr	r1, .L16
ARM GAS  /var/folders/yl/_q9l42k90g1g4mdhbs226msm0000gn/T//cckzC73U.s 			page 12


 335 0022 1343     		orrs	r3, r3, r2
 336 0024 4B60     		str	r3, [r1, #4]
 297:./Library/stm32f4xx_dac.c ****   }
 298:./Library/stm32f4xx_dac.c ****   else
 299:./Library/stm32f4xx_dac.c ****   {
 300:./Library/stm32f4xx_dac.c ****     /* Disable software trigger for the selected DAC channel */
 301:./Library/stm32f4xx_dac.c ****     DAC->SWTRIGR &= ~((uint32_t)DAC_SWTRIGR_SWTRIG1 << (DAC_Channel >> 4));
 302:./Library/stm32f4xx_dac.c ****   }
 303:./Library/stm32f4xx_dac.c **** }
 337              		.loc 1 303 1
 338 0026 0AE0     		b	.L15
 339              	.L13:
 301:./Library/stm32f4xx_dac.c ****   }
 340              		.loc 1 301 18
 341 0028 084B     		ldr	r3, .L16
 342 002a 5A68     		ldr	r2, [r3, #4]
 301:./Library/stm32f4xx_dac.c ****   }
 343              		.loc 1 301 69
 344 002c 7B68     		ldr	r3, [r7, #4]
 345 002e 1B09     		lsrs	r3, r3, #4
 301:./Library/stm32f4xx_dac.c ****   }
 346              		.loc 1 301 53
 347 0030 0121     		movs	r1, #1
 348 0032 01FA03F3 		lsl	r3, r1, r3
 301:./Library/stm32f4xx_dac.c ****   }
 349              		.loc 1 301 21
 350 0036 DB43     		mvns	r3, r3
 301:./Library/stm32f4xx_dac.c ****   }
 351              		.loc 1 301 18
 352 0038 0449     		ldr	r1, .L16
 353 003a 1340     		ands	r3, r3, r2
 354 003c 4B60     		str	r3, [r1, #4]
 355              	.L15:
 356              		.loc 1 303 1
 357 003e 00BF     		nop
 358 0040 0C37     		adds	r7, r7, #12
 359              	.LCFI23:
 360              		.cfi_def_cfa_offset 4
 361 0042 BD46     		mov	sp, r7
 362              	.LCFI24:
 363              		.cfi_def_cfa_register 13
 364              		@ sp needed
 365 0044 5DF8047B 		ldr	r7, [sp], #4
 366              	.LCFI25:
 367              		.cfi_restore 7
 368              		.cfi_def_cfa_offset 0
 369 0048 7047     		bx	lr
 370              	.L17:
 371 004a 00BF     		.align	2
 372              	.L16:
 373 004c 00740040 		.word	1073771520
 374              		.cfi_endproc
 375              	.LFE127:
 377              		.section	.text.DAC_DualSoftwareTriggerCmd,"ax",%progbits
 378              		.align	1
 379              		.global	DAC_DualSoftwareTriggerCmd
 380              		.syntax unified
ARM GAS  /var/folders/yl/_q9l42k90g1g4mdhbs226msm0000gn/T//cckzC73U.s 			page 13


 381              		.thumb
 382              		.thumb_func
 384              	DAC_DualSoftwareTriggerCmd:
 385              	.LFB128:
 304:./Library/stm32f4xx_dac.c **** 
 305:./Library/stm32f4xx_dac.c **** /**
 306:./Library/stm32f4xx_dac.c ****   * @brief  Enables or disables simultaneously the two DAC channels software triggers.
 307:./Library/stm32f4xx_dac.c ****   * @param  NewState: new state of the DAC channels software triggers.
 308:./Library/stm32f4xx_dac.c ****   *          This parameter can be: ENABLE or DISABLE.
 309:./Library/stm32f4xx_dac.c ****   * @retval None
 310:./Library/stm32f4xx_dac.c ****   */
 311:./Library/stm32f4xx_dac.c **** void DAC_DualSoftwareTriggerCmd(FunctionalState NewState)
 312:./Library/stm32f4xx_dac.c **** {
 386              		.loc 1 312 1
 387              		.cfi_startproc
 388              		@ args = 0, pretend = 0, frame = 8
 389              		@ frame_needed = 1, uses_anonymous_args = 0
 390              		@ link register save eliminated.
 391 0000 80B4     		push	{r7}
 392              	.LCFI26:
 393              		.cfi_def_cfa_offset 4
 394              		.cfi_offset 7, -4
 395 0002 83B0     		sub	sp, sp, #12
 396              	.LCFI27:
 397              		.cfi_def_cfa_offset 16
 398 0004 00AF     		add	r7, sp, #0
 399              	.LCFI28:
 400              		.cfi_def_cfa_register 7
 401 0006 0346     		mov	r3, r0
 402 0008 FB71     		strb	r3, [r7, #7]
 313:./Library/stm32f4xx_dac.c ****   /* Check the parameters */
 314:./Library/stm32f4xx_dac.c ****   assert_param(IS_FUNCTIONAL_STATE(NewState));
 315:./Library/stm32f4xx_dac.c **** 
 316:./Library/stm32f4xx_dac.c ****   if (NewState != DISABLE)
 403              		.loc 1 316 6
 404 000a FB79     		ldrb	r3, [r7, #7]	@ zero_extendqisi2
 405 000c 002B     		cmp	r3, #0
 406 000e 06D0     		beq	.L19
 317:./Library/stm32f4xx_dac.c ****   {
 318:./Library/stm32f4xx_dac.c ****     /* Enable software trigger for both DAC channels */
 319:./Library/stm32f4xx_dac.c ****     DAC->SWTRIGR |= DUAL_SWTRIG_SET;
 407              		.loc 1 319 18
 408 0010 094B     		ldr	r3, .L22
 409 0012 5B68     		ldr	r3, [r3, #4]
 410 0014 084A     		ldr	r2, .L22
 411 0016 43F00303 		orr	r3, r3, #3
 412 001a 5360     		str	r3, [r2, #4]
 320:./Library/stm32f4xx_dac.c ****   }
 321:./Library/stm32f4xx_dac.c ****   else
 322:./Library/stm32f4xx_dac.c ****   {
 323:./Library/stm32f4xx_dac.c ****     /* Disable software trigger for both DAC channels */
 324:./Library/stm32f4xx_dac.c ****     DAC->SWTRIGR &= DUAL_SWTRIG_RESET;
 325:./Library/stm32f4xx_dac.c ****   }
 326:./Library/stm32f4xx_dac.c **** }
 413              		.loc 1 326 1
 414 001c 05E0     		b	.L21
 415              	.L19:
ARM GAS  /var/folders/yl/_q9l42k90g1g4mdhbs226msm0000gn/T//cckzC73U.s 			page 14


 324:./Library/stm32f4xx_dac.c ****   }
 416              		.loc 1 324 18
 417 001e 064B     		ldr	r3, .L22
 418 0020 5B68     		ldr	r3, [r3, #4]
 419 0022 054A     		ldr	r2, .L22
 420 0024 23F00303 		bic	r3, r3, #3
 421 0028 5360     		str	r3, [r2, #4]
 422              	.L21:
 423              		.loc 1 326 1
 424 002a 00BF     		nop
 425 002c 0C37     		adds	r7, r7, #12
 426              	.LCFI29:
 427              		.cfi_def_cfa_offset 4
 428 002e BD46     		mov	sp, r7
 429              	.LCFI30:
 430              		.cfi_def_cfa_register 13
 431              		@ sp needed
 432 0030 5DF8047B 		ldr	r7, [sp], #4
 433              	.LCFI31:
 434              		.cfi_restore 7
 435              		.cfi_def_cfa_offset 0
 436 0034 7047     		bx	lr
 437              	.L23:
 438 0036 00BF     		.align	2
 439              	.L22:
 440 0038 00740040 		.word	1073771520
 441              		.cfi_endproc
 442              	.LFE128:
 444              		.section	.text.DAC_WaveGenerationCmd,"ax",%progbits
 445              		.align	1
 446              		.global	DAC_WaveGenerationCmd
 447              		.syntax unified
 448              		.thumb
 449              		.thumb_func
 451              	DAC_WaveGenerationCmd:
 452              	.LFB129:
 327:./Library/stm32f4xx_dac.c **** 
 328:./Library/stm32f4xx_dac.c **** /**
 329:./Library/stm32f4xx_dac.c ****   * @brief  Enables or disables the selected DAC channel wave generation.
 330:./Library/stm32f4xx_dac.c ****   * @param  DAC_Channel: The selected DAC channel. 
 331:./Library/stm32f4xx_dac.c ****   *          This parameter can be one of the following values:
 332:./Library/stm32f4xx_dac.c ****   *            @arg DAC_Channel_1: DAC Channel1 selected
 333:./Library/stm32f4xx_dac.c ****   *            @arg DAC_Channel_2: DAC Channel2 selected
 334:./Library/stm32f4xx_dac.c ****   * @param  DAC_Wave: specifies the wave type to enable or disable.
 335:./Library/stm32f4xx_dac.c ****   *          This parameter can be one of the following values:
 336:./Library/stm32f4xx_dac.c ****   *            @arg DAC_Wave_Noise: noise wave generation
 337:./Library/stm32f4xx_dac.c ****   *            @arg DAC_Wave_Triangle: triangle wave generation
 338:./Library/stm32f4xx_dac.c ****   * @param  NewState: new state of the selected DAC channel wave generation.
 339:./Library/stm32f4xx_dac.c ****   *          This parameter can be: ENABLE or DISABLE.  
 340:./Library/stm32f4xx_dac.c ****   * @retval None
 341:./Library/stm32f4xx_dac.c ****   */
 342:./Library/stm32f4xx_dac.c **** void DAC_WaveGenerationCmd(uint32_t DAC_Channel, uint32_t DAC_Wave, FunctionalState NewState)
 343:./Library/stm32f4xx_dac.c **** {
 453              		.loc 1 343 1
 454              		.cfi_startproc
 455              		@ args = 0, pretend = 0, frame = 16
 456              		@ frame_needed = 1, uses_anonymous_args = 0
ARM GAS  /var/folders/yl/_q9l42k90g1g4mdhbs226msm0000gn/T//cckzC73U.s 			page 15


 457              		@ link register save eliminated.
 458 0000 80B4     		push	{r7}
 459              	.LCFI32:
 460              		.cfi_def_cfa_offset 4
 461              		.cfi_offset 7, -4
 462 0002 85B0     		sub	sp, sp, #20
 463              	.LCFI33:
 464              		.cfi_def_cfa_offset 24
 465 0004 00AF     		add	r7, sp, #0
 466              	.LCFI34:
 467              		.cfi_def_cfa_register 7
 468 0006 F860     		str	r0, [r7, #12]
 469 0008 B960     		str	r1, [r7, #8]
 470 000a 1346     		mov	r3, r2
 471 000c FB71     		strb	r3, [r7, #7]
 344:./Library/stm32f4xx_dac.c ****   /* Check the parameters */
 345:./Library/stm32f4xx_dac.c ****   assert_param(IS_DAC_CHANNEL(DAC_Channel));
 346:./Library/stm32f4xx_dac.c ****   assert_param(IS_DAC_WAVE(DAC_Wave)); 
 347:./Library/stm32f4xx_dac.c ****   assert_param(IS_FUNCTIONAL_STATE(NewState));
 348:./Library/stm32f4xx_dac.c **** 
 349:./Library/stm32f4xx_dac.c ****   if (NewState != DISABLE)
 472              		.loc 1 349 6
 473 000e FB79     		ldrb	r3, [r7, #7]	@ zero_extendqisi2
 474 0010 002B     		cmp	r3, #0
 475 0012 09D0     		beq	.L25
 350:./Library/stm32f4xx_dac.c ****   {
 351:./Library/stm32f4xx_dac.c ****     /* Enable the selected wave generation for the selected DAC channel */
 352:./Library/stm32f4xx_dac.c ****     DAC->CR |= DAC_Wave << DAC_Channel;
 476              		.loc 1 352 13
 477 0014 0C4B     		ldr	r3, .L28
 478 0016 1A68     		ldr	r2, [r3]
 479              		.loc 1 352 25
 480 0018 B968     		ldr	r1, [r7, #8]
 481 001a FB68     		ldr	r3, [r7, #12]
 482 001c 01FA03F3 		lsl	r3, r1, r3
 483              		.loc 1 352 13
 484 0020 0949     		ldr	r1, .L28
 485 0022 1343     		orrs	r3, r3, r2
 486 0024 0B60     		str	r3, [r1]
 353:./Library/stm32f4xx_dac.c ****   }
 354:./Library/stm32f4xx_dac.c ****   else
 355:./Library/stm32f4xx_dac.c ****   {
 356:./Library/stm32f4xx_dac.c ****     /* Disable the selected wave generation for the selected DAC channel */
 357:./Library/stm32f4xx_dac.c ****     DAC->CR &= ~(DAC_Wave << DAC_Channel);
 358:./Library/stm32f4xx_dac.c ****   }
 359:./Library/stm32f4xx_dac.c **** }
 487              		.loc 1 359 1
 488 0026 09E0     		b	.L27
 489              	.L25:
 357:./Library/stm32f4xx_dac.c ****   }
 490              		.loc 1 357 13
 491 0028 074B     		ldr	r3, .L28
 492 002a 1A68     		ldr	r2, [r3]
 357:./Library/stm32f4xx_dac.c ****   }
 493              		.loc 1 357 27
 494 002c B968     		ldr	r1, [r7, #8]
 495 002e FB68     		ldr	r3, [r7, #12]
ARM GAS  /var/folders/yl/_q9l42k90g1g4mdhbs226msm0000gn/T//cckzC73U.s 			page 16


 496 0030 01FA03F3 		lsl	r3, r1, r3
 357:./Library/stm32f4xx_dac.c ****   }
 497              		.loc 1 357 16
 498 0034 DB43     		mvns	r3, r3
 357:./Library/stm32f4xx_dac.c ****   }
 499              		.loc 1 357 13
 500 0036 0449     		ldr	r1, .L28
 501 0038 1340     		ands	r3, r3, r2
 502 003a 0B60     		str	r3, [r1]
 503              	.L27:
 504              		.loc 1 359 1
 505 003c 00BF     		nop
 506 003e 1437     		adds	r7, r7, #20
 507              	.LCFI35:
 508              		.cfi_def_cfa_offset 4
 509 0040 BD46     		mov	sp, r7
 510              	.LCFI36:
 511              		.cfi_def_cfa_register 13
 512              		@ sp needed
 513 0042 5DF8047B 		ldr	r7, [sp], #4
 514              	.LCFI37:
 515              		.cfi_restore 7
 516              		.cfi_def_cfa_offset 0
 517 0046 7047     		bx	lr
 518              	.L29:
 519              		.align	2
 520              	.L28:
 521 0048 00740040 		.word	1073771520
 522              		.cfi_endproc
 523              	.LFE129:
 525              		.section	.text.DAC_SetChannel1Data,"ax",%progbits
 526              		.align	1
 527              		.global	DAC_SetChannel1Data
 528              		.syntax unified
 529              		.thumb
 530              		.thumb_func
 532              	DAC_SetChannel1Data:
 533              	.LFB130:
 360:./Library/stm32f4xx_dac.c **** 
 361:./Library/stm32f4xx_dac.c **** /**
 362:./Library/stm32f4xx_dac.c ****   * @brief  Set the specified data holding register value for DAC channel1.
 363:./Library/stm32f4xx_dac.c ****   * @param  DAC_Align: Specifies the data alignment for DAC channel1.
 364:./Library/stm32f4xx_dac.c ****   *          This parameter can be one of the following values:
 365:./Library/stm32f4xx_dac.c ****   *            @arg DAC_Align_8b_R: 8bit right data alignment selected
 366:./Library/stm32f4xx_dac.c ****   *            @arg DAC_Align_12b_L: 12bit left data alignment selected
 367:./Library/stm32f4xx_dac.c ****   *            @arg DAC_Align_12b_R: 12bit right data alignment selected
 368:./Library/stm32f4xx_dac.c ****   * @param  Data: Data to be loaded in the selected data holding register.
 369:./Library/stm32f4xx_dac.c ****   * @retval None
 370:./Library/stm32f4xx_dac.c ****   */
 371:./Library/stm32f4xx_dac.c **** void DAC_SetChannel1Data(uint32_t DAC_Align, uint16_t Data)
 372:./Library/stm32f4xx_dac.c **** {  
 534              		.loc 1 372 1
 535              		.cfi_startproc
 536              		@ args = 0, pretend = 0, frame = 16
 537              		@ frame_needed = 1, uses_anonymous_args = 0
 538              		@ link register save eliminated.
 539 0000 80B4     		push	{r7}
ARM GAS  /var/folders/yl/_q9l42k90g1g4mdhbs226msm0000gn/T//cckzC73U.s 			page 17


 540              	.LCFI38:
 541              		.cfi_def_cfa_offset 4
 542              		.cfi_offset 7, -4
 543 0002 85B0     		sub	sp, sp, #20
 544              	.LCFI39:
 545              		.cfi_def_cfa_offset 24
 546 0004 00AF     		add	r7, sp, #0
 547              	.LCFI40:
 548              		.cfi_def_cfa_register 7
 549 0006 7860     		str	r0, [r7, #4]
 550 0008 0B46     		mov	r3, r1
 551 000a 7B80     		strh	r3, [r7, #2]	@ movhi
 373:./Library/stm32f4xx_dac.c ****   __IO uint32_t tmp = 0;
 552              		.loc 1 373 17
 553 000c 0023     		movs	r3, #0
 554 000e FB60     		str	r3, [r7, #12]
 374:./Library/stm32f4xx_dac.c ****   
 375:./Library/stm32f4xx_dac.c ****   /* Check the parameters */
 376:./Library/stm32f4xx_dac.c ****   assert_param(IS_DAC_ALIGN(DAC_Align));
 377:./Library/stm32f4xx_dac.c ****   assert_param(IS_DAC_DATA(Data));
 378:./Library/stm32f4xx_dac.c ****   
 379:./Library/stm32f4xx_dac.c ****   tmp = (uint32_t)DAC_BASE; 
 555              		.loc 1 379 7
 556 0010 084B     		ldr	r3, .L31
 557 0012 FB60     		str	r3, [r7, #12]
 380:./Library/stm32f4xx_dac.c ****   tmp += DHR12R1_OFFSET + DAC_Align;
 558              		.loc 1 380 7
 559 0014 FA68     		ldr	r2, [r7, #12]
 560 0016 7B68     		ldr	r3, [r7, #4]
 561 0018 1344     		add	r3, r3, r2
 562 001a 0833     		adds	r3, r3, #8
 563 001c FB60     		str	r3, [r7, #12]
 381:./Library/stm32f4xx_dac.c **** 
 382:./Library/stm32f4xx_dac.c ****   /* Set the DAC channel1 selected data holding register */
 383:./Library/stm32f4xx_dac.c ****   *(__IO uint32_t *) tmp = Data;
 564              		.loc 1 383 4
 565 001e FB68     		ldr	r3, [r7, #12]
 566 0020 1A46     		mov	r2, r3
 567              		.loc 1 383 26
 568 0022 7B88     		ldrh	r3, [r7, #2]
 569 0024 1360     		str	r3, [r2]
 384:./Library/stm32f4xx_dac.c **** }
 570              		.loc 1 384 1
 571 0026 00BF     		nop
 572 0028 1437     		adds	r7, r7, #20
 573              	.LCFI41:
 574              		.cfi_def_cfa_offset 4
 575 002a BD46     		mov	sp, r7
 576              	.LCFI42:
 577              		.cfi_def_cfa_register 13
 578              		@ sp needed
 579 002c 5DF8047B 		ldr	r7, [sp], #4
 580              	.LCFI43:
 581              		.cfi_restore 7
 582              		.cfi_def_cfa_offset 0
 583 0030 7047     		bx	lr
 584              	.L32:
ARM GAS  /var/folders/yl/_q9l42k90g1g4mdhbs226msm0000gn/T//cckzC73U.s 			page 18


 585 0032 00BF     		.align	2
 586              	.L31:
 587 0034 00740040 		.word	1073771520
 588              		.cfi_endproc
 589              	.LFE130:
 591              		.section	.text.DAC_SetChannel2Data,"ax",%progbits
 592              		.align	1
 593              		.global	DAC_SetChannel2Data
 594              		.syntax unified
 595              		.thumb
 596              		.thumb_func
 598              	DAC_SetChannel2Data:
 599              	.LFB131:
 385:./Library/stm32f4xx_dac.c **** 
 386:./Library/stm32f4xx_dac.c **** /**
 387:./Library/stm32f4xx_dac.c ****   * @brief  Set the specified data holding register value for DAC channel2.
 388:./Library/stm32f4xx_dac.c ****   * @param  DAC_Align: Specifies the data alignment for DAC channel2.
 389:./Library/stm32f4xx_dac.c ****   *          This parameter can be one of the following values:
 390:./Library/stm32f4xx_dac.c ****   *            @arg DAC_Align_8b_R: 8bit right data alignment selected
 391:./Library/stm32f4xx_dac.c ****   *            @arg DAC_Align_12b_L: 12bit left data alignment selected
 392:./Library/stm32f4xx_dac.c ****   *            @arg DAC_Align_12b_R: 12bit right data alignment selected
 393:./Library/stm32f4xx_dac.c ****   * @param  Data: Data to be loaded in the selected data holding register.
 394:./Library/stm32f4xx_dac.c ****   * @retval None
 395:./Library/stm32f4xx_dac.c ****   */
 396:./Library/stm32f4xx_dac.c **** void DAC_SetChannel2Data(uint32_t DAC_Align, uint16_t Data)
 397:./Library/stm32f4xx_dac.c **** {
 600              		.loc 1 397 1
 601              		.cfi_startproc
 602              		@ args = 0, pretend = 0, frame = 16
 603              		@ frame_needed = 1, uses_anonymous_args = 0
 604              		@ link register save eliminated.
 605 0000 80B4     		push	{r7}
 606              	.LCFI44:
 607              		.cfi_def_cfa_offset 4
 608              		.cfi_offset 7, -4
 609 0002 85B0     		sub	sp, sp, #20
 610              	.LCFI45:
 611              		.cfi_def_cfa_offset 24
 612 0004 00AF     		add	r7, sp, #0
 613              	.LCFI46:
 614              		.cfi_def_cfa_register 7
 615 0006 7860     		str	r0, [r7, #4]
 616 0008 0B46     		mov	r3, r1
 617 000a 7B80     		strh	r3, [r7, #2]	@ movhi
 398:./Library/stm32f4xx_dac.c ****   __IO uint32_t tmp = 0;
 618              		.loc 1 398 17
 619 000c 0023     		movs	r3, #0
 620 000e FB60     		str	r3, [r7, #12]
 399:./Library/stm32f4xx_dac.c **** 
 400:./Library/stm32f4xx_dac.c ****   /* Check the parameters */
 401:./Library/stm32f4xx_dac.c ****   assert_param(IS_DAC_ALIGN(DAC_Align));
 402:./Library/stm32f4xx_dac.c ****   assert_param(IS_DAC_DATA(Data));
 403:./Library/stm32f4xx_dac.c ****   
 404:./Library/stm32f4xx_dac.c ****   tmp = (uint32_t)DAC_BASE;
 621              		.loc 1 404 7
 622 0010 084B     		ldr	r3, .L34
 623 0012 FB60     		str	r3, [r7, #12]
ARM GAS  /var/folders/yl/_q9l42k90g1g4mdhbs226msm0000gn/T//cckzC73U.s 			page 19


 405:./Library/stm32f4xx_dac.c ****   tmp += DHR12R2_OFFSET + DAC_Align;
 624              		.loc 1 405 7
 625 0014 FA68     		ldr	r2, [r7, #12]
 626 0016 7B68     		ldr	r3, [r7, #4]
 627 0018 1344     		add	r3, r3, r2
 628 001a 1433     		adds	r3, r3, #20
 629 001c FB60     		str	r3, [r7, #12]
 406:./Library/stm32f4xx_dac.c **** 
 407:./Library/stm32f4xx_dac.c ****   /* Set the DAC channel2 selected data holding register */
 408:./Library/stm32f4xx_dac.c ****   *(__IO uint32_t *)tmp = Data;
 630              		.loc 1 408 4
 631 001e FB68     		ldr	r3, [r7, #12]
 632 0020 1A46     		mov	r2, r3
 633              		.loc 1 408 25
 634 0022 7B88     		ldrh	r3, [r7, #2]
 635 0024 1360     		str	r3, [r2]
 409:./Library/stm32f4xx_dac.c **** }
 636              		.loc 1 409 1
 637 0026 00BF     		nop
 638 0028 1437     		adds	r7, r7, #20
 639              	.LCFI47:
 640              		.cfi_def_cfa_offset 4
 641 002a BD46     		mov	sp, r7
 642              	.LCFI48:
 643              		.cfi_def_cfa_register 13
 644              		@ sp needed
 645 002c 5DF8047B 		ldr	r7, [sp], #4
 646              	.LCFI49:
 647              		.cfi_restore 7
 648              		.cfi_def_cfa_offset 0
 649 0030 7047     		bx	lr
 650              	.L35:
 651 0032 00BF     		.align	2
 652              	.L34:
 653 0034 00740040 		.word	1073771520
 654              		.cfi_endproc
 655              	.LFE131:
 657              		.section	.text.DAC_SetDualChannelData,"ax",%progbits
 658              		.align	1
 659              		.global	DAC_SetDualChannelData
 660              		.syntax unified
 661              		.thumb
 662              		.thumb_func
 664              	DAC_SetDualChannelData:
 665              	.LFB132:
 410:./Library/stm32f4xx_dac.c **** 
 411:./Library/stm32f4xx_dac.c **** /**
 412:./Library/stm32f4xx_dac.c ****   * @brief  Set the specified data holding register value for dual channel DAC.
 413:./Library/stm32f4xx_dac.c ****   * @param  DAC_Align: Specifies the data alignment for dual channel DAC.
 414:./Library/stm32f4xx_dac.c ****   *          This parameter can be one of the following values:
 415:./Library/stm32f4xx_dac.c ****   *            @arg DAC_Align_8b_R: 8bit right data alignment selected
 416:./Library/stm32f4xx_dac.c ****   *            @arg DAC_Align_12b_L: 12bit left data alignment selected
 417:./Library/stm32f4xx_dac.c ****   *            @arg DAC_Align_12b_R: 12bit right data alignment selected
 418:./Library/stm32f4xx_dac.c ****   * @param  Data2: Data for DAC Channel2 to be loaded in the selected data holding register.
 419:./Library/stm32f4xx_dac.c ****   * @param  Data1: Data for DAC Channel1 to be loaded in the selected data  holding register.
 420:./Library/stm32f4xx_dac.c ****   * @note   In dual mode, a unique register access is required to write in both
 421:./Library/stm32f4xx_dac.c ****   *          DAC channels at the same time.
ARM GAS  /var/folders/yl/_q9l42k90g1g4mdhbs226msm0000gn/T//cckzC73U.s 			page 20


 422:./Library/stm32f4xx_dac.c ****   * @retval None
 423:./Library/stm32f4xx_dac.c ****   */
 424:./Library/stm32f4xx_dac.c **** void DAC_SetDualChannelData(uint32_t DAC_Align, uint16_t Data2, uint16_t Data1)
 425:./Library/stm32f4xx_dac.c **** {
 666              		.loc 1 425 1
 667              		.cfi_startproc
 668              		@ args = 0, pretend = 0, frame = 16
 669              		@ frame_needed = 1, uses_anonymous_args = 0
 670              		@ link register save eliminated.
 671 0000 80B4     		push	{r7}
 672              	.LCFI50:
 673              		.cfi_def_cfa_offset 4
 674              		.cfi_offset 7, -4
 675 0002 85B0     		sub	sp, sp, #20
 676              	.LCFI51:
 677              		.cfi_def_cfa_offset 24
 678 0004 00AF     		add	r7, sp, #0
 679              	.LCFI52:
 680              		.cfi_def_cfa_register 7
 681 0006 7860     		str	r0, [r7, #4]
 682 0008 0B46     		mov	r3, r1
 683 000a 7B80     		strh	r3, [r7, #2]	@ movhi
 684 000c 1346     		mov	r3, r2	@ movhi
 685 000e 3B80     		strh	r3, [r7]	@ movhi
 426:./Library/stm32f4xx_dac.c ****   uint32_t data = 0, tmp = 0;
 686              		.loc 1 426 12
 687 0010 0023     		movs	r3, #0
 688 0012 FB60     		str	r3, [r7, #12]
 689              		.loc 1 426 22
 690 0014 0023     		movs	r3, #0
 691 0016 BB60     		str	r3, [r7, #8]
 427:./Library/stm32f4xx_dac.c ****   
 428:./Library/stm32f4xx_dac.c ****   /* Check the parameters */
 429:./Library/stm32f4xx_dac.c ****   assert_param(IS_DAC_ALIGN(DAC_Align));
 430:./Library/stm32f4xx_dac.c ****   assert_param(IS_DAC_DATA(Data1));
 431:./Library/stm32f4xx_dac.c ****   assert_param(IS_DAC_DATA(Data2));
 432:./Library/stm32f4xx_dac.c ****   
 433:./Library/stm32f4xx_dac.c ****   /* Calculate and set dual DAC data holding register value */
 434:./Library/stm32f4xx_dac.c ****   if (DAC_Align == DAC_Align_8b_R)
 692              		.loc 1 434 6
 693 0018 7B68     		ldr	r3, [r7, #4]
 694 001a 082B     		cmp	r3, #8
 695 001c 05D1     		bne	.L37
 435:./Library/stm32f4xx_dac.c ****   {
 436:./Library/stm32f4xx_dac.c ****     data = ((uint32_t)Data2 << 8) | Data1; 
 696              		.loc 1 436 13
 697 001e 7B88     		ldrh	r3, [r7, #2]
 698              		.loc 1 436 29
 699 0020 1A02     		lsls	r2, r3, #8
 700              		.loc 1 436 35
 701 0022 3B88     		ldrh	r3, [r7]
 702              		.loc 1 436 10
 703 0024 1343     		orrs	r3, r3, r2
 704 0026 FB60     		str	r3, [r7, #12]
 705 0028 04E0     		b	.L38
 706              	.L37:
 437:./Library/stm32f4xx_dac.c ****   }
ARM GAS  /var/folders/yl/_q9l42k90g1g4mdhbs226msm0000gn/T//cckzC73U.s 			page 21


 438:./Library/stm32f4xx_dac.c ****   else
 439:./Library/stm32f4xx_dac.c ****   {
 440:./Library/stm32f4xx_dac.c ****     data = ((uint32_t)Data2 << 16) | Data1;
 707              		.loc 1 440 13
 708 002a 7B88     		ldrh	r3, [r7, #2]
 709              		.loc 1 440 29
 710 002c 1A04     		lsls	r2, r3, #16
 711              		.loc 1 440 36
 712 002e 3B88     		ldrh	r3, [r7]
 713              		.loc 1 440 10
 714 0030 1343     		orrs	r3, r3, r2
 715 0032 FB60     		str	r3, [r7, #12]
 716              	.L38:
 441:./Library/stm32f4xx_dac.c ****   }
 442:./Library/stm32f4xx_dac.c ****   
 443:./Library/stm32f4xx_dac.c ****   tmp = (uint32_t)DAC_BASE;
 717              		.loc 1 443 7
 718 0034 074B     		ldr	r3, .L39
 719 0036 BB60     		str	r3, [r7, #8]
 444:./Library/stm32f4xx_dac.c ****   tmp += DHR12RD_OFFSET + DAC_Align;
 720              		.loc 1 444 7
 721 0038 7A68     		ldr	r2, [r7, #4]
 722 003a BB68     		ldr	r3, [r7, #8]
 723 003c 1344     		add	r3, r3, r2
 724 003e 2033     		adds	r3, r3, #32
 725 0040 BB60     		str	r3, [r7, #8]
 445:./Library/stm32f4xx_dac.c **** 
 446:./Library/stm32f4xx_dac.c ****   /* Set the dual DAC selected data holding register */
 447:./Library/stm32f4xx_dac.c ****   *(__IO uint32_t *)tmp = data;
 726              		.loc 1 447 4
 727 0042 BB68     		ldr	r3, [r7, #8]
 728              		.loc 1 447 25
 729 0044 FA68     		ldr	r2, [r7, #12]
 730 0046 1A60     		str	r2, [r3]
 448:./Library/stm32f4xx_dac.c **** }
 731              		.loc 1 448 1
 732 0048 00BF     		nop
 733 004a 1437     		adds	r7, r7, #20
 734              	.LCFI53:
 735              		.cfi_def_cfa_offset 4
 736 004c BD46     		mov	sp, r7
 737              	.LCFI54:
 738              		.cfi_def_cfa_register 13
 739              		@ sp needed
 740 004e 5DF8047B 		ldr	r7, [sp], #4
 741              	.LCFI55:
 742              		.cfi_restore 7
 743              		.cfi_def_cfa_offset 0
 744 0052 7047     		bx	lr
 745              	.L40:
 746              		.align	2
 747              	.L39:
 748 0054 00740040 		.word	1073771520
 749              		.cfi_endproc
 750              	.LFE132:
 752              		.section	.text.DAC_GetDataOutputValue,"ax",%progbits
 753              		.align	1
ARM GAS  /var/folders/yl/_q9l42k90g1g4mdhbs226msm0000gn/T//cckzC73U.s 			page 22


 754              		.global	DAC_GetDataOutputValue
 755              		.syntax unified
 756              		.thumb
 757              		.thumb_func
 759              	DAC_GetDataOutputValue:
 760              	.LFB133:
 449:./Library/stm32f4xx_dac.c **** 
 450:./Library/stm32f4xx_dac.c **** /**
 451:./Library/stm32f4xx_dac.c ****   * @brief  Returns the last data output value of the selected DAC channel.
 452:./Library/stm32f4xx_dac.c ****   * @param  DAC_Channel: The selected DAC channel. 
 453:./Library/stm32f4xx_dac.c ****   *          This parameter can be one of the following values:
 454:./Library/stm32f4xx_dac.c ****   *            @arg DAC_Channel_1: DAC Channel1 selected
 455:./Library/stm32f4xx_dac.c ****   *            @arg DAC_Channel_2: DAC Channel2 selected
 456:./Library/stm32f4xx_dac.c ****   * @retval The selected DAC channel data output value.
 457:./Library/stm32f4xx_dac.c ****   */
 458:./Library/stm32f4xx_dac.c **** uint16_t DAC_GetDataOutputValue(uint32_t DAC_Channel)
 459:./Library/stm32f4xx_dac.c **** {
 761              		.loc 1 459 1
 762              		.cfi_startproc
 763              		@ args = 0, pretend = 0, frame = 16
 764              		@ frame_needed = 1, uses_anonymous_args = 0
 765              		@ link register save eliminated.
 766 0000 80B4     		push	{r7}
 767              	.LCFI56:
 768              		.cfi_def_cfa_offset 4
 769              		.cfi_offset 7, -4
 770 0002 85B0     		sub	sp, sp, #20
 771              	.LCFI57:
 772              		.cfi_def_cfa_offset 24
 773 0004 00AF     		add	r7, sp, #0
 774              	.LCFI58:
 775              		.cfi_def_cfa_register 7
 776 0006 7860     		str	r0, [r7, #4]
 460:./Library/stm32f4xx_dac.c ****   __IO uint32_t tmp = 0;
 777              		.loc 1 460 17
 778 0008 0023     		movs	r3, #0
 779 000a FB60     		str	r3, [r7, #12]
 461:./Library/stm32f4xx_dac.c ****   
 462:./Library/stm32f4xx_dac.c ****   /* Check the parameters */
 463:./Library/stm32f4xx_dac.c ****   assert_param(IS_DAC_CHANNEL(DAC_Channel));
 464:./Library/stm32f4xx_dac.c ****   
 465:./Library/stm32f4xx_dac.c ****   tmp = (uint32_t) DAC_BASE ;
 780              		.loc 1 465 7
 781 000c 084B     		ldr	r3, .L43
 782 000e FB60     		str	r3, [r7, #12]
 466:./Library/stm32f4xx_dac.c ****   tmp += DOR_OFFSET + ((uint32_t)DAC_Channel >> 2);
 783              		.loc 1 466 46
 784 0010 7B68     		ldr	r3, [r7, #4]
 785 0012 9A08     		lsrs	r2, r3, #2
 786              		.loc 1 466 7
 787 0014 FB68     		ldr	r3, [r7, #12]
 788 0016 1344     		add	r3, r3, r2
 789 0018 2C33     		adds	r3, r3, #44
 790 001a FB60     		str	r3, [r7, #12]
 467:./Library/stm32f4xx_dac.c ****   
 468:./Library/stm32f4xx_dac.c ****   /* Returns the DAC channel data output register value */
 469:./Library/stm32f4xx_dac.c ****   return (uint16_t) (*(__IO uint32_t*) tmp);
ARM GAS  /var/folders/yl/_q9l42k90g1g4mdhbs226msm0000gn/T//cckzC73U.s 			page 23


 791              		.loc 1 469 23
 792 001c FB68     		ldr	r3, [r7, #12]
 793              		.loc 1 469 22
 794 001e 1B68     		ldr	r3, [r3]
 795              		.loc 1 469 10
 796 0020 9BB2     		uxth	r3, r3
 470:./Library/stm32f4xx_dac.c **** }
 797              		.loc 1 470 1
 798 0022 1846     		mov	r0, r3
 799 0024 1437     		adds	r7, r7, #20
 800              	.LCFI59:
 801              		.cfi_def_cfa_offset 4
 802 0026 BD46     		mov	sp, r7
 803              	.LCFI60:
 804              		.cfi_def_cfa_register 13
 805              		@ sp needed
 806 0028 5DF8047B 		ldr	r7, [sp], #4
 807              	.LCFI61:
 808              		.cfi_restore 7
 809              		.cfi_def_cfa_offset 0
 810 002c 7047     		bx	lr
 811              	.L44:
 812 002e 00BF     		.align	2
 813              	.L43:
 814 0030 00740040 		.word	1073771520
 815              		.cfi_endproc
 816              	.LFE133:
 818              		.section	.text.DAC_DMACmd,"ax",%progbits
 819              		.align	1
 820              		.global	DAC_DMACmd
 821              		.syntax unified
 822              		.thumb
 823              		.thumb_func
 825              	DAC_DMACmd:
 826              	.LFB134:
 471:./Library/stm32f4xx_dac.c **** /**
 472:./Library/stm32f4xx_dac.c ****   * @}
 473:./Library/stm32f4xx_dac.c ****   */
 474:./Library/stm32f4xx_dac.c **** 
 475:./Library/stm32f4xx_dac.c **** /** @defgroup DAC_Group2 DMA management functions
 476:./Library/stm32f4xx_dac.c ****  *  @brief   DMA management functions
 477:./Library/stm32f4xx_dac.c ****  *
 478:./Library/stm32f4xx_dac.c **** @verbatim   
 479:./Library/stm32f4xx_dac.c ****  ===============================================================================
 480:./Library/stm32f4xx_dac.c ****                        ##### DMA management functions #####
 481:./Library/stm32f4xx_dac.c ****  ===============================================================================  
 482:./Library/stm32f4xx_dac.c **** 
 483:./Library/stm32f4xx_dac.c **** @endverbatim
 484:./Library/stm32f4xx_dac.c ****   * @{
 485:./Library/stm32f4xx_dac.c ****   */
 486:./Library/stm32f4xx_dac.c **** 
 487:./Library/stm32f4xx_dac.c **** /**
 488:./Library/stm32f4xx_dac.c ****   * @brief  Enables or disables the specified DAC channel DMA request.
 489:./Library/stm32f4xx_dac.c ****   * @note   When enabled DMA1 is generated when an external trigger (EXTI Line9,
 490:./Library/stm32f4xx_dac.c ****   *         TIM2, TIM4, TIM5, TIM6, TIM7 or TIM8  but not a software trigger) occurs.
 491:./Library/stm32f4xx_dac.c ****   * @param  DAC_Channel: The selected DAC channel. 
 492:./Library/stm32f4xx_dac.c ****   *          This parameter can be one of the following values:
ARM GAS  /var/folders/yl/_q9l42k90g1g4mdhbs226msm0000gn/T//cckzC73U.s 			page 24


 493:./Library/stm32f4xx_dac.c ****   *            @arg DAC_Channel_1: DAC Channel1 selected
 494:./Library/stm32f4xx_dac.c ****   *            @arg DAC_Channel_2: DAC Channel2 selected
 495:./Library/stm32f4xx_dac.c ****   * @param  NewState: new state of the selected DAC channel DMA request.
 496:./Library/stm32f4xx_dac.c ****   *          This parameter can be: ENABLE or DISABLE.
 497:./Library/stm32f4xx_dac.c ****   * @note   The DAC channel1 is mapped on DMA1 Stream 5 channel7 which must be
 498:./Library/stm32f4xx_dac.c ****   *          already configured.
 499:./Library/stm32f4xx_dac.c ****   * @note   The DAC channel2 is mapped on DMA1 Stream 6 channel7 which must be
 500:./Library/stm32f4xx_dac.c ****   *          already configured.    
 501:./Library/stm32f4xx_dac.c ****   * @retval None
 502:./Library/stm32f4xx_dac.c ****   */
 503:./Library/stm32f4xx_dac.c **** void DAC_DMACmd(uint32_t DAC_Channel, FunctionalState NewState)
 504:./Library/stm32f4xx_dac.c **** {
 827              		.loc 1 504 1
 828              		.cfi_startproc
 829              		@ args = 0, pretend = 0, frame = 8
 830              		@ frame_needed = 1, uses_anonymous_args = 0
 831              		@ link register save eliminated.
 832 0000 80B4     		push	{r7}
 833              	.LCFI62:
 834              		.cfi_def_cfa_offset 4
 835              		.cfi_offset 7, -4
 836 0002 83B0     		sub	sp, sp, #12
 837              	.LCFI63:
 838              		.cfi_def_cfa_offset 16
 839 0004 00AF     		add	r7, sp, #0
 840              	.LCFI64:
 841              		.cfi_def_cfa_register 7
 842 0006 7860     		str	r0, [r7, #4]
 843 0008 0B46     		mov	r3, r1
 844 000a FB70     		strb	r3, [r7, #3]
 505:./Library/stm32f4xx_dac.c ****   /* Check the parameters */
 506:./Library/stm32f4xx_dac.c ****   assert_param(IS_DAC_CHANNEL(DAC_Channel));
 507:./Library/stm32f4xx_dac.c ****   assert_param(IS_FUNCTIONAL_STATE(NewState));
 508:./Library/stm32f4xx_dac.c **** 
 509:./Library/stm32f4xx_dac.c ****   if (NewState != DISABLE)
 845              		.loc 1 509 6
 846 000c FB78     		ldrb	r3, [r7, #3]	@ zero_extendqisi2
 847 000e 002B     		cmp	r3, #0
 848 0010 0AD0     		beq	.L46
 510:./Library/stm32f4xx_dac.c ****   {
 511:./Library/stm32f4xx_dac.c ****     /* Enable the selected DAC channel DMA request */
 512:./Library/stm32f4xx_dac.c ****     DAC->CR |= (DAC_CR_DMAEN1 << DAC_Channel);
 849              		.loc 1 512 13
 850 0012 0E4B     		ldr	r3, .L49
 851 0014 1A68     		ldr	r2, [r3]
 852              		.loc 1 512 31
 853 0016 4FF48051 		mov	r1, #4096
 854 001a 7B68     		ldr	r3, [r7, #4]
 855 001c 01FA03F3 		lsl	r3, r1, r3
 856              		.loc 1 512 13
 857 0020 0A49     		ldr	r1, .L49
 858 0022 1343     		orrs	r3, r3, r2
 859 0024 0B60     		str	r3, [r1]
 513:./Library/stm32f4xx_dac.c ****   }
 514:./Library/stm32f4xx_dac.c ****   else
 515:./Library/stm32f4xx_dac.c ****   {
 516:./Library/stm32f4xx_dac.c ****     /* Disable the selected DAC channel DMA request */
ARM GAS  /var/folders/yl/_q9l42k90g1g4mdhbs226msm0000gn/T//cckzC73U.s 			page 25


 517:./Library/stm32f4xx_dac.c ****     DAC->CR &= (~(DAC_CR_DMAEN1 << DAC_Channel));
 518:./Library/stm32f4xx_dac.c ****   }
 519:./Library/stm32f4xx_dac.c **** }
 860              		.loc 1 519 1
 861 0026 0AE0     		b	.L48
 862              	.L46:
 517:./Library/stm32f4xx_dac.c ****   }
 863              		.loc 1 517 13
 864 0028 084B     		ldr	r3, .L49
 865 002a 1A68     		ldr	r2, [r3]
 517:./Library/stm32f4xx_dac.c ****   }
 866              		.loc 1 517 33
 867 002c 4FF48051 		mov	r1, #4096
 868 0030 7B68     		ldr	r3, [r7, #4]
 869 0032 01FA03F3 		lsl	r3, r1, r3
 517:./Library/stm32f4xx_dac.c ****   }
 870              		.loc 1 517 17
 871 0036 DB43     		mvns	r3, r3
 517:./Library/stm32f4xx_dac.c ****   }
 872              		.loc 1 517 13
 873 0038 0449     		ldr	r1, .L49
 874 003a 1340     		ands	r3, r3, r2
 875 003c 0B60     		str	r3, [r1]
 876              	.L48:
 877              		.loc 1 519 1
 878 003e 00BF     		nop
 879 0040 0C37     		adds	r7, r7, #12
 880              	.LCFI65:
 881              		.cfi_def_cfa_offset 4
 882 0042 BD46     		mov	sp, r7
 883              	.LCFI66:
 884              		.cfi_def_cfa_register 13
 885              		@ sp needed
 886 0044 5DF8047B 		ldr	r7, [sp], #4
 887              	.LCFI67:
 888              		.cfi_restore 7
 889              		.cfi_def_cfa_offset 0
 890 0048 7047     		bx	lr
 891              	.L50:
 892 004a 00BF     		.align	2
 893              	.L49:
 894 004c 00740040 		.word	1073771520
 895              		.cfi_endproc
 896              	.LFE134:
 898              		.section	.text.DAC_ITConfig,"ax",%progbits
 899              		.align	1
 900              		.global	DAC_ITConfig
 901              		.syntax unified
 902              		.thumb
 903              		.thumb_func
 905              	DAC_ITConfig:
 906              	.LFB135:
 520:./Library/stm32f4xx_dac.c **** /**
 521:./Library/stm32f4xx_dac.c ****   * @}
 522:./Library/stm32f4xx_dac.c ****   */
 523:./Library/stm32f4xx_dac.c **** 
 524:./Library/stm32f4xx_dac.c **** /** @defgroup DAC_Group3 Interrupts and flags management functions
ARM GAS  /var/folders/yl/_q9l42k90g1g4mdhbs226msm0000gn/T//cckzC73U.s 			page 26


 525:./Library/stm32f4xx_dac.c ****  *  @brief   Interrupts and flags management functions
 526:./Library/stm32f4xx_dac.c ****  *
 527:./Library/stm32f4xx_dac.c **** @verbatim   
 528:./Library/stm32f4xx_dac.c ****  ===============================================================================
 529:./Library/stm32f4xx_dac.c ****              ##### Interrupts and flags management functions #####
 530:./Library/stm32f4xx_dac.c ****  ===============================================================================  
 531:./Library/stm32f4xx_dac.c **** 
 532:./Library/stm32f4xx_dac.c **** @endverbatim
 533:./Library/stm32f4xx_dac.c ****   * @{
 534:./Library/stm32f4xx_dac.c ****   */
 535:./Library/stm32f4xx_dac.c **** 
 536:./Library/stm32f4xx_dac.c **** /**
 537:./Library/stm32f4xx_dac.c ****   * @brief  Enables or disables the specified DAC interrupts.
 538:./Library/stm32f4xx_dac.c ****   * @param  DAC_Channel: The selected DAC channel. 
 539:./Library/stm32f4xx_dac.c ****   *          This parameter can be one of the following values:
 540:./Library/stm32f4xx_dac.c ****   *            @arg DAC_Channel_1: DAC Channel1 selected
 541:./Library/stm32f4xx_dac.c ****   *            @arg DAC_Channel_2: DAC Channel2 selected
 542:./Library/stm32f4xx_dac.c ****   * @param  DAC_IT: specifies the DAC interrupt sources to be enabled or disabled. 
 543:./Library/stm32f4xx_dac.c ****   *          This parameter can be the following values:
 544:./Library/stm32f4xx_dac.c ****   *            @arg DAC_IT_DMAUDR: DMA underrun interrupt mask
 545:./Library/stm32f4xx_dac.c ****   * @note   The DMA underrun occurs when a second external trigger arrives before the 
 546:./Library/stm32f4xx_dac.c ****   *         acknowledgement for the first external trigger is received (first request).
 547:./Library/stm32f4xx_dac.c ****   * @param  NewState: new state of the specified DAC interrupts.
 548:./Library/stm32f4xx_dac.c ****   *          This parameter can be: ENABLE or DISABLE.
 549:./Library/stm32f4xx_dac.c ****   * @retval None
 550:./Library/stm32f4xx_dac.c ****   */ 
 551:./Library/stm32f4xx_dac.c **** void DAC_ITConfig(uint32_t DAC_Channel, uint32_t DAC_IT, FunctionalState NewState)  
 552:./Library/stm32f4xx_dac.c **** {
 907              		.loc 1 552 1
 908              		.cfi_startproc
 909              		@ args = 0, pretend = 0, frame = 16
 910              		@ frame_needed = 1, uses_anonymous_args = 0
 911              		@ link register save eliminated.
 912 0000 80B4     		push	{r7}
 913              	.LCFI68:
 914              		.cfi_def_cfa_offset 4
 915              		.cfi_offset 7, -4
 916 0002 85B0     		sub	sp, sp, #20
 917              	.LCFI69:
 918              		.cfi_def_cfa_offset 24
 919 0004 00AF     		add	r7, sp, #0
 920              	.LCFI70:
 921              		.cfi_def_cfa_register 7
 922 0006 F860     		str	r0, [r7, #12]
 923 0008 B960     		str	r1, [r7, #8]
 924 000a 1346     		mov	r3, r2
 925 000c FB71     		strb	r3, [r7, #7]
 553:./Library/stm32f4xx_dac.c ****   /* Check the parameters */
 554:./Library/stm32f4xx_dac.c ****   assert_param(IS_DAC_CHANNEL(DAC_Channel));
 555:./Library/stm32f4xx_dac.c ****   assert_param(IS_FUNCTIONAL_STATE(NewState));
 556:./Library/stm32f4xx_dac.c ****   assert_param(IS_DAC_IT(DAC_IT)); 
 557:./Library/stm32f4xx_dac.c **** 
 558:./Library/stm32f4xx_dac.c ****   if (NewState != DISABLE)
 926              		.loc 1 558 6
 927 000e FB79     		ldrb	r3, [r7, #7]	@ zero_extendqisi2
 928 0010 002B     		cmp	r3, #0
 929 0012 09D0     		beq	.L52
ARM GAS  /var/folders/yl/_q9l42k90g1g4mdhbs226msm0000gn/T//cckzC73U.s 			page 27


 559:./Library/stm32f4xx_dac.c ****   {
 560:./Library/stm32f4xx_dac.c ****     /* Enable the selected DAC interrupts */
 561:./Library/stm32f4xx_dac.c ****     DAC->CR |=  (DAC_IT << DAC_Channel);
 930              		.loc 1 561 13
 931 0014 0C4B     		ldr	r3, .L55
 932 0016 1A68     		ldr	r2, [r3]
 933              		.loc 1 561 25
 934 0018 B968     		ldr	r1, [r7, #8]
 935 001a FB68     		ldr	r3, [r7, #12]
 936 001c 01FA03F3 		lsl	r3, r1, r3
 937              		.loc 1 561 13
 938 0020 0949     		ldr	r1, .L55
 939 0022 1343     		orrs	r3, r3, r2
 940 0024 0B60     		str	r3, [r1]
 562:./Library/stm32f4xx_dac.c ****   }
 563:./Library/stm32f4xx_dac.c ****   else
 564:./Library/stm32f4xx_dac.c ****   {
 565:./Library/stm32f4xx_dac.c ****     /* Disable the selected DAC interrupts */
 566:./Library/stm32f4xx_dac.c ****     DAC->CR &= (~(uint32_t)(DAC_IT << DAC_Channel));
 567:./Library/stm32f4xx_dac.c ****   }
 568:./Library/stm32f4xx_dac.c **** }
 941              		.loc 1 568 1
 942 0026 09E0     		b	.L54
 943              	.L52:
 566:./Library/stm32f4xx_dac.c ****   }
 944              		.loc 1 566 13
 945 0028 074B     		ldr	r3, .L55
 946 002a 1A68     		ldr	r2, [r3]
 566:./Library/stm32f4xx_dac.c ****   }
 947              		.loc 1 566 36
 948 002c B968     		ldr	r1, [r7, #8]
 949 002e FB68     		ldr	r3, [r7, #12]
 950 0030 01FA03F3 		lsl	r3, r1, r3
 566:./Library/stm32f4xx_dac.c ****   }
 951              		.loc 1 566 17
 952 0034 DB43     		mvns	r3, r3
 566:./Library/stm32f4xx_dac.c ****   }
 953              		.loc 1 566 13
 954 0036 0449     		ldr	r1, .L55
 955 0038 1340     		ands	r3, r3, r2
 956 003a 0B60     		str	r3, [r1]
 957              	.L54:
 958              		.loc 1 568 1
 959 003c 00BF     		nop
 960 003e 1437     		adds	r7, r7, #20
 961              	.LCFI71:
 962              		.cfi_def_cfa_offset 4
 963 0040 BD46     		mov	sp, r7
 964              	.LCFI72:
 965              		.cfi_def_cfa_register 13
 966              		@ sp needed
 967 0042 5DF8047B 		ldr	r7, [sp], #4
 968              	.LCFI73:
 969              		.cfi_restore 7
 970              		.cfi_def_cfa_offset 0
 971 0046 7047     		bx	lr
 972              	.L56:
ARM GAS  /var/folders/yl/_q9l42k90g1g4mdhbs226msm0000gn/T//cckzC73U.s 			page 28


 973              		.align	2
 974              	.L55:
 975 0048 00740040 		.word	1073771520
 976              		.cfi_endproc
 977              	.LFE135:
 979              		.section	.text.DAC_GetFlagStatus,"ax",%progbits
 980              		.align	1
 981              		.global	DAC_GetFlagStatus
 982              		.syntax unified
 983              		.thumb
 984              		.thumb_func
 986              	DAC_GetFlagStatus:
 987              	.LFB136:
 569:./Library/stm32f4xx_dac.c **** 
 570:./Library/stm32f4xx_dac.c **** /**
 571:./Library/stm32f4xx_dac.c ****   * @brief  Checks whether the specified DAC flag is set or not.
 572:./Library/stm32f4xx_dac.c ****   * @param  DAC_Channel: The selected DAC channel. 
 573:./Library/stm32f4xx_dac.c ****   *          This parameter can be one of the following values:
 574:./Library/stm32f4xx_dac.c ****   *            @arg DAC_Channel_1: DAC Channel1 selected
 575:./Library/stm32f4xx_dac.c ****   *            @arg DAC_Channel_2: DAC Channel2 selected
 576:./Library/stm32f4xx_dac.c ****   * @param  DAC_FLAG: specifies the flag to check. 
 577:./Library/stm32f4xx_dac.c ****   *          This parameter can be only of the following value:
 578:./Library/stm32f4xx_dac.c ****   *            @arg DAC_FLAG_DMAUDR: DMA underrun flag
 579:./Library/stm32f4xx_dac.c ****   * @note   The DMA underrun occurs when a second external trigger arrives before the 
 580:./Library/stm32f4xx_dac.c ****   *         acknowledgement for the first external trigger is received (first request).
 581:./Library/stm32f4xx_dac.c ****   * @retval The new state of DAC_FLAG (SET or RESET).
 582:./Library/stm32f4xx_dac.c ****   */
 583:./Library/stm32f4xx_dac.c **** FlagStatus DAC_GetFlagStatus(uint32_t DAC_Channel, uint32_t DAC_FLAG)
 584:./Library/stm32f4xx_dac.c **** {
 988              		.loc 1 584 1
 989              		.cfi_startproc
 990              		@ args = 0, pretend = 0, frame = 16
 991              		@ frame_needed = 1, uses_anonymous_args = 0
 992              		@ link register save eliminated.
 993 0000 80B4     		push	{r7}
 994              	.LCFI74:
 995              		.cfi_def_cfa_offset 4
 996              		.cfi_offset 7, -4
 997 0002 85B0     		sub	sp, sp, #20
 998              	.LCFI75:
 999              		.cfi_def_cfa_offset 24
 1000 0004 00AF     		add	r7, sp, #0
 1001              	.LCFI76:
 1002              		.cfi_def_cfa_register 7
 1003 0006 7860     		str	r0, [r7, #4]
 1004 0008 3960     		str	r1, [r7]
 585:./Library/stm32f4xx_dac.c ****   FlagStatus bitstatus = RESET;
 1005              		.loc 1 585 14
 1006 000a 0023     		movs	r3, #0
 1007 000c FB73     		strb	r3, [r7, #15]
 586:./Library/stm32f4xx_dac.c ****   /* Check the parameters */
 587:./Library/stm32f4xx_dac.c ****   assert_param(IS_DAC_CHANNEL(DAC_Channel));
 588:./Library/stm32f4xx_dac.c ****   assert_param(IS_DAC_FLAG(DAC_FLAG));
 589:./Library/stm32f4xx_dac.c **** 
 590:./Library/stm32f4xx_dac.c ****   /* Check the status of the specified DAC flag */
 591:./Library/stm32f4xx_dac.c ****   if ((DAC->SR & (DAC_FLAG << DAC_Channel)) != (uint8_t)RESET)
 1008              		.loc 1 591 11
ARM GAS  /var/folders/yl/_q9l42k90g1g4mdhbs226msm0000gn/T//cckzC73U.s 			page 29


 1009 000e 0A4B     		ldr	r3, .L61
 1010 0010 5A6B     		ldr	r2, [r3, #52]
 1011              		.loc 1 591 28
 1012 0012 3968     		ldr	r1, [r7]
 1013 0014 7B68     		ldr	r3, [r7, #4]
 1014 0016 01FA03F3 		lsl	r3, r1, r3
 1015              		.loc 1 591 16
 1016 001a 1340     		ands	r3, r3, r2
 1017              		.loc 1 591 6
 1018 001c 002B     		cmp	r3, #0
 1019 001e 02D0     		beq	.L58
 592:./Library/stm32f4xx_dac.c ****   {
 593:./Library/stm32f4xx_dac.c ****     /* DAC_FLAG is set */
 594:./Library/stm32f4xx_dac.c ****     bitstatus = SET;
 1020              		.loc 1 594 15
 1021 0020 0123     		movs	r3, #1
 1022 0022 FB73     		strb	r3, [r7, #15]
 1023 0024 01E0     		b	.L59
 1024              	.L58:
 595:./Library/stm32f4xx_dac.c ****   }
 596:./Library/stm32f4xx_dac.c ****   else
 597:./Library/stm32f4xx_dac.c ****   {
 598:./Library/stm32f4xx_dac.c ****     /* DAC_FLAG is reset */
 599:./Library/stm32f4xx_dac.c ****     bitstatus = RESET;
 1025              		.loc 1 599 15
 1026 0026 0023     		movs	r3, #0
 1027 0028 FB73     		strb	r3, [r7, #15]
 1028              	.L59:
 600:./Library/stm32f4xx_dac.c ****   }
 601:./Library/stm32f4xx_dac.c ****   /* Return the DAC_FLAG status */
 602:./Library/stm32f4xx_dac.c ****   return  bitstatus;
 1029              		.loc 1 602 11
 1030 002a FB7B     		ldrb	r3, [r7, #15]	@ zero_extendqisi2
 603:./Library/stm32f4xx_dac.c **** }
 1031              		.loc 1 603 1
 1032 002c 1846     		mov	r0, r3
 1033 002e 1437     		adds	r7, r7, #20
 1034              	.LCFI77:
 1035              		.cfi_def_cfa_offset 4
 1036 0030 BD46     		mov	sp, r7
 1037              	.LCFI78:
 1038              		.cfi_def_cfa_register 13
 1039              		@ sp needed
 1040 0032 5DF8047B 		ldr	r7, [sp], #4
 1041              	.LCFI79:
 1042              		.cfi_restore 7
 1043              		.cfi_def_cfa_offset 0
 1044 0036 7047     		bx	lr
 1045              	.L62:
 1046              		.align	2
 1047              	.L61:
 1048 0038 00740040 		.word	1073771520
 1049              		.cfi_endproc
 1050              	.LFE136:
 1052              		.section	.text.DAC_ClearFlag,"ax",%progbits
 1053              		.align	1
 1054              		.global	DAC_ClearFlag
ARM GAS  /var/folders/yl/_q9l42k90g1g4mdhbs226msm0000gn/T//cckzC73U.s 			page 30


 1055              		.syntax unified
 1056              		.thumb
 1057              		.thumb_func
 1059              	DAC_ClearFlag:
 1060              	.LFB137:
 604:./Library/stm32f4xx_dac.c **** 
 605:./Library/stm32f4xx_dac.c **** /**
 606:./Library/stm32f4xx_dac.c ****   * @brief  Clears the DAC channel's pending flags.
 607:./Library/stm32f4xx_dac.c ****   * @param  DAC_Channel: The selected DAC channel. 
 608:./Library/stm32f4xx_dac.c ****   *          This parameter can be one of the following values:
 609:./Library/stm32f4xx_dac.c ****   *            @arg DAC_Channel_1: DAC Channel1 selected
 610:./Library/stm32f4xx_dac.c ****   *            @arg DAC_Channel_2: DAC Channel2 selected
 611:./Library/stm32f4xx_dac.c ****   * @param  DAC_FLAG: specifies the flag to clear. 
 612:./Library/stm32f4xx_dac.c ****   *          This parameter can be of the following value:
 613:./Library/stm32f4xx_dac.c ****   *            @arg DAC_FLAG_DMAUDR: DMA underrun flag 
 614:./Library/stm32f4xx_dac.c ****   * @note   The DMA underrun occurs when a second external trigger arrives before the 
 615:./Library/stm32f4xx_dac.c ****   *         acknowledgement for the first external trigger is received (first request).            
 616:./Library/stm32f4xx_dac.c ****   * @retval None
 617:./Library/stm32f4xx_dac.c ****   */
 618:./Library/stm32f4xx_dac.c **** void DAC_ClearFlag(uint32_t DAC_Channel, uint32_t DAC_FLAG)
 619:./Library/stm32f4xx_dac.c **** {
 1061              		.loc 1 619 1
 1062              		.cfi_startproc
 1063              		@ args = 0, pretend = 0, frame = 8
 1064              		@ frame_needed = 1, uses_anonymous_args = 0
 1065              		@ link register save eliminated.
 1066 0000 80B4     		push	{r7}
 1067              	.LCFI80:
 1068              		.cfi_def_cfa_offset 4
 1069              		.cfi_offset 7, -4
 1070 0002 83B0     		sub	sp, sp, #12
 1071              	.LCFI81:
 1072              		.cfi_def_cfa_offset 16
 1073 0004 00AF     		add	r7, sp, #0
 1074              	.LCFI82:
 1075              		.cfi_def_cfa_register 7
 1076 0006 7860     		str	r0, [r7, #4]
 1077 0008 3960     		str	r1, [r7]
 620:./Library/stm32f4xx_dac.c ****   /* Check the parameters */
 621:./Library/stm32f4xx_dac.c ****   assert_param(IS_DAC_CHANNEL(DAC_Channel));
 622:./Library/stm32f4xx_dac.c ****   assert_param(IS_DAC_FLAG(DAC_FLAG));
 623:./Library/stm32f4xx_dac.c **** 
 624:./Library/stm32f4xx_dac.c ****   /* Clear the selected DAC flags */
 625:./Library/stm32f4xx_dac.c ****   DAC->SR = (DAC_FLAG << DAC_Channel);
 1078              		.loc 1 625 6
 1079 000a 0649     		ldr	r1, .L64
 1080              		.loc 1 625 23
 1081 000c 3A68     		ldr	r2, [r7]
 1082 000e 7B68     		ldr	r3, [r7, #4]
 1083 0010 02FA03F3 		lsl	r3, r2, r3
 1084              		.loc 1 625 11
 1085 0014 4B63     		str	r3, [r1, #52]
 626:./Library/stm32f4xx_dac.c **** }
 1086              		.loc 1 626 1
 1087 0016 00BF     		nop
 1088 0018 0C37     		adds	r7, r7, #12
 1089              	.LCFI83:
ARM GAS  /var/folders/yl/_q9l42k90g1g4mdhbs226msm0000gn/T//cckzC73U.s 			page 31


 1090              		.cfi_def_cfa_offset 4
 1091 001a BD46     		mov	sp, r7
 1092              	.LCFI84:
 1093              		.cfi_def_cfa_register 13
 1094              		@ sp needed
 1095 001c 5DF8047B 		ldr	r7, [sp], #4
 1096              	.LCFI85:
 1097              		.cfi_restore 7
 1098              		.cfi_def_cfa_offset 0
 1099 0020 7047     		bx	lr
 1100              	.L65:
 1101 0022 00BF     		.align	2
 1102              	.L64:
 1103 0024 00740040 		.word	1073771520
 1104              		.cfi_endproc
 1105              	.LFE137:
 1107              		.section	.text.DAC_GetITStatus,"ax",%progbits
 1108              		.align	1
 1109              		.global	DAC_GetITStatus
 1110              		.syntax unified
 1111              		.thumb
 1112              		.thumb_func
 1114              	DAC_GetITStatus:
 1115              	.LFB138:
 627:./Library/stm32f4xx_dac.c **** 
 628:./Library/stm32f4xx_dac.c **** /**
 629:./Library/stm32f4xx_dac.c ****   * @brief  Checks whether the specified DAC interrupt has occurred or not.
 630:./Library/stm32f4xx_dac.c ****   * @param  DAC_Channel: The selected DAC channel. 
 631:./Library/stm32f4xx_dac.c ****   *          This parameter can be one of the following values:
 632:./Library/stm32f4xx_dac.c ****   *            @arg DAC_Channel_1: DAC Channel1 selected
 633:./Library/stm32f4xx_dac.c ****   *            @arg DAC_Channel_2: DAC Channel2 selected
 634:./Library/stm32f4xx_dac.c ****   * @param  DAC_IT: specifies the DAC interrupt source to check. 
 635:./Library/stm32f4xx_dac.c ****   *          This parameter can be the following values:
 636:./Library/stm32f4xx_dac.c ****   *            @arg DAC_IT_DMAUDR: DMA underrun interrupt mask
 637:./Library/stm32f4xx_dac.c ****   * @note   The DMA underrun occurs when a second external trigger arrives before the 
 638:./Library/stm32f4xx_dac.c ****   *         acknowledgement for the first external trigger is received (first request).
 639:./Library/stm32f4xx_dac.c ****   * @retval The new state of DAC_IT (SET or RESET).
 640:./Library/stm32f4xx_dac.c ****   */
 641:./Library/stm32f4xx_dac.c **** ITStatus DAC_GetITStatus(uint32_t DAC_Channel, uint32_t DAC_IT)
 642:./Library/stm32f4xx_dac.c **** {
 1116              		.loc 1 642 1
 1117              		.cfi_startproc
 1118              		@ args = 0, pretend = 0, frame = 16
 1119              		@ frame_needed = 1, uses_anonymous_args = 0
 1120              		@ link register save eliminated.
 1121 0000 80B4     		push	{r7}
 1122              	.LCFI86:
 1123              		.cfi_def_cfa_offset 4
 1124              		.cfi_offset 7, -4
 1125 0002 85B0     		sub	sp, sp, #20
 1126              	.LCFI87:
 1127              		.cfi_def_cfa_offset 24
 1128 0004 00AF     		add	r7, sp, #0
 1129              	.LCFI88:
 1130              		.cfi_def_cfa_register 7
 1131 0006 7860     		str	r0, [r7, #4]
 1132 0008 3960     		str	r1, [r7]
ARM GAS  /var/folders/yl/_q9l42k90g1g4mdhbs226msm0000gn/T//cckzC73U.s 			page 32


 643:./Library/stm32f4xx_dac.c ****   ITStatus bitstatus = RESET;
 1133              		.loc 1 643 12
 1134 000a 0023     		movs	r3, #0
 1135 000c FB73     		strb	r3, [r7, #15]
 644:./Library/stm32f4xx_dac.c ****   uint32_t enablestatus = 0;
 1136              		.loc 1 644 12
 1137 000e 0023     		movs	r3, #0
 1138 0010 BB60     		str	r3, [r7, #8]
 645:./Library/stm32f4xx_dac.c ****   
 646:./Library/stm32f4xx_dac.c ****   /* Check the parameters */
 647:./Library/stm32f4xx_dac.c ****   assert_param(IS_DAC_CHANNEL(DAC_Channel));
 648:./Library/stm32f4xx_dac.c ****   assert_param(IS_DAC_IT(DAC_IT));
 649:./Library/stm32f4xx_dac.c **** 
 650:./Library/stm32f4xx_dac.c ****   /* Get the DAC_IT enable bit status */
 651:./Library/stm32f4xx_dac.c ****   enablestatus = (DAC->CR & (DAC_IT << DAC_Channel)) ;
 1139              		.loc 1 651 22
 1140 0012 104B     		ldr	r3, .L70
 1141 0014 1A68     		ldr	r2, [r3]
 1142              		.loc 1 651 37
 1143 0016 3968     		ldr	r1, [r7]
 1144 0018 7B68     		ldr	r3, [r7, #4]
 1145 001a 01FA03F3 		lsl	r3, r1, r3
 1146              		.loc 1 651 16
 1147 001e 1340     		ands	r3, r3, r2
 1148 0020 BB60     		str	r3, [r7, #8]
 652:./Library/stm32f4xx_dac.c ****   
 653:./Library/stm32f4xx_dac.c ****   /* Check the status of the specified DAC interrupt */
 654:./Library/stm32f4xx_dac.c ****   if (((DAC->SR & (DAC_IT << DAC_Channel)) != (uint32_t)RESET) && enablestatus)
 1149              		.loc 1 654 12
 1150 0022 0C4B     		ldr	r3, .L70
 1151 0024 5A6B     		ldr	r2, [r3, #52]
 1152              		.loc 1 654 27
 1153 0026 3968     		ldr	r1, [r7]
 1154 0028 7B68     		ldr	r3, [r7, #4]
 1155 002a 01FA03F3 		lsl	r3, r1, r3
 1156              		.loc 1 654 17
 1157 002e 1340     		ands	r3, r3, r2
 1158              		.loc 1 654 6
 1159 0030 002B     		cmp	r3, #0
 1160 0032 05D0     		beq	.L67
 1161              		.loc 1 654 64 discriminator 1
 1162 0034 BB68     		ldr	r3, [r7, #8]
 1163 0036 002B     		cmp	r3, #0
 1164 0038 02D0     		beq	.L67
 655:./Library/stm32f4xx_dac.c ****   {
 656:./Library/stm32f4xx_dac.c ****     /* DAC_IT is set */
 657:./Library/stm32f4xx_dac.c ****     bitstatus = SET;
 1165              		.loc 1 657 15
 1166 003a 0123     		movs	r3, #1
 1167 003c FB73     		strb	r3, [r7, #15]
 1168 003e 01E0     		b	.L68
 1169              	.L67:
 658:./Library/stm32f4xx_dac.c ****   }
 659:./Library/stm32f4xx_dac.c ****   else
 660:./Library/stm32f4xx_dac.c ****   {
 661:./Library/stm32f4xx_dac.c ****     /* DAC_IT is reset */
 662:./Library/stm32f4xx_dac.c ****     bitstatus = RESET;
ARM GAS  /var/folders/yl/_q9l42k90g1g4mdhbs226msm0000gn/T//cckzC73U.s 			page 33


 1170              		.loc 1 662 15
 1171 0040 0023     		movs	r3, #0
 1172 0042 FB73     		strb	r3, [r7, #15]
 1173              	.L68:
 663:./Library/stm32f4xx_dac.c ****   }
 664:./Library/stm32f4xx_dac.c ****   /* Return the DAC_IT status */
 665:./Library/stm32f4xx_dac.c ****   return  bitstatus;
 1174              		.loc 1 665 11
 1175 0044 FB7B     		ldrb	r3, [r7, #15]	@ zero_extendqisi2
 666:./Library/stm32f4xx_dac.c **** }
 1176              		.loc 1 666 1
 1177 0046 1846     		mov	r0, r3
 1178 0048 1437     		adds	r7, r7, #20
 1179              	.LCFI89:
 1180              		.cfi_def_cfa_offset 4
 1181 004a BD46     		mov	sp, r7
 1182              	.LCFI90:
 1183              		.cfi_def_cfa_register 13
 1184              		@ sp needed
 1185 004c 5DF8047B 		ldr	r7, [sp], #4
 1186              	.LCFI91:
 1187              		.cfi_restore 7
 1188              		.cfi_def_cfa_offset 0
 1189 0050 7047     		bx	lr
 1190              	.L71:
 1191 0052 00BF     		.align	2
 1192              	.L70:
 1193 0054 00740040 		.word	1073771520
 1194              		.cfi_endproc
 1195              	.LFE138:
 1197              		.section	.text.DAC_ClearITPendingBit,"ax",%progbits
 1198              		.align	1
 1199              		.global	DAC_ClearITPendingBit
 1200              		.syntax unified
 1201              		.thumb
 1202              		.thumb_func
 1204              	DAC_ClearITPendingBit:
 1205              	.LFB139:
 667:./Library/stm32f4xx_dac.c **** 
 668:./Library/stm32f4xx_dac.c **** /**
 669:./Library/stm32f4xx_dac.c ****   * @brief  Clears the DAC channel's interrupt pending bits.
 670:./Library/stm32f4xx_dac.c ****   * @param  DAC_Channel: The selected DAC channel. 
 671:./Library/stm32f4xx_dac.c ****   *          This parameter can be one of the following values:
 672:./Library/stm32f4xx_dac.c ****   *            @arg DAC_Channel_1: DAC Channel1 selected
 673:./Library/stm32f4xx_dac.c ****   *            @arg DAC_Channel_2: DAC Channel2 selected
 674:./Library/stm32f4xx_dac.c ****   * @param  DAC_IT: specifies the DAC interrupt pending bit to clear.
 675:./Library/stm32f4xx_dac.c ****   *          This parameter can be the following values:
 676:./Library/stm32f4xx_dac.c ****   *            @arg DAC_IT_DMAUDR: DMA underrun interrupt mask                         
 677:./Library/stm32f4xx_dac.c ****   * @note   The DMA underrun occurs when a second external trigger arrives before the 
 678:./Library/stm32f4xx_dac.c ****   *         acknowledgement for the first external trigger is received (first request).            
 679:./Library/stm32f4xx_dac.c ****   * @retval None
 680:./Library/stm32f4xx_dac.c ****   */
 681:./Library/stm32f4xx_dac.c **** void DAC_ClearITPendingBit(uint32_t DAC_Channel, uint32_t DAC_IT)
 682:./Library/stm32f4xx_dac.c **** {
 1206              		.loc 1 682 1
 1207              		.cfi_startproc
 1208              		@ args = 0, pretend = 0, frame = 8
ARM GAS  /var/folders/yl/_q9l42k90g1g4mdhbs226msm0000gn/T//cckzC73U.s 			page 34


 1209              		@ frame_needed = 1, uses_anonymous_args = 0
 1210              		@ link register save eliminated.
 1211 0000 80B4     		push	{r7}
 1212              	.LCFI92:
 1213              		.cfi_def_cfa_offset 4
 1214              		.cfi_offset 7, -4
 1215 0002 83B0     		sub	sp, sp, #12
 1216              	.LCFI93:
 1217              		.cfi_def_cfa_offset 16
 1218 0004 00AF     		add	r7, sp, #0
 1219              	.LCFI94:
 1220              		.cfi_def_cfa_register 7
 1221 0006 7860     		str	r0, [r7, #4]
 1222 0008 3960     		str	r1, [r7]
 683:./Library/stm32f4xx_dac.c ****   /* Check the parameters */
 684:./Library/stm32f4xx_dac.c ****   assert_param(IS_DAC_CHANNEL(DAC_Channel));
 685:./Library/stm32f4xx_dac.c ****   assert_param(IS_DAC_IT(DAC_IT)); 
 686:./Library/stm32f4xx_dac.c **** 
 687:./Library/stm32f4xx_dac.c ****   /* Clear the selected DAC interrupt pending bits */
 688:./Library/stm32f4xx_dac.c ****   DAC->SR = (DAC_IT << DAC_Channel);
 1223              		.loc 1 688 6
 1224 000a 0649     		ldr	r1, .L73
 1225              		.loc 1 688 21
 1226 000c 3A68     		ldr	r2, [r7]
 1227 000e 7B68     		ldr	r3, [r7, #4]
 1228 0010 02FA03F3 		lsl	r3, r2, r3
 1229              		.loc 1 688 11
 1230 0014 4B63     		str	r3, [r1, #52]
 689:./Library/stm32f4xx_dac.c **** }
 1231              		.loc 1 689 1
 1232 0016 00BF     		nop
 1233 0018 0C37     		adds	r7, r7, #12
 1234              	.LCFI95:
 1235              		.cfi_def_cfa_offset 4
 1236 001a BD46     		mov	sp, r7
 1237              	.LCFI96:
 1238              		.cfi_def_cfa_register 13
 1239              		@ sp needed
 1240 001c 5DF8047B 		ldr	r7, [sp], #4
 1241              	.LCFI97:
 1242              		.cfi_restore 7
 1243              		.cfi_def_cfa_offset 0
 1244 0020 7047     		bx	lr
 1245              	.L74:
 1246 0022 00BF     		.align	2
 1247              	.L73:
 1248 0024 00740040 		.word	1073771520
 1249              		.cfi_endproc
 1250              	.LFE139:
 1252              		.text
 1253              	.Letext0:
 1254              		.file 2 "/Applications/ARM/arm-none-eabi/include/machine/_default_types.h"
 1255              		.file 3 "/Applications/ARM/arm-none-eabi/include/sys/_stdint.h"
 1256              		.file 4 "./CORE/stm32f4xx.h"
 1257              		.file 5 "./Library/stm32f4xx_dac.h"
ARM GAS  /var/folders/yl/_q9l42k90g1g4mdhbs226msm0000gn/T//cckzC73U.s 			page 35

