ARM GAS  /var/folders/yl/_q9l42k90g1g4mdhbs226msm0000gn/T//cch8YRrS.s 			page 1


   1              		.cpu cortex-m4
   2              		.arch armv7e-m
   3              		.fpu fpv4-sp-d16
   4              		.eabi_attribute 27, 1
   5              		.eabi_attribute 28, 1
   6              		.eabi_attribute 20, 1
   7              		.eabi_attribute 21, 1
   8              		.eabi_attribute 23, 3
   9              		.eabi_attribute 24, 1
  10              		.eabi_attribute 25, 1
  11              		.eabi_attribute 26, 1
  12              		.eabi_attribute 30, 6
  13              		.eabi_attribute 34, 1
  14              		.eabi_attribute 18, 4
  15              		.file	"stm32f4xx_pwr.c"
  16              		.text
  17              	.Ltext0:
  18              		.cfi_sections	.debug_frame
  19              		.section	.text.PWR_DeInit,"ax",%progbits
  20              		.align	1
  21              		.global	PWR_DeInit
  22              		.syntax unified
  23              		.thumb
  24              		.thumb_func
  26              	PWR_DeInit:
  27              	.LFB123:
  28              		.file 1 "./Library/stm32f4xx_pwr.c"
   1:./Library/stm32f4xx_pwr.c **** /**
   2:./Library/stm32f4xx_pwr.c ****   ******************************************************************************
   3:./Library/stm32f4xx_pwr.c ****   * @file    stm32f4xx_pwr.c
   4:./Library/stm32f4xx_pwr.c ****   * @author  MCD Application Team
   5:./Library/stm32f4xx_pwr.c ****   * @version V1.8.1
   6:./Library/stm32f4xx_pwr.c ****   * @date    27-January-2022
   7:./Library/stm32f4xx_pwr.c ****   * @brief   This file provides firmware functions to manage the following 
   8:./Library/stm32f4xx_pwr.c ****   *          functionalities of the Power Controller (PWR) peripheral:           
   9:./Library/stm32f4xx_pwr.c ****   *           + Backup Domain Access
  10:./Library/stm32f4xx_pwr.c ****   *           + PVD configuration
  11:./Library/stm32f4xx_pwr.c ****   *           + WakeUp pin configuration
  12:./Library/stm32f4xx_pwr.c ****   *           + Main and Backup Regulators configuration
  13:./Library/stm32f4xx_pwr.c ****   *           + FLASH Power Down configuration
  14:./Library/stm32f4xx_pwr.c ****   *           + Low Power modes configuration
  15:./Library/stm32f4xx_pwr.c ****   *           + Flags management
  16:./Library/stm32f4xx_pwr.c ****   *               
  17:./Library/stm32f4xx_pwr.c ****   ******************************************************************************
  18:./Library/stm32f4xx_pwr.c ****   * @attention
  19:./Library/stm32f4xx_pwr.c ****   *
  20:./Library/stm32f4xx_pwr.c ****   * Copyright (c) 2016 STMicroelectronics.
  21:./Library/stm32f4xx_pwr.c ****   * All rights reserved.
  22:./Library/stm32f4xx_pwr.c ****   *
  23:./Library/stm32f4xx_pwr.c ****   * This software is licensed under terms that can be found in the LICENSE file
  24:./Library/stm32f4xx_pwr.c ****   * in the root directory of this software component.
  25:./Library/stm32f4xx_pwr.c ****   * If no LICENSE file comes with this software, it is provided AS-IS.
  26:./Library/stm32f4xx_pwr.c ****   *
  27:./Library/stm32f4xx_pwr.c ****   ******************************************************************************
  28:./Library/stm32f4xx_pwr.c ****   */
  29:./Library/stm32f4xx_pwr.c **** 
  30:./Library/stm32f4xx_pwr.c **** /* Includes ------------------------------------------------------------------*/
ARM GAS  /var/folders/yl/_q9l42k90g1g4mdhbs226msm0000gn/T//cch8YRrS.s 			page 2


  31:./Library/stm32f4xx_pwr.c **** #include "stm32f4xx_pwr.h"
  32:./Library/stm32f4xx_pwr.c **** #include "stm32f4xx_rcc.h"
  33:./Library/stm32f4xx_pwr.c **** 
  34:./Library/stm32f4xx_pwr.c **** /** @addtogroup STM32F4xx_StdPeriph_Driver
  35:./Library/stm32f4xx_pwr.c ****   * @{
  36:./Library/stm32f4xx_pwr.c ****   */
  37:./Library/stm32f4xx_pwr.c **** 
  38:./Library/stm32f4xx_pwr.c **** /** @defgroup PWR 
  39:./Library/stm32f4xx_pwr.c ****   * @brief PWR driver modules
  40:./Library/stm32f4xx_pwr.c ****   * @{
  41:./Library/stm32f4xx_pwr.c ****   */ 
  42:./Library/stm32f4xx_pwr.c **** 
  43:./Library/stm32f4xx_pwr.c **** /* Private typedef -----------------------------------------------------------*/
  44:./Library/stm32f4xx_pwr.c **** /* Private define ------------------------------------------------------------*/
  45:./Library/stm32f4xx_pwr.c **** /* --------- PWR registers bit address in the alias region ---------- */
  46:./Library/stm32f4xx_pwr.c **** #define PWR_OFFSET               (PWR_BASE - PERIPH_BASE)
  47:./Library/stm32f4xx_pwr.c **** 
  48:./Library/stm32f4xx_pwr.c **** /* --- CR Register ---*/
  49:./Library/stm32f4xx_pwr.c **** 
  50:./Library/stm32f4xx_pwr.c **** /* Alias word address of DBP bit */
  51:./Library/stm32f4xx_pwr.c **** #define CR_OFFSET                (PWR_OFFSET + 0x00)
  52:./Library/stm32f4xx_pwr.c **** #define DBP_BitNumber            0x08
  53:./Library/stm32f4xx_pwr.c **** #define CR_DBP_BB                (PERIPH_BB_BASE + (CR_OFFSET * 32) + (DBP_BitNumber * 4))
  54:./Library/stm32f4xx_pwr.c **** 
  55:./Library/stm32f4xx_pwr.c **** /* Alias word address of PVDE bit */
  56:./Library/stm32f4xx_pwr.c **** #define PVDE_BitNumber           0x04
  57:./Library/stm32f4xx_pwr.c **** #define CR_PVDE_BB               (PERIPH_BB_BASE + (CR_OFFSET * 32) + (PVDE_BitNumber * 4))
  58:./Library/stm32f4xx_pwr.c **** 
  59:./Library/stm32f4xx_pwr.c **** /* Alias word address of FPDS bit */
  60:./Library/stm32f4xx_pwr.c **** #define FPDS_BitNumber           0x09
  61:./Library/stm32f4xx_pwr.c **** #define CR_FPDS_BB               (PERIPH_BB_BASE + (CR_OFFSET * 32) + (FPDS_BitNumber * 4))
  62:./Library/stm32f4xx_pwr.c **** 
  63:./Library/stm32f4xx_pwr.c **** /* Alias word address of PMODE bit */
  64:./Library/stm32f4xx_pwr.c **** #define PMODE_BitNumber           0x0E
  65:./Library/stm32f4xx_pwr.c **** #define CR_PMODE_BB               (PERIPH_BB_BASE + (CR_OFFSET * 32) + (PMODE_BitNumber * 4))
  66:./Library/stm32f4xx_pwr.c **** 
  67:./Library/stm32f4xx_pwr.c **** /* Alias word address of ODEN bit */
  68:./Library/stm32f4xx_pwr.c **** #define ODEN_BitNumber           0x10
  69:./Library/stm32f4xx_pwr.c **** #define CR_ODEN_BB               (PERIPH_BB_BASE + (CR_OFFSET * 32) + (ODEN_BitNumber * 4))
  70:./Library/stm32f4xx_pwr.c **** 
  71:./Library/stm32f4xx_pwr.c **** /* Alias word address of ODSWEN bit */
  72:./Library/stm32f4xx_pwr.c **** #define ODSWEN_BitNumber         0x11
  73:./Library/stm32f4xx_pwr.c **** #define CR_ODSWEN_BB             (PERIPH_BB_BASE + (CR_OFFSET * 32) + (ODSWEN_BitNumber * 4))
  74:./Library/stm32f4xx_pwr.c **** 
  75:./Library/stm32f4xx_pwr.c **** #if defined(STM32F427_437xx) || defined(STM32F429_439xx) || defined(STM32F446xx)
  76:./Library/stm32f4xx_pwr.c **** /* Alias word address of MRUDS bit */
  77:./Library/stm32f4xx_pwr.c **** #define MRUDS_BitNumber         0x0B
  78:./Library/stm32f4xx_pwr.c **** #define CR_MRUDS_BB             (PERIPH_BB_BASE + (CR_OFFSET * 32) + (MRUDS_BitNumber * 4))
  79:./Library/stm32f4xx_pwr.c **** 
  80:./Library/stm32f4xx_pwr.c **** /* Alias word address of LPUDS bit */
  81:./Library/stm32f4xx_pwr.c **** #define LPUDS_BitNumber         0x0A
  82:./Library/stm32f4xx_pwr.c **** #define CR_LPUDS_BB             (PERIPH_BB_BASE + (CR_OFFSET * 32) + (LPUDS_BitNumber * 4))
  83:./Library/stm32f4xx_pwr.c **** #endif /* STM32F427_437xx || STM32F429_439xx || STM32F446xx */
  84:./Library/stm32f4xx_pwr.c **** 
  85:./Library/stm32f4xx_pwr.c **** #if defined(STM32F401xx) || defined(STM32F410xx) || defined(STM32F411xE) || defined(STM32F412xG) ||
  86:./Library/stm32f4xx_pwr.c **** /* Alias word address of MRLVDS bit */
  87:./Library/stm32f4xx_pwr.c **** #define MRLVDS_BitNumber         0x0B
ARM GAS  /var/folders/yl/_q9l42k90g1g4mdhbs226msm0000gn/T//cch8YRrS.s 			page 3


  88:./Library/stm32f4xx_pwr.c **** #define CR_MRLVDS_BB             (PERIPH_BB_BASE + (CR_OFFSET * 32) + (MRLVDS_BitNumber * 4))
  89:./Library/stm32f4xx_pwr.c **** 
  90:./Library/stm32f4xx_pwr.c **** /* Alias word address of LPLVDS bit */
  91:./Library/stm32f4xx_pwr.c **** #define LPLVDS_BitNumber         0x0A
  92:./Library/stm32f4xx_pwr.c **** #define CR_LPLVDS_BB             (PERIPH_BB_BASE + (CR_OFFSET * 32) + (LPLVDS_BitNumber * 4))
  93:./Library/stm32f4xx_pwr.c **** #endif /* STM32F401xx || STM32F410xx || STM32F411xE || STM32F412xG || STM32F413_423xx */
  94:./Library/stm32f4xx_pwr.c **** 
  95:./Library/stm32f4xx_pwr.c **** /* --- CSR Register ---*/
  96:./Library/stm32f4xx_pwr.c **** #if defined(STM32F40_41xxx) || defined(STM32F427_437xx) || defined(STM32F429_439xx) || defined(STM3
  97:./Library/stm32f4xx_pwr.c **** /* Alias word address of EWUP bit */
  98:./Library/stm32f4xx_pwr.c **** #define CSR_OFFSET               (PWR_OFFSET + 0x04)
  99:./Library/stm32f4xx_pwr.c **** #define EWUP_BitNumber           0x08
 100:./Library/stm32f4xx_pwr.c **** #define CSR_EWUP_BB              (PERIPH_BB_BASE + (CSR_OFFSET * 32) + (EWUP_BitNumber * 4))
 101:./Library/stm32f4xx_pwr.c **** #endif /* STM32F40_41xxx || STM32F427_437xx || STM32F429_439xx || STM32F401xx || STM32F410xx || STM
 102:./Library/stm32f4xx_pwr.c **** 
 103:./Library/stm32f4xx_pwr.c **** #if defined(STM32F410xx) || defined(STM32F412xG) || defined(STM32F413_423xx) || defined(STM32F446xx
 104:./Library/stm32f4xx_pwr.c **** /* Alias word address of EWUP2 bit */
 105:./Library/stm32f4xx_pwr.c **** #define CSR_OFFSET               (PWR_OFFSET + 0x04)
 106:./Library/stm32f4xx_pwr.c **** #define EWUP1_BitNumber           0x08
 107:./Library/stm32f4xx_pwr.c **** #define CSR_EWUP1_BB              (PERIPH_BB_BASE + (CSR_OFFSET * 32) + (EWUP1_BitNumber * 4))
 108:./Library/stm32f4xx_pwr.c **** #define EWUP2_BitNumber           0x07
 109:./Library/stm32f4xx_pwr.c **** #define CSR_EWUP2_BB              (PERIPH_BB_BASE + (CSR_OFFSET * 32) + (EWUP2_BitNumber * 4))
 110:./Library/stm32f4xx_pwr.c **** #if defined(STM32F410xx) || defined(STM32F412xG) || defined(STM32F413_423xx)
 111:./Library/stm32f4xx_pwr.c **** #define EWUP3_BitNumber           0x06
 112:./Library/stm32f4xx_pwr.c **** #define CSR_EWUP3_BB              (PERIPH_BB_BASE + (CSR_OFFSET * 32) + (EWUP2_BitNumber * 4))
 113:./Library/stm32f4xx_pwr.c **** #endif /* STM32F410xx || STM32F412xG || STM32F413_423xx */
 114:./Library/stm32f4xx_pwr.c **** #endif /* STM32F410xx || STM32F412xG || STM32F413_423xx || STM32F446xx */
 115:./Library/stm32f4xx_pwr.c **** 
 116:./Library/stm32f4xx_pwr.c **** /* Alias word address of BRE bit */
 117:./Library/stm32f4xx_pwr.c **** #define BRE_BitNumber            0x09
 118:./Library/stm32f4xx_pwr.c **** #define CSR_BRE_BB              (PERIPH_BB_BASE + (CSR_OFFSET * 32) + (BRE_BitNumber * 4))
 119:./Library/stm32f4xx_pwr.c **** 
 120:./Library/stm32f4xx_pwr.c **** /* ------------------ PWR registers bit mask ------------------------ */
 121:./Library/stm32f4xx_pwr.c **** 
 122:./Library/stm32f4xx_pwr.c **** /* CR register bit mask */
 123:./Library/stm32f4xx_pwr.c **** #define CR_DS_MASK               ((uint32_t)0xFFFFF3FC)
 124:./Library/stm32f4xx_pwr.c **** #define CR_PLS_MASK              ((uint32_t)0xFFFFFF1F)
 125:./Library/stm32f4xx_pwr.c **** #define CR_VOS_MASK              ((uint32_t)0xFFFF3FFF)
 126:./Library/stm32f4xx_pwr.c **** 
 127:./Library/stm32f4xx_pwr.c **** /* Private macro -------------------------------------------------------------*/
 128:./Library/stm32f4xx_pwr.c **** /* Private variables ---------------------------------------------------------*/
 129:./Library/stm32f4xx_pwr.c **** /* Private function prototypes -----------------------------------------------*/
 130:./Library/stm32f4xx_pwr.c **** /* Private functions ---------------------------------------------------------*/
 131:./Library/stm32f4xx_pwr.c **** 
 132:./Library/stm32f4xx_pwr.c **** /** @defgroup PWR_Private_Functions
 133:./Library/stm32f4xx_pwr.c ****   * @{
 134:./Library/stm32f4xx_pwr.c ****   */
 135:./Library/stm32f4xx_pwr.c **** 
 136:./Library/stm32f4xx_pwr.c **** /** @defgroup PWR_Group1 Backup Domain Access function 
 137:./Library/stm32f4xx_pwr.c ****   *  @brief   Backup Domain Access function  
 138:./Library/stm32f4xx_pwr.c ****   *
 139:./Library/stm32f4xx_pwr.c **** @verbatim   
 140:./Library/stm32f4xx_pwr.c ****  ===============================================================================
 141:./Library/stm32f4xx_pwr.c ****                   ##### Backup Domain Access function #####
 142:./Library/stm32f4xx_pwr.c ****  ===============================================================================  
 143:./Library/stm32f4xx_pwr.c ****     [..]
 144:./Library/stm32f4xx_pwr.c ****       After reset, the backup domain (RTC registers, RTC backup data 
ARM GAS  /var/folders/yl/_q9l42k90g1g4mdhbs226msm0000gn/T//cch8YRrS.s 			page 4


 145:./Library/stm32f4xx_pwr.c ****       registers and backup SRAM) is protected against possible unwanted 
 146:./Library/stm32f4xx_pwr.c ****       write accesses. 
 147:./Library/stm32f4xx_pwr.c ****       To enable access to the RTC Domain and RTC registers, proceed as follows:
 148:./Library/stm32f4xx_pwr.c ****         (+) Enable the Power Controller (PWR) APB1 interface clock using the
 149:./Library/stm32f4xx_pwr.c ****             RCC_APB1PeriphClockCmd() function.
 150:./Library/stm32f4xx_pwr.c ****         (+) Enable access to RTC domain using the PWR_BackupAccessCmd() function.
 151:./Library/stm32f4xx_pwr.c **** 
 152:./Library/stm32f4xx_pwr.c **** @endverbatim
 153:./Library/stm32f4xx_pwr.c ****   * @{
 154:./Library/stm32f4xx_pwr.c ****   */
 155:./Library/stm32f4xx_pwr.c **** 
 156:./Library/stm32f4xx_pwr.c **** /**
 157:./Library/stm32f4xx_pwr.c ****   * @brief  Deinitializes the PWR peripheral registers to their default reset values.     
 158:./Library/stm32f4xx_pwr.c ****   * @param  None
 159:./Library/stm32f4xx_pwr.c ****   * @retval None
 160:./Library/stm32f4xx_pwr.c ****   */
 161:./Library/stm32f4xx_pwr.c **** void PWR_DeInit(void)
 162:./Library/stm32f4xx_pwr.c **** {
  29              		.loc 1 162 1
  30              		.cfi_startproc
  31              		@ args = 0, pretend = 0, frame = 0
  32              		@ frame_needed = 1, uses_anonymous_args = 0
  33 0000 80B5     		push	{r7, lr}
  34              	.LCFI0:
  35              		.cfi_def_cfa_offset 8
  36              		.cfi_offset 7, -8
  37              		.cfi_offset 14, -4
  38 0002 00AF     		add	r7, sp, #0
  39              	.LCFI1:
  40              		.cfi_def_cfa_register 7
 163:./Library/stm32f4xx_pwr.c ****   RCC_APB1PeriphResetCmd(RCC_APB1Periph_PWR, ENABLE);
  41              		.loc 1 163 3
  42 0004 0121     		movs	r1, #1
  43 0006 4FF08050 		mov	r0, #268435456
  44 000a FFF7FEFF 		bl	RCC_APB1PeriphResetCmd
 164:./Library/stm32f4xx_pwr.c ****   RCC_APB1PeriphResetCmd(RCC_APB1Periph_PWR, DISABLE);
  45              		.loc 1 164 3
  46 000e 0021     		movs	r1, #0
  47 0010 4FF08050 		mov	r0, #268435456
  48 0014 FFF7FEFF 		bl	RCC_APB1PeriphResetCmd
 165:./Library/stm32f4xx_pwr.c **** }
  49              		.loc 1 165 1
  50 0018 00BF     		nop
  51 001a 80BD     		pop	{r7, pc}
  52              		.cfi_endproc
  53              	.LFE123:
  55              		.section	.text.PWR_BackupAccessCmd,"ax",%progbits
  56              		.align	1
  57              		.global	PWR_BackupAccessCmd
  58              		.syntax unified
  59              		.thumb
  60              		.thumb_func
  62              	PWR_BackupAccessCmd:
  63              	.LFB124:
 166:./Library/stm32f4xx_pwr.c **** 
 167:./Library/stm32f4xx_pwr.c **** /**
 168:./Library/stm32f4xx_pwr.c ****   * @brief  Enables or disables access to the backup domain (RTC registers, RTC 
ARM GAS  /var/folders/yl/_q9l42k90g1g4mdhbs226msm0000gn/T//cch8YRrS.s 			page 5


 169:./Library/stm32f4xx_pwr.c ****   *         backup data registers and backup SRAM).
 170:./Library/stm32f4xx_pwr.c ****   * @note   If the HSE divided by 2, 3, ..31 is used as the RTC clock, the 
 171:./Library/stm32f4xx_pwr.c ****   *         Backup Domain Access should be kept enabled.
 172:./Library/stm32f4xx_pwr.c ****   * @param  NewState: new state of the access to the backup domain.
 173:./Library/stm32f4xx_pwr.c ****   *          This parameter can be: ENABLE or DISABLE.
 174:./Library/stm32f4xx_pwr.c ****   * @retval None
 175:./Library/stm32f4xx_pwr.c ****   */
 176:./Library/stm32f4xx_pwr.c **** void PWR_BackupAccessCmd(FunctionalState NewState)
 177:./Library/stm32f4xx_pwr.c **** {
  64              		.loc 1 177 1
  65              		.cfi_startproc
  66              		@ args = 0, pretend = 0, frame = 8
  67              		@ frame_needed = 1, uses_anonymous_args = 0
  68              		@ link register save eliminated.
  69 0000 80B4     		push	{r7}
  70              	.LCFI2:
  71              		.cfi_def_cfa_offset 4
  72              		.cfi_offset 7, -4
  73 0002 83B0     		sub	sp, sp, #12
  74              	.LCFI3:
  75              		.cfi_def_cfa_offset 16
  76 0004 00AF     		add	r7, sp, #0
  77              	.LCFI4:
  78              		.cfi_def_cfa_register 7
  79 0006 0346     		mov	r3, r0
  80 0008 FB71     		strb	r3, [r7, #7]
 178:./Library/stm32f4xx_pwr.c ****   /* Check the parameters */
 179:./Library/stm32f4xx_pwr.c ****   assert_param(IS_FUNCTIONAL_STATE(NewState));
 180:./Library/stm32f4xx_pwr.c ****   
 181:./Library/stm32f4xx_pwr.c ****   *(__IO uint32_t *) CR_DBP_BB = (uint32_t)NewState;
  81              		.loc 1 181 3
  82 000a 044A     		ldr	r2, .L3
  83              		.loc 1 181 34
  84 000c FB79     		ldrb	r3, [r7, #7]	@ zero_extendqisi2
  85              		.loc 1 181 32
  86 000e 1360     		str	r3, [r2]
 182:./Library/stm32f4xx_pwr.c **** }
  87              		.loc 1 182 1
  88 0010 00BF     		nop
  89 0012 0C37     		adds	r7, r7, #12
  90              	.LCFI5:
  91              		.cfi_def_cfa_offset 4
  92 0014 BD46     		mov	sp, r7
  93              	.LCFI6:
  94              		.cfi_def_cfa_register 13
  95              		@ sp needed
  96 0016 5DF8047B 		ldr	r7, [sp], #4
  97              	.LCFI7:
  98              		.cfi_restore 7
  99              		.cfi_def_cfa_offset 0
 100 001a 7047     		bx	lr
 101              	.L4:
 102              		.align	2
 103              	.L3:
 104 001c 20000E42 		.word	1108213792
 105              		.cfi_endproc
 106              	.LFE124:
ARM GAS  /var/folders/yl/_q9l42k90g1g4mdhbs226msm0000gn/T//cch8YRrS.s 			page 6


 108              		.section	.text.PWR_PVDLevelConfig,"ax",%progbits
 109              		.align	1
 110              		.global	PWR_PVDLevelConfig
 111              		.syntax unified
 112              		.thumb
 113              		.thumb_func
 115              	PWR_PVDLevelConfig:
 116              	.LFB125:
 183:./Library/stm32f4xx_pwr.c **** 
 184:./Library/stm32f4xx_pwr.c **** /**
 185:./Library/stm32f4xx_pwr.c ****   * @}
 186:./Library/stm32f4xx_pwr.c ****   */
 187:./Library/stm32f4xx_pwr.c **** 
 188:./Library/stm32f4xx_pwr.c **** /** @defgroup PWR_Group2 PVD configuration functions
 189:./Library/stm32f4xx_pwr.c ****   *  @brief   PVD configuration functions 
 190:./Library/stm32f4xx_pwr.c ****   *
 191:./Library/stm32f4xx_pwr.c **** @verbatim   
 192:./Library/stm32f4xx_pwr.c ****  ===============================================================================
 193:./Library/stm32f4xx_pwr.c ****                     ##### PVD configuration functions #####
 194:./Library/stm32f4xx_pwr.c ****  ===============================================================================  
 195:./Library/stm32f4xx_pwr.c ****     [..]
 196:./Library/stm32f4xx_pwr.c ****       (+) The PVD is used to monitor the VDD power supply by comparing it to a 
 197:./Library/stm32f4xx_pwr.c ****           threshold selected by the PVD Level (PLS[2:0] bits in the PWR_CR).
 198:./Library/stm32f4xx_pwr.c ****       (+) A PVDO flag is available to indicate if VDD/VDDA is higher or lower 
 199:./Library/stm32f4xx_pwr.c ****           than the PVD threshold. This event is internally connected to the EXTI 
 200:./Library/stm32f4xx_pwr.c ****           line16 and can generate an interrupt if enabled through the EXTI registers.
 201:./Library/stm32f4xx_pwr.c ****       (+) The PVD is stopped in Standby mode.
 202:./Library/stm32f4xx_pwr.c **** 
 203:./Library/stm32f4xx_pwr.c **** @endverbatim
 204:./Library/stm32f4xx_pwr.c ****   * @{
 205:./Library/stm32f4xx_pwr.c ****   */
 206:./Library/stm32f4xx_pwr.c **** 
 207:./Library/stm32f4xx_pwr.c **** /**
 208:./Library/stm32f4xx_pwr.c ****   * @brief  Configures the voltage threshold detected by the Power Voltage Detector(PVD).
 209:./Library/stm32f4xx_pwr.c ****   * @param  PWR_PVDLevel: specifies the PVD detection level
 210:./Library/stm32f4xx_pwr.c ****   *          This parameter can be one of the following values:
 211:./Library/stm32f4xx_pwr.c ****   *            @arg PWR_PVDLevel_0
 212:./Library/stm32f4xx_pwr.c ****   *            @arg PWR_PVDLevel_1
 213:./Library/stm32f4xx_pwr.c ****   *            @arg PWR_PVDLevel_2
 214:./Library/stm32f4xx_pwr.c ****   *            @arg PWR_PVDLevel_3
 215:./Library/stm32f4xx_pwr.c ****   *            @arg PWR_PVDLevel_4
 216:./Library/stm32f4xx_pwr.c ****   *            @arg PWR_PVDLevel_5
 217:./Library/stm32f4xx_pwr.c ****   *            @arg PWR_PVDLevel_6
 218:./Library/stm32f4xx_pwr.c ****   *            @arg PWR_PVDLevel_7
 219:./Library/stm32f4xx_pwr.c ****   * @note   Refer to the electrical characteristics of your device datasheet for
 220:./Library/stm32f4xx_pwr.c ****   *         more details about the voltage threshold corresponding to each 
 221:./Library/stm32f4xx_pwr.c ****   *         detection level.
 222:./Library/stm32f4xx_pwr.c ****   * @retval None
 223:./Library/stm32f4xx_pwr.c ****   */
 224:./Library/stm32f4xx_pwr.c **** void PWR_PVDLevelConfig(uint32_t PWR_PVDLevel)
 225:./Library/stm32f4xx_pwr.c **** {
 117              		.loc 1 225 1
 118              		.cfi_startproc
 119              		@ args = 0, pretend = 0, frame = 16
 120              		@ frame_needed = 1, uses_anonymous_args = 0
 121              		@ link register save eliminated.
 122 0000 80B4     		push	{r7}
ARM GAS  /var/folders/yl/_q9l42k90g1g4mdhbs226msm0000gn/T//cch8YRrS.s 			page 7


 123              	.LCFI8:
 124              		.cfi_def_cfa_offset 4
 125              		.cfi_offset 7, -4
 126 0002 85B0     		sub	sp, sp, #20
 127              	.LCFI9:
 128              		.cfi_def_cfa_offset 24
 129 0004 00AF     		add	r7, sp, #0
 130              	.LCFI10:
 131              		.cfi_def_cfa_register 7
 132 0006 7860     		str	r0, [r7, #4]
 226:./Library/stm32f4xx_pwr.c ****   uint32_t tmpreg = 0;
 133              		.loc 1 226 12
 134 0008 0023     		movs	r3, #0
 135 000a FB60     		str	r3, [r7, #12]
 227:./Library/stm32f4xx_pwr.c ****   
 228:./Library/stm32f4xx_pwr.c ****   /* Check the parameters */
 229:./Library/stm32f4xx_pwr.c ****   assert_param(IS_PWR_PVD_LEVEL(PWR_PVDLevel));
 230:./Library/stm32f4xx_pwr.c ****   
 231:./Library/stm32f4xx_pwr.c ****   tmpreg = PWR->CR;
 136              		.loc 1 231 15
 137 000c 094B     		ldr	r3, .L6
 138              		.loc 1 231 10
 139 000e 1B68     		ldr	r3, [r3]
 140 0010 FB60     		str	r3, [r7, #12]
 232:./Library/stm32f4xx_pwr.c ****   
 233:./Library/stm32f4xx_pwr.c ****   /* Clear PLS[7:5] bits */
 234:./Library/stm32f4xx_pwr.c ****   tmpreg &= CR_PLS_MASK;
 141              		.loc 1 234 10
 142 0012 FB68     		ldr	r3, [r7, #12]
 143 0014 23F0E003 		bic	r3, r3, #224
 144 0018 FB60     		str	r3, [r7, #12]
 235:./Library/stm32f4xx_pwr.c ****   
 236:./Library/stm32f4xx_pwr.c ****   /* Set PLS[7:5] bits according to PWR_PVDLevel value */
 237:./Library/stm32f4xx_pwr.c ****   tmpreg |= PWR_PVDLevel;
 145              		.loc 1 237 10
 146 001a FA68     		ldr	r2, [r7, #12]
 147 001c 7B68     		ldr	r3, [r7, #4]
 148 001e 1343     		orrs	r3, r3, r2
 149 0020 FB60     		str	r3, [r7, #12]
 238:./Library/stm32f4xx_pwr.c ****   
 239:./Library/stm32f4xx_pwr.c ****   /* Store the new value */
 240:./Library/stm32f4xx_pwr.c ****   PWR->CR = tmpreg;
 150              		.loc 1 240 6
 151 0022 044A     		ldr	r2, .L6
 152              		.loc 1 240 11
 153 0024 FB68     		ldr	r3, [r7, #12]
 154 0026 1360     		str	r3, [r2]
 241:./Library/stm32f4xx_pwr.c **** }
 155              		.loc 1 241 1
 156 0028 00BF     		nop
 157 002a 1437     		adds	r7, r7, #20
 158              	.LCFI11:
 159              		.cfi_def_cfa_offset 4
 160 002c BD46     		mov	sp, r7
 161              	.LCFI12:
 162              		.cfi_def_cfa_register 13
 163              		@ sp needed
ARM GAS  /var/folders/yl/_q9l42k90g1g4mdhbs226msm0000gn/T//cch8YRrS.s 			page 8


 164 002e 5DF8047B 		ldr	r7, [sp], #4
 165              	.LCFI13:
 166              		.cfi_restore 7
 167              		.cfi_def_cfa_offset 0
 168 0032 7047     		bx	lr
 169              	.L7:
 170              		.align	2
 171              	.L6:
 172 0034 00700040 		.word	1073770496
 173              		.cfi_endproc
 174              	.LFE125:
 176              		.section	.text.PWR_PVDCmd,"ax",%progbits
 177              		.align	1
 178              		.global	PWR_PVDCmd
 179              		.syntax unified
 180              		.thumb
 181              		.thumb_func
 183              	PWR_PVDCmd:
 184              	.LFB126:
 242:./Library/stm32f4xx_pwr.c **** 
 243:./Library/stm32f4xx_pwr.c **** /**
 244:./Library/stm32f4xx_pwr.c ****   * @brief  Enables or disables the Power Voltage Detector(PVD).
 245:./Library/stm32f4xx_pwr.c ****   * @param  NewState: new state of the PVD.
 246:./Library/stm32f4xx_pwr.c ****   *         This parameter can be: ENABLE or DISABLE.
 247:./Library/stm32f4xx_pwr.c ****   * @retval None
 248:./Library/stm32f4xx_pwr.c ****   */
 249:./Library/stm32f4xx_pwr.c **** void PWR_PVDCmd(FunctionalState NewState)
 250:./Library/stm32f4xx_pwr.c **** {
 185              		.loc 1 250 1
 186              		.cfi_startproc
 187              		@ args = 0, pretend = 0, frame = 8
 188              		@ frame_needed = 1, uses_anonymous_args = 0
 189              		@ link register save eliminated.
 190 0000 80B4     		push	{r7}
 191              	.LCFI14:
 192              		.cfi_def_cfa_offset 4
 193              		.cfi_offset 7, -4
 194 0002 83B0     		sub	sp, sp, #12
 195              	.LCFI15:
 196              		.cfi_def_cfa_offset 16
 197 0004 00AF     		add	r7, sp, #0
 198              	.LCFI16:
 199              		.cfi_def_cfa_register 7
 200 0006 0346     		mov	r3, r0
 201 0008 FB71     		strb	r3, [r7, #7]
 251:./Library/stm32f4xx_pwr.c ****   /* Check the parameters */
 252:./Library/stm32f4xx_pwr.c ****   assert_param(IS_FUNCTIONAL_STATE(NewState));
 253:./Library/stm32f4xx_pwr.c ****   
 254:./Library/stm32f4xx_pwr.c ****   *(__IO uint32_t *) CR_PVDE_BB = (uint32_t)NewState;
 202              		.loc 1 254 3
 203 000a 044A     		ldr	r2, .L9
 204              		.loc 1 254 35
 205 000c FB79     		ldrb	r3, [r7, #7]	@ zero_extendqisi2
 206              		.loc 1 254 33
 207 000e 1360     		str	r3, [r2]
 255:./Library/stm32f4xx_pwr.c **** }
 208              		.loc 1 255 1
ARM GAS  /var/folders/yl/_q9l42k90g1g4mdhbs226msm0000gn/T//cch8YRrS.s 			page 9


 209 0010 00BF     		nop
 210 0012 0C37     		adds	r7, r7, #12
 211              	.LCFI17:
 212              		.cfi_def_cfa_offset 4
 213 0014 BD46     		mov	sp, r7
 214              	.LCFI18:
 215              		.cfi_def_cfa_register 13
 216              		@ sp needed
 217 0016 5DF8047B 		ldr	r7, [sp], #4
 218              	.LCFI19:
 219              		.cfi_restore 7
 220              		.cfi_def_cfa_offset 0
 221 001a 7047     		bx	lr
 222              	.L10:
 223              		.align	2
 224              	.L9:
 225 001c 10000E42 		.word	1108213776
 226              		.cfi_endproc
 227              	.LFE126:
 229              		.section	.text.PWR_WakeUpPinCmd,"ax",%progbits
 230              		.align	1
 231              		.global	PWR_WakeUpPinCmd
 232              		.syntax unified
 233              		.thumb
 234              		.thumb_func
 236              	PWR_WakeUpPinCmd:
 237              	.LFB127:
 256:./Library/stm32f4xx_pwr.c **** 
 257:./Library/stm32f4xx_pwr.c **** /**
 258:./Library/stm32f4xx_pwr.c ****   * @}
 259:./Library/stm32f4xx_pwr.c ****   */
 260:./Library/stm32f4xx_pwr.c **** 
 261:./Library/stm32f4xx_pwr.c **** /** @defgroup PWR_Group3 WakeUp pin configuration functions
 262:./Library/stm32f4xx_pwr.c ****   *  @brief   WakeUp pin configuration functions 
 263:./Library/stm32f4xx_pwr.c ****   *
 264:./Library/stm32f4xx_pwr.c **** @verbatim   
 265:./Library/stm32f4xx_pwr.c ****  ===============================================================================
 266:./Library/stm32f4xx_pwr.c ****                  ##### WakeUp pin configuration functions #####
 267:./Library/stm32f4xx_pwr.c ****  ===============================================================================  
 268:./Library/stm32f4xx_pwr.c ****     [..]
 269:./Library/stm32f4xx_pwr.c ****       (+) WakeUp pin is used to wakeup the system from Standby mode. This pin is 
 270:./Library/stm32f4xx_pwr.c ****           forced in input pull down configuration and is active on rising edges.
 271:./Library/stm32f4xx_pwr.c ****       (+) There is one Wake-up pin: Wake-up Pin 1 on PA.00.
 272:./Library/stm32f4xx_pwr.c **** 	   (++) For STM32F446xx there are two Wake-Up pins: Pin1 on PA.00 and Pin2 on PC.13
 273:./Library/stm32f4xx_pwr.c ****            (++) For STM32F410xx/STM32F412xG/STM32F413_423xx there are three Wake-Up pins: Pin1 on P
 274:./Library/stm32f4xx_pwr.c **** @endverbatim
 275:./Library/stm32f4xx_pwr.c ****   * @{
 276:./Library/stm32f4xx_pwr.c ****   */
 277:./Library/stm32f4xx_pwr.c **** #if defined(STM32F40_41xxx) || defined(STM32F427_437xx) || defined(STM32F429_439xx) || defined(STM3
 278:./Library/stm32f4xx_pwr.c **** /**
 279:./Library/stm32f4xx_pwr.c ****   * @brief  Enables or disables the WakeUp Pin functionality.
 280:./Library/stm32f4xx_pwr.c ****   * @param  NewState: new state of the WakeUp Pin functionality.
 281:./Library/stm32f4xx_pwr.c ****   *         This parameter can be: ENABLE or DISABLE.
 282:./Library/stm32f4xx_pwr.c ****   * @retval None
 283:./Library/stm32f4xx_pwr.c ****   */
 284:./Library/stm32f4xx_pwr.c **** void PWR_WakeUpPinCmd(FunctionalState NewState)
 285:./Library/stm32f4xx_pwr.c **** {
ARM GAS  /var/folders/yl/_q9l42k90g1g4mdhbs226msm0000gn/T//cch8YRrS.s 			page 10


 238              		.loc 1 285 1
 239              		.cfi_startproc
 240              		@ args = 0, pretend = 0, frame = 8
 241              		@ frame_needed = 1, uses_anonymous_args = 0
 242              		@ link register save eliminated.
 243 0000 80B4     		push	{r7}
 244              	.LCFI20:
 245              		.cfi_def_cfa_offset 4
 246              		.cfi_offset 7, -4
 247 0002 83B0     		sub	sp, sp, #12
 248              	.LCFI21:
 249              		.cfi_def_cfa_offset 16
 250 0004 00AF     		add	r7, sp, #0
 251              	.LCFI22:
 252              		.cfi_def_cfa_register 7
 253 0006 0346     		mov	r3, r0
 254 0008 FB71     		strb	r3, [r7, #7]
 286:./Library/stm32f4xx_pwr.c ****   /* Check the parameters */  
 287:./Library/stm32f4xx_pwr.c ****   assert_param(IS_FUNCTIONAL_STATE(NewState));
 288:./Library/stm32f4xx_pwr.c **** 
 289:./Library/stm32f4xx_pwr.c ****   *(__IO uint32_t *) CSR_EWUP_BB = (uint32_t)NewState;
 255              		.loc 1 289 3
 256 000a 044A     		ldr	r2, .L12
 257              		.loc 1 289 36
 258 000c FB79     		ldrb	r3, [r7, #7]	@ zero_extendqisi2
 259              		.loc 1 289 34
 260 000e 1360     		str	r3, [r2]
 290:./Library/stm32f4xx_pwr.c **** }
 261              		.loc 1 290 1
 262 0010 00BF     		nop
 263 0012 0C37     		adds	r7, r7, #12
 264              	.LCFI23:
 265              		.cfi_def_cfa_offset 4
 266 0014 BD46     		mov	sp, r7
 267              	.LCFI24:
 268              		.cfi_def_cfa_register 13
 269              		@ sp needed
 270 0016 5DF8047B 		ldr	r7, [sp], #4
 271              	.LCFI25:
 272              		.cfi_restore 7
 273              		.cfi_def_cfa_offset 0
 274 001a 7047     		bx	lr
 275              	.L13:
 276              		.align	2
 277              	.L12:
 278 001c A0000E42 		.word	1108213920
 279              		.cfi_endproc
 280              	.LFE127:
 282              		.section	.text.PWR_BackupRegulatorCmd,"ax",%progbits
 283              		.align	1
 284              		.global	PWR_BackupRegulatorCmd
 285              		.syntax unified
 286              		.thumb
 287              		.thumb_func
 289              	PWR_BackupRegulatorCmd:
 290              	.LFB128:
 291:./Library/stm32f4xx_pwr.c **** #endif /* STM32F40_41xxx || STM32F427_437xx || STM32F429_439xx || STM32F401xx || STM32F411xE */
ARM GAS  /var/folders/yl/_q9l42k90g1g4mdhbs226msm0000gn/T//cch8YRrS.s 			page 11


 292:./Library/stm32f4xx_pwr.c **** 
 293:./Library/stm32f4xx_pwr.c **** #if defined(STM32F410xx) || defined(STM32F412xG) || defined(STM32F413_423xx) || defined(STM32F446xx
 294:./Library/stm32f4xx_pwr.c **** /**
 295:./Library/stm32f4xx_pwr.c ****   * @brief  Enables or disables the WakeUp Pin functionality.
 296:./Library/stm32f4xx_pwr.c ****   * @param  PWR_WakeUpPinx: specifies the WakeUp Pin.
 297:./Library/stm32f4xx_pwr.c ****   *          This parameter can be one of the following values:
 298:./Library/stm32f4xx_pwr.c ****   *            @arg PWR_WakeUp_Pin1: WKUP1 pin is used for wakeup from Standby mode.
 299:./Library/stm32f4xx_pwr.c ****   *            @arg PWR_WakeUp_Pin2: WKUP2 pin is used for wakeup from Standby mode.
 300:./Library/stm32f4xx_pwr.c ****   *            @arg PWR_WakeUp_Pin3: WKUP3 pin is used for wakeup from Standby mode.(only for STM32
 301:./Library/stm32f4xx_pwr.c ****   * @param  NewState: new state of the WakeUp Pin functionality.
 302:./Library/stm32f4xx_pwr.c ****   *         This parameter can be: ENABLE or DISABLE.
 303:./Library/stm32f4xx_pwr.c ****   * @retval None
 304:./Library/stm32f4xx_pwr.c ****   */
 305:./Library/stm32f4xx_pwr.c **** void PWR_WakeUpPinCmd(uint32_t PWR_WakeUpPinx, FunctionalState NewState)
 306:./Library/stm32f4xx_pwr.c **** {
 307:./Library/stm32f4xx_pwr.c ****   /* Check the parameters */  
 308:./Library/stm32f4xx_pwr.c ****   assert_param(IS_FUNCTIONAL_STATE(NewState));
 309:./Library/stm32f4xx_pwr.c ****   assert_param(IS_PWR_WAKEUP_PIN(NewState));
 310:./Library/stm32f4xx_pwr.c ****   if(PWR_WakeUpPinx == PWR_WakeUp_Pin1) /* PWR_WakeUp_Pin1 */
 311:./Library/stm32f4xx_pwr.c ****   {
 312:./Library/stm32f4xx_pwr.c ****     *(__IO uint32_t *) CSR_EWUP1_BB = (uint32_t)NewState;
 313:./Library/stm32f4xx_pwr.c ****   }
 314:./Library/stm32f4xx_pwr.c **** #if defined(STM32F410xx)|| defined(STM32F412xG) || defined(STM32F413_423xx)  
 315:./Library/stm32f4xx_pwr.c ****   else if(PWR_WakeUpPinx == PWR_WakeUp_Pin3) /* PWR_WakeUp_Pin3 */
 316:./Library/stm32f4xx_pwr.c ****   {
 317:./Library/stm32f4xx_pwr.c ****     *(__IO uint32_t *) CSR_EWUP3_BB = (uint32_t)NewState;
 318:./Library/stm32f4xx_pwr.c ****   }
 319:./Library/stm32f4xx_pwr.c **** #endif /* STM32F410xx */  
 320:./Library/stm32f4xx_pwr.c ****   else /* PWR_WakeUp_Pin2 */
 321:./Library/stm32f4xx_pwr.c ****   {
 322:./Library/stm32f4xx_pwr.c ****     *(__IO uint32_t *) CSR_EWUP2_BB = (uint32_t)NewState;
 323:./Library/stm32f4xx_pwr.c ****   }
 324:./Library/stm32f4xx_pwr.c **** }
 325:./Library/stm32f4xx_pwr.c **** #endif /* STM32F410xx || STM32F412xG || STM32F413_423xx || STM32F446xx */
 326:./Library/stm32f4xx_pwr.c **** 
 327:./Library/stm32f4xx_pwr.c **** /**
 328:./Library/stm32f4xx_pwr.c ****   * @}
 329:./Library/stm32f4xx_pwr.c ****   */
 330:./Library/stm32f4xx_pwr.c **** 
 331:./Library/stm32f4xx_pwr.c **** /** @defgroup PWR_Group4 Main and Backup Regulators configuration functions
 332:./Library/stm32f4xx_pwr.c ****   *  @brief   Main and Backup Regulators configuration functions 
 333:./Library/stm32f4xx_pwr.c ****   *
 334:./Library/stm32f4xx_pwr.c **** @verbatim   
 335:./Library/stm32f4xx_pwr.c ****  ===============================================================================
 336:./Library/stm32f4xx_pwr.c ****           ##### Main and Backup Regulators configuration functions #####
 337:./Library/stm32f4xx_pwr.c ****  ===============================================================================  
 338:./Library/stm32f4xx_pwr.c ****     [..]
 339:./Library/stm32f4xx_pwr.c ****       (+) The backup domain includes 4 Kbytes of backup SRAM accessible only from 
 340:./Library/stm32f4xx_pwr.c ****           the CPU, and address in 32-bit, 16-bit or 8-bit mode. Its content is 
 341:./Library/stm32f4xx_pwr.c ****           retained even in Standby or VBAT mode when the low power backup regulator
 342:./Library/stm32f4xx_pwr.c ****           is enabled. It can be considered as an internal EEPROM when VBAT is 
 343:./Library/stm32f4xx_pwr.c ****           always present. You can use the PWR_BackupRegulatorCmd() function to 
 344:./Library/stm32f4xx_pwr.c ****           enable the low power backup regulator and use the PWR_GetFlagStatus
 345:./Library/stm32f4xx_pwr.c ****           (PWR_FLAG_BRR) to check if it is ready or not. 
 346:./Library/stm32f4xx_pwr.c **** 
 347:./Library/stm32f4xx_pwr.c ****       (+) When the backup domain is supplied by VDD (analog switch connected to VDD) 
 348:./Library/stm32f4xx_pwr.c ****           the backup SRAM is powered from VDD which replaces the VBAT power supply to 
ARM GAS  /var/folders/yl/_q9l42k90g1g4mdhbs226msm0000gn/T//cch8YRrS.s 			page 12


 349:./Library/stm32f4xx_pwr.c ****           save battery life.
 350:./Library/stm32f4xx_pwr.c **** 
 351:./Library/stm32f4xx_pwr.c ****       (+) The backup SRAM is not mass erased by an tamper event. It is read 
 352:./Library/stm32f4xx_pwr.c ****           protected to prevent confidential data, such as cryptographic private 
 353:./Library/stm32f4xx_pwr.c ****           key, from being accessed. The backup SRAM can be erased only through 
 354:./Library/stm32f4xx_pwr.c ****           the Flash interface when a protection level change from level 1 to 
 355:./Library/stm32f4xx_pwr.c ****           level 0 is requested. 
 356:./Library/stm32f4xx_pwr.c ****       -@- Refer to the description of Read protection (RDP) in the reference manual.
 357:./Library/stm32f4xx_pwr.c **** 
 358:./Library/stm32f4xx_pwr.c ****       (+) The main internal regulator can be configured to have a tradeoff between 
 359:./Library/stm32f4xx_pwr.c ****           performance and power consumption when the device does not operate at 
 360:./Library/stm32f4xx_pwr.c ****           the maximum frequency. 
 361:./Library/stm32f4xx_pwr.c ****       (+) For STM32F405xx/407xx and STM32F415xx/417xx  Devices, the regulator can be     
 362:./Library/stm32f4xx_pwr.c ****           configured on the fly through PWR_MainRegulatorModeConfig() function which  
 363:./Library/stm32f4xx_pwr.c ****           configure VOS bit in PWR_CR register:
 364:./Library/stm32f4xx_pwr.c ****         (++) When this bit is set (Regulator voltage output Scale 1 mode selected) 
 365:./Library/stm32f4xx_pwr.c ****              the System frequency can go up to 168 MHz. 
 366:./Library/stm32f4xx_pwr.c ****         (++) When this bit is reset (Regulator voltage output Scale 2 mode selected) 
 367:./Library/stm32f4xx_pwr.c ****              the System frequency can go up to 144 MHz.
 368:./Library/stm32f4xx_pwr.c ****              
 369:./Library/stm32f4xx_pwr.c ****        (+) For STM32F42xxx/43xxx Devices, the regulator can be configured through    
 370:./Library/stm32f4xx_pwr.c ****            PWR_MainRegulatorModeConfig() function which configure VOS[1:0] bits in
 371:./Library/stm32f4xx_pwr.c ****            PWR_CR register:  
 372:./Library/stm32f4xx_pwr.c ****            which configure VOS[1:0] bits in PWR_CR register: 
 373:./Library/stm32f4xx_pwr.c ****         (++) When VOS[1:0] = 11 (Regulator voltage output Scale 1 mode selected) 
 374:./Library/stm32f4xx_pwr.c ****              the System frequency can go up to 168 MHz. 
 375:./Library/stm32f4xx_pwr.c ****         (++) When VOS[1:0] = 10 (Regulator voltage output Scale 2 mode selected) 
 376:./Library/stm32f4xx_pwr.c ****              the System frequency can go up to 144 MHz.  
 377:./Library/stm32f4xx_pwr.c ****         (++) When VOS[1:0] = 01 (Regulator voltage output Scale 3 mode selected) 
 378:./Library/stm32f4xx_pwr.c ****              the System frequency can go up to 120 MHz. 
 379:./Library/stm32f4xx_pwr.c ****                           
 380:./Library/stm32f4xx_pwr.c ****        (+) For STM32F42xxx/43xxx Devices, the scale can be modified only when the PLL 
 381:./Library/stm32f4xx_pwr.c ****            is OFF and the HSI or HSE clock source is selected as system clock. 
 382:./Library/stm32f4xx_pwr.c ****            The new value programmed is active only when the PLL is ON.
 383:./Library/stm32f4xx_pwr.c ****            When the PLL is OFF, the voltage scale 3 is automatically selected. 
 384:./Library/stm32f4xx_pwr.c ****         Refer to the datasheets for more details.
 385:./Library/stm32f4xx_pwr.c ****         
 386:./Library/stm32f4xx_pwr.c ****        (+) For STM32F42xxx/43xxx Devices, in Run mode: the main regulator has
 387:./Library/stm32f4xx_pwr.c ****            2 operating modes available:
 388:./Library/stm32f4xx_pwr.c ****         (++) Normal mode: The CPU and core logic operate at maximum frequency at a given 
 389:./Library/stm32f4xx_pwr.c ****              voltage scaling (scale 1, scale 2 or scale 3)
 390:./Library/stm32f4xx_pwr.c ****         (++) Over-drive mode: This mode allows the CPU and the core logic to operate at a 
 391:./Library/stm32f4xx_pwr.c ****             higher frequency than the normal mode for a given voltage scaling (scale 1,  
 392:./Library/stm32f4xx_pwr.c ****             scale 2 or scale 3). This mode is enabled through PWR_OverDriveCmd() function and
 393:./Library/stm32f4xx_pwr.c ****             PWR_OverDriveSWCmd() function, to enter or exit from Over-drive mode please follow 
 394:./Library/stm32f4xx_pwr.c ****             the sequence described in Reference manual.
 395:./Library/stm32f4xx_pwr.c ****              
 396:./Library/stm32f4xx_pwr.c ****        (+) For STM32F42xxx/43xxx Devices, in Stop mode: the main regulator or low power regulator 
 397:./Library/stm32f4xx_pwr.c ****            supplies a low power voltage to the 1.2V domain, thus preserving the content of register
 398:./Library/stm32f4xx_pwr.c ****            and internal SRAM. 2 operating modes are available:
 399:./Library/stm32f4xx_pwr.c ****          (++) Normal mode: the 1.2V domain is preserved in nominal leakage mode. This mode is only 
 400:./Library/stm32f4xx_pwr.c ****               available when the main regulator or the low power regulator is used in Scale 3 or 
 401:./Library/stm32f4xx_pwr.c ****               low voltage mode.
 402:./Library/stm32f4xx_pwr.c ****          (++) Under-drive mode: the 1.2V domain is preserved in reduced leakage mode. This mode is 
 403:./Library/stm32f4xx_pwr.c ****               available when the main regulator or the low power regulator is in low voltage mode.
 404:./Library/stm32f4xx_pwr.c ****               This mode is enabled through PWR_UnderDriveCmd() function.
 405:./Library/stm32f4xx_pwr.c ****             
ARM GAS  /var/folders/yl/_q9l42k90g1g4mdhbs226msm0000gn/T//cch8YRrS.s 			page 13


 406:./Library/stm32f4xx_pwr.c **** @endverbatim
 407:./Library/stm32f4xx_pwr.c ****   * @{
 408:./Library/stm32f4xx_pwr.c ****   */
 409:./Library/stm32f4xx_pwr.c **** 
 410:./Library/stm32f4xx_pwr.c **** /**
 411:./Library/stm32f4xx_pwr.c ****   * @brief  Enables or disables the Backup Regulator.
 412:./Library/stm32f4xx_pwr.c ****   * @param  NewState: new state of the Backup Regulator.
 413:./Library/stm32f4xx_pwr.c ****   *          This parameter can be: ENABLE or DISABLE.
 414:./Library/stm32f4xx_pwr.c ****   * @retval None
 415:./Library/stm32f4xx_pwr.c ****   */
 416:./Library/stm32f4xx_pwr.c **** void PWR_BackupRegulatorCmd(FunctionalState NewState)
 417:./Library/stm32f4xx_pwr.c **** {
 291              		.loc 1 417 1
 292              		.cfi_startproc
 293              		@ args = 0, pretend = 0, frame = 8
 294              		@ frame_needed = 1, uses_anonymous_args = 0
 295              		@ link register save eliminated.
 296 0000 80B4     		push	{r7}
 297              	.LCFI26:
 298              		.cfi_def_cfa_offset 4
 299              		.cfi_offset 7, -4
 300 0002 83B0     		sub	sp, sp, #12
 301              	.LCFI27:
 302              		.cfi_def_cfa_offset 16
 303 0004 00AF     		add	r7, sp, #0
 304              	.LCFI28:
 305              		.cfi_def_cfa_register 7
 306 0006 0346     		mov	r3, r0
 307 0008 FB71     		strb	r3, [r7, #7]
 418:./Library/stm32f4xx_pwr.c ****   /* Check the parameters */
 419:./Library/stm32f4xx_pwr.c ****   assert_param(IS_FUNCTIONAL_STATE(NewState));
 420:./Library/stm32f4xx_pwr.c **** 
 421:./Library/stm32f4xx_pwr.c ****   *(__IO uint32_t *) CSR_BRE_BB = (uint32_t)NewState;
 308              		.loc 1 421 3
 309 000a 044A     		ldr	r2, .L15
 310              		.loc 1 421 35
 311 000c FB79     		ldrb	r3, [r7, #7]	@ zero_extendqisi2
 312              		.loc 1 421 33
 313 000e 1360     		str	r3, [r2]
 422:./Library/stm32f4xx_pwr.c **** }
 314              		.loc 1 422 1
 315 0010 00BF     		nop
 316 0012 0C37     		adds	r7, r7, #12
 317              	.LCFI29:
 318              		.cfi_def_cfa_offset 4
 319 0014 BD46     		mov	sp, r7
 320              	.LCFI30:
 321              		.cfi_def_cfa_register 13
 322              		@ sp needed
 323 0016 5DF8047B 		ldr	r7, [sp], #4
 324              	.LCFI31:
 325              		.cfi_restore 7
 326              		.cfi_def_cfa_offset 0
 327 001a 7047     		bx	lr
 328              	.L16:
 329              		.align	2
 330              	.L15:
ARM GAS  /var/folders/yl/_q9l42k90g1g4mdhbs226msm0000gn/T//cch8YRrS.s 			page 14


 331 001c A4000E42 		.word	1108213924
 332              		.cfi_endproc
 333              	.LFE128:
 335              		.section	.text.PWR_MainRegulatorModeConfig,"ax",%progbits
 336              		.align	1
 337              		.global	PWR_MainRegulatorModeConfig
 338              		.syntax unified
 339              		.thumb
 340              		.thumb_func
 342              	PWR_MainRegulatorModeConfig:
 343              	.LFB129:
 423:./Library/stm32f4xx_pwr.c **** 
 424:./Library/stm32f4xx_pwr.c **** /**
 425:./Library/stm32f4xx_pwr.c ****   * @brief  Configures the main internal regulator output voltage.
 426:./Library/stm32f4xx_pwr.c ****   * @param  PWR_Regulator_Voltage: specifies the regulator output voltage to achieve
 427:./Library/stm32f4xx_pwr.c ****   *         a tradeoff between performance and power consumption when the device does
 428:./Library/stm32f4xx_pwr.c ****   *         not operate at the maximum frequency (refer to the datasheets for more details).
 429:./Library/stm32f4xx_pwr.c ****   *          This parameter can be one of the following values:
 430:./Library/stm32f4xx_pwr.c ****   *            @arg PWR_Regulator_Voltage_Scale1: Regulator voltage output Scale 1 mode, 
 431:./Library/stm32f4xx_pwr.c ****   *                                                System frequency up to 168 MHz. 
 432:./Library/stm32f4xx_pwr.c ****   *            @arg PWR_Regulator_Voltage_Scale2: Regulator voltage output Scale 2 mode, 
 433:./Library/stm32f4xx_pwr.c ****   *                                                System frequency up to 144 MHz.    
 434:./Library/stm32f4xx_pwr.c ****   *            @arg PWR_Regulator_Voltage_Scale3: Regulator voltage output Scale 3 mode, 
 435:./Library/stm32f4xx_pwr.c ****   *                                                System frequency up to 120 MHz (only for STM32F4
 436:./Library/stm32f4xx_pwr.c ****   * @retval None
 437:./Library/stm32f4xx_pwr.c ****   */
 438:./Library/stm32f4xx_pwr.c **** void PWR_MainRegulatorModeConfig(uint32_t PWR_Regulator_Voltage)
 439:./Library/stm32f4xx_pwr.c **** {
 344              		.loc 1 439 1
 345              		.cfi_startproc
 346              		@ args = 0, pretend = 0, frame = 16
 347              		@ frame_needed = 1, uses_anonymous_args = 0
 348              		@ link register save eliminated.
 349 0000 80B4     		push	{r7}
 350              	.LCFI32:
 351              		.cfi_def_cfa_offset 4
 352              		.cfi_offset 7, -4
 353 0002 85B0     		sub	sp, sp, #20
 354              	.LCFI33:
 355              		.cfi_def_cfa_offset 24
 356 0004 00AF     		add	r7, sp, #0
 357              	.LCFI34:
 358              		.cfi_def_cfa_register 7
 359 0006 7860     		str	r0, [r7, #4]
 440:./Library/stm32f4xx_pwr.c ****   uint32_t tmpreg = 0;
 360              		.loc 1 440 12
 361 0008 0023     		movs	r3, #0
 362 000a FB60     		str	r3, [r7, #12]
 441:./Library/stm32f4xx_pwr.c **** 	
 442:./Library/stm32f4xx_pwr.c ****   /* Check the parameters */
 443:./Library/stm32f4xx_pwr.c ****   assert_param(IS_PWR_REGULATOR_VOLTAGE(PWR_Regulator_Voltage));
 444:./Library/stm32f4xx_pwr.c **** 
 445:./Library/stm32f4xx_pwr.c ****   tmpreg = PWR->CR;
 363              		.loc 1 445 15
 364 000c 094B     		ldr	r3, .L18
 365              		.loc 1 445 10
 366 000e 1B68     		ldr	r3, [r3]
ARM GAS  /var/folders/yl/_q9l42k90g1g4mdhbs226msm0000gn/T//cch8YRrS.s 			page 15


 367 0010 FB60     		str	r3, [r7, #12]
 446:./Library/stm32f4xx_pwr.c ****   
 447:./Library/stm32f4xx_pwr.c ****   /* Clear VOS[15:14] bits */
 448:./Library/stm32f4xx_pwr.c ****   tmpreg &= CR_VOS_MASK;
 368              		.loc 1 448 10
 369 0012 FB68     		ldr	r3, [r7, #12]
 370 0014 23F44043 		bic	r3, r3, #49152
 371 0018 FB60     		str	r3, [r7, #12]
 449:./Library/stm32f4xx_pwr.c ****   
 450:./Library/stm32f4xx_pwr.c ****   /* Set VOS[15:14] bits according to PWR_Regulator_Voltage value */
 451:./Library/stm32f4xx_pwr.c ****   tmpreg |= PWR_Regulator_Voltage;
 372              		.loc 1 451 10
 373 001a FA68     		ldr	r2, [r7, #12]
 374 001c 7B68     		ldr	r3, [r7, #4]
 375 001e 1343     		orrs	r3, r3, r2
 376 0020 FB60     		str	r3, [r7, #12]
 452:./Library/stm32f4xx_pwr.c ****   
 453:./Library/stm32f4xx_pwr.c ****   /* Store the new value */
 454:./Library/stm32f4xx_pwr.c ****   PWR->CR = tmpreg;
 377              		.loc 1 454 6
 378 0022 044A     		ldr	r2, .L18
 379              		.loc 1 454 11
 380 0024 FB68     		ldr	r3, [r7, #12]
 381 0026 1360     		str	r3, [r2]
 455:./Library/stm32f4xx_pwr.c **** }
 382              		.loc 1 455 1
 383 0028 00BF     		nop
 384 002a 1437     		adds	r7, r7, #20
 385              	.LCFI35:
 386              		.cfi_def_cfa_offset 4
 387 002c BD46     		mov	sp, r7
 388              	.LCFI36:
 389              		.cfi_def_cfa_register 13
 390              		@ sp needed
 391 002e 5DF8047B 		ldr	r7, [sp], #4
 392              	.LCFI37:
 393              		.cfi_restore 7
 394              		.cfi_def_cfa_offset 0
 395 0032 7047     		bx	lr
 396              	.L19:
 397              		.align	2
 398              	.L18:
 399 0034 00700040 		.word	1073770496
 400              		.cfi_endproc
 401              	.LFE129:
 403              		.section	.text.PWR_OverDriveCmd,"ax",%progbits
 404              		.align	1
 405              		.global	PWR_OverDriveCmd
 406              		.syntax unified
 407              		.thumb
 408              		.thumb_func
 410              	PWR_OverDriveCmd:
 411              	.LFB130:
 456:./Library/stm32f4xx_pwr.c **** 
 457:./Library/stm32f4xx_pwr.c **** /**
 458:./Library/stm32f4xx_pwr.c ****   * @brief  Enables or disables the Over-Drive.
 459:./Library/stm32f4xx_pwr.c ****   * 
ARM GAS  /var/folders/yl/_q9l42k90g1g4mdhbs226msm0000gn/T//cch8YRrS.s 			page 16


 460:./Library/stm32f4xx_pwr.c ****   * @note   This function can be used only for STM32F42xxx/STM3243xxx devices.
 461:./Library/stm32f4xx_pwr.c ****   *         This mode allows the CPU and the core logic to operate at a higher frequency
 462:./Library/stm32f4xx_pwr.c ****   *         than the normal mode for a given voltage scaling (scale 1, scale 2 or scale 3).   
 463:./Library/stm32f4xx_pwr.c ****   * 
 464:./Library/stm32f4xx_pwr.c ****   * @note   It is recommended to enter or exit Over-drive mode when the application is not running 
 465:./Library/stm32f4xx_pwr.c ****   *          critical tasks and when the system clock source is either HSI or HSE. 
 466:./Library/stm32f4xx_pwr.c ****   *          During the Over-drive switch activation, no peripheral clocks should be enabled.   
 467:./Library/stm32f4xx_pwr.c ****   *          The peripheral clocks must be enabled once the Over-drive mode is activated.
 468:./Library/stm32f4xx_pwr.c ****   *            
 469:./Library/stm32f4xx_pwr.c ****   * @param  NewState: new state of the Over Drive mode.
 470:./Library/stm32f4xx_pwr.c ****   *          This parameter can be: ENABLE or DISABLE.
 471:./Library/stm32f4xx_pwr.c ****   * @retval None
 472:./Library/stm32f4xx_pwr.c ****   */
 473:./Library/stm32f4xx_pwr.c **** void PWR_OverDriveCmd(FunctionalState NewState)
 474:./Library/stm32f4xx_pwr.c **** {
 412              		.loc 1 474 1
 413              		.cfi_startproc
 414              		@ args = 0, pretend = 0, frame = 8
 415              		@ frame_needed = 1, uses_anonymous_args = 0
 416              		@ link register save eliminated.
 417 0000 80B4     		push	{r7}
 418              	.LCFI38:
 419              		.cfi_def_cfa_offset 4
 420              		.cfi_offset 7, -4
 421 0002 83B0     		sub	sp, sp, #12
 422              	.LCFI39:
 423              		.cfi_def_cfa_offset 16
 424 0004 00AF     		add	r7, sp, #0
 425              	.LCFI40:
 426              		.cfi_def_cfa_register 7
 427 0006 0346     		mov	r3, r0
 428 0008 FB71     		strb	r3, [r7, #7]
 475:./Library/stm32f4xx_pwr.c ****   /* Check the parameters */
 476:./Library/stm32f4xx_pwr.c ****   assert_param(IS_FUNCTIONAL_STATE(NewState));
 477:./Library/stm32f4xx_pwr.c ****   
 478:./Library/stm32f4xx_pwr.c ****   /* Set/Reset the ODEN bit to enable/disable the Over Drive mode */
 479:./Library/stm32f4xx_pwr.c ****   *(__IO uint32_t *) CR_ODEN_BB = (uint32_t)NewState;
 429              		.loc 1 479 3
 430 000a 044A     		ldr	r2, .L21
 431              		.loc 1 479 35
 432 000c FB79     		ldrb	r3, [r7, #7]	@ zero_extendqisi2
 433              		.loc 1 479 33
 434 000e 1360     		str	r3, [r2]
 480:./Library/stm32f4xx_pwr.c **** }
 435              		.loc 1 480 1
 436 0010 00BF     		nop
 437 0012 0C37     		adds	r7, r7, #12
 438              	.LCFI41:
 439              		.cfi_def_cfa_offset 4
 440 0014 BD46     		mov	sp, r7
 441              	.LCFI42:
 442              		.cfi_def_cfa_register 13
 443              		@ sp needed
 444 0016 5DF8047B 		ldr	r7, [sp], #4
 445              	.LCFI43:
 446              		.cfi_restore 7
 447              		.cfi_def_cfa_offset 0
ARM GAS  /var/folders/yl/_q9l42k90g1g4mdhbs226msm0000gn/T//cch8YRrS.s 			page 17


 448 001a 7047     		bx	lr
 449              	.L22:
 450              		.align	2
 451              	.L21:
 452 001c 40000E42 		.word	1108213824
 453              		.cfi_endproc
 454              	.LFE130:
 456              		.section	.text.PWR_OverDriveSWCmd,"ax",%progbits
 457              		.align	1
 458              		.global	PWR_OverDriveSWCmd
 459              		.syntax unified
 460              		.thumb
 461              		.thumb_func
 463              	PWR_OverDriveSWCmd:
 464              	.LFB131:
 481:./Library/stm32f4xx_pwr.c **** 
 482:./Library/stm32f4xx_pwr.c **** /**
 483:./Library/stm32f4xx_pwr.c ****   * @brief  Enables or disables the Over-Drive switching.
 484:./Library/stm32f4xx_pwr.c ****   * 
 485:./Library/stm32f4xx_pwr.c ****   * @note   This function can be used only for STM32F42xxx/STM3243xxx devices. 
 486:./Library/stm32f4xx_pwr.c ****   *       
 487:./Library/stm32f4xx_pwr.c ****   * @param  NewState: new state of the Over Drive switching mode.
 488:./Library/stm32f4xx_pwr.c ****   *          This parameter can be: ENABLE or DISABLE.
 489:./Library/stm32f4xx_pwr.c ****   * @retval None
 490:./Library/stm32f4xx_pwr.c ****   */
 491:./Library/stm32f4xx_pwr.c **** void PWR_OverDriveSWCmd(FunctionalState NewState)
 492:./Library/stm32f4xx_pwr.c **** {
 465              		.loc 1 492 1
 466              		.cfi_startproc
 467              		@ args = 0, pretend = 0, frame = 8
 468              		@ frame_needed = 1, uses_anonymous_args = 0
 469              		@ link register save eliminated.
 470 0000 80B4     		push	{r7}
 471              	.LCFI44:
 472              		.cfi_def_cfa_offset 4
 473              		.cfi_offset 7, -4
 474 0002 83B0     		sub	sp, sp, #12
 475              	.LCFI45:
 476              		.cfi_def_cfa_offset 16
 477 0004 00AF     		add	r7, sp, #0
 478              	.LCFI46:
 479              		.cfi_def_cfa_register 7
 480 0006 0346     		mov	r3, r0
 481 0008 FB71     		strb	r3, [r7, #7]
 493:./Library/stm32f4xx_pwr.c ****   /* Check the parameters */
 494:./Library/stm32f4xx_pwr.c ****   assert_param(IS_FUNCTIONAL_STATE(NewState));
 495:./Library/stm32f4xx_pwr.c **** 
 496:./Library/stm32f4xx_pwr.c ****   /* Set/Reset the ODSWEN bit to enable/disable the Over Drive switching mode */
 497:./Library/stm32f4xx_pwr.c ****   *(__IO uint32_t *) CR_ODSWEN_BB = (uint32_t)NewState;
 482              		.loc 1 497 3
 483 000a 044A     		ldr	r2, .L24
 484              		.loc 1 497 37
 485 000c FB79     		ldrb	r3, [r7, #7]	@ zero_extendqisi2
 486              		.loc 1 497 35
 487 000e 1360     		str	r3, [r2]
 498:./Library/stm32f4xx_pwr.c **** }
 488              		.loc 1 498 1
ARM GAS  /var/folders/yl/_q9l42k90g1g4mdhbs226msm0000gn/T//cch8YRrS.s 			page 18


 489 0010 00BF     		nop
 490 0012 0C37     		adds	r7, r7, #12
 491              	.LCFI47:
 492              		.cfi_def_cfa_offset 4
 493 0014 BD46     		mov	sp, r7
 494              	.LCFI48:
 495              		.cfi_def_cfa_register 13
 496              		@ sp needed
 497 0016 5DF8047B 		ldr	r7, [sp], #4
 498              	.LCFI49:
 499              		.cfi_restore 7
 500              		.cfi_def_cfa_offset 0
 501 001a 7047     		bx	lr
 502              	.L25:
 503              		.align	2
 504              	.L24:
 505 001c 44000E42 		.word	1108213828
 506              		.cfi_endproc
 507              	.LFE131:
 509              		.section	.text.PWR_UnderDriveCmd,"ax",%progbits
 510              		.align	1
 511              		.global	PWR_UnderDriveCmd
 512              		.syntax unified
 513              		.thumb
 514              		.thumb_func
 516              	PWR_UnderDriveCmd:
 517              	.LFB132:
 499:./Library/stm32f4xx_pwr.c **** 
 500:./Library/stm32f4xx_pwr.c **** /**
 501:./Library/stm32f4xx_pwr.c ****   * @brief   Enables or disables the Under-Drive mode.
 502:./Library/stm32f4xx_pwr.c ****   * 
 503:./Library/stm32f4xx_pwr.c ****   * @note   This function can be used only for STM32F42xxx/STM3243xxx devices.
 504:./Library/stm32f4xx_pwr.c ****   * @note    This mode is enabled only with STOP low power mode.
 505:./Library/stm32f4xx_pwr.c ****   *          In this mode, the 1.2V domain is preserved in reduced leakage mode. This 
 506:./Library/stm32f4xx_pwr.c ****   *          mode is only available when the main regulator or the low power regulator 
 507:./Library/stm32f4xx_pwr.c ****   *          is in low voltage mode
 508:./Library/stm32f4xx_pwr.c ****   *        
 509:./Library/stm32f4xx_pwr.c ****   * @note   If the Under-drive mode was enabled, it is automatically disabled after 
 510:./Library/stm32f4xx_pwr.c ****   *         exiting Stop mode. 
 511:./Library/stm32f4xx_pwr.c ****   *         When the voltage regulator operates in Under-drive mode, an additional  
 512:./Library/stm32f4xx_pwr.c ****   *         startup delay is induced when waking up from Stop mode.
 513:./Library/stm32f4xx_pwr.c ****   *                    
 514:./Library/stm32f4xx_pwr.c ****   * @param  NewState: new state of the Under Drive mode.
 515:./Library/stm32f4xx_pwr.c ****   *          This parameter can be: ENABLE or DISABLE.
 516:./Library/stm32f4xx_pwr.c ****   * @retval None
 517:./Library/stm32f4xx_pwr.c ****   */
 518:./Library/stm32f4xx_pwr.c **** void PWR_UnderDriveCmd(FunctionalState NewState)
 519:./Library/stm32f4xx_pwr.c **** {
 518              		.loc 1 519 1
 519              		.cfi_startproc
 520              		@ args = 0, pretend = 0, frame = 8
 521              		@ frame_needed = 1, uses_anonymous_args = 0
 522              		@ link register save eliminated.
 523 0000 80B4     		push	{r7}
 524              	.LCFI50:
 525              		.cfi_def_cfa_offset 4
 526              		.cfi_offset 7, -4
ARM GAS  /var/folders/yl/_q9l42k90g1g4mdhbs226msm0000gn/T//cch8YRrS.s 			page 19


 527 0002 83B0     		sub	sp, sp, #12
 528              	.LCFI51:
 529              		.cfi_def_cfa_offset 16
 530 0004 00AF     		add	r7, sp, #0
 531              	.LCFI52:
 532              		.cfi_def_cfa_register 7
 533 0006 0346     		mov	r3, r0
 534 0008 FB71     		strb	r3, [r7, #7]
 520:./Library/stm32f4xx_pwr.c ****   /* Check the parameters */
 521:./Library/stm32f4xx_pwr.c ****   assert_param(IS_FUNCTIONAL_STATE(NewState));
 522:./Library/stm32f4xx_pwr.c **** 
 523:./Library/stm32f4xx_pwr.c ****   if (NewState != DISABLE)
 535              		.loc 1 523 6
 536 000a FB79     		ldrb	r3, [r7, #7]	@ zero_extendqisi2
 537 000c 002B     		cmp	r3, #0
 538 000e 06D0     		beq	.L27
 524:./Library/stm32f4xx_pwr.c ****   {
 525:./Library/stm32f4xx_pwr.c ****     /* Set the UDEN[1:0] bits to enable the Under Drive mode */
 526:./Library/stm32f4xx_pwr.c ****     PWR->CR |= (uint32_t)PWR_CR_UDEN;
 539              		.loc 1 526 13
 540 0010 094B     		ldr	r3, .L30
 541 0012 1B68     		ldr	r3, [r3]
 542 0014 084A     		ldr	r2, .L30
 543 0016 43F44023 		orr	r3, r3, #786432
 544 001a 1360     		str	r3, [r2]
 527:./Library/stm32f4xx_pwr.c ****   }
 528:./Library/stm32f4xx_pwr.c ****   else
 529:./Library/stm32f4xx_pwr.c ****   {
 530:./Library/stm32f4xx_pwr.c ****     /* Reset the UDEN[1:0] bits to disable the Under Drive mode */
 531:./Library/stm32f4xx_pwr.c ****     PWR->CR &= (uint32_t)(~PWR_CR_UDEN);
 532:./Library/stm32f4xx_pwr.c ****   }
 533:./Library/stm32f4xx_pwr.c **** }
 545              		.loc 1 533 1
 546 001c 05E0     		b	.L29
 547              	.L27:
 531:./Library/stm32f4xx_pwr.c ****   }
 548              		.loc 1 531 13
 549 001e 064B     		ldr	r3, .L30
 550 0020 1B68     		ldr	r3, [r3]
 551 0022 054A     		ldr	r2, .L30
 552 0024 23F44023 		bic	r3, r3, #786432
 553 0028 1360     		str	r3, [r2]
 554              	.L29:
 555              		.loc 1 533 1
 556 002a 00BF     		nop
 557 002c 0C37     		adds	r7, r7, #12
 558              	.LCFI53:
 559              		.cfi_def_cfa_offset 4
 560 002e BD46     		mov	sp, r7
 561              	.LCFI54:
 562              		.cfi_def_cfa_register 13
 563              		@ sp needed
 564 0030 5DF8047B 		ldr	r7, [sp], #4
 565              	.LCFI55:
 566              		.cfi_restore 7
 567              		.cfi_def_cfa_offset 0
 568 0034 7047     		bx	lr
ARM GAS  /var/folders/yl/_q9l42k90g1g4mdhbs226msm0000gn/T//cch8YRrS.s 			page 20


 569              	.L31:
 570 0036 00BF     		.align	2
 571              	.L30:
 572 0038 00700040 		.word	1073770496
 573              		.cfi_endproc
 574              	.LFE132:
 576              		.section	.text.PWR_MainRegulatorLowVoltageCmd,"ax",%progbits
 577              		.align	1
 578              		.global	PWR_MainRegulatorLowVoltageCmd
 579              		.syntax unified
 580              		.thumb
 581              		.thumb_func
 583              	PWR_MainRegulatorLowVoltageCmd:
 584              	.LFB133:
 534:./Library/stm32f4xx_pwr.c **** 
 535:./Library/stm32f4xx_pwr.c **** #if defined(STM32F427_437xx) || defined(STM32F429_439xx) || defined(STM32F446xx)
 536:./Library/stm32f4xx_pwr.c **** /**
 537:./Library/stm32f4xx_pwr.c ****   * @brief Enables or disables the Main Regulator under drive mode.
 538:./Library/stm32f4xx_pwr.c ****   *
 539:./Library/stm32f4xx_pwr.c ****   * @note  This mode is only available for STM32F427_437xx/STM32F429_439xx/STM32F446xx devices.
 540:./Library/stm32f4xx_pwr.c ****   *
 541:./Library/stm32f4xx_pwr.c ****   * @param  NewState: new state of the Main Regulator Under Drive mode.
 542:./Library/stm32f4xx_pwr.c ****   *         This parameter can be: ENABLE or DISABLE.
 543:./Library/stm32f4xx_pwr.c ****   * @retval None
 544:./Library/stm32f4xx_pwr.c ****   */
 545:./Library/stm32f4xx_pwr.c **** void PWR_MainRegulatorUnderDriveCmd(FunctionalState NewState)
 546:./Library/stm32f4xx_pwr.c **** { 
 547:./Library/stm32f4xx_pwr.c ****   /* Check the parameters */
 548:./Library/stm32f4xx_pwr.c ****   assert_param(IS_FUNCTIONAL_STATE(NewState));
 549:./Library/stm32f4xx_pwr.c ****   
 550:./Library/stm32f4xx_pwr.c ****   if (NewState != DISABLE)
 551:./Library/stm32f4xx_pwr.c ****   {
 552:./Library/stm32f4xx_pwr.c ****     *(__IO uint32_t *) CR_MRUDS_BB = (uint32_t)ENABLE;
 553:./Library/stm32f4xx_pwr.c ****   }
 554:./Library/stm32f4xx_pwr.c ****   else
 555:./Library/stm32f4xx_pwr.c ****   {
 556:./Library/stm32f4xx_pwr.c ****     *(__IO uint32_t *) CR_MRUDS_BB = (uint32_t)DISABLE;
 557:./Library/stm32f4xx_pwr.c ****   }
 558:./Library/stm32f4xx_pwr.c **** }
 559:./Library/stm32f4xx_pwr.c **** 
 560:./Library/stm32f4xx_pwr.c **** /**
 561:./Library/stm32f4xx_pwr.c ****   * @brief Enables or disables the Low Power Regulator under drive mode.
 562:./Library/stm32f4xx_pwr.c ****   *
 563:./Library/stm32f4xx_pwr.c ****   * @note  This mode is only available for STM32F427_437xx/STM32F429_439xx/STM32F446xx devices.
 564:./Library/stm32f4xx_pwr.c ****   *
 565:./Library/stm32f4xx_pwr.c ****   * @param  NewState: new state of the Low Power Regulator Under Drive mode.
 566:./Library/stm32f4xx_pwr.c ****   *          This parameter can be: ENABLE or DISABLE.
 567:./Library/stm32f4xx_pwr.c ****   * @retval None
 568:./Library/stm32f4xx_pwr.c ****   */
 569:./Library/stm32f4xx_pwr.c **** void PWR_LowRegulatorUnderDriveCmd(FunctionalState NewState)
 570:./Library/stm32f4xx_pwr.c **** {
 571:./Library/stm32f4xx_pwr.c ****   /* Check the parameters */
 572:./Library/stm32f4xx_pwr.c ****   assert_param(IS_FUNCTIONAL_STATE(NewState));
 573:./Library/stm32f4xx_pwr.c ****   
 574:./Library/stm32f4xx_pwr.c ****   if (NewState != DISABLE)
 575:./Library/stm32f4xx_pwr.c ****   {
 576:./Library/stm32f4xx_pwr.c ****     *(__IO uint32_t *) CR_LPUDS_BB = (uint32_t)ENABLE;
ARM GAS  /var/folders/yl/_q9l42k90g1g4mdhbs226msm0000gn/T//cch8YRrS.s 			page 21


 577:./Library/stm32f4xx_pwr.c ****   }
 578:./Library/stm32f4xx_pwr.c ****   else
 579:./Library/stm32f4xx_pwr.c ****   {
 580:./Library/stm32f4xx_pwr.c ****     *(__IO uint32_t *) CR_LPUDS_BB = (uint32_t)DISABLE;
 581:./Library/stm32f4xx_pwr.c ****   }
 582:./Library/stm32f4xx_pwr.c **** }
 583:./Library/stm32f4xx_pwr.c **** #endif /* STM32F427_437xx || STM32F429_439xx || STM32F446xx */
 584:./Library/stm32f4xx_pwr.c **** 
 585:./Library/stm32f4xx_pwr.c **** #if defined(STM32F401xx) || defined(STM32F410xx) || defined(STM32F411xE) || defined(STM32F412xG) ||
 586:./Library/stm32f4xx_pwr.c **** /**
 587:./Library/stm32f4xx_pwr.c ****   * @brief Enables or disables the Main Regulator low voltage mode.
 588:./Library/stm32f4xx_pwr.c ****   *
 589:./Library/stm32f4xx_pwr.c ****   * @note  This mode is only available for STM32F401xx/STM32F410xx/STM32F411xx/STM32F412xG/STM32F41
 590:./Library/stm32f4xx_pwr.c ****   *
 591:./Library/stm32f4xx_pwr.c ****   * @param  NewState: new state of the Main Regulator Low Voltage mode.
 592:./Library/stm32f4xx_pwr.c ****   *          This parameter can be: ENABLE or DISABLE.
 593:./Library/stm32f4xx_pwr.c ****   * @retval None
 594:./Library/stm32f4xx_pwr.c ****   */
 595:./Library/stm32f4xx_pwr.c **** void PWR_MainRegulatorLowVoltageCmd(FunctionalState NewState)
 596:./Library/stm32f4xx_pwr.c **** { 
 585              		.loc 1 596 1
 586              		.cfi_startproc
 587              		@ args = 0, pretend = 0, frame = 8
 588              		@ frame_needed = 1, uses_anonymous_args = 0
 589              		@ link register save eliminated.
 590 0000 80B4     		push	{r7}
 591              	.LCFI56:
 592              		.cfi_def_cfa_offset 4
 593              		.cfi_offset 7, -4
 594 0002 83B0     		sub	sp, sp, #12
 595              	.LCFI57:
 596              		.cfi_def_cfa_offset 16
 597 0004 00AF     		add	r7, sp, #0
 598              	.LCFI58:
 599              		.cfi_def_cfa_register 7
 600 0006 0346     		mov	r3, r0
 601 0008 FB71     		strb	r3, [r7, #7]
 597:./Library/stm32f4xx_pwr.c ****   /* Check the parameters */
 598:./Library/stm32f4xx_pwr.c ****   assert_param(IS_FUNCTIONAL_STATE(NewState));
 599:./Library/stm32f4xx_pwr.c ****   
 600:./Library/stm32f4xx_pwr.c ****   if (NewState != DISABLE)
 602              		.loc 1 600 6
 603 000a FB79     		ldrb	r3, [r7, #7]	@ zero_extendqisi2
 604 000c 002B     		cmp	r3, #0
 605 000e 03D0     		beq	.L33
 601:./Library/stm32f4xx_pwr.c ****   {
 602:./Library/stm32f4xx_pwr.c ****     *(__IO uint32_t *) CR_MRLVDS_BB = (uint32_t)ENABLE;
 606              		.loc 1 602 5
 607 0010 064B     		ldr	r3, .L36
 608              		.loc 1 602 37
 609 0012 0122     		movs	r2, #1
 610 0014 1A60     		str	r2, [r3]
 603:./Library/stm32f4xx_pwr.c ****   }
 604:./Library/stm32f4xx_pwr.c ****   else
 605:./Library/stm32f4xx_pwr.c ****   {
 606:./Library/stm32f4xx_pwr.c ****     *(__IO uint32_t *) CR_MRLVDS_BB = (uint32_t)DISABLE;
 607:./Library/stm32f4xx_pwr.c ****   }
ARM GAS  /var/folders/yl/_q9l42k90g1g4mdhbs226msm0000gn/T//cch8YRrS.s 			page 22


 608:./Library/stm32f4xx_pwr.c **** }
 611              		.loc 1 608 1
 612 0016 02E0     		b	.L35
 613              	.L33:
 606:./Library/stm32f4xx_pwr.c ****   }
 614              		.loc 1 606 5
 615 0018 044B     		ldr	r3, .L36
 606:./Library/stm32f4xx_pwr.c ****   }
 616              		.loc 1 606 37
 617 001a 0022     		movs	r2, #0
 618 001c 1A60     		str	r2, [r3]
 619              	.L35:
 620              		.loc 1 608 1
 621 001e 00BF     		nop
 622 0020 0C37     		adds	r7, r7, #12
 623              	.LCFI59:
 624              		.cfi_def_cfa_offset 4
 625 0022 BD46     		mov	sp, r7
 626              	.LCFI60:
 627              		.cfi_def_cfa_register 13
 628              		@ sp needed
 629 0024 5DF8047B 		ldr	r7, [sp], #4
 630              	.LCFI61:
 631              		.cfi_restore 7
 632              		.cfi_def_cfa_offset 0
 633 0028 7047     		bx	lr
 634              	.L37:
 635 002a 00BF     		.align	2
 636              	.L36:
 637 002c 2C000E42 		.word	1108213804
 638              		.cfi_endproc
 639              	.LFE133:
 641              		.section	.text.PWR_LowRegulatorLowVoltageCmd,"ax",%progbits
 642              		.align	1
 643              		.global	PWR_LowRegulatorLowVoltageCmd
 644              		.syntax unified
 645              		.thumb
 646              		.thumb_func
 648              	PWR_LowRegulatorLowVoltageCmd:
 649              	.LFB134:
 609:./Library/stm32f4xx_pwr.c **** 
 610:./Library/stm32f4xx_pwr.c **** /**
 611:./Library/stm32f4xx_pwr.c ****   * @brief Enables or disables the Low Power Regulator low voltage mode.
 612:./Library/stm32f4xx_pwr.c ****   *
 613:./Library/stm32f4xx_pwr.c ****   * @note  This mode is only available for STM32F401xx/STM32F410xx/STM32F411xx/STM32F412xG/STM32F41
 614:./Library/stm32f4xx_pwr.c ****   *
 615:./Library/stm32f4xx_pwr.c ****   * @param  NewState: new state of the Low Power Regulator Low Voltage mode.
 616:./Library/stm32f4xx_pwr.c ****   *          This parameter can be: ENABLE or DISABLE.
 617:./Library/stm32f4xx_pwr.c ****   * @retval None
 618:./Library/stm32f4xx_pwr.c ****   */
 619:./Library/stm32f4xx_pwr.c **** void PWR_LowRegulatorLowVoltageCmd(FunctionalState NewState)
 620:./Library/stm32f4xx_pwr.c **** {
 650              		.loc 1 620 1
 651              		.cfi_startproc
 652              		@ args = 0, pretend = 0, frame = 8
 653              		@ frame_needed = 1, uses_anonymous_args = 0
 654              		@ link register save eliminated.
ARM GAS  /var/folders/yl/_q9l42k90g1g4mdhbs226msm0000gn/T//cch8YRrS.s 			page 23


 655 0000 80B4     		push	{r7}
 656              	.LCFI62:
 657              		.cfi_def_cfa_offset 4
 658              		.cfi_offset 7, -4
 659 0002 83B0     		sub	sp, sp, #12
 660              	.LCFI63:
 661              		.cfi_def_cfa_offset 16
 662 0004 00AF     		add	r7, sp, #0
 663              	.LCFI64:
 664              		.cfi_def_cfa_register 7
 665 0006 0346     		mov	r3, r0
 666 0008 FB71     		strb	r3, [r7, #7]
 621:./Library/stm32f4xx_pwr.c ****   /* Check the parameters */
 622:./Library/stm32f4xx_pwr.c ****   assert_param(IS_FUNCTIONAL_STATE(NewState));
 623:./Library/stm32f4xx_pwr.c ****   
 624:./Library/stm32f4xx_pwr.c ****   if (NewState != DISABLE)
 667              		.loc 1 624 6
 668 000a FB79     		ldrb	r3, [r7, #7]	@ zero_extendqisi2
 669 000c 002B     		cmp	r3, #0
 670 000e 03D0     		beq	.L39
 625:./Library/stm32f4xx_pwr.c ****   {
 626:./Library/stm32f4xx_pwr.c ****     *(__IO uint32_t *) CR_LPLVDS_BB = (uint32_t)ENABLE;
 671              		.loc 1 626 5
 672 0010 064B     		ldr	r3, .L42
 673              		.loc 1 626 37
 674 0012 0122     		movs	r2, #1
 675 0014 1A60     		str	r2, [r3]
 627:./Library/stm32f4xx_pwr.c ****   }
 628:./Library/stm32f4xx_pwr.c ****   else
 629:./Library/stm32f4xx_pwr.c ****   {
 630:./Library/stm32f4xx_pwr.c ****     *(__IO uint32_t *) CR_LPLVDS_BB = (uint32_t)DISABLE;
 631:./Library/stm32f4xx_pwr.c ****   }
 632:./Library/stm32f4xx_pwr.c **** }
 676              		.loc 1 632 1
 677 0016 02E0     		b	.L41
 678              	.L39:
 630:./Library/stm32f4xx_pwr.c ****   }
 679              		.loc 1 630 5
 680 0018 044B     		ldr	r3, .L42
 630:./Library/stm32f4xx_pwr.c ****   }
 681              		.loc 1 630 37
 682 001a 0022     		movs	r2, #0
 683 001c 1A60     		str	r2, [r3]
 684              	.L41:
 685              		.loc 1 632 1
 686 001e 00BF     		nop
 687 0020 0C37     		adds	r7, r7, #12
 688              	.LCFI65:
 689              		.cfi_def_cfa_offset 4
 690 0022 BD46     		mov	sp, r7
 691              	.LCFI66:
 692              		.cfi_def_cfa_register 13
 693              		@ sp needed
 694 0024 5DF8047B 		ldr	r7, [sp], #4
 695              	.LCFI67:
 696              		.cfi_restore 7
 697              		.cfi_def_cfa_offset 0
ARM GAS  /var/folders/yl/_q9l42k90g1g4mdhbs226msm0000gn/T//cch8YRrS.s 			page 24


 698 0028 7047     		bx	lr
 699              	.L43:
 700 002a 00BF     		.align	2
 701              	.L42:
 702 002c 28000E42 		.word	1108213800
 703              		.cfi_endproc
 704              	.LFE134:
 706              		.section	.text.PWR_FlashPowerDownCmd,"ax",%progbits
 707              		.align	1
 708              		.global	PWR_FlashPowerDownCmd
 709              		.syntax unified
 710              		.thumb
 711              		.thumb_func
 713              	PWR_FlashPowerDownCmd:
 714              	.LFB135:
 633:./Library/stm32f4xx_pwr.c **** #endif /* STM32F401xx || STM32F410xx || STM32F411xE || STM32F412xG || STM32F413_423xx */
 634:./Library/stm32f4xx_pwr.c **** 
 635:./Library/stm32f4xx_pwr.c **** /**
 636:./Library/stm32f4xx_pwr.c ****   * @}
 637:./Library/stm32f4xx_pwr.c ****   */
 638:./Library/stm32f4xx_pwr.c **** 
 639:./Library/stm32f4xx_pwr.c **** /** @defgroup PWR_Group5 FLASH Power Down configuration functions
 640:./Library/stm32f4xx_pwr.c ****   *  @brief   FLASH Power Down configuration functions 
 641:./Library/stm32f4xx_pwr.c ****   *
 642:./Library/stm32f4xx_pwr.c **** @verbatim   
 643:./Library/stm32f4xx_pwr.c ****  ===============================================================================
 644:./Library/stm32f4xx_pwr.c ****              ##### FLASH Power Down configuration functions #####
 645:./Library/stm32f4xx_pwr.c ****  ===============================================================================  
 646:./Library/stm32f4xx_pwr.c ****     [..]
 647:./Library/stm32f4xx_pwr.c ****       (+) By setting the FPDS bit in the PWR_CR register by using the 
 648:./Library/stm32f4xx_pwr.c ****           PWR_FlashPowerDownCmd() function, the Flash memory also enters power 
 649:./Library/stm32f4xx_pwr.c ****           down mode when the device enters Stop mode. When the Flash memory 
 650:./Library/stm32f4xx_pwr.c ****           is in power down mode, an additional startup delay is incurred when 
 651:./Library/stm32f4xx_pwr.c ****           waking up from Stop mode.
 652:./Library/stm32f4xx_pwr.c **** @endverbatim
 653:./Library/stm32f4xx_pwr.c ****   * @{
 654:./Library/stm32f4xx_pwr.c ****   */
 655:./Library/stm32f4xx_pwr.c **** 
 656:./Library/stm32f4xx_pwr.c **** /**
 657:./Library/stm32f4xx_pwr.c ****   * @brief  Enables or disables the Flash Power Down in STOP mode.
 658:./Library/stm32f4xx_pwr.c ****   * @param  NewState: new state of the Flash power mode.
 659:./Library/stm32f4xx_pwr.c ****   *          This parameter can be: ENABLE or DISABLE.
 660:./Library/stm32f4xx_pwr.c ****   * @retval None
 661:./Library/stm32f4xx_pwr.c ****   */
 662:./Library/stm32f4xx_pwr.c **** void PWR_FlashPowerDownCmd(FunctionalState NewState)
 663:./Library/stm32f4xx_pwr.c **** {
 715              		.loc 1 663 1
 716              		.cfi_startproc
 717              		@ args = 0, pretend = 0, frame = 8
 718              		@ frame_needed = 1, uses_anonymous_args = 0
 719              		@ link register save eliminated.
 720 0000 80B4     		push	{r7}
 721              	.LCFI68:
 722              		.cfi_def_cfa_offset 4
 723              		.cfi_offset 7, -4
 724 0002 83B0     		sub	sp, sp, #12
 725              	.LCFI69:
ARM GAS  /var/folders/yl/_q9l42k90g1g4mdhbs226msm0000gn/T//cch8YRrS.s 			page 25


 726              		.cfi_def_cfa_offset 16
 727 0004 00AF     		add	r7, sp, #0
 728              	.LCFI70:
 729              		.cfi_def_cfa_register 7
 730 0006 0346     		mov	r3, r0
 731 0008 FB71     		strb	r3, [r7, #7]
 664:./Library/stm32f4xx_pwr.c ****   /* Check the parameters */
 665:./Library/stm32f4xx_pwr.c ****   assert_param(IS_FUNCTIONAL_STATE(NewState));
 666:./Library/stm32f4xx_pwr.c **** 
 667:./Library/stm32f4xx_pwr.c ****   *(__IO uint32_t *) CR_FPDS_BB = (uint32_t)NewState;
 732              		.loc 1 667 3
 733 000a 044A     		ldr	r2, .L45
 734              		.loc 1 667 35
 735 000c FB79     		ldrb	r3, [r7, #7]	@ zero_extendqisi2
 736              		.loc 1 667 33
 737 000e 1360     		str	r3, [r2]
 668:./Library/stm32f4xx_pwr.c **** }
 738              		.loc 1 668 1
 739 0010 00BF     		nop
 740 0012 0C37     		adds	r7, r7, #12
 741              	.LCFI71:
 742              		.cfi_def_cfa_offset 4
 743 0014 BD46     		mov	sp, r7
 744              	.LCFI72:
 745              		.cfi_def_cfa_register 13
 746              		@ sp needed
 747 0016 5DF8047B 		ldr	r7, [sp], #4
 748              	.LCFI73:
 749              		.cfi_restore 7
 750              		.cfi_def_cfa_offset 0
 751 001a 7047     		bx	lr
 752              	.L46:
 753              		.align	2
 754              	.L45:
 755 001c 24000E42 		.word	1108213796
 756              		.cfi_endproc
 757              	.LFE135:
 759              		.section	.text.PWR_EnterSTOPMode,"ax",%progbits
 760              		.align	1
 761              		.global	PWR_EnterSTOPMode
 762              		.syntax unified
 763              		.thumb
 764              		.thumb_func
 766              	PWR_EnterSTOPMode:
 767              	.LFB136:
 669:./Library/stm32f4xx_pwr.c **** 
 670:./Library/stm32f4xx_pwr.c **** /**
 671:./Library/stm32f4xx_pwr.c ****   * @}
 672:./Library/stm32f4xx_pwr.c ****   */
 673:./Library/stm32f4xx_pwr.c **** 
 674:./Library/stm32f4xx_pwr.c **** /** @defgroup PWR_Group6 Low Power modes configuration functions
 675:./Library/stm32f4xx_pwr.c ****   *  @brief   Low Power modes configuration functions 
 676:./Library/stm32f4xx_pwr.c ****   *
 677:./Library/stm32f4xx_pwr.c **** @verbatim   
 678:./Library/stm32f4xx_pwr.c ****  ===============================================================================
 679:./Library/stm32f4xx_pwr.c ****               ##### Low Power modes configuration functions #####
 680:./Library/stm32f4xx_pwr.c ****  ===============================================================================  
ARM GAS  /var/folders/yl/_q9l42k90g1g4mdhbs226msm0000gn/T//cch8YRrS.s 			page 26


 681:./Library/stm32f4xx_pwr.c ****     [..]
 682:./Library/stm32f4xx_pwr.c ****       The devices feature 3 low-power modes:
 683:./Library/stm32f4xx_pwr.c ****       (+) Sleep mode: Cortex-M4 core stopped, peripherals kept running.
 684:./Library/stm32f4xx_pwr.c ****       (+) Stop mode: all clocks are stopped, regulator running, regulator 
 685:./Library/stm32f4xx_pwr.c ****           in low power mode
 686:./Library/stm32f4xx_pwr.c ****       (+) Standby mode: 1.2V domain powered off.
 687:./Library/stm32f4xx_pwr.c ****    
 688:./Library/stm32f4xx_pwr.c ****    *** Sleep mode ***
 689:./Library/stm32f4xx_pwr.c ****    ==================
 690:./Library/stm32f4xx_pwr.c ****     [..]
 691:./Library/stm32f4xx_pwr.c ****       (+) Entry:
 692:./Library/stm32f4xx_pwr.c ****         (++) The Sleep mode is entered by using the __WFI() or __WFE() functions.
 693:./Library/stm32f4xx_pwr.c ****       (+) Exit:
 694:./Library/stm32f4xx_pwr.c ****         (++) Any peripheral interrupt acknowledged by the nested vectored interrupt 
 695:./Library/stm32f4xx_pwr.c ****              controller (NVIC) can wake up the device from Sleep mode.
 696:./Library/stm32f4xx_pwr.c **** 
 697:./Library/stm32f4xx_pwr.c ****    *** Stop mode ***
 698:./Library/stm32f4xx_pwr.c ****    =================
 699:./Library/stm32f4xx_pwr.c ****     [..]
 700:./Library/stm32f4xx_pwr.c ****       In Stop mode, all clocks in the 1.2V domain are stopped, the PLL, the HSI,
 701:./Library/stm32f4xx_pwr.c ****       and the HSE RC oscillators are disabled. Internal SRAM and register contents 
 702:./Library/stm32f4xx_pwr.c ****       are preserved.
 703:./Library/stm32f4xx_pwr.c ****       The voltage regulator can be configured either in normal or low-power mode.
 704:./Library/stm32f4xx_pwr.c ****       To minimize the consumption In Stop mode, FLASH can be powered off before 
 705:./Library/stm32f4xx_pwr.c ****       entering the Stop mode. It can be switched on again by software after exiting 
 706:./Library/stm32f4xx_pwr.c ****       the Stop mode using the PWR_FlashPowerDownCmd() function. 
 707:./Library/stm32f4xx_pwr.c ****    
 708:./Library/stm32f4xx_pwr.c ****       (+) Entry:
 709:./Library/stm32f4xx_pwr.c ****         (++) The Stop mode is entered using the PWR_EnterSTOPMode(PWR_MainRegulator_ON) 
 710:./Library/stm32f4xx_pwr.c ****              function with:
 711:./Library/stm32f4xx_pwr.c ****           (+++) Main regulator ON.
 712:./Library/stm32f4xx_pwr.c ****           (+++) Low Power regulator ON.
 713:./Library/stm32f4xx_pwr.c ****       (+) Exit:
 714:./Library/stm32f4xx_pwr.c ****         (++) Any EXTI Line (Internal or External) configured in Interrupt/Event mode.
 715:./Library/stm32f4xx_pwr.c ****       
 716:./Library/stm32f4xx_pwr.c ****    *** Standby mode ***
 717:./Library/stm32f4xx_pwr.c ****    ====================
 718:./Library/stm32f4xx_pwr.c ****     [..]
 719:./Library/stm32f4xx_pwr.c ****       The Standby mode allows to achieve the lowest power consumption. It is based 
 720:./Library/stm32f4xx_pwr.c ****       on the Cortex-M4 deepsleep mode, with the voltage regulator disabled. 
 721:./Library/stm32f4xx_pwr.c ****       The 1.2V domain is consequently powered off. The PLL, the HSI oscillator and 
 722:./Library/stm32f4xx_pwr.c ****       the HSE oscillator are also switched off. SRAM and register contents are lost 
 723:./Library/stm32f4xx_pwr.c ****       except for the RTC registers, RTC backup registers, backup SRAM and Standby 
 724:./Library/stm32f4xx_pwr.c ****       circuitry.
 725:./Library/stm32f4xx_pwr.c ****    
 726:./Library/stm32f4xx_pwr.c ****       The voltage regulator is OFF.
 727:./Library/stm32f4xx_pwr.c ****       
 728:./Library/stm32f4xx_pwr.c ****       (+) Entry:
 729:./Library/stm32f4xx_pwr.c ****         (++) The Standby mode is entered using the PWR_EnterSTANDBYMode() function.
 730:./Library/stm32f4xx_pwr.c ****       (+) Exit:
 731:./Library/stm32f4xx_pwr.c ****         (++) WKUP pin rising edge, RTC alarm (Alarm A and Alarm B), RTC wakeup,
 732:./Library/stm32f4xx_pwr.c ****              tamper event, time-stamp event, external reset in NRST pin, IWDG reset.              
 733:./Library/stm32f4xx_pwr.c **** 
 734:./Library/stm32f4xx_pwr.c ****    *** Auto-wakeup (AWU) from low-power mode ***
 735:./Library/stm32f4xx_pwr.c ****    =============================================
 736:./Library/stm32f4xx_pwr.c ****     [..]
 737:./Library/stm32f4xx_pwr.c ****       The MCU can be woken up from low-power mode by an RTC Alarm event, an RTC 
ARM GAS  /var/folders/yl/_q9l42k90g1g4mdhbs226msm0000gn/T//cch8YRrS.s 			page 27


 738:./Library/stm32f4xx_pwr.c ****       Wakeup event, a tamper event, a time-stamp event, or a comparator event, 
 739:./Library/stm32f4xx_pwr.c ****       without depending on an external interrupt (Auto-wakeup mode).
 740:./Library/stm32f4xx_pwr.c **** 
 741:./Library/stm32f4xx_pwr.c ****       (#) RTC auto-wakeup (AWU) from the Stop mode
 742:./Library/stm32f4xx_pwr.c ****        
 743:./Library/stm32f4xx_pwr.c ****         (++) To wake up from the Stop mode with an RTC alarm event, it is necessary to:
 744:./Library/stm32f4xx_pwr.c ****           (+++) Configure the EXTI Line 17 to be sensitive to rising edges (Interrupt 
 745:./Library/stm32f4xx_pwr.c ****                 or Event modes) using the EXTI_Init() function.
 746:./Library/stm32f4xx_pwr.c ****           (+++) Enable the RTC Alarm Interrupt using the RTC_ITConfig() function
 747:./Library/stm32f4xx_pwr.c ****           (+++) Configure the RTC to generate the RTC alarm using the RTC_SetAlarm() 
 748:./Library/stm32f4xx_pwr.c ****                 and RTC_AlarmCmd() functions.
 749:./Library/stm32f4xx_pwr.c ****         (++) To wake up from the Stop mode with an RTC Tamper or time stamp event, it 
 750:./Library/stm32f4xx_pwr.c ****              is necessary to:
 751:./Library/stm32f4xx_pwr.c ****           (+++) Configure the EXTI Line 21 to be sensitive to rising edges (Interrupt 
 752:./Library/stm32f4xx_pwr.c ****                 or Event modes) using the EXTI_Init() function.
 753:./Library/stm32f4xx_pwr.c ****           (+++) Enable the RTC Tamper or time stamp Interrupt using the RTC_ITConfig() 
 754:./Library/stm32f4xx_pwr.c ****                 function
 755:./Library/stm32f4xx_pwr.c ****           (+++) Configure the RTC to detect the tamper or time stamp event using the
 756:./Library/stm32f4xx_pwr.c ****                 RTC_TimeStampConfig(), RTC_TamperTriggerConfig() and RTC_TamperCmd()
 757:./Library/stm32f4xx_pwr.c ****                 functions.
 758:./Library/stm32f4xx_pwr.c ****         (++) To wake up from the Stop mode with an RTC WakeUp event, it is necessary to:
 759:./Library/stm32f4xx_pwr.c ****            (+++) Configure the EXTI Line 22 to be sensitive to rising edges (Interrupt 
 760:./Library/stm32f4xx_pwr.c ****                  or Event modes) using the EXTI_Init() function.
 761:./Library/stm32f4xx_pwr.c ****            (+++) Enable the RTC WakeUp Interrupt using the RTC_ITConfig() function
 762:./Library/stm32f4xx_pwr.c ****            (+++) Configure the RTC to generate the RTC WakeUp event using the RTC_WakeUpClockConfig
 763:./Library/stm32f4xx_pwr.c ****                  RTC_SetWakeUpCounter() and RTC_WakeUpCmd() functions.
 764:./Library/stm32f4xx_pwr.c **** 
 765:./Library/stm32f4xx_pwr.c ****       (#) RTC auto-wakeup (AWU) from the Standby mode
 766:./Library/stm32f4xx_pwr.c ****    
 767:./Library/stm32f4xx_pwr.c ****         (++) To wake up from the Standby mode with an RTC alarm event, it is necessary to:
 768:./Library/stm32f4xx_pwr.c ****           (+++) Enable the RTC Alarm Interrupt using the RTC_ITConfig() function
 769:./Library/stm32f4xx_pwr.c ****           (+++) Configure the RTC to generate the RTC alarm using the RTC_SetAlarm() 
 770:./Library/stm32f4xx_pwr.c ****                 and RTC_AlarmCmd() functions.
 771:./Library/stm32f4xx_pwr.c ****         (++) To wake up from the Standby mode with an RTC Tamper or time stamp event, it 
 772:./Library/stm32f4xx_pwr.c ****              is necessary to:
 773:./Library/stm32f4xx_pwr.c ****           (+++) Enable the RTC Tamper or time stamp Interrupt using the RTC_ITConfig() 
 774:./Library/stm32f4xx_pwr.c ****                 function
 775:./Library/stm32f4xx_pwr.c ****           (+++) Configure the RTC to detect the tamper or time stamp event using the
 776:./Library/stm32f4xx_pwr.c ****                 RTC_TimeStampConfig(), RTC_TamperTriggerConfig() and RTC_TamperCmd()
 777:./Library/stm32f4xx_pwr.c ****                 functions.
 778:./Library/stm32f4xx_pwr.c ****         (++) To wake up from the Standby mode with an RTC WakeUp event, it is necessary to:
 779:./Library/stm32f4xx_pwr.c ****           (+++) Enable the RTC WakeUp Interrupt using the RTC_ITConfig() function
 780:./Library/stm32f4xx_pwr.c ****           (+++) Configure the RTC to generate the RTC WakeUp event using the RTC_WakeUpClockConfig(
 781:./Library/stm32f4xx_pwr.c ****                 RTC_SetWakeUpCounter() and RTC_WakeUpCmd() functions.
 782:./Library/stm32f4xx_pwr.c **** 
 783:./Library/stm32f4xx_pwr.c **** @endverbatim
 784:./Library/stm32f4xx_pwr.c ****   * @{
 785:./Library/stm32f4xx_pwr.c ****   */
 786:./Library/stm32f4xx_pwr.c **** 
 787:./Library/stm32f4xx_pwr.c **** /**
 788:./Library/stm32f4xx_pwr.c ****   * @brief  Enters STOP mode.
 789:./Library/stm32f4xx_pwr.c ****   *   
 790:./Library/stm32f4xx_pwr.c ****   * @note   In Stop mode, all I/O pins keep the same state as in Run mode.
 791:./Library/stm32f4xx_pwr.c ****   * @note   When exiting Stop mode by issuing an interrupt or a wakeup event, 
 792:./Library/stm32f4xx_pwr.c ****   *         the HSI RC oscillator is selected as system clock.
 793:./Library/stm32f4xx_pwr.c ****   * @note   When the voltage regulator operates in low power mode, an additional 
 794:./Library/stm32f4xx_pwr.c ****   *         startup delay is incurred when waking up from Stop mode. 
ARM GAS  /var/folders/yl/_q9l42k90g1g4mdhbs226msm0000gn/T//cch8YRrS.s 			page 28


 795:./Library/stm32f4xx_pwr.c ****   *         By keeping the internal regulator ON during Stop mode, the consumption 
 796:./Library/stm32f4xx_pwr.c ****   *         is higher although the startup time is reduced.
 797:./Library/stm32f4xx_pwr.c ****   *     
 798:./Library/stm32f4xx_pwr.c ****   * @param  PWR_Regulator: specifies the regulator state in STOP mode.
 799:./Library/stm32f4xx_pwr.c ****   *          This parameter can be one of the following values:
 800:./Library/stm32f4xx_pwr.c ****   *            @arg PWR_MainRegulator_ON: STOP mode with regulator ON
 801:./Library/stm32f4xx_pwr.c ****   *            @arg PWR_LowPowerRegulator_ON: STOP mode with low power regulator ON
 802:./Library/stm32f4xx_pwr.c ****   * @param  PWR_STOPEntry: specifies if STOP mode in entered with WFI or WFE instruction.
 803:./Library/stm32f4xx_pwr.c ****   *          This parameter can be one of the following values:
 804:./Library/stm32f4xx_pwr.c ****   *            @arg PWR_STOPEntry_WFI: enter STOP mode with WFI instruction
 805:./Library/stm32f4xx_pwr.c ****   *            @arg PWR_STOPEntry_WFE: enter STOP mode with WFE instruction
 806:./Library/stm32f4xx_pwr.c ****   * @retval None
 807:./Library/stm32f4xx_pwr.c ****   */
 808:./Library/stm32f4xx_pwr.c **** void PWR_EnterSTOPMode(uint32_t PWR_Regulator, uint8_t PWR_STOPEntry)
 809:./Library/stm32f4xx_pwr.c **** {
 768              		.loc 1 809 1
 769              		.cfi_startproc
 770              		@ args = 0, pretend = 0, frame = 16
 771              		@ frame_needed = 1, uses_anonymous_args = 0
 772              		@ link register save eliminated.
 773 0000 80B4     		push	{r7}
 774              	.LCFI74:
 775              		.cfi_def_cfa_offset 4
 776              		.cfi_offset 7, -4
 777 0002 85B0     		sub	sp, sp, #20
 778              	.LCFI75:
 779              		.cfi_def_cfa_offset 24
 780 0004 00AF     		add	r7, sp, #0
 781              	.LCFI76:
 782              		.cfi_def_cfa_register 7
 783 0006 7860     		str	r0, [r7, #4]
 784 0008 0B46     		mov	r3, r1
 785 000a FB70     		strb	r3, [r7, #3]
 810:./Library/stm32f4xx_pwr.c ****   uint32_t tmpreg = 0;
 786              		.loc 1 810 12
 787 000c 0023     		movs	r3, #0
 788 000e FB60     		str	r3, [r7, #12]
 811:./Library/stm32f4xx_pwr.c ****   
 812:./Library/stm32f4xx_pwr.c ****   /* Check the parameters */
 813:./Library/stm32f4xx_pwr.c ****   assert_param(IS_PWR_REGULATOR(PWR_Regulator));
 814:./Library/stm32f4xx_pwr.c ****   assert_param(IS_PWR_STOP_ENTRY(PWR_STOPEntry));
 815:./Library/stm32f4xx_pwr.c ****   
 816:./Library/stm32f4xx_pwr.c ****   /* Select the regulator state in STOP mode ---------------------------------*/
 817:./Library/stm32f4xx_pwr.c ****   tmpreg = PWR->CR;
 789              		.loc 1 817 15
 790 0010 144B     		ldr	r3, .L50
 791              		.loc 1 817 10
 792 0012 1B68     		ldr	r3, [r3]
 793 0014 FB60     		str	r3, [r7, #12]
 818:./Library/stm32f4xx_pwr.c ****   /* Clear PDDS and LPDS bits */
 819:./Library/stm32f4xx_pwr.c ****   tmpreg &= CR_DS_MASK;
 794              		.loc 1 819 10
 795 0016 FB68     		ldr	r3, [r7, #12]
 796 0018 23F44063 		bic	r3, r3, #3072
 797 001c 23F00303 		bic	r3, r3, #3
 798 0020 FB60     		str	r3, [r7, #12]
 820:./Library/stm32f4xx_pwr.c ****   
ARM GAS  /var/folders/yl/_q9l42k90g1g4mdhbs226msm0000gn/T//cch8YRrS.s 			page 29


 821:./Library/stm32f4xx_pwr.c ****   /* Set LPDS, MRLVDS and LPLVDS bits according to PWR_Regulator value */
 822:./Library/stm32f4xx_pwr.c ****   tmpreg |= PWR_Regulator;
 799              		.loc 1 822 10
 800 0022 FA68     		ldr	r2, [r7, #12]
 801 0024 7B68     		ldr	r3, [r7, #4]
 802 0026 1343     		orrs	r3, r3, r2
 803 0028 FB60     		str	r3, [r7, #12]
 823:./Library/stm32f4xx_pwr.c ****   
 824:./Library/stm32f4xx_pwr.c ****   /* Store the new value */
 825:./Library/stm32f4xx_pwr.c ****   PWR->CR = tmpreg;
 804              		.loc 1 825 6
 805 002a 0E4A     		ldr	r2, .L50
 806              		.loc 1 825 11
 807 002c FB68     		ldr	r3, [r7, #12]
 808 002e 1360     		str	r3, [r2]
 826:./Library/stm32f4xx_pwr.c ****   
 827:./Library/stm32f4xx_pwr.c ****   /* Set SLEEPDEEP bit of Cortex System Control Register */
 828:./Library/stm32f4xx_pwr.c ****   SCB->SCR |= SCB_SCR_SLEEPDEEP_Msk;
 809              		.loc 1 828 12
 810 0030 0D4B     		ldr	r3, .L50+4
 811 0032 1B69     		ldr	r3, [r3, #16]
 812 0034 0C4A     		ldr	r2, .L50+4
 813 0036 43F00403 		orr	r3, r3, #4
 814 003a 1361     		str	r3, [r2, #16]
 829:./Library/stm32f4xx_pwr.c ****   
 830:./Library/stm32f4xx_pwr.c ****   /* Select STOP mode entry --------------------------------------------------*/
 831:./Library/stm32f4xx_pwr.c ****   if(PWR_STOPEntry == PWR_STOPEntry_WFI)
 815              		.loc 1 831 5
 816 003c FB78     		ldrb	r3, [r7, #3]	@ zero_extendqisi2
 817 003e 012B     		cmp	r3, #1
 818 0040 01D1     		bne	.L48
 819              	.LBB12:
 820              	.LBB13:
 821              		.file 2 "./CORE/core_cmInstr.h"
   1:./CORE/core_cmInstr.h **** /**************************************************************************//**
   2:./CORE/core_cmInstr.h ****  * @file     core_cmInstr.h
   3:./CORE/core_cmInstr.h ****  * @brief    CMSIS Cortex-M Core Instruction Access Header File
   4:./CORE/core_cmInstr.h ****  * @version  V4.10
   5:./CORE/core_cmInstr.h ****  * @date     18. March 2015
   6:./CORE/core_cmInstr.h ****  *
   7:./CORE/core_cmInstr.h ****  * @note
   8:./CORE/core_cmInstr.h ****  *
   9:./CORE/core_cmInstr.h ****  ******************************************************************************/
  10:./CORE/core_cmInstr.h **** /* Copyright (c) 2009 - 2014 ARM LIMITED
  11:./CORE/core_cmInstr.h **** 
  12:./CORE/core_cmInstr.h ****    All rights reserved.
  13:./CORE/core_cmInstr.h ****    Redistribution and use in source and binary forms, with or without
  14:./CORE/core_cmInstr.h ****    modification, are permitted provided that the following conditions are met:
  15:./CORE/core_cmInstr.h ****    - Redistributions of source code must retain the above copyright
  16:./CORE/core_cmInstr.h ****      notice, this list of conditions and the following disclaimer.
  17:./CORE/core_cmInstr.h ****    - Redistributions in binary form must reproduce the above copyright
  18:./CORE/core_cmInstr.h ****      notice, this list of conditions and the following disclaimer in the
  19:./CORE/core_cmInstr.h ****      documentation and/or other materials provided with the distribution.
  20:./CORE/core_cmInstr.h ****    - Neither the name of ARM nor the names of its contributors may be used
  21:./CORE/core_cmInstr.h ****      to endorse or promote products derived from this software without
  22:./CORE/core_cmInstr.h ****      specific prior written permission.
  23:./CORE/core_cmInstr.h ****    *
ARM GAS  /var/folders/yl/_q9l42k90g1g4mdhbs226msm0000gn/T//cch8YRrS.s 			page 30


  24:./CORE/core_cmInstr.h ****    THIS SOFTWARE IS PROVIDED BY THE COPYRIGHT HOLDERS AND CONTRIBUTORS "AS IS"
  25:./CORE/core_cmInstr.h ****    AND ANY EXPRESS OR IMPLIED WARRANTIES, INCLUDING, BUT NOT LIMITED TO, THE
  26:./CORE/core_cmInstr.h ****    IMPLIED WARRANTIES OF MERCHANTABILITY AND FITNESS FOR A PARTICULAR PURPOSE
  27:./CORE/core_cmInstr.h ****    ARE DISCLAIMED. IN NO EVENT SHALL COPYRIGHT HOLDERS AND CONTRIBUTORS BE
  28:./CORE/core_cmInstr.h ****    LIABLE FOR ANY DIRECT, INDIRECT, INCIDENTAL, SPECIAL, EXEMPLARY, OR
  29:./CORE/core_cmInstr.h ****    CONSEQUENTIAL DAMAGES (INCLUDING, BUT NOT LIMITED TO, PROCUREMENT OF
  30:./CORE/core_cmInstr.h ****    SUBSTITUTE GOODS OR SERVICES; LOSS OF USE, DATA, OR PROFITS; OR BUSINESS
  31:./CORE/core_cmInstr.h ****    INTERRUPTION) HOWEVER CAUSED AND ON ANY THEORY OF LIABILITY, WHETHER IN
  32:./CORE/core_cmInstr.h ****    CONTRACT, STRICT LIABILITY, OR TORT (INCLUDING NEGLIGENCE OR OTHERWISE)
  33:./CORE/core_cmInstr.h ****    ARISING IN ANY WAY OUT OF THE USE OF THIS SOFTWARE, EVEN IF ADVISED OF THE
  34:./CORE/core_cmInstr.h ****    POSSIBILITY OF SUCH DAMAGE.
  35:./CORE/core_cmInstr.h ****    ---------------------------------------------------------------------------*/
  36:./CORE/core_cmInstr.h **** 
  37:./CORE/core_cmInstr.h **** 
  38:./CORE/core_cmInstr.h **** #ifndef __CORE_CMINSTR_H
  39:./CORE/core_cmInstr.h **** #define __CORE_CMINSTR_H
  40:./CORE/core_cmInstr.h **** 
  41:./CORE/core_cmInstr.h **** 
  42:./CORE/core_cmInstr.h **** /* ##########################  Core Instruction Access  ######################### */
  43:./CORE/core_cmInstr.h **** /** \defgroup CMSIS_Core_InstructionInterface CMSIS Core Instruction Interface
  44:./CORE/core_cmInstr.h ****   Access to dedicated instructions
  45:./CORE/core_cmInstr.h ****   @{
  46:./CORE/core_cmInstr.h **** */
  47:./CORE/core_cmInstr.h **** 
  48:./CORE/core_cmInstr.h **** #if   defined ( __CC_ARM ) /*------------------RealView Compiler -----------------*/
  49:./CORE/core_cmInstr.h **** /* ARM armcc specific functions */
  50:./CORE/core_cmInstr.h **** 
  51:./CORE/core_cmInstr.h **** #if (__ARMCC_VERSION < 400677)
  52:./CORE/core_cmInstr.h ****   #error "Please use ARM Compiler Toolchain V4.0.677 or later!"
  53:./CORE/core_cmInstr.h **** #endif
  54:./CORE/core_cmInstr.h **** 
  55:./CORE/core_cmInstr.h **** 
  56:./CORE/core_cmInstr.h **** /** \brief  No Operation
  57:./CORE/core_cmInstr.h **** 
  58:./CORE/core_cmInstr.h ****     No Operation does nothing. This instruction can be used for code alignment purposes.
  59:./CORE/core_cmInstr.h ****  */
  60:./CORE/core_cmInstr.h **** #define __NOP                             __nop
  61:./CORE/core_cmInstr.h **** 
  62:./CORE/core_cmInstr.h **** 
  63:./CORE/core_cmInstr.h **** /** \brief  Wait For Interrupt
  64:./CORE/core_cmInstr.h **** 
  65:./CORE/core_cmInstr.h ****     Wait For Interrupt is a hint instruction that suspends execution
  66:./CORE/core_cmInstr.h ****     until one of a number of events occurs.
  67:./CORE/core_cmInstr.h ****  */
  68:./CORE/core_cmInstr.h **** #define __WFI                             __wfi
  69:./CORE/core_cmInstr.h **** 
  70:./CORE/core_cmInstr.h **** 
  71:./CORE/core_cmInstr.h **** /** \brief  Wait For Event
  72:./CORE/core_cmInstr.h **** 
  73:./CORE/core_cmInstr.h ****     Wait For Event is a hint instruction that permits the processor to enter
  74:./CORE/core_cmInstr.h ****     a low-power state until one of a number of events occurs.
  75:./CORE/core_cmInstr.h ****  */
  76:./CORE/core_cmInstr.h **** #define __WFE                             __wfe
  77:./CORE/core_cmInstr.h **** 
  78:./CORE/core_cmInstr.h **** 
  79:./CORE/core_cmInstr.h **** /** \brief  Send Event
  80:./CORE/core_cmInstr.h **** 
ARM GAS  /var/folders/yl/_q9l42k90g1g4mdhbs226msm0000gn/T//cch8YRrS.s 			page 31


  81:./CORE/core_cmInstr.h ****     Send Event is a hint instruction. It causes an event to be signaled to the CPU.
  82:./CORE/core_cmInstr.h ****  */
  83:./CORE/core_cmInstr.h **** #define __SEV                             __sev
  84:./CORE/core_cmInstr.h **** 
  85:./CORE/core_cmInstr.h **** 
  86:./CORE/core_cmInstr.h **** /** \brief  Instruction Synchronization Barrier
  87:./CORE/core_cmInstr.h **** 
  88:./CORE/core_cmInstr.h ****     Instruction Synchronization Barrier flushes the pipeline in the processor,
  89:./CORE/core_cmInstr.h ****     so that all instructions following the ISB are fetched from cache or
  90:./CORE/core_cmInstr.h ****     memory, after the instruction has been completed.
  91:./CORE/core_cmInstr.h ****  */
  92:./CORE/core_cmInstr.h **** #define __ISB() do {\
  93:./CORE/core_cmInstr.h ****                    __schedule_barrier();\
  94:./CORE/core_cmInstr.h ****                    __isb(0xF);\
  95:./CORE/core_cmInstr.h ****                    __schedule_barrier();\
  96:./CORE/core_cmInstr.h ****                 } while (0)
  97:./CORE/core_cmInstr.h **** 
  98:./CORE/core_cmInstr.h **** /** \brief  Data Synchronization Barrier
  99:./CORE/core_cmInstr.h **** 
 100:./CORE/core_cmInstr.h ****     This function acts as a special kind of Data Memory Barrier.
 101:./CORE/core_cmInstr.h ****     It completes when all explicit memory accesses before this instruction complete.
 102:./CORE/core_cmInstr.h ****  */
 103:./CORE/core_cmInstr.h **** #define __DSB() do {\
 104:./CORE/core_cmInstr.h ****                    __schedule_barrier();\
 105:./CORE/core_cmInstr.h ****                    __dsb(0xF);\
 106:./CORE/core_cmInstr.h ****                    __schedule_barrier();\
 107:./CORE/core_cmInstr.h ****                 } while (0)
 108:./CORE/core_cmInstr.h **** 
 109:./CORE/core_cmInstr.h **** /** \brief  Data Memory Barrier
 110:./CORE/core_cmInstr.h **** 
 111:./CORE/core_cmInstr.h ****     This function ensures the apparent order of the explicit memory operations before
 112:./CORE/core_cmInstr.h ****     and after the instruction, without ensuring their completion.
 113:./CORE/core_cmInstr.h ****  */
 114:./CORE/core_cmInstr.h **** #define __DMB() do {\
 115:./CORE/core_cmInstr.h ****                    __schedule_barrier();\
 116:./CORE/core_cmInstr.h ****                    __dmb(0xF);\
 117:./CORE/core_cmInstr.h ****                    __schedule_barrier();\
 118:./CORE/core_cmInstr.h ****                 } while (0)
 119:./CORE/core_cmInstr.h **** 
 120:./CORE/core_cmInstr.h **** /** \brief  Reverse byte order (32 bit)
 121:./CORE/core_cmInstr.h **** 
 122:./CORE/core_cmInstr.h ****     This function reverses the byte order in integer value.
 123:./CORE/core_cmInstr.h **** 
 124:./CORE/core_cmInstr.h ****     \param [in]    value  Value to reverse
 125:./CORE/core_cmInstr.h ****     \return               Reversed value
 126:./CORE/core_cmInstr.h ****  */
 127:./CORE/core_cmInstr.h **** #define __REV                             __rev
 128:./CORE/core_cmInstr.h **** 
 129:./CORE/core_cmInstr.h **** 
 130:./CORE/core_cmInstr.h **** /** \brief  Reverse byte order (16 bit)
 131:./CORE/core_cmInstr.h **** 
 132:./CORE/core_cmInstr.h ****     This function reverses the byte order in two unsigned short values.
 133:./CORE/core_cmInstr.h **** 
 134:./CORE/core_cmInstr.h ****     \param [in]    value  Value to reverse
 135:./CORE/core_cmInstr.h ****     \return               Reversed value
 136:./CORE/core_cmInstr.h ****  */
 137:./CORE/core_cmInstr.h **** #ifndef __NO_EMBEDDED_ASM
ARM GAS  /var/folders/yl/_q9l42k90g1g4mdhbs226msm0000gn/T//cch8YRrS.s 			page 32


 138:./CORE/core_cmInstr.h **** __attribute__((section(".rev16_text"))) __STATIC_INLINE __ASM uint32_t __REV16(uint32_t value)
 139:./CORE/core_cmInstr.h **** {
 140:./CORE/core_cmInstr.h ****   rev16 r0, r0
 141:./CORE/core_cmInstr.h ****   bx lr
 142:./CORE/core_cmInstr.h **** }
 143:./CORE/core_cmInstr.h **** #endif
 144:./CORE/core_cmInstr.h **** 
 145:./CORE/core_cmInstr.h **** /** \brief  Reverse byte order in signed short value
 146:./CORE/core_cmInstr.h **** 
 147:./CORE/core_cmInstr.h ****     This function reverses the byte order in a signed short value with sign extension to integer.
 148:./CORE/core_cmInstr.h **** 
 149:./CORE/core_cmInstr.h ****     \param [in]    value  Value to reverse
 150:./CORE/core_cmInstr.h ****     \return               Reversed value
 151:./CORE/core_cmInstr.h ****  */
 152:./CORE/core_cmInstr.h **** #ifndef __NO_EMBEDDED_ASM
 153:./CORE/core_cmInstr.h **** __attribute__((section(".revsh_text"))) __STATIC_INLINE __ASM int32_t __REVSH(int32_t value)
 154:./CORE/core_cmInstr.h **** {
 155:./CORE/core_cmInstr.h ****   revsh r0, r0
 156:./CORE/core_cmInstr.h ****   bx lr
 157:./CORE/core_cmInstr.h **** }
 158:./CORE/core_cmInstr.h **** #endif
 159:./CORE/core_cmInstr.h **** 
 160:./CORE/core_cmInstr.h **** 
 161:./CORE/core_cmInstr.h **** /** \brief  Rotate Right in unsigned value (32 bit)
 162:./CORE/core_cmInstr.h **** 
 163:./CORE/core_cmInstr.h ****     This function Rotate Right (immediate) provides the value of the contents of a register rotated
 164:./CORE/core_cmInstr.h **** 
 165:./CORE/core_cmInstr.h ****     \param [in]    value  Value to rotate
 166:./CORE/core_cmInstr.h ****     \param [in]    value  Number of Bits to rotate
 167:./CORE/core_cmInstr.h ****     \return               Rotated value
 168:./CORE/core_cmInstr.h ****  */
 169:./CORE/core_cmInstr.h **** #define __ROR                             __ror
 170:./CORE/core_cmInstr.h **** 
 171:./CORE/core_cmInstr.h **** 
 172:./CORE/core_cmInstr.h **** /** \brief  Breakpoint
 173:./CORE/core_cmInstr.h **** 
 174:./CORE/core_cmInstr.h ****     This function causes the processor to enter Debug state.
 175:./CORE/core_cmInstr.h ****     Debug tools can use this to investigate system state when the instruction at a particular addre
 176:./CORE/core_cmInstr.h **** 
 177:./CORE/core_cmInstr.h ****     \param [in]    value  is ignored by the processor.
 178:./CORE/core_cmInstr.h ****                    If required, a debugger can use it to store additional information about the bre
 179:./CORE/core_cmInstr.h ****  */
 180:./CORE/core_cmInstr.h **** #define __BKPT(value)                       __breakpoint(value)
 181:./CORE/core_cmInstr.h **** 
 182:./CORE/core_cmInstr.h **** 
 183:./CORE/core_cmInstr.h **** /** \brief  Reverse bit order of value
 184:./CORE/core_cmInstr.h **** 
 185:./CORE/core_cmInstr.h ****     This function reverses the bit order of the given value.
 186:./CORE/core_cmInstr.h **** 
 187:./CORE/core_cmInstr.h ****     \param [in]    value  Value to reverse
 188:./CORE/core_cmInstr.h ****     \return               Reversed value
 189:./CORE/core_cmInstr.h ****  */
 190:./CORE/core_cmInstr.h **** #if       (__CORTEX_M >= 0x03) || (__CORTEX_SC >= 300)
 191:./CORE/core_cmInstr.h ****   #define __RBIT                          __rbit
 192:./CORE/core_cmInstr.h **** #else
 193:./CORE/core_cmInstr.h **** __attribute__((always_inline)) __STATIC_INLINE uint32_t __RBIT(uint32_t value)
 194:./CORE/core_cmInstr.h **** {
ARM GAS  /var/folders/yl/_q9l42k90g1g4mdhbs226msm0000gn/T//cch8YRrS.s 			page 33


 195:./CORE/core_cmInstr.h ****   uint32_t result;
 196:./CORE/core_cmInstr.h ****   int32_t s = 4 /*sizeof(v)*/ * 8 - 1; // extra shift needed at end
 197:./CORE/core_cmInstr.h **** 
 198:./CORE/core_cmInstr.h ****   result = value;                      // r will be reversed bits of v; first get LSB of v
 199:./CORE/core_cmInstr.h ****   for (value >>= 1; value; value >>= 1)
 200:./CORE/core_cmInstr.h ****   {
 201:./CORE/core_cmInstr.h ****     result <<= 1;
 202:./CORE/core_cmInstr.h ****     result |= value & 1;
 203:./CORE/core_cmInstr.h ****     s--;
 204:./CORE/core_cmInstr.h ****   }
 205:./CORE/core_cmInstr.h ****   result <<= s;                       // shift when v's highest bits are zero
 206:./CORE/core_cmInstr.h ****   return(result);
 207:./CORE/core_cmInstr.h **** }
 208:./CORE/core_cmInstr.h **** #endif
 209:./CORE/core_cmInstr.h **** 
 210:./CORE/core_cmInstr.h **** 
 211:./CORE/core_cmInstr.h **** /** \brief  Count leading zeros
 212:./CORE/core_cmInstr.h **** 
 213:./CORE/core_cmInstr.h ****     This function counts the number of leading zeros of a data value.
 214:./CORE/core_cmInstr.h **** 
 215:./CORE/core_cmInstr.h ****     \param [in]  value  Value to count the leading zeros
 216:./CORE/core_cmInstr.h ****     \return             number of leading zeros in value
 217:./CORE/core_cmInstr.h ****  */
 218:./CORE/core_cmInstr.h **** #define __CLZ                             __clz
 219:./CORE/core_cmInstr.h **** 
 220:./CORE/core_cmInstr.h **** 
 221:./CORE/core_cmInstr.h **** #if       (__CORTEX_M >= 0x03) || (__CORTEX_SC >= 300)
 222:./CORE/core_cmInstr.h **** 
 223:./CORE/core_cmInstr.h **** /** \brief  LDR Exclusive (8 bit)
 224:./CORE/core_cmInstr.h **** 
 225:./CORE/core_cmInstr.h ****     This function executes a exclusive LDR instruction for 8 bit value.
 226:./CORE/core_cmInstr.h **** 
 227:./CORE/core_cmInstr.h ****     \param [in]    ptr  Pointer to data
 228:./CORE/core_cmInstr.h ****     \return             value of type uint8_t at (*ptr)
 229:./CORE/core_cmInstr.h ****  */
 230:./CORE/core_cmInstr.h **** #define __LDREXB(ptr)                     ((uint8_t ) __ldrex(ptr))
 231:./CORE/core_cmInstr.h **** 
 232:./CORE/core_cmInstr.h **** 
 233:./CORE/core_cmInstr.h **** /** \brief  LDR Exclusive (16 bit)
 234:./CORE/core_cmInstr.h **** 
 235:./CORE/core_cmInstr.h ****     This function executes a exclusive LDR instruction for 16 bit values.
 236:./CORE/core_cmInstr.h **** 
 237:./CORE/core_cmInstr.h ****     \param [in]    ptr  Pointer to data
 238:./CORE/core_cmInstr.h ****     \return        value of type uint16_t at (*ptr)
 239:./CORE/core_cmInstr.h ****  */
 240:./CORE/core_cmInstr.h **** #define __LDREXH(ptr)                     ((uint16_t) __ldrex(ptr))
 241:./CORE/core_cmInstr.h **** 
 242:./CORE/core_cmInstr.h **** 
 243:./CORE/core_cmInstr.h **** /** \brief  LDR Exclusive (32 bit)
 244:./CORE/core_cmInstr.h **** 
 245:./CORE/core_cmInstr.h ****     This function executes a exclusive LDR instruction for 32 bit values.
 246:./CORE/core_cmInstr.h **** 
 247:./CORE/core_cmInstr.h ****     \param [in]    ptr  Pointer to data
 248:./CORE/core_cmInstr.h ****     \return        value of type uint32_t at (*ptr)
 249:./CORE/core_cmInstr.h ****  */
 250:./CORE/core_cmInstr.h **** #define __LDREXW(ptr)                     ((uint32_t ) __ldrex(ptr))
 251:./CORE/core_cmInstr.h **** 
ARM GAS  /var/folders/yl/_q9l42k90g1g4mdhbs226msm0000gn/T//cch8YRrS.s 			page 34


 252:./CORE/core_cmInstr.h **** 
 253:./CORE/core_cmInstr.h **** /** \brief  STR Exclusive (8 bit)
 254:./CORE/core_cmInstr.h **** 
 255:./CORE/core_cmInstr.h ****     This function executes a exclusive STR instruction for 8 bit values.
 256:./CORE/core_cmInstr.h **** 
 257:./CORE/core_cmInstr.h ****     \param [in]  value  Value to store
 258:./CORE/core_cmInstr.h ****     \param [in]    ptr  Pointer to location
 259:./CORE/core_cmInstr.h ****     \return          0  Function succeeded
 260:./CORE/core_cmInstr.h ****     \return          1  Function failed
 261:./CORE/core_cmInstr.h ****  */
 262:./CORE/core_cmInstr.h **** #define __STREXB(value, ptr)              __strex(value, ptr)
 263:./CORE/core_cmInstr.h **** 
 264:./CORE/core_cmInstr.h **** 
 265:./CORE/core_cmInstr.h **** /** \brief  STR Exclusive (16 bit)
 266:./CORE/core_cmInstr.h **** 
 267:./CORE/core_cmInstr.h ****     This function executes a exclusive STR instruction for 16 bit values.
 268:./CORE/core_cmInstr.h **** 
 269:./CORE/core_cmInstr.h ****     \param [in]  value  Value to store
 270:./CORE/core_cmInstr.h ****     \param [in]    ptr  Pointer to location
 271:./CORE/core_cmInstr.h ****     \return          0  Function succeeded
 272:./CORE/core_cmInstr.h ****     \return          1  Function failed
 273:./CORE/core_cmInstr.h ****  */
 274:./CORE/core_cmInstr.h **** #define __STREXH(value, ptr)              __strex(value, ptr)
 275:./CORE/core_cmInstr.h **** 
 276:./CORE/core_cmInstr.h **** 
 277:./CORE/core_cmInstr.h **** /** \brief  STR Exclusive (32 bit)
 278:./CORE/core_cmInstr.h **** 
 279:./CORE/core_cmInstr.h ****     This function executes a exclusive STR instruction for 32 bit values.
 280:./CORE/core_cmInstr.h **** 
 281:./CORE/core_cmInstr.h ****     \param [in]  value  Value to store
 282:./CORE/core_cmInstr.h ****     \param [in]    ptr  Pointer to location
 283:./CORE/core_cmInstr.h ****     \return          0  Function succeeded
 284:./CORE/core_cmInstr.h ****     \return          1  Function failed
 285:./CORE/core_cmInstr.h ****  */
 286:./CORE/core_cmInstr.h **** #define __STREXW(value, ptr)              __strex(value, ptr)
 287:./CORE/core_cmInstr.h **** 
 288:./CORE/core_cmInstr.h **** 
 289:./CORE/core_cmInstr.h **** /** \brief  Remove the exclusive lock
 290:./CORE/core_cmInstr.h **** 
 291:./CORE/core_cmInstr.h ****     This function removes the exclusive lock which is created by LDREX.
 292:./CORE/core_cmInstr.h **** 
 293:./CORE/core_cmInstr.h ****  */
 294:./CORE/core_cmInstr.h **** #define __CLREX                           __clrex
 295:./CORE/core_cmInstr.h **** 
 296:./CORE/core_cmInstr.h **** 
 297:./CORE/core_cmInstr.h **** /** \brief  Signed Saturate
 298:./CORE/core_cmInstr.h **** 
 299:./CORE/core_cmInstr.h ****     This function saturates a signed value.
 300:./CORE/core_cmInstr.h **** 
 301:./CORE/core_cmInstr.h ****     \param [in]  value  Value to be saturated
 302:./CORE/core_cmInstr.h ****     \param [in]    sat  Bit position to saturate to (1..32)
 303:./CORE/core_cmInstr.h ****     \return             Saturated value
 304:./CORE/core_cmInstr.h ****  */
 305:./CORE/core_cmInstr.h **** #define __SSAT                            __ssat
 306:./CORE/core_cmInstr.h **** 
 307:./CORE/core_cmInstr.h **** 
 308:./CORE/core_cmInstr.h **** /** \brief  Unsigned Saturate
ARM GAS  /var/folders/yl/_q9l42k90g1g4mdhbs226msm0000gn/T//cch8YRrS.s 			page 35


 309:./CORE/core_cmInstr.h **** 
 310:./CORE/core_cmInstr.h ****     This function saturates an unsigned value.
 311:./CORE/core_cmInstr.h **** 
 312:./CORE/core_cmInstr.h ****     \param [in]  value  Value to be saturated
 313:./CORE/core_cmInstr.h ****     \param [in]    sat  Bit position to saturate to (0..31)
 314:./CORE/core_cmInstr.h ****     \return             Saturated value
 315:./CORE/core_cmInstr.h ****  */
 316:./CORE/core_cmInstr.h **** #define __USAT                            __usat
 317:./CORE/core_cmInstr.h **** 
 318:./CORE/core_cmInstr.h **** 
 319:./CORE/core_cmInstr.h **** /** \brief  Rotate Right with Extend (32 bit)
 320:./CORE/core_cmInstr.h **** 
 321:./CORE/core_cmInstr.h ****     This function moves each bit of a bitstring right by one bit.
 322:./CORE/core_cmInstr.h ****     The carry input is shifted in at the left end of the bitstring.
 323:./CORE/core_cmInstr.h **** 
 324:./CORE/core_cmInstr.h ****     \param [in]    value  Value to rotate
 325:./CORE/core_cmInstr.h ****     \return               Rotated value
 326:./CORE/core_cmInstr.h ****  */
 327:./CORE/core_cmInstr.h **** #ifndef __NO_EMBEDDED_ASM
 328:./CORE/core_cmInstr.h **** __attribute__((section(".rrx_text"))) __STATIC_INLINE __ASM uint32_t __RRX(uint32_t value)
 329:./CORE/core_cmInstr.h **** {
 330:./CORE/core_cmInstr.h ****   rrx r0, r0
 331:./CORE/core_cmInstr.h ****   bx lr
 332:./CORE/core_cmInstr.h **** }
 333:./CORE/core_cmInstr.h **** #endif
 334:./CORE/core_cmInstr.h **** 
 335:./CORE/core_cmInstr.h **** 
 336:./CORE/core_cmInstr.h **** /** \brief  LDRT Unprivileged (8 bit)
 337:./CORE/core_cmInstr.h **** 
 338:./CORE/core_cmInstr.h ****     This function executes a Unprivileged LDRT instruction for 8 bit value.
 339:./CORE/core_cmInstr.h **** 
 340:./CORE/core_cmInstr.h ****     \param [in]    ptr  Pointer to data
 341:./CORE/core_cmInstr.h ****     \return             value of type uint8_t at (*ptr)
 342:./CORE/core_cmInstr.h ****  */
 343:./CORE/core_cmInstr.h **** #define __LDRBT(ptr)                      ((uint8_t )  __ldrt(ptr))
 344:./CORE/core_cmInstr.h **** 
 345:./CORE/core_cmInstr.h **** 
 346:./CORE/core_cmInstr.h **** /** \brief  LDRT Unprivileged (16 bit)
 347:./CORE/core_cmInstr.h **** 
 348:./CORE/core_cmInstr.h ****     This function executes a Unprivileged LDRT instruction for 16 bit values.
 349:./CORE/core_cmInstr.h **** 
 350:./CORE/core_cmInstr.h ****     \param [in]    ptr  Pointer to data
 351:./CORE/core_cmInstr.h ****     \return        value of type uint16_t at (*ptr)
 352:./CORE/core_cmInstr.h ****  */
 353:./CORE/core_cmInstr.h **** #define __LDRHT(ptr)                      ((uint16_t)  __ldrt(ptr))
 354:./CORE/core_cmInstr.h **** 
 355:./CORE/core_cmInstr.h **** 
 356:./CORE/core_cmInstr.h **** /** \brief  LDRT Unprivileged (32 bit)
 357:./CORE/core_cmInstr.h **** 
 358:./CORE/core_cmInstr.h ****     This function executes a Unprivileged LDRT instruction for 32 bit values.
 359:./CORE/core_cmInstr.h **** 
 360:./CORE/core_cmInstr.h ****     \param [in]    ptr  Pointer to data
 361:./CORE/core_cmInstr.h ****     \return        value of type uint32_t at (*ptr)
 362:./CORE/core_cmInstr.h ****  */
 363:./CORE/core_cmInstr.h **** #define __LDRT(ptr)                       ((uint32_t ) __ldrt(ptr))
 364:./CORE/core_cmInstr.h **** 
 365:./CORE/core_cmInstr.h **** 
ARM GAS  /var/folders/yl/_q9l42k90g1g4mdhbs226msm0000gn/T//cch8YRrS.s 			page 36


 366:./CORE/core_cmInstr.h **** /** \brief  STRT Unprivileged (8 bit)
 367:./CORE/core_cmInstr.h **** 
 368:./CORE/core_cmInstr.h ****     This function executes a Unprivileged STRT instruction for 8 bit values.
 369:./CORE/core_cmInstr.h **** 
 370:./CORE/core_cmInstr.h ****     \param [in]  value  Value to store
 371:./CORE/core_cmInstr.h ****     \param [in]    ptr  Pointer to location
 372:./CORE/core_cmInstr.h ****  */
 373:./CORE/core_cmInstr.h **** #define __STRBT(value, ptr)               __strt(value, ptr)
 374:./CORE/core_cmInstr.h **** 
 375:./CORE/core_cmInstr.h **** 
 376:./CORE/core_cmInstr.h **** /** \brief  STRT Unprivileged (16 bit)
 377:./CORE/core_cmInstr.h **** 
 378:./CORE/core_cmInstr.h ****     This function executes a Unprivileged STRT instruction for 16 bit values.
 379:./CORE/core_cmInstr.h **** 
 380:./CORE/core_cmInstr.h ****     \param [in]  value  Value to store
 381:./CORE/core_cmInstr.h ****     \param [in]    ptr  Pointer to location
 382:./CORE/core_cmInstr.h ****  */
 383:./CORE/core_cmInstr.h **** #define __STRHT(value, ptr)               __strt(value, ptr)
 384:./CORE/core_cmInstr.h **** 
 385:./CORE/core_cmInstr.h **** 
 386:./CORE/core_cmInstr.h **** /** \brief  STRT Unprivileged (32 bit)
 387:./CORE/core_cmInstr.h **** 
 388:./CORE/core_cmInstr.h ****     This function executes a Unprivileged STRT instruction for 32 bit values.
 389:./CORE/core_cmInstr.h **** 
 390:./CORE/core_cmInstr.h ****     \param [in]  value  Value to store
 391:./CORE/core_cmInstr.h ****     \param [in]    ptr  Pointer to location
 392:./CORE/core_cmInstr.h ****  */
 393:./CORE/core_cmInstr.h **** #define __STRT(value, ptr)                __strt(value, ptr)
 394:./CORE/core_cmInstr.h **** 
 395:./CORE/core_cmInstr.h **** #endif /* (__CORTEX_M >= 0x03) || (__CORTEX_SC >= 300) */
 396:./CORE/core_cmInstr.h **** 
 397:./CORE/core_cmInstr.h **** 
 398:./CORE/core_cmInstr.h **** #elif defined ( __GNUC__ ) /*------------------ GNU Compiler ---------------------*/
 399:./CORE/core_cmInstr.h **** /* GNU gcc specific functions */
 400:./CORE/core_cmInstr.h **** 
 401:./CORE/core_cmInstr.h **** /* Define macros for porting to both thumb1 and thumb2.
 402:./CORE/core_cmInstr.h ****  * For thumb1, use low register (r0-r7), specified by constrant "l"
 403:./CORE/core_cmInstr.h ****  * Otherwise, use general registers, specified by constrant "r" */
 404:./CORE/core_cmInstr.h **** #if defined (__thumb__) && !defined (__thumb2__)
 405:./CORE/core_cmInstr.h **** #define __CMSIS_GCC_OUT_REG(r) "=l" (r)
 406:./CORE/core_cmInstr.h **** #define __CMSIS_GCC_USE_REG(r) "l" (r)
 407:./CORE/core_cmInstr.h **** #else
 408:./CORE/core_cmInstr.h **** #define __CMSIS_GCC_OUT_REG(r) "=r" (r)
 409:./CORE/core_cmInstr.h **** #define __CMSIS_GCC_USE_REG(r) "r" (r)
 410:./CORE/core_cmInstr.h **** #endif
 411:./CORE/core_cmInstr.h **** 
 412:./CORE/core_cmInstr.h **** /** \brief  No Operation
 413:./CORE/core_cmInstr.h **** 
 414:./CORE/core_cmInstr.h ****     No Operation does nothing. This instruction can be used for code alignment purposes.
 415:./CORE/core_cmInstr.h ****  */
 416:./CORE/core_cmInstr.h **** __attribute__((always_inline)) __STATIC_INLINE void __NOP(void)
 417:./CORE/core_cmInstr.h **** {
 418:./CORE/core_cmInstr.h ****   __ASM volatile ("nop");
 419:./CORE/core_cmInstr.h **** }
 420:./CORE/core_cmInstr.h **** 
 421:./CORE/core_cmInstr.h **** 
 422:./CORE/core_cmInstr.h **** /** \brief  Wait For Interrupt
ARM GAS  /var/folders/yl/_q9l42k90g1g4mdhbs226msm0000gn/T//cch8YRrS.s 			page 37


 423:./CORE/core_cmInstr.h **** 
 424:./CORE/core_cmInstr.h ****     Wait For Interrupt is a hint instruction that suspends execution
 425:./CORE/core_cmInstr.h ****     until one of a number of events occurs.
 426:./CORE/core_cmInstr.h ****  */
 427:./CORE/core_cmInstr.h **** __attribute__((always_inline)) __STATIC_INLINE void __WFI(void)
 428:./CORE/core_cmInstr.h **** {
 429:./CORE/core_cmInstr.h ****   __ASM volatile ("wfi");
 822              		.loc 2 429 3
 823              		.syntax unified
 824              	@ 429 "./CORE/core_cmInstr.h" 1
 825 0042 30BF     		wfi
 826              	@ 0 "" 2
 430:./CORE/core_cmInstr.h **** }
 827              		.loc 2 430 1
 828              		.thumb
 829              		.syntax unified
 830 0044 01E0     		b	.L49
 831              	.L48:
 832              	.LBE13:
 833              	.LBE12:
 834              	.LBB14:
 835              	.LBB15:
 431:./CORE/core_cmInstr.h **** 
 432:./CORE/core_cmInstr.h **** 
 433:./CORE/core_cmInstr.h **** /** \brief  Wait For Event
 434:./CORE/core_cmInstr.h **** 
 435:./CORE/core_cmInstr.h ****     Wait For Event is a hint instruction that permits the processor to enter
 436:./CORE/core_cmInstr.h ****     a low-power state until one of a number of events occurs.
 437:./CORE/core_cmInstr.h ****  */
 438:./CORE/core_cmInstr.h **** __attribute__((always_inline)) __STATIC_INLINE void __WFE(void)
 439:./CORE/core_cmInstr.h **** {
 440:./CORE/core_cmInstr.h ****   __ASM volatile ("wfe");
 836              		.loc 2 440 3
 837              		.syntax unified
 838              	@ 440 "./CORE/core_cmInstr.h" 1
 839 0046 20BF     		wfe
 840              	@ 0 "" 2
 441:./CORE/core_cmInstr.h **** }
 841              		.loc 2 441 1
 842              		.thumb
 843              		.syntax unified
 844 0048 00BF     		nop
 845              	.L49:
 846              	.LBE15:
 847              	.LBE14:
 832:./Library/stm32f4xx_pwr.c ****   {   
 833:./Library/stm32f4xx_pwr.c ****     /* Request Wait For Interrupt */
 834:./Library/stm32f4xx_pwr.c ****     __WFI();
 835:./Library/stm32f4xx_pwr.c ****   }
 836:./Library/stm32f4xx_pwr.c ****   else
 837:./Library/stm32f4xx_pwr.c ****   {
 838:./Library/stm32f4xx_pwr.c ****     /* Request Wait For Event */
 839:./Library/stm32f4xx_pwr.c ****     __WFE();
 840:./Library/stm32f4xx_pwr.c ****   }
 841:./Library/stm32f4xx_pwr.c ****   /* Reset SLEEPDEEP bit of Cortex System Control Register */
 842:./Library/stm32f4xx_pwr.c ****   SCB->SCR &= (uint32_t)~((uint32_t)SCB_SCR_SLEEPDEEP_Msk);  
 848              		.loc 1 842 12
ARM GAS  /var/folders/yl/_q9l42k90g1g4mdhbs226msm0000gn/T//cch8YRrS.s 			page 38


 849 004a 074B     		ldr	r3, .L50+4
 850 004c 1B69     		ldr	r3, [r3, #16]
 851 004e 064A     		ldr	r2, .L50+4
 852 0050 23F00403 		bic	r3, r3, #4
 853 0054 1361     		str	r3, [r2, #16]
 843:./Library/stm32f4xx_pwr.c **** }
 854              		.loc 1 843 1
 855 0056 00BF     		nop
 856 0058 1437     		adds	r7, r7, #20
 857              	.LCFI77:
 858              		.cfi_def_cfa_offset 4
 859 005a BD46     		mov	sp, r7
 860              	.LCFI78:
 861              		.cfi_def_cfa_register 13
 862              		@ sp needed
 863 005c 5DF8047B 		ldr	r7, [sp], #4
 864              	.LCFI79:
 865              		.cfi_restore 7
 866              		.cfi_def_cfa_offset 0
 867 0060 7047     		bx	lr
 868              	.L51:
 869 0062 00BF     		.align	2
 870              	.L50:
 871 0064 00700040 		.word	1073770496
 872 0068 00ED00E0 		.word	-536810240
 873              		.cfi_endproc
 874              	.LFE136:
 876              		.section	.text.PWR_EnterUnderDriveSTOPMode,"ax",%progbits
 877              		.align	1
 878              		.global	PWR_EnterUnderDriveSTOPMode
 879              		.syntax unified
 880              		.thumb
 881              		.thumb_func
 883              	PWR_EnterUnderDriveSTOPMode:
 884              	.LFB137:
 844:./Library/stm32f4xx_pwr.c **** 
 845:./Library/stm32f4xx_pwr.c **** /**
 846:./Library/stm32f4xx_pwr.c ****   * @brief  Enters in Under-Drive STOP mode.
 847:./Library/stm32f4xx_pwr.c ****   *  
 848:./Library/stm32f4xx_pwr.c ****   * @note   This mode is only available for STM32F42xxx/STM3243xxx devices. 
 849:./Library/stm32f4xx_pwr.c ****   * 
 850:./Library/stm32f4xx_pwr.c ****   * @note    This mode can be selected only when the Under-Drive is already active 
 851:./Library/stm32f4xx_pwr.c ****   *         
 852:./Library/stm32f4xx_pwr.c ****   * @note   In Stop mode, all I/O pins keep the same state as in Run mode.
 853:./Library/stm32f4xx_pwr.c ****   * @note   When exiting Stop mode by issuing an interrupt or a wakeup event, 
 854:./Library/stm32f4xx_pwr.c ****   *         the HSI RC oscillator is selected as system clock.
 855:./Library/stm32f4xx_pwr.c ****   * @note   When the voltage regulator operates in low power mode, an additional 
 856:./Library/stm32f4xx_pwr.c ****   *         startup delay is incurred when waking up from Stop mode. 
 857:./Library/stm32f4xx_pwr.c ****   *         By keeping the internal regulator ON during Stop mode, the consumption 
 858:./Library/stm32f4xx_pwr.c ****   *         is higher although the startup time is reduced.
 859:./Library/stm32f4xx_pwr.c ****   *     
 860:./Library/stm32f4xx_pwr.c ****   * @param  PWR_Regulator: specifies the regulator state in STOP mode.
 861:./Library/stm32f4xx_pwr.c ****   *          This parameter can be one of the following values:
 862:./Library/stm32f4xx_pwr.c ****   *            @arg PWR_MainRegulator_UnderDrive_ON:  Main Regulator in under-drive mode 
 863:./Library/stm32f4xx_pwr.c ****   *                 and Flash memory in power-down when the device is in Stop under-drive mode
 864:./Library/stm32f4xx_pwr.c ****   *            @arg PWR_LowPowerRegulator_UnderDrive_ON:  Low Power Regulator in under-drive mode 
 865:./Library/stm32f4xx_pwr.c ****   *                and Flash memory in power-down when the device is in Stop under-drive mode
ARM GAS  /var/folders/yl/_q9l42k90g1g4mdhbs226msm0000gn/T//cch8YRrS.s 			page 39


 866:./Library/stm32f4xx_pwr.c ****   * @param  PWR_STOPEntry: specifies if STOP mode in entered with WFI or WFE instruction.
 867:./Library/stm32f4xx_pwr.c ****   *          This parameter can be one of the following values:
 868:./Library/stm32f4xx_pwr.c ****   *            @arg PWR_STOPEntry_WFI: enter STOP mode with WFI instruction
 869:./Library/stm32f4xx_pwr.c ****   *            @arg PWR_STOPEntry_WFE: enter STOP mode with WFE instruction
 870:./Library/stm32f4xx_pwr.c ****   * @retval None
 871:./Library/stm32f4xx_pwr.c ****   */
 872:./Library/stm32f4xx_pwr.c **** void PWR_EnterUnderDriveSTOPMode(uint32_t PWR_Regulator, uint8_t PWR_STOPEntry)
 873:./Library/stm32f4xx_pwr.c **** {
 885              		.loc 1 873 1
 886              		.cfi_startproc
 887              		@ args = 0, pretend = 0, frame = 16
 888              		@ frame_needed = 1, uses_anonymous_args = 0
 889              		@ link register save eliminated.
 890 0000 80B4     		push	{r7}
 891              	.LCFI80:
 892              		.cfi_def_cfa_offset 4
 893              		.cfi_offset 7, -4
 894 0002 85B0     		sub	sp, sp, #20
 895              	.LCFI81:
 896              		.cfi_def_cfa_offset 24
 897 0004 00AF     		add	r7, sp, #0
 898              	.LCFI82:
 899              		.cfi_def_cfa_register 7
 900 0006 7860     		str	r0, [r7, #4]
 901 0008 0B46     		mov	r3, r1
 902 000a FB70     		strb	r3, [r7, #3]
 874:./Library/stm32f4xx_pwr.c ****   uint32_t tmpreg = 0;
 903              		.loc 1 874 12
 904 000c 0023     		movs	r3, #0
 905 000e FB60     		str	r3, [r7, #12]
 875:./Library/stm32f4xx_pwr.c ****   
 876:./Library/stm32f4xx_pwr.c ****   /* Check the parameters */
 877:./Library/stm32f4xx_pwr.c ****   assert_param(IS_PWR_REGULATOR_UNDERDRIVE(PWR_Regulator));
 878:./Library/stm32f4xx_pwr.c ****   assert_param(IS_PWR_STOP_ENTRY(PWR_STOPEntry));
 879:./Library/stm32f4xx_pwr.c ****   
 880:./Library/stm32f4xx_pwr.c ****   /* Select the regulator state in STOP mode ---------------------------------*/
 881:./Library/stm32f4xx_pwr.c ****   tmpreg = PWR->CR;
 906              		.loc 1 881 15
 907 0010 144B     		ldr	r3, .L55
 908              		.loc 1 881 10
 909 0012 1B68     		ldr	r3, [r3]
 910 0014 FB60     		str	r3, [r7, #12]
 882:./Library/stm32f4xx_pwr.c ****   /* Clear PDDS and LPDS bits */
 883:./Library/stm32f4xx_pwr.c ****   tmpreg &= CR_DS_MASK;
 911              		.loc 1 883 10
 912 0016 FB68     		ldr	r3, [r7, #12]
 913 0018 23F44063 		bic	r3, r3, #3072
 914 001c 23F00303 		bic	r3, r3, #3
 915 0020 FB60     		str	r3, [r7, #12]
 884:./Library/stm32f4xx_pwr.c ****   
 885:./Library/stm32f4xx_pwr.c ****   /* Set LPDS, MRLUDS and LPLUDS bits according to PWR_Regulator value */
 886:./Library/stm32f4xx_pwr.c ****   tmpreg |= PWR_Regulator;
 916              		.loc 1 886 10
 917 0022 FA68     		ldr	r2, [r7, #12]
 918 0024 7B68     		ldr	r3, [r7, #4]
 919 0026 1343     		orrs	r3, r3, r2
 920 0028 FB60     		str	r3, [r7, #12]
ARM GAS  /var/folders/yl/_q9l42k90g1g4mdhbs226msm0000gn/T//cch8YRrS.s 			page 40


 887:./Library/stm32f4xx_pwr.c ****   
 888:./Library/stm32f4xx_pwr.c ****   /* Store the new value */
 889:./Library/stm32f4xx_pwr.c ****   PWR->CR = tmpreg;
 921              		.loc 1 889 6
 922 002a 0E4A     		ldr	r2, .L55
 923              		.loc 1 889 11
 924 002c FB68     		ldr	r3, [r7, #12]
 925 002e 1360     		str	r3, [r2]
 890:./Library/stm32f4xx_pwr.c ****   
 891:./Library/stm32f4xx_pwr.c ****   /* Set SLEEPDEEP bit of Cortex System Control Register */
 892:./Library/stm32f4xx_pwr.c ****   SCB->SCR |= SCB_SCR_SLEEPDEEP_Msk;
 926              		.loc 1 892 12
 927 0030 0D4B     		ldr	r3, .L55+4
 928 0032 1B69     		ldr	r3, [r3, #16]
 929 0034 0C4A     		ldr	r2, .L55+4
 930 0036 43F00403 		orr	r3, r3, #4
 931 003a 1361     		str	r3, [r2, #16]
 893:./Library/stm32f4xx_pwr.c ****   
 894:./Library/stm32f4xx_pwr.c ****   /* Select STOP mode entry --------------------------------------------------*/
 895:./Library/stm32f4xx_pwr.c ****   if(PWR_STOPEntry == PWR_STOPEntry_WFI)
 932              		.loc 1 895 5
 933 003c FB78     		ldrb	r3, [r7, #3]	@ zero_extendqisi2
 934 003e 012B     		cmp	r3, #1
 935 0040 01D1     		bne	.L53
 936              	.LBB16:
 937              	.LBB17:
 429:./CORE/core_cmInstr.h **** }
 938              		.loc 2 429 3
 939              		.syntax unified
 940              	@ 429 "./CORE/core_cmInstr.h" 1
 941 0042 30BF     		wfi
 942              	@ 0 "" 2
 430:./CORE/core_cmInstr.h **** 
 943              		.loc 2 430 1
 944              		.thumb
 945              		.syntax unified
 946 0044 01E0     		b	.L54
 947              	.L53:
 948              	.LBE17:
 949              	.LBE16:
 950              	.LBB18:
 951              	.LBB19:
 440:./CORE/core_cmInstr.h **** }
 952              		.loc 2 440 3
 953              		.syntax unified
 954              	@ 440 "./CORE/core_cmInstr.h" 1
 955 0046 20BF     		wfe
 956              	@ 0 "" 2
 957              		.loc 2 441 1
 958              		.thumb
 959              		.syntax unified
 960 0048 00BF     		nop
 961              	.L54:
 962              	.LBE19:
 963              	.LBE18:
 896:./Library/stm32f4xx_pwr.c ****   {   
 897:./Library/stm32f4xx_pwr.c ****     /* Request Wait For Interrupt */
ARM GAS  /var/folders/yl/_q9l42k90g1g4mdhbs226msm0000gn/T//cch8YRrS.s 			page 41


 898:./Library/stm32f4xx_pwr.c ****     __WFI();
 899:./Library/stm32f4xx_pwr.c ****   }
 900:./Library/stm32f4xx_pwr.c ****   else
 901:./Library/stm32f4xx_pwr.c ****   {
 902:./Library/stm32f4xx_pwr.c ****     /* Request Wait For Event */
 903:./Library/stm32f4xx_pwr.c ****     __WFE();
 904:./Library/stm32f4xx_pwr.c ****   }
 905:./Library/stm32f4xx_pwr.c ****   /* Reset SLEEPDEEP bit of Cortex System Control Register */
 906:./Library/stm32f4xx_pwr.c ****   SCB->SCR &= (uint32_t)~((uint32_t)SCB_SCR_SLEEPDEEP_Msk);  
 964              		.loc 1 906 12
 965 004a 074B     		ldr	r3, .L55+4
 966 004c 1B69     		ldr	r3, [r3, #16]
 967 004e 064A     		ldr	r2, .L55+4
 968 0050 23F00403 		bic	r3, r3, #4
 969 0054 1361     		str	r3, [r2, #16]
 907:./Library/stm32f4xx_pwr.c **** }
 970              		.loc 1 907 1
 971 0056 00BF     		nop
 972 0058 1437     		adds	r7, r7, #20
 973              	.LCFI83:
 974              		.cfi_def_cfa_offset 4
 975 005a BD46     		mov	sp, r7
 976              	.LCFI84:
 977              		.cfi_def_cfa_register 13
 978              		@ sp needed
 979 005c 5DF8047B 		ldr	r7, [sp], #4
 980              	.LCFI85:
 981              		.cfi_restore 7
 982              		.cfi_def_cfa_offset 0
 983 0060 7047     		bx	lr
 984              	.L56:
 985 0062 00BF     		.align	2
 986              	.L55:
 987 0064 00700040 		.word	1073770496
 988 0068 00ED00E0 		.word	-536810240
 989              		.cfi_endproc
 990              	.LFE137:
 992              		.section	.text.PWR_EnterSTANDBYMode,"ax",%progbits
 993              		.align	1
 994              		.global	PWR_EnterSTANDBYMode
 995              		.syntax unified
 996              		.thumb
 997              		.thumb_func
 999              	PWR_EnterSTANDBYMode:
 1000              	.LFB138:
 908:./Library/stm32f4xx_pwr.c **** 
 909:./Library/stm32f4xx_pwr.c **** /**
 910:./Library/stm32f4xx_pwr.c ****   * @brief  Enters STANDBY mode.
 911:./Library/stm32f4xx_pwr.c ****   * @note   In Standby mode, all I/O pins are high impedance except for:
 912:./Library/stm32f4xx_pwr.c ****   *          - Reset pad (still available) 
 913:./Library/stm32f4xx_pwr.c ****   *          - RTC_AF1 pin (PC13) if configured for tamper, time-stamp, RTC 
 914:./Library/stm32f4xx_pwr.c ****   *            Alarm out, or RTC clock calibration out.
 915:./Library/stm32f4xx_pwr.c ****   *          - RTC_AF2 pin (PI8) if configured for tamper or time-stamp.  
 916:./Library/stm32f4xx_pwr.c ****   *          - WKUP pin 1 (PA0) if enabled.
 917:./Library/stm32f4xx_pwr.c ****   * @note   The Wakeup flag (WUF) need to be cleared at application level before to call this funct
 918:./Library/stm32f4xx_pwr.c ****   * @param  None
 919:./Library/stm32f4xx_pwr.c ****   * @retval None
ARM GAS  /var/folders/yl/_q9l42k90g1g4mdhbs226msm0000gn/T//cch8YRrS.s 			page 42


 920:./Library/stm32f4xx_pwr.c ****   */
 921:./Library/stm32f4xx_pwr.c **** void PWR_EnterSTANDBYMode(void)
 922:./Library/stm32f4xx_pwr.c **** {
 1001              		.loc 1 922 1
 1002              		.cfi_startproc
 1003              		@ args = 0, pretend = 0, frame = 0
 1004              		@ frame_needed = 1, uses_anonymous_args = 0
 1005              		@ link register save eliminated.
 1006 0000 80B4     		push	{r7}
 1007              	.LCFI86:
 1008              		.cfi_def_cfa_offset 4
 1009              		.cfi_offset 7, -4
 1010 0002 00AF     		add	r7, sp, #0
 1011              	.LCFI87:
 1012              		.cfi_def_cfa_register 7
 923:./Library/stm32f4xx_pwr.c ****   /* Select STANDBY mode */
 924:./Library/stm32f4xx_pwr.c ****   PWR->CR |= PWR_CR_PDDS;
 1013              		.loc 1 924 11
 1014 0004 094B     		ldr	r3, .L58
 1015 0006 1B68     		ldr	r3, [r3]
 1016 0008 084A     		ldr	r2, .L58
 1017 000a 43F00203 		orr	r3, r3, #2
 1018 000e 1360     		str	r3, [r2]
 925:./Library/stm32f4xx_pwr.c ****   
 926:./Library/stm32f4xx_pwr.c ****   /* Set SLEEPDEEP bit of Cortex System Control Register */
 927:./Library/stm32f4xx_pwr.c ****   SCB->SCR |= SCB_SCR_SLEEPDEEP_Msk;
 1019              		.loc 1 927 12
 1020 0010 074B     		ldr	r3, .L58+4
 1021 0012 1B69     		ldr	r3, [r3, #16]
 1022 0014 064A     		ldr	r2, .L58+4
 1023 0016 43F00403 		orr	r3, r3, #4
 1024 001a 1361     		str	r3, [r2, #16]
 1025              	.LBB20:
 1026              	.LBB21:
 429:./CORE/core_cmInstr.h **** }
 1027              		.loc 2 429 3
 1028              		.syntax unified
 1029              	@ 429 "./CORE/core_cmInstr.h" 1
 1030 001c 30BF     		wfi
 1031              	@ 0 "" 2
 430:./CORE/core_cmInstr.h **** 
 1032              		.loc 2 430 1
 1033              		.thumb
 1034              		.syntax unified
 1035 001e 00BF     		nop
 1036              	.LBE21:
 1037              	.LBE20:
 928:./Library/stm32f4xx_pwr.c ****   
 929:./Library/stm32f4xx_pwr.c ****   /* This option is used to ensure that store operations are completed */
 930:./Library/stm32f4xx_pwr.c **** #if defined ( __CC_ARM   )
 931:./Library/stm32f4xx_pwr.c ****   __force_stores();
 932:./Library/stm32f4xx_pwr.c **** #endif
 933:./Library/stm32f4xx_pwr.c ****   /* Request Wait For Interrupt */
 934:./Library/stm32f4xx_pwr.c ****   __WFI();
 935:./Library/stm32f4xx_pwr.c **** }
 1038              		.loc 1 935 1
 1039 0020 00BF     		nop
ARM GAS  /var/folders/yl/_q9l42k90g1g4mdhbs226msm0000gn/T//cch8YRrS.s 			page 43


 1040 0022 BD46     		mov	sp, r7
 1041              	.LCFI88:
 1042              		.cfi_def_cfa_register 13
 1043              		@ sp needed
 1044 0024 5DF8047B 		ldr	r7, [sp], #4
 1045              	.LCFI89:
 1046              		.cfi_restore 7
 1047              		.cfi_def_cfa_offset 0
 1048 0028 7047     		bx	lr
 1049              	.L59:
 1050 002a 00BF     		.align	2
 1051              	.L58:
 1052 002c 00700040 		.word	1073770496
 1053 0030 00ED00E0 		.word	-536810240
 1054              		.cfi_endproc
 1055              	.LFE138:
 1057              		.section	.text.PWR_GetFlagStatus,"ax",%progbits
 1058              		.align	1
 1059              		.global	PWR_GetFlagStatus
 1060              		.syntax unified
 1061              		.thumb
 1062              		.thumb_func
 1064              	PWR_GetFlagStatus:
 1065              	.LFB139:
 936:./Library/stm32f4xx_pwr.c **** 
 937:./Library/stm32f4xx_pwr.c **** /**
 938:./Library/stm32f4xx_pwr.c ****   * @}
 939:./Library/stm32f4xx_pwr.c ****   */
 940:./Library/stm32f4xx_pwr.c **** 
 941:./Library/stm32f4xx_pwr.c **** /** @defgroup PWR_Group7 Flags management functions
 942:./Library/stm32f4xx_pwr.c ****   *  @brief   Flags management functions 
 943:./Library/stm32f4xx_pwr.c ****   *
 944:./Library/stm32f4xx_pwr.c **** @verbatim   
 945:./Library/stm32f4xx_pwr.c ****  ===============================================================================
 946:./Library/stm32f4xx_pwr.c ****                     ##### Flags management functions #####
 947:./Library/stm32f4xx_pwr.c ****  ===============================================================================  
 948:./Library/stm32f4xx_pwr.c **** 
 949:./Library/stm32f4xx_pwr.c **** @endverbatim
 950:./Library/stm32f4xx_pwr.c ****   * @{
 951:./Library/stm32f4xx_pwr.c ****   */
 952:./Library/stm32f4xx_pwr.c **** 
 953:./Library/stm32f4xx_pwr.c **** /**
 954:./Library/stm32f4xx_pwr.c ****   * @brief  Checks whether the specified PWR flag is set or not.
 955:./Library/stm32f4xx_pwr.c ****   * @param  PWR_FLAG: specifies the flag to check.
 956:./Library/stm32f4xx_pwr.c ****   *          This parameter can be one of the following values:
 957:./Library/stm32f4xx_pwr.c ****   *            @arg PWR_FLAG_WU: Wake Up flag. This flag indicates that a wakeup event 
 958:./Library/stm32f4xx_pwr.c ****   *                  was received from the WKUP pin or from the RTC alarm (Alarm A 
 959:./Library/stm32f4xx_pwr.c ****   *                  or Alarm B), RTC Tamper event, RTC TimeStamp event or RTC Wakeup.
 960:./Library/stm32f4xx_pwr.c ****   *                  An additional wakeup event is detected if the WKUP pin is enabled 
 961:./Library/stm32f4xx_pwr.c ****   *                  (by setting the EWUP bit) when the WKUP pin level is already high.  
 962:./Library/stm32f4xx_pwr.c ****   *            @arg PWR_FLAG_SB: StandBy flag. This flag indicates that the system was
 963:./Library/stm32f4xx_pwr.c ****   *                  resumed from StandBy mode.    
 964:./Library/stm32f4xx_pwr.c ****   *            @arg PWR_FLAG_PVDO: PVD Output. This flag is valid only if PVD is enabled 
 965:./Library/stm32f4xx_pwr.c ****   *                  by the PWR_PVDCmd() function. The PVD is stopped by Standby mode 
 966:./Library/stm32f4xx_pwr.c ****   *                  For this reason, this bit is equal to 0 after Standby or reset
 967:./Library/stm32f4xx_pwr.c ****   *                  until the PVDE bit is set.
 968:./Library/stm32f4xx_pwr.c ****   *            @arg PWR_FLAG_BRR: Backup regulator ready flag. This bit is not reset 
ARM GAS  /var/folders/yl/_q9l42k90g1g4mdhbs226msm0000gn/T//cch8YRrS.s 			page 44


 969:./Library/stm32f4xx_pwr.c ****   *                  when the device wakes up from Standby mode or by a system reset 
 970:./Library/stm32f4xx_pwr.c ****   *                  or power reset.  
 971:./Library/stm32f4xx_pwr.c ****   *            @arg PWR_FLAG_VOSRDY: This flag indicates that the Regulator voltage 
 972:./Library/stm32f4xx_pwr.c ****   *                 scaling output selection is ready.
 973:./Library/stm32f4xx_pwr.c ****   *            @arg PWR_FLAG_ODRDY: This flag indicates that the Over-drive mode
 974:./Library/stm32f4xx_pwr.c ****   *                 is ready (STM32F42xxx/43xxx devices) 
 975:./Library/stm32f4xx_pwr.c ****   *            @arg PWR_FLAG_ODSWRDY: This flag indicates that the Over-drive mode
 976:./Library/stm32f4xx_pwr.c ****   *                 switching is ready (STM32F42xxx/43xxx devices) 
 977:./Library/stm32f4xx_pwr.c ****   *            @arg PWR_FLAG_UDRDY: This flag indicates that the Under-drive mode
 978:./Library/stm32f4xx_pwr.c ****   *                 is enabled in Stop mode (STM32F42xxx/43xxx devices)
 979:./Library/stm32f4xx_pwr.c ****   * @retval The new state of PWR_FLAG (SET or RESET).
 980:./Library/stm32f4xx_pwr.c ****   */
 981:./Library/stm32f4xx_pwr.c **** FlagStatus PWR_GetFlagStatus(uint32_t PWR_FLAG)
 982:./Library/stm32f4xx_pwr.c **** {
 1066              		.loc 1 982 1
 1067              		.cfi_startproc
 1068              		@ args = 0, pretend = 0, frame = 16
 1069              		@ frame_needed = 1, uses_anonymous_args = 0
 1070              		@ link register save eliminated.
 1071 0000 80B4     		push	{r7}
 1072              	.LCFI90:
 1073              		.cfi_def_cfa_offset 4
 1074              		.cfi_offset 7, -4
 1075 0002 85B0     		sub	sp, sp, #20
 1076              	.LCFI91:
 1077              		.cfi_def_cfa_offset 24
 1078 0004 00AF     		add	r7, sp, #0
 1079              	.LCFI92:
 1080              		.cfi_def_cfa_register 7
 1081 0006 7860     		str	r0, [r7, #4]
 983:./Library/stm32f4xx_pwr.c ****   FlagStatus bitstatus = RESET;
 1082              		.loc 1 983 14
 1083 0008 0023     		movs	r3, #0
 1084 000a FB73     		strb	r3, [r7, #15]
 984:./Library/stm32f4xx_pwr.c ****   
 985:./Library/stm32f4xx_pwr.c ****   /* Check the parameters */
 986:./Library/stm32f4xx_pwr.c ****   assert_param(IS_PWR_GET_FLAG(PWR_FLAG));
 987:./Library/stm32f4xx_pwr.c ****   
 988:./Library/stm32f4xx_pwr.c ****   if ((PWR->CSR & PWR_FLAG) != (uint32_t)RESET)
 1085              		.loc 1 988 11
 1086 000c 084B     		ldr	r3, .L64
 1087 000e 5A68     		ldr	r2, [r3, #4]
 1088              		.loc 1 988 17
 1089 0010 7B68     		ldr	r3, [r7, #4]
 1090 0012 1340     		ands	r3, r3, r2
 1091              		.loc 1 988 6
 1092 0014 002B     		cmp	r3, #0
 1093 0016 02D0     		beq	.L61
 989:./Library/stm32f4xx_pwr.c ****   {
 990:./Library/stm32f4xx_pwr.c ****     bitstatus = SET;
 1094              		.loc 1 990 15
 1095 0018 0123     		movs	r3, #1
 1096 001a FB73     		strb	r3, [r7, #15]
 1097 001c 01E0     		b	.L62
 1098              	.L61:
 991:./Library/stm32f4xx_pwr.c ****   }
 992:./Library/stm32f4xx_pwr.c ****   else
ARM GAS  /var/folders/yl/_q9l42k90g1g4mdhbs226msm0000gn/T//cch8YRrS.s 			page 45


 993:./Library/stm32f4xx_pwr.c ****   {
 994:./Library/stm32f4xx_pwr.c ****     bitstatus = RESET;
 1099              		.loc 1 994 15
 1100 001e 0023     		movs	r3, #0
 1101 0020 FB73     		strb	r3, [r7, #15]
 1102              	.L62:
 995:./Library/stm32f4xx_pwr.c ****   }
 996:./Library/stm32f4xx_pwr.c ****   /* Return the flag status */
 997:./Library/stm32f4xx_pwr.c ****   return bitstatus;
 1103              		.loc 1 997 10
 1104 0022 FB7B     		ldrb	r3, [r7, #15]	@ zero_extendqisi2
 998:./Library/stm32f4xx_pwr.c **** }
 1105              		.loc 1 998 1
 1106 0024 1846     		mov	r0, r3
 1107 0026 1437     		adds	r7, r7, #20
 1108              	.LCFI93:
 1109              		.cfi_def_cfa_offset 4
 1110 0028 BD46     		mov	sp, r7
 1111              	.LCFI94:
 1112              		.cfi_def_cfa_register 13
 1113              		@ sp needed
 1114 002a 5DF8047B 		ldr	r7, [sp], #4
 1115              	.LCFI95:
 1116              		.cfi_restore 7
 1117              		.cfi_def_cfa_offset 0
 1118 002e 7047     		bx	lr
 1119              	.L65:
 1120              		.align	2
 1121              	.L64:
 1122 0030 00700040 		.word	1073770496
 1123              		.cfi_endproc
 1124              	.LFE139:
 1126              		.section	.text.PWR_ClearFlag,"ax",%progbits
 1127              		.align	1
 1128              		.global	PWR_ClearFlag
 1129              		.syntax unified
 1130              		.thumb
 1131              		.thumb_func
 1133              	PWR_ClearFlag:
 1134              	.LFB140:
 999:./Library/stm32f4xx_pwr.c **** 
1000:./Library/stm32f4xx_pwr.c **** /**
1001:./Library/stm32f4xx_pwr.c ****   * @brief  Clears the PWR's pending flags.
1002:./Library/stm32f4xx_pwr.c ****   * @param  PWR_FLAG: specifies the flag to clear.
1003:./Library/stm32f4xx_pwr.c ****   *          This parameter can be one of the following values:
1004:./Library/stm32f4xx_pwr.c ****   *            @arg PWR_FLAG_WU: Wake Up flag
1005:./Library/stm32f4xx_pwr.c ****   *            @arg PWR_FLAG_SB: StandBy flag
1006:./Library/stm32f4xx_pwr.c ****   *            @arg PWR_FLAG_UDRDY: Under-drive ready flag (STM32F42xxx/43xxx devices)
1007:./Library/stm32f4xx_pwr.c ****   * @retval None
1008:./Library/stm32f4xx_pwr.c ****   */
1009:./Library/stm32f4xx_pwr.c **** void PWR_ClearFlag(uint32_t PWR_FLAG)
1010:./Library/stm32f4xx_pwr.c **** {
 1135              		.loc 1 1010 1
 1136              		.cfi_startproc
 1137              		@ args = 0, pretend = 0, frame = 8
 1138              		@ frame_needed = 1, uses_anonymous_args = 0
 1139              		@ link register save eliminated.
ARM GAS  /var/folders/yl/_q9l42k90g1g4mdhbs226msm0000gn/T//cch8YRrS.s 			page 46


 1140 0000 80B4     		push	{r7}
 1141              	.LCFI96:
 1142              		.cfi_def_cfa_offset 4
 1143              		.cfi_offset 7, -4
 1144 0002 83B0     		sub	sp, sp, #12
 1145              	.LCFI97:
 1146              		.cfi_def_cfa_offset 16
 1147 0004 00AF     		add	r7, sp, #0
 1148              	.LCFI98:
 1149              		.cfi_def_cfa_register 7
 1150 0006 7860     		str	r0, [r7, #4]
1011:./Library/stm32f4xx_pwr.c ****   /* Check the parameters */
1012:./Library/stm32f4xx_pwr.c ****   assert_param(IS_PWR_CLEAR_FLAG(PWR_FLAG));
1013:./Library/stm32f4xx_pwr.c ****   
1014:./Library/stm32f4xx_pwr.c **** #if defined (STM32F427_437xx) || defined (STM32F429_439xx)
1015:./Library/stm32f4xx_pwr.c ****   if (PWR_FLAG != PWR_FLAG_UDRDY)
1016:./Library/stm32f4xx_pwr.c ****   {
1017:./Library/stm32f4xx_pwr.c ****     PWR->CR |=  PWR_FLAG << 2;
1018:./Library/stm32f4xx_pwr.c ****   }
1019:./Library/stm32f4xx_pwr.c ****   else
1020:./Library/stm32f4xx_pwr.c ****   {
1021:./Library/stm32f4xx_pwr.c ****     PWR->CSR |= PWR_FLAG_UDRDY;
1022:./Library/stm32f4xx_pwr.c ****   }
1023:./Library/stm32f4xx_pwr.c **** #endif /* STM32F427_437xx ||  STM32F429_439xx */
1024:./Library/stm32f4xx_pwr.c **** 
1025:./Library/stm32f4xx_pwr.c **** #if defined (STM32F40_41xxx) || defined (STM32F401xx) || defined (STM32F410xx) || defined (STM32F41
1026:./Library/stm32f4xx_pwr.c ****   PWR->CR |=  PWR_FLAG << 2;
 1151              		.loc 1 1026 11
 1152 0008 064B     		ldr	r3, .L67
 1153 000a 1A68     		ldr	r2, [r3]
 1154              		.loc 1 1026 24
 1155 000c 7B68     		ldr	r3, [r7, #4]
 1156 000e 9B00     		lsls	r3, r3, #2
 1157              		.loc 1 1026 11
 1158 0010 0449     		ldr	r1, .L67
 1159 0012 1343     		orrs	r3, r3, r2
 1160 0014 0B60     		str	r3, [r1]
1027:./Library/stm32f4xx_pwr.c **** #endif /* STM32F40_41xxx  || STM32F401xx || STM32F410xx || STM32F411xE || STM32F412xG || STM32F413_
1028:./Library/stm32f4xx_pwr.c **** }
 1161              		.loc 1 1028 1
 1162 0016 00BF     		nop
 1163 0018 0C37     		adds	r7, r7, #12
 1164              	.LCFI99:
 1165              		.cfi_def_cfa_offset 4
 1166 001a BD46     		mov	sp, r7
 1167              	.LCFI100:
 1168              		.cfi_def_cfa_register 13
 1169              		@ sp needed
 1170 001c 5DF8047B 		ldr	r7, [sp], #4
 1171              	.LCFI101:
 1172              		.cfi_restore 7
 1173              		.cfi_def_cfa_offset 0
 1174 0020 7047     		bx	lr
 1175              	.L68:
 1176 0022 00BF     		.align	2
 1177              	.L67:
 1178 0024 00700040 		.word	1073770496
ARM GAS  /var/folders/yl/_q9l42k90g1g4mdhbs226msm0000gn/T//cch8YRrS.s 			page 47


 1179              		.cfi_endproc
 1180              	.LFE140:
 1182              		.text
 1183              	.Letext0:
 1184              		.file 3 "/Applications/ARM/arm-none-eabi/include/machine/_default_types.h"
 1185              		.file 4 "/Applications/ARM/arm-none-eabi/include/sys/_stdint.h"
 1186              		.file 5 "./CORE/core_cm4.h"
 1187              		.file 6 "./CORE/stm32f4xx.h"
ARM GAS  /var/folders/yl/_q9l42k90g1g4mdhbs226msm0000gn/T//cch8YRrS.s 			page 48

