ARM GAS  /var/folders/yl/_q9l42k90g1g4mdhbs226msm0000gn/T//cc4uEW5d.s 			page 1


   1              		.cpu cortex-m4
   2              		.arch armv7e-m
   3              		.fpu fpv4-sp-d16
   4              		.eabi_attribute 27, 1
   5              		.eabi_attribute 28, 1
   6              		.eabi_attribute 20, 1
   7              		.eabi_attribute 21, 1
   8              		.eabi_attribute 23, 3
   9              		.eabi_attribute 24, 1
  10              		.eabi_attribute 25, 1
  11              		.eabi_attribute 26, 1
  12              		.eabi_attribute 30, 1
  13              		.eabi_attribute 34, 1
  14              		.eabi_attribute 18, 4
  15              		.file	"stm32f4xx_exti.c"
  16              		.text
  17              	.Ltext0:
  18              		.cfi_sections	.debug_frame
  19              		.section	.text.EXTI_DeInit,"ax",%progbits
  20              		.align	1
  21              		.global	EXTI_DeInit
  22              		.syntax unified
  23              		.thumb
  24              		.thumb_func
  26              	EXTI_DeInit:
  27              	.LFB123:
  28              		.file 1 "./Library/stm32f4xx_exti.c"
   1:./Library/stm32f4xx_exti.c **** /**
   2:./Library/stm32f4xx_exti.c ****   ******************************************************************************
   3:./Library/stm32f4xx_exti.c ****   * @file    stm32f4xx_exti.c
   4:./Library/stm32f4xx_exti.c ****   * @author  MCD Application Team
   5:./Library/stm32f4xx_exti.c ****   * @version V1.8.1
   6:./Library/stm32f4xx_exti.c ****   * @date    27-January-2022
   7:./Library/stm32f4xx_exti.c ****   * @brief   This file provides firmware functions to manage the following 
   8:./Library/stm32f4xx_exti.c ****   *          functionalities of the EXTI peripheral:
   9:./Library/stm32f4xx_exti.c ****   *           + Initialization and Configuration
  10:./Library/stm32f4xx_exti.c ****   *           + Interrupts and flags management
  11:./Library/stm32f4xx_exti.c ****   *
  12:./Library/stm32f4xx_exti.c **** @verbatim  
  13:./Library/stm32f4xx_exti.c **** 
  14:./Library/stm32f4xx_exti.c ****  ===============================================================================
  15:./Library/stm32f4xx_exti.c ****                               ##### EXTI features #####
  16:./Library/stm32f4xx_exti.c ****  ===============================================================================
  17:./Library/stm32f4xx_exti.c **** 
  18:./Library/stm32f4xx_exti.c ****  [..] External interrupt/event lines are mapped as following:
  19:./Library/stm32f4xx_exti.c ****    (#) All available GPIO pins are connected to the 16 external 
  20:./Library/stm32f4xx_exti.c ****        interrupt/event lines from EXTI0 to EXTI15.
  21:./Library/stm32f4xx_exti.c ****    (#) EXTI line 16 is connected to the PVD Output
  22:./Library/stm32f4xx_exti.c ****    (#) EXTI line 17 is connected to the RTC Alarm event
  23:./Library/stm32f4xx_exti.c ****    (#) EXTI line 18 is connected to the USB OTG FS Wakeup from suspend event
  24:./Library/stm32f4xx_exti.c ****    (#) EXTI line 19 is connected to the Ethernet Wakeup event
  25:./Library/stm32f4xx_exti.c ****    (#) EXTI line 20 is connected to the USB OTG HS (configured in FS) Wakeup event 
  26:./Library/stm32f4xx_exti.c ****    (#) EXTI line 21 is connected to the RTC Tamper and Time Stamp events
  27:./Library/stm32f4xx_exti.c ****    (#) EXTI line 22 is connected to the RTC Wakeup event
  28:./Library/stm32f4xx_exti.c ****    (#) EXTI line 23 is connected to the LPTIM Wakeup event 
  29:./Library/stm32f4xx_exti.c **** 
  30:./Library/stm32f4xx_exti.c ****                        ##### How to use this driver #####
ARM GAS  /var/folders/yl/_q9l42k90g1g4mdhbs226msm0000gn/T//cc4uEW5d.s 			page 2


  31:./Library/stm32f4xx_exti.c ****  ===============================================================================
  32:./Library/stm32f4xx_exti.c ****  
  33:./Library/stm32f4xx_exti.c ****  [..] In order to use an I/O pin as an external interrupt source, follow steps 
  34:./Library/stm32f4xx_exti.c ****       below:
  35:./Library/stm32f4xx_exti.c ****    (#) Configure the I/O in input mode using GPIO_Init()
  36:./Library/stm32f4xx_exti.c ****    (#) Select the input source pin for the EXTI line using SYSCFG_EXTILineConfig()
  37:./Library/stm32f4xx_exti.c ****    (#) Select the mode(interrupt, event) and configure the trigger 
  38:./Library/stm32f4xx_exti.c ****        selection (Rising, falling or both) using EXTI_Init()
  39:./Library/stm32f4xx_exti.c ****    (#) Configure NVIC IRQ channel mapped to the EXTI line using NVIC_Init()
  40:./Library/stm32f4xx_exti.c **** 
  41:./Library/stm32f4xx_exti.c ****  [..]     
  42:./Library/stm32f4xx_exti.c ****    (@) SYSCFG APB clock must be enabled to get write access to SYSCFG_EXTICRx
  43:./Library/stm32f4xx_exti.c ****        registers using RCC_APB2PeriphClockCmd(RCC_APB2Periph_SYSCFG, ENABLE);
  44:./Library/stm32f4xx_exti.c **** 
  45:./Library/stm32f4xx_exti.c **** @endverbatim
  46:./Library/stm32f4xx_exti.c ****   *
  47:./Library/stm32f4xx_exti.c ****   ******************************************************************************
  48:./Library/stm32f4xx_exti.c ****   * @attention
  49:./Library/stm32f4xx_exti.c ****   *
  50:./Library/stm32f4xx_exti.c ****   * Copyright (c) 2016 STMicroelectronics.
  51:./Library/stm32f4xx_exti.c ****   * All rights reserved.
  52:./Library/stm32f4xx_exti.c ****   *
  53:./Library/stm32f4xx_exti.c ****   * This software is licensed under terms that can be found in the LICENSE file
  54:./Library/stm32f4xx_exti.c ****   * in the root directory of this software component.
  55:./Library/stm32f4xx_exti.c ****   * If no LICENSE file comes with this software, it is provided AS-IS.
  56:./Library/stm32f4xx_exti.c ****   *
  57:./Library/stm32f4xx_exti.c ****   ******************************************************************************
  58:./Library/stm32f4xx_exti.c ****   */
  59:./Library/stm32f4xx_exti.c **** 
  60:./Library/stm32f4xx_exti.c **** /* Includes ------------------------------------------------------------------*/
  61:./Library/stm32f4xx_exti.c **** #include "stm32f4xx_exti.h"
  62:./Library/stm32f4xx_exti.c **** 
  63:./Library/stm32f4xx_exti.c **** /** @addtogroup STM32F4xx_StdPeriph_Driver
  64:./Library/stm32f4xx_exti.c ****   * @{
  65:./Library/stm32f4xx_exti.c ****   */
  66:./Library/stm32f4xx_exti.c **** 
  67:./Library/stm32f4xx_exti.c **** /** @defgroup EXTI 
  68:./Library/stm32f4xx_exti.c ****   * @brief EXTI driver modules
  69:./Library/stm32f4xx_exti.c ****   * @{
  70:./Library/stm32f4xx_exti.c ****   */
  71:./Library/stm32f4xx_exti.c **** 
  72:./Library/stm32f4xx_exti.c **** /* Private typedef -----------------------------------------------------------*/
  73:./Library/stm32f4xx_exti.c **** /* Private define ------------------------------------------------------------*/
  74:./Library/stm32f4xx_exti.c **** 
  75:./Library/stm32f4xx_exti.c **** #define EXTI_LINENONE    ((uint32_t)0x00000)  /* No interrupt selected */
  76:./Library/stm32f4xx_exti.c **** 
  77:./Library/stm32f4xx_exti.c **** /* Private macro -------------------------------------------------------------*/
  78:./Library/stm32f4xx_exti.c **** /* Private variables ---------------------------------------------------------*/
  79:./Library/stm32f4xx_exti.c **** /* Private function prototypes -----------------------------------------------*/
  80:./Library/stm32f4xx_exti.c **** /* Private functions ---------------------------------------------------------*/
  81:./Library/stm32f4xx_exti.c **** 
  82:./Library/stm32f4xx_exti.c **** /** @defgroup EXTI_Private_Functions
  83:./Library/stm32f4xx_exti.c ****   * @{
  84:./Library/stm32f4xx_exti.c ****   */
  85:./Library/stm32f4xx_exti.c **** 
  86:./Library/stm32f4xx_exti.c **** /** @defgroup EXTI_Group1 Initialization and Configuration functions
  87:./Library/stm32f4xx_exti.c ****  *  @brief   Initialization and Configuration functions 
ARM GAS  /var/folders/yl/_q9l42k90g1g4mdhbs226msm0000gn/T//cc4uEW5d.s 			page 3


  88:./Library/stm32f4xx_exti.c ****  *
  89:./Library/stm32f4xx_exti.c **** @verbatim   
  90:./Library/stm32f4xx_exti.c ****  ===============================================================================
  91:./Library/stm32f4xx_exti.c ****              ##### Initialization and Configuration functions #####
  92:./Library/stm32f4xx_exti.c ****  ===============================================================================
  93:./Library/stm32f4xx_exti.c **** 
  94:./Library/stm32f4xx_exti.c **** @endverbatim
  95:./Library/stm32f4xx_exti.c ****   * @{
  96:./Library/stm32f4xx_exti.c ****   */
  97:./Library/stm32f4xx_exti.c **** 
  98:./Library/stm32f4xx_exti.c **** /**
  99:./Library/stm32f4xx_exti.c ****   * @brief  Deinitializes the EXTI peripheral registers to their default reset values.
 100:./Library/stm32f4xx_exti.c ****   * @param  None
 101:./Library/stm32f4xx_exti.c ****   * @retval None
 102:./Library/stm32f4xx_exti.c ****   */
 103:./Library/stm32f4xx_exti.c **** void EXTI_DeInit(void)
 104:./Library/stm32f4xx_exti.c **** {
  29              		.loc 1 104 1 view -0
  30              		.cfi_startproc
  31              		@ args = 0, pretend = 0, frame = 0
  32              		@ frame_needed = 0, uses_anonymous_args = 0
  33              		@ link register save eliminated.
 105:./Library/stm32f4xx_exti.c ****   EXTI->IMR = 0x00000000;
  34              		.loc 1 105 3 view .LVU1
  35              		.loc 1 105 13 is_stmt 0 view .LVU2
  36 0000 044B     		ldr	r3, .L2
  37 0002 0022     		movs	r2, #0
  38 0004 1A60     		str	r2, [r3]
 106:./Library/stm32f4xx_exti.c ****   EXTI->EMR = 0x00000000;
  39              		.loc 1 106 3 is_stmt 1 view .LVU3
  40              		.loc 1 106 13 is_stmt 0 view .LVU4
  41 0006 5A60     		str	r2, [r3, #4]
 107:./Library/stm32f4xx_exti.c ****   EXTI->RTSR = 0x00000000;
  42              		.loc 1 107 3 is_stmt 1 view .LVU5
  43              		.loc 1 107 14 is_stmt 0 view .LVU6
  44 0008 9A60     		str	r2, [r3, #8]
 108:./Library/stm32f4xx_exti.c ****   EXTI->FTSR = 0x00000000;
  45              		.loc 1 108 3 is_stmt 1 view .LVU7
  46              		.loc 1 108 14 is_stmt 0 view .LVU8
  47 000a DA60     		str	r2, [r3, #12]
 109:./Library/stm32f4xx_exti.c ****   EXTI->PR = 0x007FFFFF;
  48              		.loc 1 109 3 is_stmt 1 view .LVU9
  49              		.loc 1 109 12 is_stmt 0 view .LVU10
  50 000c 024A     		ldr	r2, .L2+4
  51 000e 5A61     		str	r2, [r3, #20]
 110:./Library/stm32f4xx_exti.c **** }
  52              		.loc 1 110 1 view .LVU11
  53 0010 7047     		bx	lr
  54              	.L3:
  55 0012 00BF     		.align	2
  56              	.L2:
  57 0014 003C0140 		.word	1073822720
  58 0018 FFFF7F00 		.word	8388607
  59              		.cfi_endproc
  60              	.LFE123:
  62              		.section	.text.EXTI_Init,"ax",%progbits
  63              		.align	1
ARM GAS  /var/folders/yl/_q9l42k90g1g4mdhbs226msm0000gn/T//cc4uEW5d.s 			page 4


  64              		.global	EXTI_Init
  65              		.syntax unified
  66              		.thumb
  67              		.thumb_func
  69              	EXTI_Init:
  70              	.LVL0:
  71              	.LFB124:
 111:./Library/stm32f4xx_exti.c **** 
 112:./Library/stm32f4xx_exti.c **** /**
 113:./Library/stm32f4xx_exti.c ****   * @brief  Initializes the EXTI peripheral according to the specified
 114:./Library/stm32f4xx_exti.c ****   *         parameters in the EXTI_InitStruct.
 115:./Library/stm32f4xx_exti.c ****   * @param  EXTI_InitStruct: pointer to a EXTI_InitTypeDef structure
 116:./Library/stm32f4xx_exti.c ****   *         that contains the configuration information for the EXTI peripheral.
 117:./Library/stm32f4xx_exti.c ****   * @retval None
 118:./Library/stm32f4xx_exti.c ****   */
 119:./Library/stm32f4xx_exti.c **** void EXTI_Init(EXTI_InitTypeDef* EXTI_InitStruct)
 120:./Library/stm32f4xx_exti.c **** {
  72              		.loc 1 120 1 is_stmt 1 view -0
  73              		.cfi_startproc
  74              		@ args = 0, pretend = 0, frame = 0
  75              		@ frame_needed = 0, uses_anonymous_args = 0
  76              		@ link register save eliminated.
 121:./Library/stm32f4xx_exti.c ****   uint32_t tmp = 0;
  77              		.loc 1 121 3 view .LVU13
 122:./Library/stm32f4xx_exti.c **** 
 123:./Library/stm32f4xx_exti.c ****   /* Check the parameters */
 124:./Library/stm32f4xx_exti.c ****   assert_param(IS_EXTI_MODE(EXTI_InitStruct->EXTI_Mode));
  78              		.loc 1 124 3 view .LVU14
 125:./Library/stm32f4xx_exti.c ****   assert_param(IS_EXTI_TRIGGER(EXTI_InitStruct->EXTI_Trigger));
  79              		.loc 1 125 3 view .LVU15
 126:./Library/stm32f4xx_exti.c ****   assert_param(IS_EXTI_LINE(EXTI_InitStruct->EXTI_Line));  
  80              		.loc 1 126 3 view .LVU16
 127:./Library/stm32f4xx_exti.c ****   assert_param(IS_FUNCTIONAL_STATE(EXTI_InitStruct->EXTI_LineCmd));
  81              		.loc 1 127 3 view .LVU17
 128:./Library/stm32f4xx_exti.c **** 
 129:./Library/stm32f4xx_exti.c ****   tmp = (uint32_t)EXTI_BASE;
  82              		.loc 1 129 3 view .LVU18
 130:./Library/stm32f4xx_exti.c ****      
 131:./Library/stm32f4xx_exti.c ****   if (EXTI_InitStruct->EXTI_LineCmd != DISABLE)
  83              		.loc 1 131 3 view .LVU19
  84              		.loc 1 131 22 is_stmt 0 view .LVU20
  85 0000 8379     		ldrb	r3, [r0, #6]	@ zero_extendqisi2
  86              		.loc 1 131 6 view .LVU21
  87 0002 002B     		cmp	r3, #0
  88 0004 36D0     		beq	.L5
 120:./Library/stm32f4xx_exti.c ****   uint32_t tmp = 0;
  89              		.loc 1 120 1 view .LVU22
  90 0006 10B4     		push	{r4}
  91              	.LCFI0:
  92              		.cfi_def_cfa_offset 4
  93              		.cfi_offset 4, -4
 132:./Library/stm32f4xx_exti.c ****   {
 133:./Library/stm32f4xx_exti.c ****     /* Clear EXTI line configuration */
 134:./Library/stm32f4xx_exti.c ****     EXTI->IMR &= ~EXTI_InitStruct->EXTI_Line;
  94              		.loc 1 134 5 is_stmt 1 view .LVU23
  95              		.loc 1 134 15 is_stmt 0 view .LVU24
  96 0008 204B     		ldr	r3, .L13
ARM GAS  /var/folders/yl/_q9l42k90g1g4mdhbs226msm0000gn/T//cc4uEW5d.s 			page 5


  97 000a 1A68     		ldr	r2, [r3]
  98              		.loc 1 134 34 view .LVU25
  99 000c 0168     		ldr	r1, [r0]
 100              		.loc 1 134 15 view .LVU26
 101 000e 22EA0102 		bic	r2, r2, r1
 102 0012 1A60     		str	r2, [r3]
 135:./Library/stm32f4xx_exti.c ****     EXTI->EMR &= ~EXTI_InitStruct->EXTI_Line;
 103              		.loc 1 135 5 is_stmt 1 view .LVU27
 104              		.loc 1 135 15 is_stmt 0 view .LVU28
 105 0014 5A68     		ldr	r2, [r3, #4]
 106              		.loc 1 135 34 view .LVU29
 107 0016 0168     		ldr	r1, [r0]
 108              		.loc 1 135 15 view .LVU30
 109 0018 22EA0102 		bic	r2, r2, r1
 110 001c 5A60     		str	r2, [r3, #4]
 136:./Library/stm32f4xx_exti.c ****     
 137:./Library/stm32f4xx_exti.c ****     tmp += EXTI_InitStruct->EXTI_Mode;
 111              		.loc 1 137 5 is_stmt 1 view .LVU31
 112              		.loc 1 137 27 is_stmt 0 view .LVU32
 113 001e 0279     		ldrb	r2, [r0, #4]	@ zero_extendqisi2
 114              		.loc 1 137 9 view .LVU33
 115 0020 02F18042 		add	r2, r2, #1073741824
 116 0024 02F59E32 		add	r2, r2, #80896
 117              	.LVL1:
 138:./Library/stm32f4xx_exti.c **** 
 139:./Library/stm32f4xx_exti.c ****     *(__IO uint32_t *) tmp |= EXTI_InitStruct->EXTI_Line;
 118              		.loc 1 139 5 is_stmt 1 view .LVU34
 119              		.loc 1 139 28 is_stmt 0 view .LVU35
 120 0028 1168     		ldr	r1, [r2]
 121 002a 0468     		ldr	r4, [r0]
 122 002c 2143     		orrs	r1, r1, r4
 123 002e 1160     		str	r1, [r2]
 140:./Library/stm32f4xx_exti.c **** 
 141:./Library/stm32f4xx_exti.c ****     /* Clear Rising Falling edge configuration */
 142:./Library/stm32f4xx_exti.c ****     EXTI->RTSR &= ~EXTI_InitStruct->EXTI_Line;
 124              		.loc 1 142 5 is_stmt 1 view .LVU36
 125              		.loc 1 142 16 is_stmt 0 view .LVU37
 126 0030 9A68     		ldr	r2, [r3, #8]
 127              	.LVL2:
 128              		.loc 1 142 35 view .LVU38
 129 0032 0168     		ldr	r1, [r0]
 130              		.loc 1 142 16 view .LVU39
 131 0034 22EA0102 		bic	r2, r2, r1
 132 0038 9A60     		str	r2, [r3, #8]
 143:./Library/stm32f4xx_exti.c ****     EXTI->FTSR &= ~EXTI_InitStruct->EXTI_Line;
 133              		.loc 1 143 5 is_stmt 1 view .LVU40
 134              		.loc 1 143 16 is_stmt 0 view .LVU41
 135 003a DA68     		ldr	r2, [r3, #12]
 136              		.loc 1 143 35 view .LVU42
 137 003c 0168     		ldr	r1, [r0]
 138              		.loc 1 143 16 view .LVU43
 139 003e 22EA0102 		bic	r2, r2, r1
 140 0042 DA60     		str	r2, [r3, #12]
 144:./Library/stm32f4xx_exti.c ****     
 145:./Library/stm32f4xx_exti.c ****     /* Select the trigger for the selected external interrupts */
 146:./Library/stm32f4xx_exti.c ****     if (EXTI_InitStruct->EXTI_Trigger == EXTI_Trigger_Rising_Falling)
 141              		.loc 1 146 5 is_stmt 1 view .LVU44
ARM GAS  /var/folders/yl/_q9l42k90g1g4mdhbs226msm0000gn/T//cc4uEW5d.s 			page 6


 142              		.loc 1 146 24 is_stmt 0 view .LVU45
 143 0044 4379     		ldrb	r3, [r0, #5]	@ zero_extendqisi2
 144              		.loc 1 146 8 view .LVU46
 145 0046 102B     		cmp	r3, #16
 146 0048 0AD0     		beq	.L12
 147:./Library/stm32f4xx_exti.c ****     {
 148:./Library/stm32f4xx_exti.c ****       /* Rising Falling edge */
 149:./Library/stm32f4xx_exti.c ****       EXTI->RTSR |= EXTI_InitStruct->EXTI_Line;
 150:./Library/stm32f4xx_exti.c ****       EXTI->FTSR |= EXTI_InitStruct->EXTI_Line;
 151:./Library/stm32f4xx_exti.c ****     }
 152:./Library/stm32f4xx_exti.c ****     else
 153:./Library/stm32f4xx_exti.c ****     {
 154:./Library/stm32f4xx_exti.c ****       tmp = (uint32_t)EXTI_BASE;
 147              		.loc 1 154 7 is_stmt 1 view .LVU47
 148              	.LVL3:
 155:./Library/stm32f4xx_exti.c ****       tmp += EXTI_InitStruct->EXTI_Trigger;
 149              		.loc 1 155 7 view .LVU48
 150              		.loc 1 155 11 is_stmt 0 view .LVU49
 151 004a 03F18043 		add	r3, r3, #1073741824
 152 004e 03F59E33 		add	r3, r3, #80896
 153              	.LVL4:
 156:./Library/stm32f4xx_exti.c **** 
 157:./Library/stm32f4xx_exti.c ****       *(__IO uint32_t *) tmp |= EXTI_InitStruct->EXTI_Line;
 154              		.loc 1 157 7 is_stmt 1 view .LVU50
 155              		.loc 1 157 30 is_stmt 0 view .LVU51
 156 0052 1A68     		ldr	r2, [r3]
 157              		.loc 1 157 48 view .LVU52
 158 0054 0168     		ldr	r1, [r0]
 159              		.loc 1 157 30 view .LVU53
 160 0056 0A43     		orrs	r2, r2, r1
 161 0058 1A60     		str	r2, [r3]
 162              	.LVL5:
 163              	.L4:
 158:./Library/stm32f4xx_exti.c ****     }
 159:./Library/stm32f4xx_exti.c ****   }
 160:./Library/stm32f4xx_exti.c ****   else
 161:./Library/stm32f4xx_exti.c ****   {
 162:./Library/stm32f4xx_exti.c ****     tmp += EXTI_InitStruct->EXTI_Mode;
 163:./Library/stm32f4xx_exti.c **** 
 164:./Library/stm32f4xx_exti.c ****     /* Disable the selected external lines */
 165:./Library/stm32f4xx_exti.c ****     *(__IO uint32_t *) tmp &= ~EXTI_InitStruct->EXTI_Line;
 166:./Library/stm32f4xx_exti.c ****   }
 167:./Library/stm32f4xx_exti.c **** }
 164              		.loc 1 167 1 view .LVU54
 165 005a 5DF8044B 		ldr	r4, [sp], #4
 166              	.LCFI1:
 167              		.cfi_remember_state
 168              		.cfi_restore 4
 169              		.cfi_def_cfa_offset 0
 170 005e 7047     		bx	lr
 171              	.L12:
 172              	.LCFI2:
 173              		.cfi_restore_state
 149:./Library/stm32f4xx_exti.c ****       EXTI->FTSR |= EXTI_InitStruct->EXTI_Line;
 174              		.loc 1 149 7 is_stmt 1 view .LVU55
 149:./Library/stm32f4xx_exti.c ****       EXTI->FTSR |= EXTI_InitStruct->EXTI_Line;
 175              		.loc 1 149 18 is_stmt 0 view .LVU56
ARM GAS  /var/folders/yl/_q9l42k90g1g4mdhbs226msm0000gn/T//cc4uEW5d.s 			page 7


 176 0060 0A4B     		ldr	r3, .L13
 177 0062 9A68     		ldr	r2, [r3, #8]
 149:./Library/stm32f4xx_exti.c ****       EXTI->FTSR |= EXTI_InitStruct->EXTI_Line;
 178              		.loc 1 149 36 view .LVU57
 179 0064 0168     		ldr	r1, [r0]
 149:./Library/stm32f4xx_exti.c ****       EXTI->FTSR |= EXTI_InitStruct->EXTI_Line;
 180              		.loc 1 149 18 view .LVU58
 181 0066 0A43     		orrs	r2, r2, r1
 182 0068 9A60     		str	r2, [r3, #8]
 150:./Library/stm32f4xx_exti.c ****     }
 183              		.loc 1 150 7 is_stmt 1 view .LVU59
 150:./Library/stm32f4xx_exti.c ****     }
 184              		.loc 1 150 18 is_stmt 0 view .LVU60
 185 006a DA68     		ldr	r2, [r3, #12]
 150:./Library/stm32f4xx_exti.c ****     }
 186              		.loc 1 150 36 view .LVU61
 187 006c 0168     		ldr	r1, [r0]
 150:./Library/stm32f4xx_exti.c ****     }
 188              		.loc 1 150 18 view .LVU62
 189 006e 0A43     		orrs	r2, r2, r1
 190 0070 DA60     		str	r2, [r3, #12]
 191 0072 F2E7     		b	.L4
 192              	.LVL6:
 193              	.L5:
 194              	.LCFI3:
 195              		.cfi_def_cfa_offset 0
 196              		.cfi_restore 4
 162:./Library/stm32f4xx_exti.c **** 
 197              		.loc 1 162 5 is_stmt 1 view .LVU63
 162:./Library/stm32f4xx_exti.c **** 
 198              		.loc 1 162 27 is_stmt 0 view .LVU64
 199 0074 0379     		ldrb	r3, [r0, #4]	@ zero_extendqisi2
 162:./Library/stm32f4xx_exti.c **** 
 200              		.loc 1 162 9 view .LVU65
 201 0076 03F18043 		add	r3, r3, #1073741824
 202 007a 03F59E33 		add	r3, r3, #80896
 203              	.LVL7:
 165:./Library/stm32f4xx_exti.c ****   }
 204              		.loc 1 165 5 is_stmt 1 view .LVU66
 165:./Library/stm32f4xx_exti.c ****   }
 205              		.loc 1 165 28 is_stmt 0 view .LVU67
 206 007e 1A68     		ldr	r2, [r3]
 165:./Library/stm32f4xx_exti.c ****   }
 207              		.loc 1 165 47 view .LVU68
 208 0080 0168     		ldr	r1, [r0]
 165:./Library/stm32f4xx_exti.c ****   }
 209              		.loc 1 165 28 view .LVU69
 210 0082 22EA0102 		bic	r2, r2, r1
 211 0086 1A60     		str	r2, [r3]
 212 0088 7047     		bx	lr
 213              	.L14:
 214 008a 00BF     		.align	2
 215              	.L13:
 216 008c 003C0140 		.word	1073822720
 217              		.cfi_endproc
 218              	.LFE124:
 220              		.section	.text.EXTI_StructInit,"ax",%progbits
ARM GAS  /var/folders/yl/_q9l42k90g1g4mdhbs226msm0000gn/T//cc4uEW5d.s 			page 8


 221              		.align	1
 222              		.global	EXTI_StructInit
 223              		.syntax unified
 224              		.thumb
 225              		.thumb_func
 227              	EXTI_StructInit:
 228              	.LVL8:
 229              	.LFB125:
 168:./Library/stm32f4xx_exti.c **** 
 169:./Library/stm32f4xx_exti.c **** /**
 170:./Library/stm32f4xx_exti.c ****   * @brief  Fills each EXTI_InitStruct member with its reset value.
 171:./Library/stm32f4xx_exti.c ****   * @param  EXTI_InitStruct: pointer to a EXTI_InitTypeDef structure which will
 172:./Library/stm32f4xx_exti.c ****   *         be initialized.
 173:./Library/stm32f4xx_exti.c ****   * @retval None
 174:./Library/stm32f4xx_exti.c ****   */
 175:./Library/stm32f4xx_exti.c **** void EXTI_StructInit(EXTI_InitTypeDef* EXTI_InitStruct)
 176:./Library/stm32f4xx_exti.c **** {
 230              		.loc 1 176 1 is_stmt 1 view -0
 231              		.cfi_startproc
 232              		@ args = 0, pretend = 0, frame = 0
 233              		@ frame_needed = 0, uses_anonymous_args = 0
 234              		@ link register save eliminated.
 177:./Library/stm32f4xx_exti.c ****   EXTI_InitStruct->EXTI_Line = EXTI_LINENONE;
 235              		.loc 1 177 3 view .LVU71
 236              		.loc 1 177 30 is_stmt 0 view .LVU72
 237 0000 0023     		movs	r3, #0
 238 0002 0360     		str	r3, [r0]
 178:./Library/stm32f4xx_exti.c ****   EXTI_InitStruct->EXTI_Mode = EXTI_Mode_Interrupt;
 239              		.loc 1 178 3 is_stmt 1 view .LVU73
 240              		.loc 1 178 30 is_stmt 0 view .LVU74
 241 0004 0371     		strb	r3, [r0, #4]
 179:./Library/stm32f4xx_exti.c ****   EXTI_InitStruct->EXTI_Trigger = EXTI_Trigger_Falling;
 242              		.loc 1 179 3 is_stmt 1 view .LVU75
 243              		.loc 1 179 33 is_stmt 0 view .LVU76
 244 0006 0C22     		movs	r2, #12
 245 0008 4271     		strb	r2, [r0, #5]
 180:./Library/stm32f4xx_exti.c ****   EXTI_InitStruct->EXTI_LineCmd = DISABLE;
 246              		.loc 1 180 3 is_stmt 1 view .LVU77
 247              		.loc 1 180 33 is_stmt 0 view .LVU78
 248 000a 8371     		strb	r3, [r0, #6]
 181:./Library/stm32f4xx_exti.c **** }
 249              		.loc 1 181 1 view .LVU79
 250 000c 7047     		bx	lr
 251              		.cfi_endproc
 252              	.LFE125:
 254              		.section	.text.EXTI_GenerateSWInterrupt,"ax",%progbits
 255              		.align	1
 256              		.global	EXTI_GenerateSWInterrupt
 257              		.syntax unified
 258              		.thumb
 259              		.thumb_func
 261              	EXTI_GenerateSWInterrupt:
 262              	.LVL9:
 263              	.LFB126:
 182:./Library/stm32f4xx_exti.c **** 
 183:./Library/stm32f4xx_exti.c **** /**
 184:./Library/stm32f4xx_exti.c ****   * @brief  Generates a Software interrupt on selected EXTI line.
ARM GAS  /var/folders/yl/_q9l42k90g1g4mdhbs226msm0000gn/T//cc4uEW5d.s 			page 9


 185:./Library/stm32f4xx_exti.c ****   * @param  EXTI_Line: specifies the EXTI line on which the software interrupt
 186:./Library/stm32f4xx_exti.c ****   *         will be generated.
 187:./Library/stm32f4xx_exti.c ****   *         This parameter can be any combination of EXTI_Linex where x can be (0..22)
 188:./Library/stm32f4xx_exti.c ****   * @retval None
 189:./Library/stm32f4xx_exti.c ****   */
 190:./Library/stm32f4xx_exti.c **** void EXTI_GenerateSWInterrupt(uint32_t EXTI_Line)
 191:./Library/stm32f4xx_exti.c **** {
 264              		.loc 1 191 1 is_stmt 1 view -0
 265              		.cfi_startproc
 266              		@ args = 0, pretend = 0, frame = 0
 267              		@ frame_needed = 0, uses_anonymous_args = 0
 268              		@ link register save eliminated.
 192:./Library/stm32f4xx_exti.c ****   /* Check the parameters */
 193:./Library/stm32f4xx_exti.c ****   assert_param(IS_EXTI_LINE(EXTI_Line));
 269              		.loc 1 193 3 view .LVU81
 194:./Library/stm32f4xx_exti.c ****   
 195:./Library/stm32f4xx_exti.c ****   EXTI->SWIER |= EXTI_Line;
 270              		.loc 1 195 3 view .LVU82
 271              		.loc 1 195 15 is_stmt 0 view .LVU83
 272 0000 024A     		ldr	r2, .L17
 273 0002 1369     		ldr	r3, [r2, #16]
 274 0004 0343     		orrs	r3, r3, r0
 275 0006 1361     		str	r3, [r2, #16]
 196:./Library/stm32f4xx_exti.c **** }
 276              		.loc 1 196 1 view .LVU84
 277 0008 7047     		bx	lr
 278              	.L18:
 279 000a 00BF     		.align	2
 280              	.L17:
 281 000c 003C0140 		.word	1073822720
 282              		.cfi_endproc
 283              	.LFE126:
 285              		.section	.text.EXTI_GetFlagStatus,"ax",%progbits
 286              		.align	1
 287              		.global	EXTI_GetFlagStatus
 288              		.syntax unified
 289              		.thumb
 290              		.thumb_func
 292              	EXTI_GetFlagStatus:
 293              	.LVL10:
 294              	.LFB127:
 197:./Library/stm32f4xx_exti.c **** 
 198:./Library/stm32f4xx_exti.c **** /**
 199:./Library/stm32f4xx_exti.c ****   * @}
 200:./Library/stm32f4xx_exti.c ****   */
 201:./Library/stm32f4xx_exti.c **** 
 202:./Library/stm32f4xx_exti.c **** /** @defgroup EXTI_Group2 Interrupts and flags management functions
 203:./Library/stm32f4xx_exti.c ****  *  @brief   Interrupts and flags management functions 
 204:./Library/stm32f4xx_exti.c ****  *
 205:./Library/stm32f4xx_exti.c **** @verbatim   
 206:./Library/stm32f4xx_exti.c ****  ===============================================================================
 207:./Library/stm32f4xx_exti.c ****              ##### Interrupts and flags management functions #####
 208:./Library/stm32f4xx_exti.c ****  ===============================================================================
 209:./Library/stm32f4xx_exti.c **** 
 210:./Library/stm32f4xx_exti.c **** @endverbatim
 211:./Library/stm32f4xx_exti.c ****   * @{
 212:./Library/stm32f4xx_exti.c ****   */
ARM GAS  /var/folders/yl/_q9l42k90g1g4mdhbs226msm0000gn/T//cc4uEW5d.s 			page 10


 213:./Library/stm32f4xx_exti.c **** 
 214:./Library/stm32f4xx_exti.c **** /**
 215:./Library/stm32f4xx_exti.c ****   * @brief  Checks whether the specified EXTI line flag is set or not.
 216:./Library/stm32f4xx_exti.c ****   * @param  EXTI_Line: specifies the EXTI line flag to check.
 217:./Library/stm32f4xx_exti.c ****   *          This parameter can be EXTI_Linex where x can be(0..22)
 218:./Library/stm32f4xx_exti.c ****   * @retval The new state of EXTI_Line (SET or RESET).
 219:./Library/stm32f4xx_exti.c ****   */
 220:./Library/stm32f4xx_exti.c **** FlagStatus EXTI_GetFlagStatus(uint32_t EXTI_Line)
 221:./Library/stm32f4xx_exti.c **** {
 295              		.loc 1 221 1 is_stmt 1 view -0
 296              		.cfi_startproc
 297              		@ args = 0, pretend = 0, frame = 0
 298              		@ frame_needed = 0, uses_anonymous_args = 0
 299              		@ link register save eliminated.
 222:./Library/stm32f4xx_exti.c ****   FlagStatus bitstatus = RESET;
 300              		.loc 1 222 3 view .LVU86
 223:./Library/stm32f4xx_exti.c ****   /* Check the parameters */
 224:./Library/stm32f4xx_exti.c ****   assert_param(IS_GET_EXTI_LINE(EXTI_Line));
 301              		.loc 1 224 3 view .LVU87
 225:./Library/stm32f4xx_exti.c ****   
 226:./Library/stm32f4xx_exti.c ****   if ((EXTI->PR & EXTI_Line) != (uint32_t)RESET)
 302              		.loc 1 226 3 view .LVU88
 303              		.loc 1 226 12 is_stmt 0 view .LVU89
 304 0000 034B     		ldr	r3, .L22
 305 0002 5B69     		ldr	r3, [r3, #20]
 306              		.loc 1 226 6 view .LVU90
 307 0004 0342     		tst	r3, r0
 308 0006 01D0     		beq	.L21
 227:./Library/stm32f4xx_exti.c ****   {
 228:./Library/stm32f4xx_exti.c ****     bitstatus = SET;
 309              		.loc 1 228 15 view .LVU91
 310 0008 0120     		movs	r0, #1
 311              	.LVL11:
 312              		.loc 1 228 15 view .LVU92
 313 000a 7047     		bx	lr
 314              	.LVL12:
 315              	.L21:
 229:./Library/stm32f4xx_exti.c ****   }
 230:./Library/stm32f4xx_exti.c ****   else
 231:./Library/stm32f4xx_exti.c ****   {
 232:./Library/stm32f4xx_exti.c ****     bitstatus = RESET;
 316              		.loc 1 232 15 view .LVU93
 317 000c 0020     		movs	r0, #0
 318              	.LVL13:
 233:./Library/stm32f4xx_exti.c ****   }
 234:./Library/stm32f4xx_exti.c ****   return bitstatus;
 319              		.loc 1 234 3 is_stmt 1 view .LVU94
 235:./Library/stm32f4xx_exti.c **** }
 320              		.loc 1 235 1 is_stmt 0 view .LVU95
 321 000e 7047     		bx	lr
 322              	.L23:
 323              		.align	2
 324              	.L22:
 325 0010 003C0140 		.word	1073822720
 326              		.cfi_endproc
 327              	.LFE127:
 329              		.section	.text.EXTI_ClearFlag,"ax",%progbits
ARM GAS  /var/folders/yl/_q9l42k90g1g4mdhbs226msm0000gn/T//cc4uEW5d.s 			page 11


 330              		.align	1
 331              		.global	EXTI_ClearFlag
 332              		.syntax unified
 333              		.thumb
 334              		.thumb_func
 336              	EXTI_ClearFlag:
 337              	.LVL14:
 338              	.LFB128:
 236:./Library/stm32f4xx_exti.c **** 
 237:./Library/stm32f4xx_exti.c **** /**
 238:./Library/stm32f4xx_exti.c ****   * @brief  Clears the EXTI's line pending flags.
 239:./Library/stm32f4xx_exti.c ****   * @param  EXTI_Line: specifies the EXTI lines flags to clear.
 240:./Library/stm32f4xx_exti.c ****   *          This parameter can be any combination of EXTI_Linex where x can be (0..22)
 241:./Library/stm32f4xx_exti.c ****   * @retval None
 242:./Library/stm32f4xx_exti.c ****   */
 243:./Library/stm32f4xx_exti.c **** void EXTI_ClearFlag(uint32_t EXTI_Line)
 244:./Library/stm32f4xx_exti.c **** {
 339              		.loc 1 244 1 is_stmt 1 view -0
 340              		.cfi_startproc
 341              		@ args = 0, pretend = 0, frame = 0
 342              		@ frame_needed = 0, uses_anonymous_args = 0
 343              		@ link register save eliminated.
 245:./Library/stm32f4xx_exti.c ****   /* Check the parameters */
 246:./Library/stm32f4xx_exti.c ****   assert_param(IS_EXTI_LINE(EXTI_Line));
 344              		.loc 1 246 3 view .LVU97
 247:./Library/stm32f4xx_exti.c ****   
 248:./Library/stm32f4xx_exti.c ****   EXTI->PR = EXTI_Line;
 345              		.loc 1 248 3 view .LVU98
 346              		.loc 1 248 12 is_stmt 0 view .LVU99
 347 0000 014B     		ldr	r3, .L25
 348 0002 5861     		str	r0, [r3, #20]
 249:./Library/stm32f4xx_exti.c **** }
 349              		.loc 1 249 1 view .LVU100
 350 0004 7047     		bx	lr
 351              	.L26:
 352 0006 00BF     		.align	2
 353              	.L25:
 354 0008 003C0140 		.word	1073822720
 355              		.cfi_endproc
 356              	.LFE128:
 358              		.section	.text.EXTI_GetITStatus,"ax",%progbits
 359              		.align	1
 360              		.global	EXTI_GetITStatus
 361              		.syntax unified
 362              		.thumb
 363              		.thumb_func
 365              	EXTI_GetITStatus:
 366              	.LVL15:
 367              	.LFB129:
 250:./Library/stm32f4xx_exti.c **** 
 251:./Library/stm32f4xx_exti.c **** /**
 252:./Library/stm32f4xx_exti.c ****   * @brief  Checks whether the specified EXTI line is asserted or not.
 253:./Library/stm32f4xx_exti.c ****   * @param  EXTI_Line: specifies the EXTI line to check.
 254:./Library/stm32f4xx_exti.c ****   *          This parameter can be EXTI_Linex where x can be(0..22)
 255:./Library/stm32f4xx_exti.c ****   * @retval The new state of EXTI_Line (SET or RESET).
 256:./Library/stm32f4xx_exti.c ****   */
 257:./Library/stm32f4xx_exti.c **** ITStatus EXTI_GetITStatus(uint32_t EXTI_Line)
ARM GAS  /var/folders/yl/_q9l42k90g1g4mdhbs226msm0000gn/T//cc4uEW5d.s 			page 12


 258:./Library/stm32f4xx_exti.c **** {
 368              		.loc 1 258 1 is_stmt 1 view -0
 369              		.cfi_startproc
 370              		@ args = 0, pretend = 0, frame = 0
 371              		@ frame_needed = 0, uses_anonymous_args = 0
 372              		@ link register save eliminated.
 259:./Library/stm32f4xx_exti.c ****   FlagStatus bitstatus = RESET;
 373              		.loc 1 259 3 view .LVU102
 260:./Library/stm32f4xx_exti.c ****   /* Check the parameters */
 261:./Library/stm32f4xx_exti.c ****   assert_param(IS_GET_EXTI_LINE(EXTI_Line));
 374              		.loc 1 261 3 view .LVU103
 262:./Library/stm32f4xx_exti.c ****   
 263:./Library/stm32f4xx_exti.c ****   if ((EXTI->PR & EXTI_Line) != (uint32_t)RESET)
 375              		.loc 1 263 3 view .LVU104
 376              		.loc 1 263 12 is_stmt 0 view .LVU105
 377 0000 034B     		ldr	r3, .L30
 378 0002 5B69     		ldr	r3, [r3, #20]
 379              		.loc 1 263 6 view .LVU106
 380 0004 0342     		tst	r3, r0
 381 0006 01D0     		beq	.L29
 264:./Library/stm32f4xx_exti.c ****   {
 265:./Library/stm32f4xx_exti.c ****     bitstatus = SET;
 382              		.loc 1 265 15 view .LVU107
 383 0008 0120     		movs	r0, #1
 384              	.LVL16:
 385              		.loc 1 265 15 view .LVU108
 386 000a 7047     		bx	lr
 387              	.LVL17:
 388              	.L29:
 266:./Library/stm32f4xx_exti.c ****   }
 267:./Library/stm32f4xx_exti.c ****   else
 268:./Library/stm32f4xx_exti.c ****   {
 269:./Library/stm32f4xx_exti.c ****     bitstatus = RESET;
 389              		.loc 1 269 15 view .LVU109
 390 000c 0020     		movs	r0, #0
 391              	.LVL18:
 270:./Library/stm32f4xx_exti.c ****   }
 271:./Library/stm32f4xx_exti.c ****   return bitstatus;
 392              		.loc 1 271 3 is_stmt 1 view .LVU110
 272:./Library/stm32f4xx_exti.c ****   
 273:./Library/stm32f4xx_exti.c **** }
 393              		.loc 1 273 1 is_stmt 0 view .LVU111
 394 000e 7047     		bx	lr
 395              	.L31:
 396              		.align	2
 397              	.L30:
 398 0010 003C0140 		.word	1073822720
 399              		.cfi_endproc
 400              	.LFE129:
 402              		.section	.text.EXTI_ClearITPendingBit,"ax",%progbits
 403              		.align	1
 404              		.global	EXTI_ClearITPendingBit
 405              		.syntax unified
 406              		.thumb
 407              		.thumb_func
 409              	EXTI_ClearITPendingBit:
 410              	.LVL19:
ARM GAS  /var/folders/yl/_q9l42k90g1g4mdhbs226msm0000gn/T//cc4uEW5d.s 			page 13


 411              	.LFB130:
 274:./Library/stm32f4xx_exti.c **** 
 275:./Library/stm32f4xx_exti.c **** /**
 276:./Library/stm32f4xx_exti.c ****   * @brief  Clears the EXTI's line pending bits.
 277:./Library/stm32f4xx_exti.c ****   * @param  EXTI_Line: specifies the EXTI lines to clear.
 278:./Library/stm32f4xx_exti.c ****   *          This parameter can be any combination of EXTI_Linex where x can be (0..22)
 279:./Library/stm32f4xx_exti.c ****   * @retval None
 280:./Library/stm32f4xx_exti.c ****   */
 281:./Library/stm32f4xx_exti.c **** void EXTI_ClearITPendingBit(uint32_t EXTI_Line)
 282:./Library/stm32f4xx_exti.c **** {
 412              		.loc 1 282 1 is_stmt 1 view -0
 413              		.cfi_startproc
 414              		@ args = 0, pretend = 0, frame = 0
 415              		@ frame_needed = 0, uses_anonymous_args = 0
 416              		@ link register save eliminated.
 283:./Library/stm32f4xx_exti.c ****   /* Check the parameters */
 284:./Library/stm32f4xx_exti.c ****   assert_param(IS_EXTI_LINE(EXTI_Line));
 417              		.loc 1 284 3 view .LVU113
 285:./Library/stm32f4xx_exti.c ****   
 286:./Library/stm32f4xx_exti.c ****   EXTI->PR = EXTI_Line;
 418              		.loc 1 286 3 view .LVU114
 419              		.loc 1 286 12 is_stmt 0 view .LVU115
 420 0000 014B     		ldr	r3, .L33
 421 0002 5861     		str	r0, [r3, #20]
 287:./Library/stm32f4xx_exti.c **** }
 422              		.loc 1 287 1 view .LVU116
 423 0004 7047     		bx	lr
 424              	.L34:
 425 0006 00BF     		.align	2
 426              	.L33:
 427 0008 003C0140 		.word	1073822720
 428              		.cfi_endproc
 429              	.LFE130:
 431              		.text
 432              	.Letext0:
 433              		.file 2 "/Applications/ARM/arm-none-eabi/include/machine/_default_types.h"
 434              		.file 3 "/Applications/ARM/arm-none-eabi/include/sys/_stdint.h"
 435              		.file 4 "./CORE/stm32f4xx.h"
 436              		.file 5 "./Library/stm32f4xx_exti.h"
ARM GAS  /var/folders/yl/_q9l42k90g1g4mdhbs226msm0000gn/T//cc4uEW5d.s 			page 14


DEFINED SYMBOLS
                            *ABS*:0000000000000000 stm32f4xx_exti.c
/var/folders/yl/_q9l42k90g1g4mdhbs226msm0000gn/T//cc4uEW5d.s:20     .text.EXTI_DeInit:0000000000000000 $t
/var/folders/yl/_q9l42k90g1g4mdhbs226msm0000gn/T//cc4uEW5d.s:26     .text.EXTI_DeInit:0000000000000000 EXTI_DeInit
/var/folders/yl/_q9l42k90g1g4mdhbs226msm0000gn/T//cc4uEW5d.s:57     .text.EXTI_DeInit:0000000000000014 $d
/var/folders/yl/_q9l42k90g1g4mdhbs226msm0000gn/T//cc4uEW5d.s:63     .text.EXTI_Init:0000000000000000 $t
/var/folders/yl/_q9l42k90g1g4mdhbs226msm0000gn/T//cc4uEW5d.s:69     .text.EXTI_Init:0000000000000000 EXTI_Init
/var/folders/yl/_q9l42k90g1g4mdhbs226msm0000gn/T//cc4uEW5d.s:216    .text.EXTI_Init:000000000000008c $d
/var/folders/yl/_q9l42k90g1g4mdhbs226msm0000gn/T//cc4uEW5d.s:221    .text.EXTI_StructInit:0000000000000000 $t
/var/folders/yl/_q9l42k90g1g4mdhbs226msm0000gn/T//cc4uEW5d.s:227    .text.EXTI_StructInit:0000000000000000 EXTI_StructInit
/var/folders/yl/_q9l42k90g1g4mdhbs226msm0000gn/T//cc4uEW5d.s:255    .text.EXTI_GenerateSWInterrupt:0000000000000000 $t
/var/folders/yl/_q9l42k90g1g4mdhbs226msm0000gn/T//cc4uEW5d.s:261    .text.EXTI_GenerateSWInterrupt:0000000000000000 EXTI_GenerateSWInterrupt
/var/folders/yl/_q9l42k90g1g4mdhbs226msm0000gn/T//cc4uEW5d.s:281    .text.EXTI_GenerateSWInterrupt:000000000000000c $d
/var/folders/yl/_q9l42k90g1g4mdhbs226msm0000gn/T//cc4uEW5d.s:286    .text.EXTI_GetFlagStatus:0000000000000000 $t
/var/folders/yl/_q9l42k90g1g4mdhbs226msm0000gn/T//cc4uEW5d.s:292    .text.EXTI_GetFlagStatus:0000000000000000 EXTI_GetFlagStatus
/var/folders/yl/_q9l42k90g1g4mdhbs226msm0000gn/T//cc4uEW5d.s:325    .text.EXTI_GetFlagStatus:0000000000000010 $d
/var/folders/yl/_q9l42k90g1g4mdhbs226msm0000gn/T//cc4uEW5d.s:330    .text.EXTI_ClearFlag:0000000000000000 $t
/var/folders/yl/_q9l42k90g1g4mdhbs226msm0000gn/T//cc4uEW5d.s:336    .text.EXTI_ClearFlag:0000000000000000 EXTI_ClearFlag
/var/folders/yl/_q9l42k90g1g4mdhbs226msm0000gn/T//cc4uEW5d.s:354    .text.EXTI_ClearFlag:0000000000000008 $d
/var/folders/yl/_q9l42k90g1g4mdhbs226msm0000gn/T//cc4uEW5d.s:359    .text.EXTI_GetITStatus:0000000000000000 $t
/var/folders/yl/_q9l42k90g1g4mdhbs226msm0000gn/T//cc4uEW5d.s:365    .text.EXTI_GetITStatus:0000000000000000 EXTI_GetITStatus
/var/folders/yl/_q9l42k90g1g4mdhbs226msm0000gn/T//cc4uEW5d.s:398    .text.EXTI_GetITStatus:0000000000000010 $d
/var/folders/yl/_q9l42k90g1g4mdhbs226msm0000gn/T//cc4uEW5d.s:403    .text.EXTI_ClearITPendingBit:0000000000000000 $t
/var/folders/yl/_q9l42k90g1g4mdhbs226msm0000gn/T//cc4uEW5d.s:409    .text.EXTI_ClearITPendingBit:0000000000000000 EXTI_ClearITPendingBit
/var/folders/yl/_q9l42k90g1g4mdhbs226msm0000gn/T//cc4uEW5d.s:427    .text.EXTI_ClearITPendingBit:0000000000000008 $d

NO UNDEFINED SYMBOLS
