ARM GAS  /var/folders/yl/_q9l42k90g1g4mdhbs226msm0000gn/T//ccwIpdyS.s 			page 1


   1              		.cpu cortex-m4
   2              		.arch armv7e-m
   3              		.fpu fpv4-sp-d16
   4              		.eabi_attribute 27, 1
   5              		.eabi_attribute 28, 1
   6              		.eabi_attribute 20, 1
   7              		.eabi_attribute 21, 1
   8              		.eabi_attribute 23, 3
   9              		.eabi_attribute 24, 1
  10              		.eabi_attribute 25, 1
  11              		.eabi_attribute 26, 1
  12              		.eabi_attribute 30, 1
  13              		.eabi_attribute 34, 1
  14              		.eabi_attribute 18, 4
  15              		.file	"stm32f4xx_hash_sha1.c"
  16              		.text
  17              	.Ltext0:
  18              		.cfi_sections	.debug_frame
  19              		.section	.text.HASH_SHA1,"ax",%progbits
  20              		.align	1
  21              		.global	HASH_SHA1
  22              		.syntax unified
  23              		.thumb
  24              		.thumb_func
  26              	HASH_SHA1:
  27              	.LVL0:
  28              	.LFB123:
  29              		.file 1 "./Library/stm32f4xx_hash_sha1.c"
   1:./Library/stm32f4xx_hash_sha1.c **** /**
   2:./Library/stm32f4xx_hash_sha1.c ****   ******************************************************************************
   3:./Library/stm32f4xx_hash_sha1.c ****   * @file    stm32f4xx_hash_sha1.c
   4:./Library/stm32f4xx_hash_sha1.c ****   * @author  MCD Application Team
   5:./Library/stm32f4xx_hash_sha1.c ****   * @version V1.8.1
   6:./Library/stm32f4xx_hash_sha1.c ****   * @date    27-January-2022
   7:./Library/stm32f4xx_hash_sha1.c ****   * @brief   This file provides high level functions to compute the HASH SHA1 and
   8:./Library/stm32f4xx_hash_sha1.c ****   *          HMAC SHA1 Digest of an input message.
   9:./Library/stm32f4xx_hash_sha1.c ****   *          It uses the stm32f4xx_hash.c/.h drivers to access the STM32F4xx HASH
  10:./Library/stm32f4xx_hash_sha1.c ****   *          peripheral.
  11:./Library/stm32f4xx_hash_sha1.c ****   *
  12:./Library/stm32f4xx_hash_sha1.c **** @verbatim
  13:./Library/stm32f4xx_hash_sha1.c ****  ===================================================================
  14:./Library/stm32f4xx_hash_sha1.c ****                  ##### How to use this driver #####
  15:./Library/stm32f4xx_hash_sha1.c ****  ===================================================================
  16:./Library/stm32f4xx_hash_sha1.c ****  [..]
  17:./Library/stm32f4xx_hash_sha1.c ****    (#) Enable The HASH controller clock using 
  18:./Library/stm32f4xx_hash_sha1.c ****        RCC_AHB2PeriphClockCmd(RCC_AHB2Periph_HASH, ENABLE); function.
  19:./Library/stm32f4xx_hash_sha1.c ****   
  20:./Library/stm32f4xx_hash_sha1.c ****    (#) Calculate the HASH SHA1 Digest using HASH_SHA1() function.
  21:./Library/stm32f4xx_hash_sha1.c ****   
  22:./Library/stm32f4xx_hash_sha1.c ****    (#) Calculate the HMAC SHA1 Digest using HMAC_SHA1() function.
  23:./Library/stm32f4xx_hash_sha1.c ****   
  24:./Library/stm32f4xx_hash_sha1.c **** @endverbatim
  25:./Library/stm32f4xx_hash_sha1.c ****   *
  26:./Library/stm32f4xx_hash_sha1.c ****   ******************************************************************************
  27:./Library/stm32f4xx_hash_sha1.c ****   * @attention
  28:./Library/stm32f4xx_hash_sha1.c ****   *
  29:./Library/stm32f4xx_hash_sha1.c ****   * Copyright (c) 2016 STMicroelectronics.
ARM GAS  /var/folders/yl/_q9l42k90g1g4mdhbs226msm0000gn/T//ccwIpdyS.s 			page 2


  30:./Library/stm32f4xx_hash_sha1.c ****   * All rights reserved.
  31:./Library/stm32f4xx_hash_sha1.c ****   *
  32:./Library/stm32f4xx_hash_sha1.c ****   * This software is licensed under terms that can be found in the LICENSE file
  33:./Library/stm32f4xx_hash_sha1.c ****   * in the root directory of this software component.
  34:./Library/stm32f4xx_hash_sha1.c ****   * If no LICENSE file comes with this software, it is provided AS-IS.
  35:./Library/stm32f4xx_hash_sha1.c ****   *
  36:./Library/stm32f4xx_hash_sha1.c ****   ******************************************************************************
  37:./Library/stm32f4xx_hash_sha1.c ****   */
  38:./Library/stm32f4xx_hash_sha1.c **** 
  39:./Library/stm32f4xx_hash_sha1.c **** /* Includes ------------------------------------------------------------------*/
  40:./Library/stm32f4xx_hash_sha1.c **** #include "stm32f4xx_hash.h"
  41:./Library/stm32f4xx_hash_sha1.c **** 
  42:./Library/stm32f4xx_hash_sha1.c **** /** @addtogroup STM32F4xx_StdPeriph_Driver
  43:./Library/stm32f4xx_hash_sha1.c ****   * @{
  44:./Library/stm32f4xx_hash_sha1.c ****   */
  45:./Library/stm32f4xx_hash_sha1.c **** 
  46:./Library/stm32f4xx_hash_sha1.c **** /** @defgroup HASH 
  47:./Library/stm32f4xx_hash_sha1.c ****   * @brief HASH driver modules
  48:./Library/stm32f4xx_hash_sha1.c ****   * @{
  49:./Library/stm32f4xx_hash_sha1.c ****   */
  50:./Library/stm32f4xx_hash_sha1.c **** 
  51:./Library/stm32f4xx_hash_sha1.c **** /* Private typedef -----------------------------------------------------------*/
  52:./Library/stm32f4xx_hash_sha1.c **** /* Private define ------------------------------------------------------------*/
  53:./Library/stm32f4xx_hash_sha1.c **** #define SHA1BUSY_TIMEOUT    ((uint32_t) 0x00010000)
  54:./Library/stm32f4xx_hash_sha1.c **** 
  55:./Library/stm32f4xx_hash_sha1.c **** /* Private macro -------------------------------------------------------------*/
  56:./Library/stm32f4xx_hash_sha1.c **** /* Private variables ---------------------------------------------------------*/
  57:./Library/stm32f4xx_hash_sha1.c **** /* Private function prototypes -----------------------------------------------*/
  58:./Library/stm32f4xx_hash_sha1.c **** /* Private functions ---------------------------------------------------------*/
  59:./Library/stm32f4xx_hash_sha1.c **** 
  60:./Library/stm32f4xx_hash_sha1.c **** /** @defgroup HASH_Private_Functions
  61:./Library/stm32f4xx_hash_sha1.c ****   * @{
  62:./Library/stm32f4xx_hash_sha1.c ****   */ 
  63:./Library/stm32f4xx_hash_sha1.c **** 
  64:./Library/stm32f4xx_hash_sha1.c **** /** @defgroup HASH_Group6 High Level SHA1 functions
  65:./Library/stm32f4xx_hash_sha1.c ****  *  @brief   High Level SHA1 Hash and HMAC functions 
  66:./Library/stm32f4xx_hash_sha1.c ****  *
  67:./Library/stm32f4xx_hash_sha1.c **** @verbatim   
  68:./Library/stm32f4xx_hash_sha1.c ****  ===============================================================================
  69:./Library/stm32f4xx_hash_sha1.c ****                ##### High Level SHA1 Hash and HMAC functions #####
  70:./Library/stm32f4xx_hash_sha1.c ****  ===============================================================================
  71:./Library/stm32f4xx_hash_sha1.c **** 
  72:./Library/stm32f4xx_hash_sha1.c **** 
  73:./Library/stm32f4xx_hash_sha1.c **** @endverbatim
  74:./Library/stm32f4xx_hash_sha1.c ****   * @{
  75:./Library/stm32f4xx_hash_sha1.c ****   */
  76:./Library/stm32f4xx_hash_sha1.c **** 
  77:./Library/stm32f4xx_hash_sha1.c **** /**
  78:./Library/stm32f4xx_hash_sha1.c ****   * @brief  Compute the HASH SHA1 digest.
  79:./Library/stm32f4xx_hash_sha1.c ****   * @param  Input: pointer to the Input buffer to be treated.
  80:./Library/stm32f4xx_hash_sha1.c ****   * @param  Ilen: length of the Input buffer.
  81:./Library/stm32f4xx_hash_sha1.c ****   * @param  Output: the returned digest
  82:./Library/stm32f4xx_hash_sha1.c ****   * @retval An ErrorStatus enumeration value:
  83:./Library/stm32f4xx_hash_sha1.c ****   *          - SUCCESS: digest computation done
  84:./Library/stm32f4xx_hash_sha1.c ****   *          - ERROR: digest computation failed
  85:./Library/stm32f4xx_hash_sha1.c ****   */
  86:./Library/stm32f4xx_hash_sha1.c **** ErrorStatus HASH_SHA1(uint8_t *Input, uint32_t Ilen, uint8_t Output[20])
ARM GAS  /var/folders/yl/_q9l42k90g1g4mdhbs226msm0000gn/T//ccwIpdyS.s 			page 3


  87:./Library/stm32f4xx_hash_sha1.c **** {
  30              		.loc 1 87 1 view -0
  31              		.cfi_startproc
  32              		@ args = 0, pretend = 0, frame = 56
  33              		@ frame_needed = 0, uses_anonymous_args = 0
  34              		.loc 1 87 1 is_stmt 0 view .LVU1
  35 0000 F0B5     		push	{r4, r5, r6, r7, lr}
  36              	.LCFI0:
  37              		.cfi_def_cfa_offset 20
  38              		.cfi_offset 4, -20
  39              		.cfi_offset 5, -16
  40              		.cfi_offset 6, -12
  41              		.cfi_offset 7, -8
  42              		.cfi_offset 14, -4
  43 0002 8FB0     		sub	sp, sp, #60
  44              	.LCFI1:
  45              		.cfi_def_cfa_offset 80
  46 0004 0F46     		mov	r7, r1
  47 0006 1646     		mov	r6, r2
  88:./Library/stm32f4xx_hash_sha1.c ****   HASH_InitTypeDef SHA1_HASH_InitStructure;
  48              		.loc 1 88 3 is_stmt 1 view .LVU2
  89:./Library/stm32f4xx_hash_sha1.c ****   HASH_MsgDigest SHA1_MessageDigest;
  49              		.loc 1 89 3 view .LVU3
  90:./Library/stm32f4xx_hash_sha1.c ****   __IO uint16_t nbvalidbitsdata = 0;
  50              		.loc 1 90 3 view .LVU4
  51              		.loc 1 90 17 is_stmt 0 view .LVU5
  52 0008 0024     		movs	r4, #0
  53 000a ADF80640 		strh	r4, [sp, #6]	@ movhi
  91:./Library/stm32f4xx_hash_sha1.c ****   uint32_t i = 0;
  54              		.loc 1 91 3 is_stmt 1 view .LVU6
  55              	.LVL1:
  92:./Library/stm32f4xx_hash_sha1.c ****   __IO uint32_t counter = 0;
  56              		.loc 1 92 3 view .LVU7
  57              		.loc 1 92 17 is_stmt 0 view .LVU8
  58 000e 0094     		str	r4, [sp]
  93:./Library/stm32f4xx_hash_sha1.c ****   uint32_t busystatus = 0;
  59              		.loc 1 93 3 is_stmt 1 view .LVU9
  60              	.LVL2:
  94:./Library/stm32f4xx_hash_sha1.c ****   ErrorStatus status = SUCCESS;
  61              		.loc 1 94 3 view .LVU10
  95:./Library/stm32f4xx_hash_sha1.c ****   uint32_t inputaddr  = (uint32_t)Input;
  62              		.loc 1 95 3 view .LVU11
  63              		.loc 1 95 12 is_stmt 0 view .LVU12
  64 0010 0546     		mov	r5, r0
  65              	.LVL3:
  96:./Library/stm32f4xx_hash_sha1.c ****   uint32_t outputaddr = (uint32_t)Output;
  66              		.loc 1 96 3 is_stmt 1 view .LVU13
  97:./Library/stm32f4xx_hash_sha1.c **** 
  98:./Library/stm32f4xx_hash_sha1.c ****   /* Number of valid bits in last word of the Input data */
  99:./Library/stm32f4xx_hash_sha1.c ****   nbvalidbitsdata = 8 * (Ilen % 4);
  67              		.loc 1 99 3 view .LVU14
  68              		.loc 1 99 19 is_stmt 0 view .LVU15
  69 0012 01F00303 		and	r3, r1, #3
  70 0016 DB00     		lsls	r3, r3, #3
  71 0018 ADF80630 		strh	r3, [sp, #6]	@ movhi
 100:./Library/stm32f4xx_hash_sha1.c **** 
 101:./Library/stm32f4xx_hash_sha1.c ****   /* HASH peripheral initialization */
ARM GAS  /var/folders/yl/_q9l42k90g1g4mdhbs226msm0000gn/T//ccwIpdyS.s 			page 4


 102:./Library/stm32f4xx_hash_sha1.c ****   HASH_DeInit();
  72              		.loc 1 102 3 is_stmt 1 view .LVU16
  73 001c FFF7FEFF 		bl	HASH_DeInit
  74              	.LVL4:
 103:./Library/stm32f4xx_hash_sha1.c **** 
 104:./Library/stm32f4xx_hash_sha1.c ****   /* HASH Configuration */
 105:./Library/stm32f4xx_hash_sha1.c ****   SHA1_HASH_InitStructure.HASH_AlgoSelection = HASH_AlgoSelection_SHA1;
  75              		.loc 1 105 3 view .LVU17
  76              		.loc 1 105 46 is_stmt 0 view .LVU18
  77 0020 0A94     		str	r4, [sp, #40]
 106:./Library/stm32f4xx_hash_sha1.c ****   SHA1_HASH_InitStructure.HASH_AlgoMode = HASH_AlgoMode_HASH;
  78              		.loc 1 106 3 is_stmt 1 view .LVU19
  79              		.loc 1 106 41 is_stmt 0 view .LVU20
  80 0022 0B94     		str	r4, [sp, #44]
 107:./Library/stm32f4xx_hash_sha1.c ****   SHA1_HASH_InitStructure.HASH_DataType = HASH_DataType_8b;
  81              		.loc 1 107 3 is_stmt 1 view .LVU21
  82              		.loc 1 107 41 is_stmt 0 view .LVU22
  83 0024 2023     		movs	r3, #32
  84 0026 0C93     		str	r3, [sp, #48]
 108:./Library/stm32f4xx_hash_sha1.c ****   HASH_Init(&SHA1_HASH_InitStructure);
  85              		.loc 1 108 3 is_stmt 1 view .LVU23
  86 0028 0AA8     		add	r0, sp, #40
  87 002a FFF7FEFF 		bl	HASH_Init
  88              	.LVL5:
 109:./Library/stm32f4xx_hash_sha1.c **** 
 110:./Library/stm32f4xx_hash_sha1.c ****   /* Configure the number of valid bits in last word of the data */
 111:./Library/stm32f4xx_hash_sha1.c ****   HASH_SetLastWordValidBitsNbr(nbvalidbitsdata);
  89              		.loc 1 111 3 view .LVU24
  90 002e BDF80600 		ldrh	r0, [sp, #6]
  91 0032 80B2     		uxth	r0, r0
  92 0034 FFF7FEFF 		bl	HASH_SetLastWordValidBitsNbr
  93              	.LVL6:
 112:./Library/stm32f4xx_hash_sha1.c **** 
 113:./Library/stm32f4xx_hash_sha1.c ****   /* Write the Input block in the IN FIFO */
 114:./Library/stm32f4xx_hash_sha1.c ****   for(i=0; i<Ilen; i+=4)
  94              		.loc 1 114 3 view .LVU25
  95              		.loc 1 114 3 is_stmt 0 view .LVU26
  96 0038 04E0     		b	.L2
  97              	.LVL7:
  98              	.L3:
 115:./Library/stm32f4xx_hash_sha1.c ****   {
 116:./Library/stm32f4xx_hash_sha1.c ****     HASH_DataIn(*(uint32_t*)inputaddr);
  99              		.loc 1 116 5 is_stmt 1 discriminator 3 view .LVU27
 100 003a 55F8040B 		ldr	r0, [r5], #4
 101              	.LVL8:
 102              		.loc 1 116 5 is_stmt 0 discriminator 3 view .LVU28
 103 003e FFF7FEFF 		bl	HASH_DataIn
 104              	.LVL9:
 117:./Library/stm32f4xx_hash_sha1.c ****     inputaddr+=4;
 105              		.loc 1 117 5 is_stmt 1 discriminator 3 view .LVU29
 114:./Library/stm32f4xx_hash_sha1.c ****   {
 106              		.loc 1 114 20 discriminator 3 view .LVU30
 114:./Library/stm32f4xx_hash_sha1.c ****   {
 107              		.loc 1 114 21 is_stmt 0 discriminator 3 view .LVU31
 108 0042 0434     		adds	r4, r4, #4
 109              	.LVL10:
 110              	.L2:
ARM GAS  /var/folders/yl/_q9l42k90g1g4mdhbs226msm0000gn/T//ccwIpdyS.s 			page 5


 114:./Library/stm32f4xx_hash_sha1.c ****   {
 111              		.loc 1 114 12 is_stmt 1 discriminator 1 view .LVU32
 114:./Library/stm32f4xx_hash_sha1.c ****   {
 112              		.loc 1 114 3 is_stmt 0 discriminator 1 view .LVU33
 113 0044 BC42     		cmp	r4, r7
 114 0046 F8D3     		bcc	.L3
 118:./Library/stm32f4xx_hash_sha1.c ****   }
 119:./Library/stm32f4xx_hash_sha1.c **** 
 120:./Library/stm32f4xx_hash_sha1.c ****   /* Start the HASH processor */
 121:./Library/stm32f4xx_hash_sha1.c ****   HASH_StartDigest();
 115              		.loc 1 121 3 is_stmt 1 view .LVU34
 116 0048 FFF7FEFF 		bl	HASH_StartDigest
 117              	.LVL11:
 118              	.L5:
 122:./Library/stm32f4xx_hash_sha1.c **** 
 123:./Library/stm32f4xx_hash_sha1.c ****   /* wait until the Busy flag is RESET */
 124:./Library/stm32f4xx_hash_sha1.c ****   do
 119              		.loc 1 124 3 discriminator 2 view .LVU35
 125:./Library/stm32f4xx_hash_sha1.c ****   {
 126:./Library/stm32f4xx_hash_sha1.c ****     busystatus = HASH_GetFlagStatus(HASH_FLAG_BUSY);
 120              		.loc 1 126 5 discriminator 2 view .LVU36
 121              		.loc 1 126 18 is_stmt 0 discriminator 2 view .LVU37
 122 004c 0820     		movs	r0, #8
 123 004e FFF7FEFF 		bl	HASH_GetFlagStatus
 124              	.LVL12:
 127:./Library/stm32f4xx_hash_sha1.c ****     counter++;
 125              		.loc 1 127 5 is_stmt 1 discriminator 2 view .LVU38
 126              		.loc 1 127 12 is_stmt 0 discriminator 2 view .LVU39
 127 0052 009B     		ldr	r3, [sp]
 128 0054 0133     		adds	r3, r3, #1
 129 0056 0093     		str	r3, [sp]
 128:./Library/stm32f4xx_hash_sha1.c ****   }while ((counter != SHA1BUSY_TIMEOUT) && (busystatus != RESET));
 130              		.loc 1 128 10 is_stmt 1 discriminator 2 view .LVU40
 131              		.loc 1 128 20 is_stmt 0 discriminator 2 view .LVU41
 132 0058 009B     		ldr	r3, [sp]
 133              		.loc 1 128 3 discriminator 2 view .LVU42
 134 005a B3F5803F 		cmp	r3, #65536
 135 005e 01D0     		beq	.L4
 136              		.loc 1 128 41 discriminator 1 view .LVU43
 137 0060 0028     		cmp	r0, #0
 138 0062 F3D1     		bne	.L5
 139              	.L4:
 129:./Library/stm32f4xx_hash_sha1.c **** 
 130:./Library/stm32f4xx_hash_sha1.c ****   if (busystatus != RESET)
 140              		.loc 1 130 3 is_stmt 1 view .LVU44
 141              		.loc 1 130 6 is_stmt 0 view .LVU45
 142 0064 10B1     		cbz	r0, .L9
 131:./Library/stm32f4xx_hash_sha1.c ****   {
 132:./Library/stm32f4xx_hash_sha1.c ****      status = ERROR;
 143              		.loc 1 132 13 view .LVU46
 144 0066 0020     		movs	r0, #0
 145              	.LVL13:
 146              	.L6:
 133:./Library/stm32f4xx_hash_sha1.c ****   }
 134:./Library/stm32f4xx_hash_sha1.c ****   else
 135:./Library/stm32f4xx_hash_sha1.c ****   {
 136:./Library/stm32f4xx_hash_sha1.c ****     /* Read the message digest */
ARM GAS  /var/folders/yl/_q9l42k90g1g4mdhbs226msm0000gn/T//ccwIpdyS.s 			page 6


 137:./Library/stm32f4xx_hash_sha1.c ****     HASH_GetDigest(&SHA1_MessageDigest);
 138:./Library/stm32f4xx_hash_sha1.c ****     *(uint32_t*)(outputaddr)  = __REV(SHA1_MessageDigest.Data[0]);
 139:./Library/stm32f4xx_hash_sha1.c ****     outputaddr+=4;
 140:./Library/stm32f4xx_hash_sha1.c ****     *(uint32_t*)(outputaddr)  = __REV(SHA1_MessageDigest.Data[1]);
 141:./Library/stm32f4xx_hash_sha1.c ****     outputaddr+=4;
 142:./Library/stm32f4xx_hash_sha1.c ****     *(uint32_t*)(outputaddr)  = __REV(SHA1_MessageDigest.Data[2]);
 143:./Library/stm32f4xx_hash_sha1.c ****     outputaddr+=4;
 144:./Library/stm32f4xx_hash_sha1.c ****     *(uint32_t*)(outputaddr)  = __REV(SHA1_MessageDigest.Data[3]);
 145:./Library/stm32f4xx_hash_sha1.c ****     outputaddr+=4;
 146:./Library/stm32f4xx_hash_sha1.c ****     *(uint32_t*)(outputaddr)  = __REV(SHA1_MessageDigest.Data[4]);
 147:./Library/stm32f4xx_hash_sha1.c ****   }
 148:./Library/stm32f4xx_hash_sha1.c ****   return status;
 147              		.loc 1 148 3 is_stmt 1 view .LVU47
 149:./Library/stm32f4xx_hash_sha1.c **** }
 148              		.loc 1 149 1 is_stmt 0 view .LVU48
 149 0068 0FB0     		add	sp, sp, #60
 150              	.LCFI2:
 151              		.cfi_remember_state
 152              		.cfi_def_cfa_offset 20
 153              		@ sp needed
 154 006a F0BD     		pop	{r4, r5, r6, r7, pc}
 155              	.LVL14:
 156              	.L9:
 157              	.LCFI3:
 158              		.cfi_restore_state
 137:./Library/stm32f4xx_hash_sha1.c ****     *(uint32_t*)(outputaddr)  = __REV(SHA1_MessageDigest.Data[0]);
 159              		.loc 1 137 5 is_stmt 1 view .LVU49
 160 006c 02A8     		add	r0, sp, #8
 161              	.LVL15:
 137:./Library/stm32f4xx_hash_sha1.c ****     *(uint32_t*)(outputaddr)  = __REV(SHA1_MessageDigest.Data[0]);
 162              		.loc 1 137 5 is_stmt 0 view .LVU50
 163 006e FFF7FEFF 		bl	HASH_GetDigest
 164              	.LVL16:
 138:./Library/stm32f4xx_hash_sha1.c ****     outputaddr+=4;
 165              		.loc 1 138 5 is_stmt 1 view .LVU51
 138:./Library/stm32f4xx_hash_sha1.c ****     outputaddr+=4;
 166              		.loc 1 138 33 is_stmt 0 view .LVU52
 167 0072 029B     		ldr	r3, [sp, #8]
 168              	.LVL17:
 169              	.LBB22:
 170              	.LBI22:
 171              		.file 2 "./CORE/core_cmInstr.h"
   1:./CORE/core_cmInstr.h **** /**************************************************************************//**
   2:./CORE/core_cmInstr.h ****  * @file     core_cmInstr.h
   3:./CORE/core_cmInstr.h ****  * @brief    CMSIS Cortex-M Core Instruction Access Header File
   4:./CORE/core_cmInstr.h ****  * @version  V4.10
   5:./CORE/core_cmInstr.h ****  * @date     18. March 2015
   6:./CORE/core_cmInstr.h ****  *
   7:./CORE/core_cmInstr.h ****  * @note
   8:./CORE/core_cmInstr.h ****  *
   9:./CORE/core_cmInstr.h ****  ******************************************************************************/
  10:./CORE/core_cmInstr.h **** /* Copyright (c) 2009 - 2014 ARM LIMITED
  11:./CORE/core_cmInstr.h **** 
  12:./CORE/core_cmInstr.h ****    All rights reserved.
  13:./CORE/core_cmInstr.h ****    Redistribution and use in source and binary forms, with or without
  14:./CORE/core_cmInstr.h ****    modification, are permitted provided that the following conditions are met:
  15:./CORE/core_cmInstr.h ****    - Redistributions of source code must retain the above copyright
ARM GAS  /var/folders/yl/_q9l42k90g1g4mdhbs226msm0000gn/T//ccwIpdyS.s 			page 7


  16:./CORE/core_cmInstr.h ****      notice, this list of conditions and the following disclaimer.
  17:./CORE/core_cmInstr.h ****    - Redistributions in binary form must reproduce the above copyright
  18:./CORE/core_cmInstr.h ****      notice, this list of conditions and the following disclaimer in the
  19:./CORE/core_cmInstr.h ****      documentation and/or other materials provided with the distribution.
  20:./CORE/core_cmInstr.h ****    - Neither the name of ARM nor the names of its contributors may be used
  21:./CORE/core_cmInstr.h ****      to endorse or promote products derived from this software without
  22:./CORE/core_cmInstr.h ****      specific prior written permission.
  23:./CORE/core_cmInstr.h ****    *
  24:./CORE/core_cmInstr.h ****    THIS SOFTWARE IS PROVIDED BY THE COPYRIGHT HOLDERS AND CONTRIBUTORS "AS IS"
  25:./CORE/core_cmInstr.h ****    AND ANY EXPRESS OR IMPLIED WARRANTIES, INCLUDING, BUT NOT LIMITED TO, THE
  26:./CORE/core_cmInstr.h ****    IMPLIED WARRANTIES OF MERCHANTABILITY AND FITNESS FOR A PARTICULAR PURPOSE
  27:./CORE/core_cmInstr.h ****    ARE DISCLAIMED. IN NO EVENT SHALL COPYRIGHT HOLDERS AND CONTRIBUTORS BE
  28:./CORE/core_cmInstr.h ****    LIABLE FOR ANY DIRECT, INDIRECT, INCIDENTAL, SPECIAL, EXEMPLARY, OR
  29:./CORE/core_cmInstr.h ****    CONSEQUENTIAL DAMAGES (INCLUDING, BUT NOT LIMITED TO, PROCUREMENT OF
  30:./CORE/core_cmInstr.h ****    SUBSTITUTE GOODS OR SERVICES; LOSS OF USE, DATA, OR PROFITS; OR BUSINESS
  31:./CORE/core_cmInstr.h ****    INTERRUPTION) HOWEVER CAUSED AND ON ANY THEORY OF LIABILITY, WHETHER IN
  32:./CORE/core_cmInstr.h ****    CONTRACT, STRICT LIABILITY, OR TORT (INCLUDING NEGLIGENCE OR OTHERWISE)
  33:./CORE/core_cmInstr.h ****    ARISING IN ANY WAY OUT OF THE USE OF THIS SOFTWARE, EVEN IF ADVISED OF THE
  34:./CORE/core_cmInstr.h ****    POSSIBILITY OF SUCH DAMAGE.
  35:./CORE/core_cmInstr.h ****    ---------------------------------------------------------------------------*/
  36:./CORE/core_cmInstr.h **** 
  37:./CORE/core_cmInstr.h **** 
  38:./CORE/core_cmInstr.h **** #ifndef __CORE_CMINSTR_H
  39:./CORE/core_cmInstr.h **** #define __CORE_CMINSTR_H
  40:./CORE/core_cmInstr.h **** 
  41:./CORE/core_cmInstr.h **** 
  42:./CORE/core_cmInstr.h **** /* ##########################  Core Instruction Access  ######################### */
  43:./CORE/core_cmInstr.h **** /** \defgroup CMSIS_Core_InstructionInterface CMSIS Core Instruction Interface
  44:./CORE/core_cmInstr.h ****   Access to dedicated instructions
  45:./CORE/core_cmInstr.h ****   @{
  46:./CORE/core_cmInstr.h **** */
  47:./CORE/core_cmInstr.h **** 
  48:./CORE/core_cmInstr.h **** #if   defined ( __CC_ARM ) /*------------------RealView Compiler -----------------*/
  49:./CORE/core_cmInstr.h **** /* ARM armcc specific functions */
  50:./CORE/core_cmInstr.h **** 
  51:./CORE/core_cmInstr.h **** #if (__ARMCC_VERSION < 400677)
  52:./CORE/core_cmInstr.h ****   #error "Please use ARM Compiler Toolchain V4.0.677 or later!"
  53:./CORE/core_cmInstr.h **** #endif
  54:./CORE/core_cmInstr.h **** 
  55:./CORE/core_cmInstr.h **** 
  56:./CORE/core_cmInstr.h **** /** \brief  No Operation
  57:./CORE/core_cmInstr.h **** 
  58:./CORE/core_cmInstr.h ****     No Operation does nothing. This instruction can be used for code alignment purposes.
  59:./CORE/core_cmInstr.h ****  */
  60:./CORE/core_cmInstr.h **** #define __NOP                             __nop
  61:./CORE/core_cmInstr.h **** 
  62:./CORE/core_cmInstr.h **** 
  63:./CORE/core_cmInstr.h **** /** \brief  Wait For Interrupt
  64:./CORE/core_cmInstr.h **** 
  65:./CORE/core_cmInstr.h ****     Wait For Interrupt is a hint instruction that suspends execution
  66:./CORE/core_cmInstr.h ****     until one of a number of events occurs.
  67:./CORE/core_cmInstr.h ****  */
  68:./CORE/core_cmInstr.h **** #define __WFI                             __wfi
  69:./CORE/core_cmInstr.h **** 
  70:./CORE/core_cmInstr.h **** 
  71:./CORE/core_cmInstr.h **** /** \brief  Wait For Event
  72:./CORE/core_cmInstr.h **** 
ARM GAS  /var/folders/yl/_q9l42k90g1g4mdhbs226msm0000gn/T//ccwIpdyS.s 			page 8


  73:./CORE/core_cmInstr.h ****     Wait For Event is a hint instruction that permits the processor to enter
  74:./CORE/core_cmInstr.h ****     a low-power state until one of a number of events occurs.
  75:./CORE/core_cmInstr.h ****  */
  76:./CORE/core_cmInstr.h **** #define __WFE                             __wfe
  77:./CORE/core_cmInstr.h **** 
  78:./CORE/core_cmInstr.h **** 
  79:./CORE/core_cmInstr.h **** /** \brief  Send Event
  80:./CORE/core_cmInstr.h **** 
  81:./CORE/core_cmInstr.h ****     Send Event is a hint instruction. It causes an event to be signaled to the CPU.
  82:./CORE/core_cmInstr.h ****  */
  83:./CORE/core_cmInstr.h **** #define __SEV                             __sev
  84:./CORE/core_cmInstr.h **** 
  85:./CORE/core_cmInstr.h **** 
  86:./CORE/core_cmInstr.h **** /** \brief  Instruction Synchronization Barrier
  87:./CORE/core_cmInstr.h **** 
  88:./CORE/core_cmInstr.h ****     Instruction Synchronization Barrier flushes the pipeline in the processor,
  89:./CORE/core_cmInstr.h ****     so that all instructions following the ISB are fetched from cache or
  90:./CORE/core_cmInstr.h ****     memory, after the instruction has been completed.
  91:./CORE/core_cmInstr.h ****  */
  92:./CORE/core_cmInstr.h **** #define __ISB() do {\
  93:./CORE/core_cmInstr.h ****                    __schedule_barrier();\
  94:./CORE/core_cmInstr.h ****                    __isb(0xF);\
  95:./CORE/core_cmInstr.h ****                    __schedule_barrier();\
  96:./CORE/core_cmInstr.h ****                 } while (0)
  97:./CORE/core_cmInstr.h **** 
  98:./CORE/core_cmInstr.h **** /** \brief  Data Synchronization Barrier
  99:./CORE/core_cmInstr.h **** 
 100:./CORE/core_cmInstr.h ****     This function acts as a special kind of Data Memory Barrier.
 101:./CORE/core_cmInstr.h ****     It completes when all explicit memory accesses before this instruction complete.
 102:./CORE/core_cmInstr.h ****  */
 103:./CORE/core_cmInstr.h **** #define __DSB() do {\
 104:./CORE/core_cmInstr.h ****                    __schedule_barrier();\
 105:./CORE/core_cmInstr.h ****                    __dsb(0xF);\
 106:./CORE/core_cmInstr.h ****                    __schedule_barrier();\
 107:./CORE/core_cmInstr.h ****                 } while (0)
 108:./CORE/core_cmInstr.h **** 
 109:./CORE/core_cmInstr.h **** /** \brief  Data Memory Barrier
 110:./CORE/core_cmInstr.h **** 
 111:./CORE/core_cmInstr.h ****     This function ensures the apparent order of the explicit memory operations before
 112:./CORE/core_cmInstr.h ****     and after the instruction, without ensuring their completion.
 113:./CORE/core_cmInstr.h ****  */
 114:./CORE/core_cmInstr.h **** #define __DMB() do {\
 115:./CORE/core_cmInstr.h ****                    __schedule_barrier();\
 116:./CORE/core_cmInstr.h ****                    __dmb(0xF);\
 117:./CORE/core_cmInstr.h ****                    __schedule_barrier();\
 118:./CORE/core_cmInstr.h ****                 } while (0)
 119:./CORE/core_cmInstr.h **** 
 120:./CORE/core_cmInstr.h **** /** \brief  Reverse byte order (32 bit)
 121:./CORE/core_cmInstr.h **** 
 122:./CORE/core_cmInstr.h ****     This function reverses the byte order in integer value.
 123:./CORE/core_cmInstr.h **** 
 124:./CORE/core_cmInstr.h ****     \param [in]    value  Value to reverse
 125:./CORE/core_cmInstr.h ****     \return               Reversed value
 126:./CORE/core_cmInstr.h ****  */
 127:./CORE/core_cmInstr.h **** #define __REV                             __rev
 128:./CORE/core_cmInstr.h **** 
 129:./CORE/core_cmInstr.h **** 
ARM GAS  /var/folders/yl/_q9l42k90g1g4mdhbs226msm0000gn/T//ccwIpdyS.s 			page 9


 130:./CORE/core_cmInstr.h **** /** \brief  Reverse byte order (16 bit)
 131:./CORE/core_cmInstr.h **** 
 132:./CORE/core_cmInstr.h ****     This function reverses the byte order in two unsigned short values.
 133:./CORE/core_cmInstr.h **** 
 134:./CORE/core_cmInstr.h ****     \param [in]    value  Value to reverse
 135:./CORE/core_cmInstr.h ****     \return               Reversed value
 136:./CORE/core_cmInstr.h ****  */
 137:./CORE/core_cmInstr.h **** #ifndef __NO_EMBEDDED_ASM
 138:./CORE/core_cmInstr.h **** __attribute__((section(".rev16_text"))) __STATIC_INLINE __ASM uint32_t __REV16(uint32_t value)
 139:./CORE/core_cmInstr.h **** {
 140:./CORE/core_cmInstr.h ****   rev16 r0, r0
 141:./CORE/core_cmInstr.h ****   bx lr
 142:./CORE/core_cmInstr.h **** }
 143:./CORE/core_cmInstr.h **** #endif
 144:./CORE/core_cmInstr.h **** 
 145:./CORE/core_cmInstr.h **** /** \brief  Reverse byte order in signed short value
 146:./CORE/core_cmInstr.h **** 
 147:./CORE/core_cmInstr.h ****     This function reverses the byte order in a signed short value with sign extension to integer.
 148:./CORE/core_cmInstr.h **** 
 149:./CORE/core_cmInstr.h ****     \param [in]    value  Value to reverse
 150:./CORE/core_cmInstr.h ****     \return               Reversed value
 151:./CORE/core_cmInstr.h ****  */
 152:./CORE/core_cmInstr.h **** #ifndef __NO_EMBEDDED_ASM
 153:./CORE/core_cmInstr.h **** __attribute__((section(".revsh_text"))) __STATIC_INLINE __ASM int32_t __REVSH(int32_t value)
 154:./CORE/core_cmInstr.h **** {
 155:./CORE/core_cmInstr.h ****   revsh r0, r0
 156:./CORE/core_cmInstr.h ****   bx lr
 157:./CORE/core_cmInstr.h **** }
 158:./CORE/core_cmInstr.h **** #endif
 159:./CORE/core_cmInstr.h **** 
 160:./CORE/core_cmInstr.h **** 
 161:./CORE/core_cmInstr.h **** /** \brief  Rotate Right in unsigned value (32 bit)
 162:./CORE/core_cmInstr.h **** 
 163:./CORE/core_cmInstr.h ****     This function Rotate Right (immediate) provides the value of the contents of a register rotated
 164:./CORE/core_cmInstr.h **** 
 165:./CORE/core_cmInstr.h ****     \param [in]    value  Value to rotate
 166:./CORE/core_cmInstr.h ****     \param [in]    value  Number of Bits to rotate
 167:./CORE/core_cmInstr.h ****     \return               Rotated value
 168:./CORE/core_cmInstr.h ****  */
 169:./CORE/core_cmInstr.h **** #define __ROR                             __ror
 170:./CORE/core_cmInstr.h **** 
 171:./CORE/core_cmInstr.h **** 
 172:./CORE/core_cmInstr.h **** /** \brief  Breakpoint
 173:./CORE/core_cmInstr.h **** 
 174:./CORE/core_cmInstr.h ****     This function causes the processor to enter Debug state.
 175:./CORE/core_cmInstr.h ****     Debug tools can use this to investigate system state when the instruction at a particular addre
 176:./CORE/core_cmInstr.h **** 
 177:./CORE/core_cmInstr.h ****     \param [in]    value  is ignored by the processor.
 178:./CORE/core_cmInstr.h ****                    If required, a debugger can use it to store additional information about the bre
 179:./CORE/core_cmInstr.h ****  */
 180:./CORE/core_cmInstr.h **** #define __BKPT(value)                       __breakpoint(value)
 181:./CORE/core_cmInstr.h **** 
 182:./CORE/core_cmInstr.h **** 
 183:./CORE/core_cmInstr.h **** /** \brief  Reverse bit order of value
 184:./CORE/core_cmInstr.h **** 
 185:./CORE/core_cmInstr.h ****     This function reverses the bit order of the given value.
 186:./CORE/core_cmInstr.h **** 
ARM GAS  /var/folders/yl/_q9l42k90g1g4mdhbs226msm0000gn/T//ccwIpdyS.s 			page 10


 187:./CORE/core_cmInstr.h ****     \param [in]    value  Value to reverse
 188:./CORE/core_cmInstr.h ****     \return               Reversed value
 189:./CORE/core_cmInstr.h ****  */
 190:./CORE/core_cmInstr.h **** #if       (__CORTEX_M >= 0x03) || (__CORTEX_SC >= 300)
 191:./CORE/core_cmInstr.h ****   #define __RBIT                          __rbit
 192:./CORE/core_cmInstr.h **** #else
 193:./CORE/core_cmInstr.h **** __attribute__((always_inline)) __STATIC_INLINE uint32_t __RBIT(uint32_t value)
 194:./CORE/core_cmInstr.h **** {
 195:./CORE/core_cmInstr.h ****   uint32_t result;
 196:./CORE/core_cmInstr.h ****   int32_t s = 4 /*sizeof(v)*/ * 8 - 1; // extra shift needed at end
 197:./CORE/core_cmInstr.h **** 
 198:./CORE/core_cmInstr.h ****   result = value;                      // r will be reversed bits of v; first get LSB of v
 199:./CORE/core_cmInstr.h ****   for (value >>= 1; value; value >>= 1)
 200:./CORE/core_cmInstr.h ****   {
 201:./CORE/core_cmInstr.h ****     result <<= 1;
 202:./CORE/core_cmInstr.h ****     result |= value & 1;
 203:./CORE/core_cmInstr.h ****     s--;
 204:./CORE/core_cmInstr.h ****   }
 205:./CORE/core_cmInstr.h ****   result <<= s;                       // shift when v's highest bits are zero
 206:./CORE/core_cmInstr.h ****   return(result);
 207:./CORE/core_cmInstr.h **** }
 208:./CORE/core_cmInstr.h **** #endif
 209:./CORE/core_cmInstr.h **** 
 210:./CORE/core_cmInstr.h **** 
 211:./CORE/core_cmInstr.h **** /** \brief  Count leading zeros
 212:./CORE/core_cmInstr.h **** 
 213:./CORE/core_cmInstr.h ****     This function counts the number of leading zeros of a data value.
 214:./CORE/core_cmInstr.h **** 
 215:./CORE/core_cmInstr.h ****     \param [in]  value  Value to count the leading zeros
 216:./CORE/core_cmInstr.h ****     \return             number of leading zeros in value
 217:./CORE/core_cmInstr.h ****  */
 218:./CORE/core_cmInstr.h **** #define __CLZ                             __clz
 219:./CORE/core_cmInstr.h **** 
 220:./CORE/core_cmInstr.h **** 
 221:./CORE/core_cmInstr.h **** #if       (__CORTEX_M >= 0x03) || (__CORTEX_SC >= 300)
 222:./CORE/core_cmInstr.h **** 
 223:./CORE/core_cmInstr.h **** /** \brief  LDR Exclusive (8 bit)
 224:./CORE/core_cmInstr.h **** 
 225:./CORE/core_cmInstr.h ****     This function executes a exclusive LDR instruction for 8 bit value.
 226:./CORE/core_cmInstr.h **** 
 227:./CORE/core_cmInstr.h ****     \param [in]    ptr  Pointer to data
 228:./CORE/core_cmInstr.h ****     \return             value of type uint8_t at (*ptr)
 229:./CORE/core_cmInstr.h ****  */
 230:./CORE/core_cmInstr.h **** #define __LDREXB(ptr)                     ((uint8_t ) __ldrex(ptr))
 231:./CORE/core_cmInstr.h **** 
 232:./CORE/core_cmInstr.h **** 
 233:./CORE/core_cmInstr.h **** /** \brief  LDR Exclusive (16 bit)
 234:./CORE/core_cmInstr.h **** 
 235:./CORE/core_cmInstr.h ****     This function executes a exclusive LDR instruction for 16 bit values.
 236:./CORE/core_cmInstr.h **** 
 237:./CORE/core_cmInstr.h ****     \param [in]    ptr  Pointer to data
 238:./CORE/core_cmInstr.h ****     \return        value of type uint16_t at (*ptr)
 239:./CORE/core_cmInstr.h ****  */
 240:./CORE/core_cmInstr.h **** #define __LDREXH(ptr)                     ((uint16_t) __ldrex(ptr))
 241:./CORE/core_cmInstr.h **** 
 242:./CORE/core_cmInstr.h **** 
 243:./CORE/core_cmInstr.h **** /** \brief  LDR Exclusive (32 bit)
ARM GAS  /var/folders/yl/_q9l42k90g1g4mdhbs226msm0000gn/T//ccwIpdyS.s 			page 11


 244:./CORE/core_cmInstr.h **** 
 245:./CORE/core_cmInstr.h ****     This function executes a exclusive LDR instruction for 32 bit values.
 246:./CORE/core_cmInstr.h **** 
 247:./CORE/core_cmInstr.h ****     \param [in]    ptr  Pointer to data
 248:./CORE/core_cmInstr.h ****     \return        value of type uint32_t at (*ptr)
 249:./CORE/core_cmInstr.h ****  */
 250:./CORE/core_cmInstr.h **** #define __LDREXW(ptr)                     ((uint32_t ) __ldrex(ptr))
 251:./CORE/core_cmInstr.h **** 
 252:./CORE/core_cmInstr.h **** 
 253:./CORE/core_cmInstr.h **** /** \brief  STR Exclusive (8 bit)
 254:./CORE/core_cmInstr.h **** 
 255:./CORE/core_cmInstr.h ****     This function executes a exclusive STR instruction for 8 bit values.
 256:./CORE/core_cmInstr.h **** 
 257:./CORE/core_cmInstr.h ****     \param [in]  value  Value to store
 258:./CORE/core_cmInstr.h ****     \param [in]    ptr  Pointer to location
 259:./CORE/core_cmInstr.h ****     \return          0  Function succeeded
 260:./CORE/core_cmInstr.h ****     \return          1  Function failed
 261:./CORE/core_cmInstr.h ****  */
 262:./CORE/core_cmInstr.h **** #define __STREXB(value, ptr)              __strex(value, ptr)
 263:./CORE/core_cmInstr.h **** 
 264:./CORE/core_cmInstr.h **** 
 265:./CORE/core_cmInstr.h **** /** \brief  STR Exclusive (16 bit)
 266:./CORE/core_cmInstr.h **** 
 267:./CORE/core_cmInstr.h ****     This function executes a exclusive STR instruction for 16 bit values.
 268:./CORE/core_cmInstr.h **** 
 269:./CORE/core_cmInstr.h ****     \param [in]  value  Value to store
 270:./CORE/core_cmInstr.h ****     \param [in]    ptr  Pointer to location
 271:./CORE/core_cmInstr.h ****     \return          0  Function succeeded
 272:./CORE/core_cmInstr.h ****     \return          1  Function failed
 273:./CORE/core_cmInstr.h ****  */
 274:./CORE/core_cmInstr.h **** #define __STREXH(value, ptr)              __strex(value, ptr)
 275:./CORE/core_cmInstr.h **** 
 276:./CORE/core_cmInstr.h **** 
 277:./CORE/core_cmInstr.h **** /** \brief  STR Exclusive (32 bit)
 278:./CORE/core_cmInstr.h **** 
 279:./CORE/core_cmInstr.h ****     This function executes a exclusive STR instruction for 32 bit values.
 280:./CORE/core_cmInstr.h **** 
 281:./CORE/core_cmInstr.h ****     \param [in]  value  Value to store
 282:./CORE/core_cmInstr.h ****     \param [in]    ptr  Pointer to location
 283:./CORE/core_cmInstr.h ****     \return          0  Function succeeded
 284:./CORE/core_cmInstr.h ****     \return          1  Function failed
 285:./CORE/core_cmInstr.h ****  */
 286:./CORE/core_cmInstr.h **** #define __STREXW(value, ptr)              __strex(value, ptr)
 287:./CORE/core_cmInstr.h **** 
 288:./CORE/core_cmInstr.h **** 
 289:./CORE/core_cmInstr.h **** /** \brief  Remove the exclusive lock
 290:./CORE/core_cmInstr.h **** 
 291:./CORE/core_cmInstr.h ****     This function removes the exclusive lock which is created by LDREX.
 292:./CORE/core_cmInstr.h **** 
 293:./CORE/core_cmInstr.h ****  */
 294:./CORE/core_cmInstr.h **** #define __CLREX                           __clrex
 295:./CORE/core_cmInstr.h **** 
 296:./CORE/core_cmInstr.h **** 
 297:./CORE/core_cmInstr.h **** /** \brief  Signed Saturate
 298:./CORE/core_cmInstr.h **** 
 299:./CORE/core_cmInstr.h ****     This function saturates a signed value.
 300:./CORE/core_cmInstr.h **** 
ARM GAS  /var/folders/yl/_q9l42k90g1g4mdhbs226msm0000gn/T//ccwIpdyS.s 			page 12


 301:./CORE/core_cmInstr.h ****     \param [in]  value  Value to be saturated
 302:./CORE/core_cmInstr.h ****     \param [in]    sat  Bit position to saturate to (1..32)
 303:./CORE/core_cmInstr.h ****     \return             Saturated value
 304:./CORE/core_cmInstr.h ****  */
 305:./CORE/core_cmInstr.h **** #define __SSAT                            __ssat
 306:./CORE/core_cmInstr.h **** 
 307:./CORE/core_cmInstr.h **** 
 308:./CORE/core_cmInstr.h **** /** \brief  Unsigned Saturate
 309:./CORE/core_cmInstr.h **** 
 310:./CORE/core_cmInstr.h ****     This function saturates an unsigned value.
 311:./CORE/core_cmInstr.h **** 
 312:./CORE/core_cmInstr.h ****     \param [in]  value  Value to be saturated
 313:./CORE/core_cmInstr.h ****     \param [in]    sat  Bit position to saturate to (0..31)
 314:./CORE/core_cmInstr.h ****     \return             Saturated value
 315:./CORE/core_cmInstr.h ****  */
 316:./CORE/core_cmInstr.h **** #define __USAT                            __usat
 317:./CORE/core_cmInstr.h **** 
 318:./CORE/core_cmInstr.h **** 
 319:./CORE/core_cmInstr.h **** /** \brief  Rotate Right with Extend (32 bit)
 320:./CORE/core_cmInstr.h **** 
 321:./CORE/core_cmInstr.h ****     This function moves each bit of a bitstring right by one bit.
 322:./CORE/core_cmInstr.h ****     The carry input is shifted in at the left end of the bitstring.
 323:./CORE/core_cmInstr.h **** 
 324:./CORE/core_cmInstr.h ****     \param [in]    value  Value to rotate
 325:./CORE/core_cmInstr.h ****     \return               Rotated value
 326:./CORE/core_cmInstr.h ****  */
 327:./CORE/core_cmInstr.h **** #ifndef __NO_EMBEDDED_ASM
 328:./CORE/core_cmInstr.h **** __attribute__((section(".rrx_text"))) __STATIC_INLINE __ASM uint32_t __RRX(uint32_t value)
 329:./CORE/core_cmInstr.h **** {
 330:./CORE/core_cmInstr.h ****   rrx r0, r0
 331:./CORE/core_cmInstr.h ****   bx lr
 332:./CORE/core_cmInstr.h **** }
 333:./CORE/core_cmInstr.h **** #endif
 334:./CORE/core_cmInstr.h **** 
 335:./CORE/core_cmInstr.h **** 
 336:./CORE/core_cmInstr.h **** /** \brief  LDRT Unprivileged (8 bit)
 337:./CORE/core_cmInstr.h **** 
 338:./CORE/core_cmInstr.h ****     This function executes a Unprivileged LDRT instruction for 8 bit value.
 339:./CORE/core_cmInstr.h **** 
 340:./CORE/core_cmInstr.h ****     \param [in]    ptr  Pointer to data
 341:./CORE/core_cmInstr.h ****     \return             value of type uint8_t at (*ptr)
 342:./CORE/core_cmInstr.h ****  */
 343:./CORE/core_cmInstr.h **** #define __LDRBT(ptr)                      ((uint8_t )  __ldrt(ptr))
 344:./CORE/core_cmInstr.h **** 
 345:./CORE/core_cmInstr.h **** 
 346:./CORE/core_cmInstr.h **** /** \brief  LDRT Unprivileged (16 bit)
 347:./CORE/core_cmInstr.h **** 
 348:./CORE/core_cmInstr.h ****     This function executes a Unprivileged LDRT instruction for 16 bit values.
 349:./CORE/core_cmInstr.h **** 
 350:./CORE/core_cmInstr.h ****     \param [in]    ptr  Pointer to data
 351:./CORE/core_cmInstr.h ****     \return        value of type uint16_t at (*ptr)
 352:./CORE/core_cmInstr.h ****  */
 353:./CORE/core_cmInstr.h **** #define __LDRHT(ptr)                      ((uint16_t)  __ldrt(ptr))
 354:./CORE/core_cmInstr.h **** 
 355:./CORE/core_cmInstr.h **** 
 356:./CORE/core_cmInstr.h **** /** \brief  LDRT Unprivileged (32 bit)
 357:./CORE/core_cmInstr.h **** 
ARM GAS  /var/folders/yl/_q9l42k90g1g4mdhbs226msm0000gn/T//ccwIpdyS.s 			page 13


 358:./CORE/core_cmInstr.h ****     This function executes a Unprivileged LDRT instruction for 32 bit values.
 359:./CORE/core_cmInstr.h **** 
 360:./CORE/core_cmInstr.h ****     \param [in]    ptr  Pointer to data
 361:./CORE/core_cmInstr.h ****     \return        value of type uint32_t at (*ptr)
 362:./CORE/core_cmInstr.h ****  */
 363:./CORE/core_cmInstr.h **** #define __LDRT(ptr)                       ((uint32_t ) __ldrt(ptr))
 364:./CORE/core_cmInstr.h **** 
 365:./CORE/core_cmInstr.h **** 
 366:./CORE/core_cmInstr.h **** /** \brief  STRT Unprivileged (8 bit)
 367:./CORE/core_cmInstr.h **** 
 368:./CORE/core_cmInstr.h ****     This function executes a Unprivileged STRT instruction for 8 bit values.
 369:./CORE/core_cmInstr.h **** 
 370:./CORE/core_cmInstr.h ****     \param [in]  value  Value to store
 371:./CORE/core_cmInstr.h ****     \param [in]    ptr  Pointer to location
 372:./CORE/core_cmInstr.h ****  */
 373:./CORE/core_cmInstr.h **** #define __STRBT(value, ptr)               __strt(value, ptr)
 374:./CORE/core_cmInstr.h **** 
 375:./CORE/core_cmInstr.h **** 
 376:./CORE/core_cmInstr.h **** /** \brief  STRT Unprivileged (16 bit)
 377:./CORE/core_cmInstr.h **** 
 378:./CORE/core_cmInstr.h ****     This function executes a Unprivileged STRT instruction for 16 bit values.
 379:./CORE/core_cmInstr.h **** 
 380:./CORE/core_cmInstr.h ****     \param [in]  value  Value to store
 381:./CORE/core_cmInstr.h ****     \param [in]    ptr  Pointer to location
 382:./CORE/core_cmInstr.h ****  */
 383:./CORE/core_cmInstr.h **** #define __STRHT(value, ptr)               __strt(value, ptr)
 384:./CORE/core_cmInstr.h **** 
 385:./CORE/core_cmInstr.h **** 
 386:./CORE/core_cmInstr.h **** /** \brief  STRT Unprivileged (32 bit)
 387:./CORE/core_cmInstr.h **** 
 388:./CORE/core_cmInstr.h ****     This function executes a Unprivileged STRT instruction for 32 bit values.
 389:./CORE/core_cmInstr.h **** 
 390:./CORE/core_cmInstr.h ****     \param [in]  value  Value to store
 391:./CORE/core_cmInstr.h ****     \param [in]    ptr  Pointer to location
 392:./CORE/core_cmInstr.h ****  */
 393:./CORE/core_cmInstr.h **** #define __STRT(value, ptr)                __strt(value, ptr)
 394:./CORE/core_cmInstr.h **** 
 395:./CORE/core_cmInstr.h **** #endif /* (__CORTEX_M >= 0x03) || (__CORTEX_SC >= 300) */
 396:./CORE/core_cmInstr.h **** 
 397:./CORE/core_cmInstr.h **** 
 398:./CORE/core_cmInstr.h **** #elif defined ( __GNUC__ ) /*------------------ GNU Compiler ---------------------*/
 399:./CORE/core_cmInstr.h **** /* GNU gcc specific functions */
 400:./CORE/core_cmInstr.h **** 
 401:./CORE/core_cmInstr.h **** /* Define macros for porting to both thumb1 and thumb2.
 402:./CORE/core_cmInstr.h ****  * For thumb1, use low register (r0-r7), specified by constrant "l"
 403:./CORE/core_cmInstr.h ****  * Otherwise, use general registers, specified by constrant "r" */
 404:./CORE/core_cmInstr.h **** #if defined (__thumb__) && !defined (__thumb2__)
 405:./CORE/core_cmInstr.h **** #define __CMSIS_GCC_OUT_REG(r) "=l" (r)
 406:./CORE/core_cmInstr.h **** #define __CMSIS_GCC_USE_REG(r) "l" (r)
 407:./CORE/core_cmInstr.h **** #else
 408:./CORE/core_cmInstr.h **** #define __CMSIS_GCC_OUT_REG(r) "=r" (r)
 409:./CORE/core_cmInstr.h **** #define __CMSIS_GCC_USE_REG(r) "r" (r)
 410:./CORE/core_cmInstr.h **** #endif
 411:./CORE/core_cmInstr.h **** 
 412:./CORE/core_cmInstr.h **** /** \brief  No Operation
 413:./CORE/core_cmInstr.h **** 
 414:./CORE/core_cmInstr.h ****     No Operation does nothing. This instruction can be used for code alignment purposes.
ARM GAS  /var/folders/yl/_q9l42k90g1g4mdhbs226msm0000gn/T//ccwIpdyS.s 			page 14


 415:./CORE/core_cmInstr.h ****  */
 416:./CORE/core_cmInstr.h **** __attribute__((always_inline)) __STATIC_INLINE void __NOP(void)
 417:./CORE/core_cmInstr.h **** {
 418:./CORE/core_cmInstr.h ****   __ASM volatile ("nop");
 419:./CORE/core_cmInstr.h **** }
 420:./CORE/core_cmInstr.h **** 
 421:./CORE/core_cmInstr.h **** 
 422:./CORE/core_cmInstr.h **** /** \brief  Wait For Interrupt
 423:./CORE/core_cmInstr.h **** 
 424:./CORE/core_cmInstr.h ****     Wait For Interrupt is a hint instruction that suspends execution
 425:./CORE/core_cmInstr.h ****     until one of a number of events occurs.
 426:./CORE/core_cmInstr.h ****  */
 427:./CORE/core_cmInstr.h **** __attribute__((always_inline)) __STATIC_INLINE void __WFI(void)
 428:./CORE/core_cmInstr.h **** {
 429:./CORE/core_cmInstr.h ****   __ASM volatile ("wfi");
 430:./CORE/core_cmInstr.h **** }
 431:./CORE/core_cmInstr.h **** 
 432:./CORE/core_cmInstr.h **** 
 433:./CORE/core_cmInstr.h **** /** \brief  Wait For Event
 434:./CORE/core_cmInstr.h **** 
 435:./CORE/core_cmInstr.h ****     Wait For Event is a hint instruction that permits the processor to enter
 436:./CORE/core_cmInstr.h ****     a low-power state until one of a number of events occurs.
 437:./CORE/core_cmInstr.h ****  */
 438:./CORE/core_cmInstr.h **** __attribute__((always_inline)) __STATIC_INLINE void __WFE(void)
 439:./CORE/core_cmInstr.h **** {
 440:./CORE/core_cmInstr.h ****   __ASM volatile ("wfe");
 441:./CORE/core_cmInstr.h **** }
 442:./CORE/core_cmInstr.h **** 
 443:./CORE/core_cmInstr.h **** 
 444:./CORE/core_cmInstr.h **** /** \brief  Send Event
 445:./CORE/core_cmInstr.h **** 
 446:./CORE/core_cmInstr.h ****     Send Event is a hint instruction. It causes an event to be signaled to the CPU.
 447:./CORE/core_cmInstr.h ****  */
 448:./CORE/core_cmInstr.h **** __attribute__((always_inline)) __STATIC_INLINE void __SEV(void)
 449:./CORE/core_cmInstr.h **** {
 450:./CORE/core_cmInstr.h ****   __ASM volatile ("sev");
 451:./CORE/core_cmInstr.h **** }
 452:./CORE/core_cmInstr.h **** 
 453:./CORE/core_cmInstr.h **** 
 454:./CORE/core_cmInstr.h **** /** \brief  Instruction Synchronization Barrier
 455:./CORE/core_cmInstr.h **** 
 456:./CORE/core_cmInstr.h ****     Instruction Synchronization Barrier flushes the pipeline in the processor,
 457:./CORE/core_cmInstr.h ****     so that all instructions following the ISB are fetched from cache or
 458:./CORE/core_cmInstr.h ****     memory, after the instruction has been completed.
 459:./CORE/core_cmInstr.h ****  */
 460:./CORE/core_cmInstr.h **** __attribute__((always_inline)) __STATIC_INLINE void __ISB(void)
 461:./CORE/core_cmInstr.h **** {
 462:./CORE/core_cmInstr.h ****   __ASM volatile ("isb 0xF":::"memory");
 463:./CORE/core_cmInstr.h **** }
 464:./CORE/core_cmInstr.h **** 
 465:./CORE/core_cmInstr.h **** 
 466:./CORE/core_cmInstr.h **** /** \brief  Data Synchronization Barrier
 467:./CORE/core_cmInstr.h **** 
 468:./CORE/core_cmInstr.h ****     This function acts as a special kind of Data Memory Barrier.
 469:./CORE/core_cmInstr.h ****     It completes when all explicit memory accesses before this instruction complete.
 470:./CORE/core_cmInstr.h ****  */
 471:./CORE/core_cmInstr.h **** __attribute__((always_inline)) __STATIC_INLINE void __DSB(void)
ARM GAS  /var/folders/yl/_q9l42k90g1g4mdhbs226msm0000gn/T//ccwIpdyS.s 			page 15


 472:./CORE/core_cmInstr.h **** {
 473:./CORE/core_cmInstr.h ****   __ASM volatile ("dsb 0xF":::"memory");
 474:./CORE/core_cmInstr.h **** }
 475:./CORE/core_cmInstr.h **** 
 476:./CORE/core_cmInstr.h **** 
 477:./CORE/core_cmInstr.h **** /** \brief  Data Memory Barrier
 478:./CORE/core_cmInstr.h **** 
 479:./CORE/core_cmInstr.h ****     This function ensures the apparent order of the explicit memory operations before
 480:./CORE/core_cmInstr.h ****     and after the instruction, without ensuring their completion.
 481:./CORE/core_cmInstr.h ****  */
 482:./CORE/core_cmInstr.h **** __attribute__((always_inline)) __STATIC_INLINE void __DMB(void)
 483:./CORE/core_cmInstr.h **** {
 484:./CORE/core_cmInstr.h ****   __ASM volatile ("dmb 0xF":::"memory");
 485:./CORE/core_cmInstr.h **** }
 486:./CORE/core_cmInstr.h **** 
 487:./CORE/core_cmInstr.h **** 
 488:./CORE/core_cmInstr.h **** /** \brief  Reverse byte order (32 bit)
 489:./CORE/core_cmInstr.h **** 
 490:./CORE/core_cmInstr.h ****     This function reverses the byte order in integer value.
 491:./CORE/core_cmInstr.h **** 
 492:./CORE/core_cmInstr.h ****     \param [in]    value  Value to reverse
 493:./CORE/core_cmInstr.h ****     \return               Reversed value
 494:./CORE/core_cmInstr.h ****  */
 495:./CORE/core_cmInstr.h **** __attribute__((always_inline)) __STATIC_INLINE uint32_t __REV(uint32_t value)
 172              		.loc 2 495 57 is_stmt 1 view .LVU53
 173              	.LBB23:
 496:./CORE/core_cmInstr.h **** {
 497:./CORE/core_cmInstr.h **** #if (__GNUC__ > 4) || (__GNUC__ == 4 && __GNUC_MINOR__ >= 5)
 498:./CORE/core_cmInstr.h ****   return __builtin_bswap32(value);
 174              		.loc 2 498 3 view .LVU54
 175              		.loc 2 498 10 is_stmt 0 view .LVU55
 176 0074 1BBA     		rev	r3, r3
 177              	.LVL18:
 178              		.loc 2 498 10 view .LVU56
 179              	.LBE23:
 180              	.LBE22:
 138:./Library/stm32f4xx_hash_sha1.c ****     outputaddr+=4;
 181              		.loc 1 138 31 view .LVU57
 182 0076 3360     		str	r3, [r6]
 139:./Library/stm32f4xx_hash_sha1.c ****     *(uint32_t*)(outputaddr)  = __REV(SHA1_MessageDigest.Data[1]);
 183              		.loc 1 139 5 is_stmt 1 view .LVU58
 184              	.LVL19:
 140:./Library/stm32f4xx_hash_sha1.c ****     outputaddr+=4;
 185              		.loc 1 140 5 view .LVU59
 140:./Library/stm32f4xx_hash_sha1.c ****     outputaddr+=4;
 186              		.loc 1 140 33 is_stmt 0 view .LVU60
 187 0078 039B     		ldr	r3, [sp, #12]
 188              	.LVL20:
 189              	.LBB24:
 190              	.LBI24:
 495:./CORE/core_cmInstr.h **** {
 191              		.loc 2 495 57 is_stmt 1 view .LVU61
 192              	.LBB25:
 193              		.loc 2 498 3 view .LVU62
 194              		.loc 2 498 10 is_stmt 0 view .LVU63
 195 007a 1BBA     		rev	r3, r3
 196              	.LVL21:
ARM GAS  /var/folders/yl/_q9l42k90g1g4mdhbs226msm0000gn/T//ccwIpdyS.s 			page 16


 197              		.loc 2 498 10 view .LVU64
 198              	.LBE25:
 199              	.LBE24:
 140:./Library/stm32f4xx_hash_sha1.c ****     outputaddr+=4;
 200              		.loc 1 140 31 view .LVU65
 201 007c 7360     		str	r3, [r6, #4]
 141:./Library/stm32f4xx_hash_sha1.c ****     *(uint32_t*)(outputaddr)  = __REV(SHA1_MessageDigest.Data[2]);
 202              		.loc 1 141 5 is_stmt 1 view .LVU66
 203              	.LVL22:
 142:./Library/stm32f4xx_hash_sha1.c ****     outputaddr+=4;
 204              		.loc 1 142 5 view .LVU67
 142:./Library/stm32f4xx_hash_sha1.c ****     outputaddr+=4;
 205              		.loc 1 142 33 is_stmt 0 view .LVU68
 206 007e 049B     		ldr	r3, [sp, #16]
 207              	.LVL23:
 208              	.LBB26:
 209              	.LBI26:
 495:./CORE/core_cmInstr.h **** {
 210              		.loc 2 495 57 is_stmt 1 view .LVU69
 211              	.LBB27:
 212              		.loc 2 498 3 view .LVU70
 213              		.loc 2 498 10 is_stmt 0 view .LVU71
 214 0080 1BBA     		rev	r3, r3
 215              	.LVL24:
 216              		.loc 2 498 10 view .LVU72
 217              	.LBE27:
 218              	.LBE26:
 142:./Library/stm32f4xx_hash_sha1.c ****     outputaddr+=4;
 219              		.loc 1 142 31 view .LVU73
 220 0082 B360     		str	r3, [r6, #8]
 143:./Library/stm32f4xx_hash_sha1.c ****     *(uint32_t*)(outputaddr)  = __REV(SHA1_MessageDigest.Data[3]);
 221              		.loc 1 143 5 is_stmt 1 view .LVU74
 222              	.LVL25:
 144:./Library/stm32f4xx_hash_sha1.c ****     outputaddr+=4;
 223              		.loc 1 144 5 view .LVU75
 144:./Library/stm32f4xx_hash_sha1.c ****     outputaddr+=4;
 224              		.loc 1 144 33 is_stmt 0 view .LVU76
 225 0084 059B     		ldr	r3, [sp, #20]
 226              	.LVL26:
 227              	.LBB28:
 228              	.LBI28:
 495:./CORE/core_cmInstr.h **** {
 229              		.loc 2 495 57 is_stmt 1 view .LVU77
 230              	.LBB29:
 231              		.loc 2 498 3 view .LVU78
 232              		.loc 2 498 10 is_stmt 0 view .LVU79
 233 0086 1BBA     		rev	r3, r3
 234              	.LVL27:
 235              		.loc 2 498 10 view .LVU80
 236              	.LBE29:
 237              	.LBE28:
 144:./Library/stm32f4xx_hash_sha1.c ****     outputaddr+=4;
 238              		.loc 1 144 31 view .LVU81
 239 0088 F360     		str	r3, [r6, #12]
 145:./Library/stm32f4xx_hash_sha1.c ****     *(uint32_t*)(outputaddr)  = __REV(SHA1_MessageDigest.Data[4]);
 240              		.loc 1 145 5 is_stmt 1 view .LVU82
 241              	.LVL28:
ARM GAS  /var/folders/yl/_q9l42k90g1g4mdhbs226msm0000gn/T//ccwIpdyS.s 			page 17


 146:./Library/stm32f4xx_hash_sha1.c ****   }
 242              		.loc 1 146 5 view .LVU83
 146:./Library/stm32f4xx_hash_sha1.c ****   }
 243              		.loc 1 146 33 is_stmt 0 view .LVU84
 244 008a 069B     		ldr	r3, [sp, #24]
 245              	.LVL29:
 246              	.LBB30:
 247              	.LBI30:
 495:./CORE/core_cmInstr.h **** {
 248              		.loc 2 495 57 is_stmt 1 view .LVU85
 249              	.LBB31:
 250              		.loc 2 498 3 view .LVU86
 251              		.loc 2 498 10 is_stmt 0 view .LVU87
 252 008c 1BBA     		rev	r3, r3
 253              	.LVL30:
 254              		.loc 2 498 10 view .LVU88
 255              	.LBE31:
 256              	.LBE30:
 146:./Library/stm32f4xx_hash_sha1.c ****   }
 257              		.loc 1 146 31 view .LVU89
 258 008e 3361     		str	r3, [r6, #16]
  94:./Library/stm32f4xx_hash_sha1.c ****   uint32_t inputaddr  = (uint32_t)Input;
 259              		.loc 1 94 15 view .LVU90
 260 0090 0120     		movs	r0, #1
 261 0092 E9E7     		b	.L6
 262              		.cfi_endproc
 263              	.LFE123:
 265              		.section	.text.HMAC_SHA1,"ax",%progbits
 266              		.align	1
 267              		.global	HMAC_SHA1
 268              		.syntax unified
 269              		.thumb
 270              		.thumb_func
 272              	HMAC_SHA1:
 273              	.LVL31:
 274              	.LFB124:
 150:./Library/stm32f4xx_hash_sha1.c **** 
 151:./Library/stm32f4xx_hash_sha1.c **** /**
 152:./Library/stm32f4xx_hash_sha1.c ****   * @brief  Compute the HMAC SHA1 digest.
 153:./Library/stm32f4xx_hash_sha1.c ****   * @param  Key: pointer to the Key used for HMAC.
 154:./Library/stm32f4xx_hash_sha1.c ****   * @param  Keylen: length of the Key used for HMAC.  
 155:./Library/stm32f4xx_hash_sha1.c ****   * @param  Input: pointer to the Input buffer to be treated.
 156:./Library/stm32f4xx_hash_sha1.c ****   * @param  Ilen: length of the Input buffer.
 157:./Library/stm32f4xx_hash_sha1.c ****   * @param  Output: the returned digest
 158:./Library/stm32f4xx_hash_sha1.c ****   * @retval An ErrorStatus enumeration value:
 159:./Library/stm32f4xx_hash_sha1.c ****   *          - SUCCESS: digest computation done
 160:./Library/stm32f4xx_hash_sha1.c ****   *          - ERROR: digest computation failed
 161:./Library/stm32f4xx_hash_sha1.c ****   */
 162:./Library/stm32f4xx_hash_sha1.c **** ErrorStatus HMAC_SHA1(uint8_t *Key, uint32_t Keylen, uint8_t *Input,
 163:./Library/stm32f4xx_hash_sha1.c ****                       uint32_t Ilen, uint8_t Output[20])
 164:./Library/stm32f4xx_hash_sha1.c **** {
 275              		.loc 1 164 1 is_stmt 1 view -0
 276              		.cfi_startproc
 277              		@ args = 4, pretend = 0, frame = 56
 278              		@ frame_needed = 0, uses_anonymous_args = 0
 279              		.loc 1 164 1 is_stmt 0 view .LVU92
 280 0000 2DE9F043 		push	{r4, r5, r6, r7, r8, r9, lr}
ARM GAS  /var/folders/yl/_q9l42k90g1g4mdhbs226msm0000gn/T//ccwIpdyS.s 			page 18


 281              	.LCFI4:
 282              		.cfi_def_cfa_offset 28
 283              		.cfi_offset 4, -28
 284              		.cfi_offset 5, -24
 285              		.cfi_offset 6, -20
 286              		.cfi_offset 7, -16
 287              		.cfi_offset 8, -12
 288              		.cfi_offset 9, -8
 289              		.cfi_offset 14, -4
 290 0004 8FB0     		sub	sp, sp, #60
 291              	.LCFI5:
 292              		.cfi_def_cfa_offset 88
 293 0006 8146     		mov	r9, r0
 294 0008 0D46     		mov	r5, r1
 295 000a 1F46     		mov	r7, r3
 165:./Library/stm32f4xx_hash_sha1.c ****   HASH_InitTypeDef SHA1_HASH_InitStructure;
 296              		.loc 1 165 3 is_stmt 1 view .LVU93
 166:./Library/stm32f4xx_hash_sha1.c ****   HASH_MsgDigest SHA1_MessageDigest;
 297              		.loc 1 166 3 view .LVU94
 167:./Library/stm32f4xx_hash_sha1.c ****   __IO uint16_t nbvalidbitsdata = 0;
 298              		.loc 1 167 3 view .LVU95
 299              		.loc 1 167 17 is_stmt 0 view .LVU96
 300 000c 0024     		movs	r4, #0
 301 000e ADF80640 		strh	r4, [sp, #6]	@ movhi
 168:./Library/stm32f4xx_hash_sha1.c ****   __IO uint16_t nbvalidbitskey = 0;
 302              		.loc 1 168 3 is_stmt 1 view .LVU97
 303              		.loc 1 168 17 is_stmt 0 view .LVU98
 304 0012 ADF80440 		strh	r4, [sp, #4]	@ movhi
 169:./Library/stm32f4xx_hash_sha1.c ****   uint32_t i = 0;
 305              		.loc 1 169 3 is_stmt 1 view .LVU99
 306              	.LVL32:
 170:./Library/stm32f4xx_hash_sha1.c ****   __IO uint32_t counter = 0;
 307              		.loc 1 170 3 view .LVU100
 308              		.loc 1 170 17 is_stmt 0 view .LVU101
 309 0016 0094     		str	r4, [sp]
 171:./Library/stm32f4xx_hash_sha1.c ****   uint32_t busystatus = 0;
 310              		.loc 1 171 3 is_stmt 1 view .LVU102
 311              	.LVL33:
 172:./Library/stm32f4xx_hash_sha1.c ****   ErrorStatus status = SUCCESS;
 312              		.loc 1 172 3 view .LVU103
 173:./Library/stm32f4xx_hash_sha1.c ****   uint32_t keyaddr    = (uint32_t)Key;
 313              		.loc 1 173 3 view .LVU104
 314              		.loc 1 173 12 is_stmt 0 view .LVU105
 315 0018 8046     		mov	r8, r0
 316              	.LVL34:
 174:./Library/stm32f4xx_hash_sha1.c ****   uint32_t inputaddr  = (uint32_t)Input;
 317              		.loc 1 174 3 is_stmt 1 view .LVU106
 318              		.loc 1 174 12 is_stmt 0 view .LVU107
 319 001a 1646     		mov	r6, r2
 320              	.LVL35:
 175:./Library/stm32f4xx_hash_sha1.c ****   uint32_t outputaddr = (uint32_t)Output;
 321              		.loc 1 175 3 is_stmt 1 view .LVU108
 176:./Library/stm32f4xx_hash_sha1.c **** 
 177:./Library/stm32f4xx_hash_sha1.c ****   /* Number of valid bits in last word of the Input data */
 178:./Library/stm32f4xx_hash_sha1.c ****   nbvalidbitsdata = 8 * (Ilen % 4);
 322              		.loc 1 178 3 view .LVU109
 323              		.loc 1 178 19 is_stmt 0 view .LVU110
ARM GAS  /var/folders/yl/_q9l42k90g1g4mdhbs226msm0000gn/T//ccwIpdyS.s 			page 19


 324 001c 03F00303 		and	r3, r3, #3
 325              	.LVL36:
 326              		.loc 1 178 19 view .LVU111
 327 0020 DB00     		lsls	r3, r3, #3
 328 0022 ADF80630 		strh	r3, [sp, #6]	@ movhi
 179:./Library/stm32f4xx_hash_sha1.c **** 
 180:./Library/stm32f4xx_hash_sha1.c ****   /* Number of valid bits in last word of the Key */
 181:./Library/stm32f4xx_hash_sha1.c ****   nbvalidbitskey = 8 * (Keylen % 4);
 329              		.loc 1 181 3 is_stmt 1 view .LVU112
 330              		.loc 1 181 18 is_stmt 0 view .LVU113
 331 0026 01F00303 		and	r3, r1, #3
 332 002a DB00     		lsls	r3, r3, #3
 333 002c ADF80430 		strh	r3, [sp, #4]	@ movhi
 182:./Library/stm32f4xx_hash_sha1.c **** 
 183:./Library/stm32f4xx_hash_sha1.c ****   /* HASH peripheral initialization */
 184:./Library/stm32f4xx_hash_sha1.c ****   HASH_DeInit();
 334              		.loc 1 184 3 is_stmt 1 view .LVU114
 335 0030 FFF7FEFF 		bl	HASH_DeInit
 336              	.LVL37:
 185:./Library/stm32f4xx_hash_sha1.c **** 
 186:./Library/stm32f4xx_hash_sha1.c ****   /* HASH Configuration */
 187:./Library/stm32f4xx_hash_sha1.c ****   SHA1_HASH_InitStructure.HASH_AlgoSelection = HASH_AlgoSelection_SHA1;
 337              		.loc 1 187 3 view .LVU115
 338              		.loc 1 187 46 is_stmt 0 view .LVU116
 339 0034 0A94     		str	r4, [sp, #40]
 188:./Library/stm32f4xx_hash_sha1.c ****   SHA1_HASH_InitStructure.HASH_AlgoMode = HASH_AlgoMode_HMAC;
 340              		.loc 1 188 3 is_stmt 1 view .LVU117
 341              		.loc 1 188 41 is_stmt 0 view .LVU118
 342 0036 4023     		movs	r3, #64
 343 0038 0B93     		str	r3, [sp, #44]
 189:./Library/stm32f4xx_hash_sha1.c ****   SHA1_HASH_InitStructure.HASH_DataType = HASH_DataType_8b;
 344              		.loc 1 189 3 is_stmt 1 view .LVU119
 345              		.loc 1 189 41 is_stmt 0 view .LVU120
 346 003a 2023     		movs	r3, #32
 347 003c 0C93     		str	r3, [sp, #48]
 190:./Library/stm32f4xx_hash_sha1.c ****   if(Keylen > 64)
 348              		.loc 1 190 3 is_stmt 1 view .LVU121
 349              		.loc 1 190 5 is_stmt 0 view .LVU122
 350 003e 402D     		cmp	r5, #64
 351 0040 0CD9     		bls	.L11
 191:./Library/stm32f4xx_hash_sha1.c ****   {
 192:./Library/stm32f4xx_hash_sha1.c ****     /* HMAC long Key */
 193:./Library/stm32f4xx_hash_sha1.c ****     SHA1_HASH_InitStructure.HASH_HMACKeyType = HASH_HMACKeyType_LongKey;
 352              		.loc 1 193 5 is_stmt 1 view .LVU123
 353              		.loc 1 193 46 is_stmt 0 view .LVU124
 354 0042 4FF48033 		mov	r3, #65536
 355 0046 0D93     		str	r3, [sp, #52]
 356              	.L12:
 194:./Library/stm32f4xx_hash_sha1.c ****   }
 195:./Library/stm32f4xx_hash_sha1.c ****   else
 196:./Library/stm32f4xx_hash_sha1.c ****   {
 197:./Library/stm32f4xx_hash_sha1.c ****     /* HMAC short Key */
 198:./Library/stm32f4xx_hash_sha1.c ****     SHA1_HASH_InitStructure.HASH_HMACKeyType = HASH_HMACKeyType_ShortKey;
 199:./Library/stm32f4xx_hash_sha1.c ****   }
 200:./Library/stm32f4xx_hash_sha1.c ****   HASH_Init(&SHA1_HASH_InitStructure);
 357              		.loc 1 200 3 is_stmt 1 view .LVU125
 358 0048 0AA8     		add	r0, sp, #40
ARM GAS  /var/folders/yl/_q9l42k90g1g4mdhbs226msm0000gn/T//ccwIpdyS.s 			page 20


 359 004a FFF7FEFF 		bl	HASH_Init
 360              	.LVL38:
 201:./Library/stm32f4xx_hash_sha1.c **** 
 202:./Library/stm32f4xx_hash_sha1.c ****   /* Configure the number of valid bits in last word of the Key */
 203:./Library/stm32f4xx_hash_sha1.c ****   HASH_SetLastWordValidBitsNbr(nbvalidbitskey);
 361              		.loc 1 203 3 view .LVU126
 362 004e BDF80400 		ldrh	r0, [sp, #4]
 363 0052 80B2     		uxth	r0, r0
 364 0054 FFF7FEFF 		bl	HASH_SetLastWordValidBitsNbr
 365              	.LVL39:
 204:./Library/stm32f4xx_hash_sha1.c **** 
 205:./Library/stm32f4xx_hash_sha1.c ****   /* Write the Key */
 206:./Library/stm32f4xx_hash_sha1.c ****   for(i=0; i<Keylen; i+=4)
 366              		.loc 1 206 3 view .LVU127
 367              		.loc 1 206 8 is_stmt 0 view .LVU128
 368 0058 0024     		movs	r4, #0
 369              		.loc 1 206 3 view .LVU129
 370 005a 07E0     		b	.L13
 371              	.L11:
 198:./Library/stm32f4xx_hash_sha1.c ****   }
 372              		.loc 1 198 5 is_stmt 1 view .LVU130
 198:./Library/stm32f4xx_hash_sha1.c ****   }
 373              		.loc 1 198 46 is_stmt 0 view .LVU131
 374 005c 0023     		movs	r3, #0
 375 005e 0D93     		str	r3, [sp, #52]
 376 0060 F2E7     		b	.L12
 377              	.LVL40:
 378              	.L14:
 207:./Library/stm32f4xx_hash_sha1.c ****   {
 208:./Library/stm32f4xx_hash_sha1.c ****     HASH_DataIn(*(uint32_t*)keyaddr);
 379              		.loc 1 208 5 is_stmt 1 discriminator 3 view .LVU132
 380 0062 59F8040B 		ldr	r0, [r9], #4
 381              	.LVL41:
 382              		.loc 1 208 5 is_stmt 0 discriminator 3 view .LVU133
 383 0066 FFF7FEFF 		bl	HASH_DataIn
 384              	.LVL42:
 209:./Library/stm32f4xx_hash_sha1.c ****     keyaddr+=4;
 385              		.loc 1 209 5 is_stmt 1 discriminator 3 view .LVU134
 206:./Library/stm32f4xx_hash_sha1.c ****   {
 386              		.loc 1 206 22 discriminator 3 view .LVU135
 206:./Library/stm32f4xx_hash_sha1.c ****   {
 387              		.loc 1 206 23 is_stmt 0 discriminator 3 view .LVU136
 388 006a 0434     		adds	r4, r4, #4
 389              	.LVL43:
 390              	.L13:
 206:./Library/stm32f4xx_hash_sha1.c ****   {
 391              		.loc 1 206 12 is_stmt 1 discriminator 1 view .LVU137
 206:./Library/stm32f4xx_hash_sha1.c ****   {
 392              		.loc 1 206 3 is_stmt 0 discriminator 1 view .LVU138
 393 006c AC42     		cmp	r4, r5
 394 006e F8D3     		bcc	.L14
 210:./Library/stm32f4xx_hash_sha1.c ****   }
 211:./Library/stm32f4xx_hash_sha1.c **** 
 212:./Library/stm32f4xx_hash_sha1.c ****   /* Start the HASH processor */
 213:./Library/stm32f4xx_hash_sha1.c ****   HASH_StartDigest();
 395              		.loc 1 213 3 is_stmt 1 view .LVU139
 396 0070 FFF7FEFF 		bl	HASH_StartDigest
ARM GAS  /var/folders/yl/_q9l42k90g1g4mdhbs226msm0000gn/T//ccwIpdyS.s 			page 21


 397              	.LVL44:
 398              	.L16:
 214:./Library/stm32f4xx_hash_sha1.c **** 
 215:./Library/stm32f4xx_hash_sha1.c ****   /* wait until the Busy flag is RESET */
 216:./Library/stm32f4xx_hash_sha1.c ****   do
 399              		.loc 1 216 3 discriminator 2 view .LVU140
 217:./Library/stm32f4xx_hash_sha1.c ****   {
 218:./Library/stm32f4xx_hash_sha1.c ****     busystatus = HASH_GetFlagStatus(HASH_FLAG_BUSY);
 400              		.loc 1 218 5 discriminator 2 view .LVU141
 401              		.loc 1 218 18 is_stmt 0 discriminator 2 view .LVU142
 402 0074 0820     		movs	r0, #8
 403 0076 FFF7FEFF 		bl	HASH_GetFlagStatus
 404              	.LVL45:
 405              		.loc 1 218 16 discriminator 2 view .LVU143
 406 007a 8146     		mov	r9, r0
 407              	.LVL46:
 219:./Library/stm32f4xx_hash_sha1.c ****     counter++;
 408              		.loc 1 219 5 is_stmt 1 discriminator 2 view .LVU144
 409              		.loc 1 219 12 is_stmt 0 discriminator 2 view .LVU145
 410 007c 009C     		ldr	r4, [sp]
 411 007e 0134     		adds	r4, r4, #1
 412 0080 0094     		str	r4, [sp]
 220:./Library/stm32f4xx_hash_sha1.c ****   }while ((counter != SHA1BUSY_TIMEOUT) && (busystatus != RESET));
 413              		.loc 1 220 10 is_stmt 1 discriminator 2 view .LVU146
 414              		.loc 1 220 20 is_stmt 0 discriminator 2 view .LVU147
 415 0082 009B     		ldr	r3, [sp]
 416              		.loc 1 220 3 discriminator 2 view .LVU148
 417 0084 B3F5803F 		cmp	r3, #65536
 418 0088 01D0     		beq	.L15
 419              		.loc 1 220 41 discriminator 1 view .LVU149
 420 008a 0028     		cmp	r0, #0
 421 008c F2D1     		bne	.L16
 422              	.L15:
 221:./Library/stm32f4xx_hash_sha1.c **** 
 222:./Library/stm32f4xx_hash_sha1.c ****   if (busystatus != RESET)
 423              		.loc 1 222 3 is_stmt 1 view .LVU150
 424              		.loc 1 222 6 is_stmt 0 view .LVU151
 425 008e B9F1000F 		cmp	r9, #0
 426 0092 03D0     		beq	.L30
 223:./Library/stm32f4xx_hash_sha1.c ****   {
 224:./Library/stm32f4xx_hash_sha1.c ****      status = ERROR;
 427              		.loc 1 224 13 view .LVU152
 428 0094 0020     		movs	r0, #0
 429              	.LVL47:
 430              	.L17:
 225:./Library/stm32f4xx_hash_sha1.c ****   }
 226:./Library/stm32f4xx_hash_sha1.c ****   else
 227:./Library/stm32f4xx_hash_sha1.c ****   {
 228:./Library/stm32f4xx_hash_sha1.c ****     /* Configure the number of valid bits in last word of the Input data */
 229:./Library/stm32f4xx_hash_sha1.c ****     HASH_SetLastWordValidBitsNbr(nbvalidbitsdata);
 230:./Library/stm32f4xx_hash_sha1.c **** 
 231:./Library/stm32f4xx_hash_sha1.c ****     /* Write the Input block in the IN FIFO */
 232:./Library/stm32f4xx_hash_sha1.c ****     for(i=0; i<Ilen; i+=4)
 233:./Library/stm32f4xx_hash_sha1.c ****     {
 234:./Library/stm32f4xx_hash_sha1.c ****       HASH_DataIn(*(uint32_t*)inputaddr);
 235:./Library/stm32f4xx_hash_sha1.c ****       inputaddr+=4;
 236:./Library/stm32f4xx_hash_sha1.c ****     }
ARM GAS  /var/folders/yl/_q9l42k90g1g4mdhbs226msm0000gn/T//ccwIpdyS.s 			page 22


 237:./Library/stm32f4xx_hash_sha1.c **** 
 238:./Library/stm32f4xx_hash_sha1.c ****     /* Start the HASH processor */
 239:./Library/stm32f4xx_hash_sha1.c ****     HASH_StartDigest();
 240:./Library/stm32f4xx_hash_sha1.c **** 
 241:./Library/stm32f4xx_hash_sha1.c **** 
 242:./Library/stm32f4xx_hash_sha1.c ****     /* wait until the Busy flag is RESET */
 243:./Library/stm32f4xx_hash_sha1.c ****     counter =0;
 244:./Library/stm32f4xx_hash_sha1.c ****     do
 245:./Library/stm32f4xx_hash_sha1.c ****     {
 246:./Library/stm32f4xx_hash_sha1.c ****       busystatus = HASH_GetFlagStatus(HASH_FLAG_BUSY);
 247:./Library/stm32f4xx_hash_sha1.c ****       counter++;
 248:./Library/stm32f4xx_hash_sha1.c ****     }while ((counter != SHA1BUSY_TIMEOUT) && (busystatus != RESET));
 249:./Library/stm32f4xx_hash_sha1.c **** 
 250:./Library/stm32f4xx_hash_sha1.c ****     if (busystatus != RESET)
 251:./Library/stm32f4xx_hash_sha1.c ****     {
 252:./Library/stm32f4xx_hash_sha1.c ****       status = ERROR;
 253:./Library/stm32f4xx_hash_sha1.c ****     }
 254:./Library/stm32f4xx_hash_sha1.c ****     else
 255:./Library/stm32f4xx_hash_sha1.c ****     {  
 256:./Library/stm32f4xx_hash_sha1.c ****       /* Configure the number of valid bits in last word of the Key */
 257:./Library/stm32f4xx_hash_sha1.c ****       HASH_SetLastWordValidBitsNbr(nbvalidbitskey);
 258:./Library/stm32f4xx_hash_sha1.c **** 
 259:./Library/stm32f4xx_hash_sha1.c ****       /* Write the Key */
 260:./Library/stm32f4xx_hash_sha1.c ****       keyaddr = (uint32_t)Key;
 261:./Library/stm32f4xx_hash_sha1.c ****       for(i=0; i<Keylen; i+=4)
 262:./Library/stm32f4xx_hash_sha1.c ****       {
 263:./Library/stm32f4xx_hash_sha1.c ****         HASH_DataIn(*(uint32_t*)keyaddr);
 264:./Library/stm32f4xx_hash_sha1.c ****         keyaddr+=4;
 265:./Library/stm32f4xx_hash_sha1.c ****       }
 266:./Library/stm32f4xx_hash_sha1.c **** 
 267:./Library/stm32f4xx_hash_sha1.c ****       /* Start the HASH processor */
 268:./Library/stm32f4xx_hash_sha1.c ****       HASH_StartDigest();
 269:./Library/stm32f4xx_hash_sha1.c **** 
 270:./Library/stm32f4xx_hash_sha1.c ****       /* wait until the Busy flag is RESET */
 271:./Library/stm32f4xx_hash_sha1.c ****       counter =0;
 272:./Library/stm32f4xx_hash_sha1.c ****       do
 273:./Library/stm32f4xx_hash_sha1.c ****       {
 274:./Library/stm32f4xx_hash_sha1.c ****         busystatus = HASH_GetFlagStatus(HASH_FLAG_BUSY);
 275:./Library/stm32f4xx_hash_sha1.c ****         counter++;
 276:./Library/stm32f4xx_hash_sha1.c ****       }while ((counter != SHA1BUSY_TIMEOUT) && (busystatus != RESET));
 277:./Library/stm32f4xx_hash_sha1.c **** 
 278:./Library/stm32f4xx_hash_sha1.c ****       if (busystatus != RESET)
 279:./Library/stm32f4xx_hash_sha1.c ****       {
 280:./Library/stm32f4xx_hash_sha1.c ****         status = ERROR;
 281:./Library/stm32f4xx_hash_sha1.c ****       }
 282:./Library/stm32f4xx_hash_sha1.c ****       else
 283:./Library/stm32f4xx_hash_sha1.c ****       {
 284:./Library/stm32f4xx_hash_sha1.c ****         /* Read the message digest */
 285:./Library/stm32f4xx_hash_sha1.c ****         HASH_GetDigest(&SHA1_MessageDigest);
 286:./Library/stm32f4xx_hash_sha1.c ****         *(uint32_t*)(outputaddr)  = __REV(SHA1_MessageDigest.Data[0]);
 287:./Library/stm32f4xx_hash_sha1.c ****         outputaddr+=4;
 288:./Library/stm32f4xx_hash_sha1.c ****         *(uint32_t*)(outputaddr)  = __REV(SHA1_MessageDigest.Data[1]);
 289:./Library/stm32f4xx_hash_sha1.c ****         outputaddr+=4;
 290:./Library/stm32f4xx_hash_sha1.c ****         *(uint32_t*)(outputaddr)  = __REV(SHA1_MessageDigest.Data[2]);
 291:./Library/stm32f4xx_hash_sha1.c ****         outputaddr+=4;
 292:./Library/stm32f4xx_hash_sha1.c ****         *(uint32_t*)(outputaddr)  = __REV(SHA1_MessageDigest.Data[3]);
 293:./Library/stm32f4xx_hash_sha1.c ****         outputaddr+=4;
ARM GAS  /var/folders/yl/_q9l42k90g1g4mdhbs226msm0000gn/T//ccwIpdyS.s 			page 23


 294:./Library/stm32f4xx_hash_sha1.c ****         *(uint32_t*)(outputaddr)  = __REV(SHA1_MessageDigest.Data[4]);
 295:./Library/stm32f4xx_hash_sha1.c ****       }
 296:./Library/stm32f4xx_hash_sha1.c ****     }  
 297:./Library/stm32f4xx_hash_sha1.c ****   }
 298:./Library/stm32f4xx_hash_sha1.c ****   return status;  
 431              		.loc 1 298 3 is_stmt 1 view .LVU153
 299:./Library/stm32f4xx_hash_sha1.c **** }
 432              		.loc 1 299 1 is_stmt 0 view .LVU154
 433 0096 0FB0     		add	sp, sp, #60
 434              	.LCFI6:
 435              		.cfi_remember_state
 436              		.cfi_def_cfa_offset 28
 437              		@ sp needed
 438 0098 BDE8F083 		pop	{r4, r5, r6, r7, r8, r9, pc}
 439              	.LVL48:
 440              	.L30:
 441              	.LCFI7:
 442              		.cfi_restore_state
 229:./Library/stm32f4xx_hash_sha1.c **** 
 443              		.loc 1 229 5 is_stmt 1 view .LVU155
 444 009c BDF80600 		ldrh	r0, [sp, #6]
 445              	.LVL49:
 229:./Library/stm32f4xx_hash_sha1.c **** 
 446              		.loc 1 229 5 is_stmt 0 view .LVU156
 447 00a0 80B2     		uxth	r0, r0
 448 00a2 FFF7FEFF 		bl	HASH_SetLastWordValidBitsNbr
 449              	.LVL50:
 232:./Library/stm32f4xx_hash_sha1.c ****     {
 450              		.loc 1 232 5 is_stmt 1 view .LVU157
 232:./Library/stm32f4xx_hash_sha1.c ****     {
 451              		.loc 1 232 5 is_stmt 0 view .LVU158
 452 00a6 05E0     		b	.L18
 453              	.LVL51:
 454              	.L19:
 234:./Library/stm32f4xx_hash_sha1.c ****       inputaddr+=4;
 455              		.loc 1 234 7 is_stmt 1 discriminator 3 view .LVU159
 456 00a8 56F8040B 		ldr	r0, [r6], #4
 457              	.LVL52:
 234:./Library/stm32f4xx_hash_sha1.c ****       inputaddr+=4;
 458              		.loc 1 234 7 is_stmt 0 discriminator 3 view .LVU160
 459 00ac FFF7FEFF 		bl	HASH_DataIn
 460              	.LVL53:
 235:./Library/stm32f4xx_hash_sha1.c ****     }
 461              		.loc 1 235 7 is_stmt 1 discriminator 3 view .LVU161
 232:./Library/stm32f4xx_hash_sha1.c ****     {
 462              		.loc 1 232 22 discriminator 3 view .LVU162
 232:./Library/stm32f4xx_hash_sha1.c ****     {
 463              		.loc 1 232 23 is_stmt 0 discriminator 3 view .LVU163
 464 00b0 09F10409 		add	r9, r9, #4
 465              	.LVL54:
 466              	.L18:
 232:./Library/stm32f4xx_hash_sha1.c ****     {
 467              		.loc 1 232 14 is_stmt 1 discriminator 1 view .LVU164
 232:./Library/stm32f4xx_hash_sha1.c ****     {
 468              		.loc 1 232 5 is_stmt 0 discriminator 1 view .LVU165
 469 00b4 B945     		cmp	r9, r7
 470 00b6 F7D3     		bcc	.L19
ARM GAS  /var/folders/yl/_q9l42k90g1g4mdhbs226msm0000gn/T//ccwIpdyS.s 			page 24


 239:./Library/stm32f4xx_hash_sha1.c **** 
 471              		.loc 1 239 5 is_stmt 1 view .LVU166
 472 00b8 FFF7FEFF 		bl	HASH_StartDigest
 473              	.LVL55:
 243:./Library/stm32f4xx_hash_sha1.c ****     do
 474              		.loc 1 243 5 view .LVU167
 243:./Library/stm32f4xx_hash_sha1.c ****     do
 475              		.loc 1 243 13 is_stmt 0 view .LVU168
 476 00bc 0023     		movs	r3, #0
 477 00be 0093     		str	r3, [sp]
 478              	.L21:
 244:./Library/stm32f4xx_hash_sha1.c ****     {
 479              		.loc 1 244 5 is_stmt 1 discriminator 2 view .LVU169
 246:./Library/stm32f4xx_hash_sha1.c ****       counter++;
 480              		.loc 1 246 7 discriminator 2 view .LVU170
 246:./Library/stm32f4xx_hash_sha1.c ****       counter++;
 481              		.loc 1 246 20 is_stmt 0 discriminator 2 view .LVU171
 482 00c0 0820     		movs	r0, #8
 483 00c2 FFF7FEFF 		bl	HASH_GetFlagStatus
 484              	.LVL56:
 246:./Library/stm32f4xx_hash_sha1.c ****       counter++;
 485              		.loc 1 246 18 discriminator 2 view .LVU172
 486 00c6 0446     		mov	r4, r0
 487              	.LVL57:
 247:./Library/stm32f4xx_hash_sha1.c ****     }while ((counter != SHA1BUSY_TIMEOUT) && (busystatus != RESET));
 488              		.loc 1 247 7 is_stmt 1 discriminator 2 view .LVU173
 247:./Library/stm32f4xx_hash_sha1.c ****     }while ((counter != SHA1BUSY_TIMEOUT) && (busystatus != RESET));
 489              		.loc 1 247 14 is_stmt 0 discriminator 2 view .LVU174
 490 00c8 009B     		ldr	r3, [sp]
 491 00ca 0133     		adds	r3, r3, #1
 492 00cc 0093     		str	r3, [sp]
 248:./Library/stm32f4xx_hash_sha1.c **** 
 493              		.loc 1 248 12 is_stmt 1 discriminator 2 view .LVU175
 248:./Library/stm32f4xx_hash_sha1.c **** 
 494              		.loc 1 248 22 is_stmt 0 discriminator 2 view .LVU176
 495 00ce 009B     		ldr	r3, [sp]
 248:./Library/stm32f4xx_hash_sha1.c **** 
 496              		.loc 1 248 5 discriminator 2 view .LVU177
 497 00d0 B3F5803F 		cmp	r3, #65536
 498 00d4 01D0     		beq	.L20
 248:./Library/stm32f4xx_hash_sha1.c **** 
 499              		.loc 1 248 43 discriminator 1 view .LVU178
 500 00d6 0028     		cmp	r0, #0
 501 00d8 F2D1     		bne	.L21
 502              	.L20:
 250:./Library/stm32f4xx_hash_sha1.c ****     {
 503              		.loc 1 250 5 is_stmt 1 view .LVU179
 250:./Library/stm32f4xx_hash_sha1.c ****     {
 504              		.loc 1 250 8 is_stmt 0 view .LVU180
 505 00da 0CB1     		cbz	r4, .L31
 252:./Library/stm32f4xx_hash_sha1.c ****     }
 506              		.loc 1 252 14 view .LVU181
 507 00dc 0020     		movs	r0, #0
 508              	.LVL58:
 252:./Library/stm32f4xx_hash_sha1.c ****     }
 509              		.loc 1 252 14 view .LVU182
 510 00de DAE7     		b	.L17
ARM GAS  /var/folders/yl/_q9l42k90g1g4mdhbs226msm0000gn/T//ccwIpdyS.s 			page 25


 511              	.LVL59:
 512              	.L31:
 257:./Library/stm32f4xx_hash_sha1.c **** 
 513              		.loc 1 257 7 is_stmt 1 view .LVU183
 514 00e0 BDF80400 		ldrh	r0, [sp, #4]
 515              	.LVL60:
 257:./Library/stm32f4xx_hash_sha1.c **** 
 516              		.loc 1 257 7 is_stmt 0 view .LVU184
 517 00e4 80B2     		uxth	r0, r0
 518 00e6 FFF7FEFF 		bl	HASH_SetLastWordValidBitsNbr
 519              	.LVL61:
 260:./Library/stm32f4xx_hash_sha1.c ****       for(i=0; i<Keylen; i+=4)
 520              		.loc 1 260 7 is_stmt 1 view .LVU185
 261:./Library/stm32f4xx_hash_sha1.c ****       {
 521              		.loc 1 261 7 view .LVU186
 261:./Library/stm32f4xx_hash_sha1.c ****       {
 522              		.loc 1 261 7 is_stmt 0 view .LVU187
 523 00ea 04E0     		b	.L22
 524              	.LVL62:
 525              	.L23:
 263:./Library/stm32f4xx_hash_sha1.c ****         keyaddr+=4;
 526              		.loc 1 263 9 is_stmt 1 discriminator 3 view .LVU188
 527 00ec 58F8040B 		ldr	r0, [r8], #4
 528              	.LVL63:
 263:./Library/stm32f4xx_hash_sha1.c ****         keyaddr+=4;
 529              		.loc 1 263 9 is_stmt 0 discriminator 3 view .LVU189
 530 00f0 FFF7FEFF 		bl	HASH_DataIn
 531              	.LVL64:
 264:./Library/stm32f4xx_hash_sha1.c ****       }
 532              		.loc 1 264 9 is_stmt 1 discriminator 3 view .LVU190
 261:./Library/stm32f4xx_hash_sha1.c ****       {
 533              		.loc 1 261 26 discriminator 3 view .LVU191
 261:./Library/stm32f4xx_hash_sha1.c ****       {
 534              		.loc 1 261 27 is_stmt 0 discriminator 3 view .LVU192
 535 00f4 0434     		adds	r4, r4, #4
 536              	.LVL65:
 537              	.L22:
 261:./Library/stm32f4xx_hash_sha1.c ****       {
 538              		.loc 1 261 16 is_stmt 1 discriminator 1 view .LVU193
 261:./Library/stm32f4xx_hash_sha1.c ****       {
 539              		.loc 1 261 7 is_stmt 0 discriminator 1 view .LVU194
 540 00f6 AC42     		cmp	r4, r5
 541 00f8 F8D3     		bcc	.L23
 268:./Library/stm32f4xx_hash_sha1.c **** 
 542              		.loc 1 268 7 is_stmt 1 view .LVU195
 543 00fa FFF7FEFF 		bl	HASH_StartDigest
 544              	.LVL66:
 271:./Library/stm32f4xx_hash_sha1.c ****       do
 545              		.loc 1 271 7 view .LVU196
 271:./Library/stm32f4xx_hash_sha1.c ****       do
 546              		.loc 1 271 15 is_stmt 0 view .LVU197
 547 00fe 0023     		movs	r3, #0
 548 0100 0093     		str	r3, [sp]
 549              	.L25:
 272:./Library/stm32f4xx_hash_sha1.c ****       {
 550              		.loc 1 272 7 is_stmt 1 discriminator 2 view .LVU198
 274:./Library/stm32f4xx_hash_sha1.c ****         counter++;
ARM GAS  /var/folders/yl/_q9l42k90g1g4mdhbs226msm0000gn/T//ccwIpdyS.s 			page 26


 551              		.loc 1 274 9 discriminator 2 view .LVU199
 274:./Library/stm32f4xx_hash_sha1.c ****         counter++;
 552              		.loc 1 274 22 is_stmt 0 discriminator 2 view .LVU200
 553 0102 0820     		movs	r0, #8
 554 0104 FFF7FEFF 		bl	HASH_GetFlagStatus
 555              	.LVL67:
 275:./Library/stm32f4xx_hash_sha1.c ****       }while ((counter != SHA1BUSY_TIMEOUT) && (busystatus != RESET));
 556              		.loc 1 275 9 is_stmt 1 discriminator 2 view .LVU201
 275:./Library/stm32f4xx_hash_sha1.c ****       }while ((counter != SHA1BUSY_TIMEOUT) && (busystatus != RESET));
 557              		.loc 1 275 16 is_stmt 0 discriminator 2 view .LVU202
 558 0108 009B     		ldr	r3, [sp]
 559 010a 0133     		adds	r3, r3, #1
 560 010c 0093     		str	r3, [sp]
 276:./Library/stm32f4xx_hash_sha1.c **** 
 561              		.loc 1 276 14 is_stmt 1 discriminator 2 view .LVU203
 276:./Library/stm32f4xx_hash_sha1.c **** 
 562              		.loc 1 276 24 is_stmt 0 discriminator 2 view .LVU204
 563 010e 009B     		ldr	r3, [sp]
 276:./Library/stm32f4xx_hash_sha1.c **** 
 564              		.loc 1 276 7 discriminator 2 view .LVU205
 565 0110 B3F5803F 		cmp	r3, #65536
 566 0114 01D0     		beq	.L24
 276:./Library/stm32f4xx_hash_sha1.c **** 
 567              		.loc 1 276 45 discriminator 1 view .LVU206
 568 0116 0028     		cmp	r0, #0
 569 0118 F3D1     		bne	.L25
 570              	.L24:
 278:./Library/stm32f4xx_hash_sha1.c ****       {
 571              		.loc 1 278 7 is_stmt 1 view .LVU207
 278:./Library/stm32f4xx_hash_sha1.c ****       {
 572              		.loc 1 278 10 is_stmt 0 view .LVU208
 573 011a 08B1     		cbz	r0, .L32
 280:./Library/stm32f4xx_hash_sha1.c ****       }
 574              		.loc 1 280 16 view .LVU209
 575 011c 0020     		movs	r0, #0
 576              	.LVL68:
 280:./Library/stm32f4xx_hash_sha1.c ****       }
 577              		.loc 1 280 16 view .LVU210
 578 011e BAE7     		b	.L17
 579              	.LVL69:
 580              	.L32:
 285:./Library/stm32f4xx_hash_sha1.c ****         *(uint32_t*)(outputaddr)  = __REV(SHA1_MessageDigest.Data[0]);
 581              		.loc 1 285 9 is_stmt 1 view .LVU211
 582 0120 02A8     		add	r0, sp, #8
 583              	.LVL70:
 285:./Library/stm32f4xx_hash_sha1.c ****         *(uint32_t*)(outputaddr)  = __REV(SHA1_MessageDigest.Data[0]);
 584              		.loc 1 285 9 is_stmt 0 view .LVU212
 585 0122 FFF7FEFF 		bl	HASH_GetDigest
 586              	.LVL71:
 286:./Library/stm32f4xx_hash_sha1.c ****         outputaddr+=4;
 587              		.loc 1 286 9 is_stmt 1 view .LVU213
 286:./Library/stm32f4xx_hash_sha1.c ****         outputaddr+=4;
 588              		.loc 1 286 37 is_stmt 0 view .LVU214
 589 0126 029B     		ldr	r3, [sp, #8]
 590              	.LVL72:
 591              	.LBB32:
 592              	.LBI32:
ARM GAS  /var/folders/yl/_q9l42k90g1g4mdhbs226msm0000gn/T//ccwIpdyS.s 			page 27


 495:./CORE/core_cmInstr.h **** {
 593              		.loc 2 495 57 is_stmt 1 view .LVU215
 594              	.LBB33:
 595              		.loc 2 498 3 view .LVU216
 596              		.loc 2 498 10 is_stmt 0 view .LVU217
 597 0128 1BBA     		rev	r3, r3
 598              	.LVL73:
 599              		.loc 2 498 10 view .LVU218
 600              	.LBE33:
 601              	.LBE32:
 286:./Library/stm32f4xx_hash_sha1.c ****         outputaddr+=4;
 602              		.loc 1 286 35 view .LVU219
 603 012a 169A     		ldr	r2, [sp, #88]
 604 012c 1360     		str	r3, [r2]
 287:./Library/stm32f4xx_hash_sha1.c ****         *(uint32_t*)(outputaddr)  = __REV(SHA1_MessageDigest.Data[1]);
 605              		.loc 1 287 9 is_stmt 1 view .LVU220
 606              	.LVL74:
 288:./Library/stm32f4xx_hash_sha1.c ****         outputaddr+=4;
 607              		.loc 1 288 9 view .LVU221
 288:./Library/stm32f4xx_hash_sha1.c ****         outputaddr+=4;
 608              		.loc 1 288 37 is_stmt 0 view .LVU222
 609 012e 039B     		ldr	r3, [sp, #12]
 610              	.LVL75:
 611              	.LBB34:
 612              	.LBI34:
 495:./CORE/core_cmInstr.h **** {
 613              		.loc 2 495 57 is_stmt 1 view .LVU223
 614              	.LBB35:
 615              		.loc 2 498 3 view .LVU224
 616              		.loc 2 498 10 is_stmt 0 view .LVU225
 617 0130 1BBA     		rev	r3, r3
 618              	.LVL76:
 619              		.loc 2 498 10 view .LVU226
 620              	.LBE35:
 621              	.LBE34:
 288:./Library/stm32f4xx_hash_sha1.c ****         outputaddr+=4;
 622              		.loc 1 288 35 view .LVU227
 623 0132 5360     		str	r3, [r2, #4]
 289:./Library/stm32f4xx_hash_sha1.c ****         *(uint32_t*)(outputaddr)  = __REV(SHA1_MessageDigest.Data[2]);
 624              		.loc 1 289 9 is_stmt 1 view .LVU228
 625              	.LVL77:
 290:./Library/stm32f4xx_hash_sha1.c ****         outputaddr+=4;
 626              		.loc 1 290 9 view .LVU229
 290:./Library/stm32f4xx_hash_sha1.c ****         outputaddr+=4;
 627              		.loc 1 290 37 is_stmt 0 view .LVU230
 628 0134 049B     		ldr	r3, [sp, #16]
 629              	.LVL78:
 630              	.LBB36:
 631              	.LBI36:
 495:./CORE/core_cmInstr.h **** {
 632              		.loc 2 495 57 is_stmt 1 view .LVU231
 633              	.LBB37:
 634              		.loc 2 498 3 view .LVU232
 635              		.loc 2 498 10 is_stmt 0 view .LVU233
 636 0136 1BBA     		rev	r3, r3
 637              	.LVL79:
 638              		.loc 2 498 10 view .LVU234
ARM GAS  /var/folders/yl/_q9l42k90g1g4mdhbs226msm0000gn/T//ccwIpdyS.s 			page 28


 639              	.LBE37:
 640              	.LBE36:
 290:./Library/stm32f4xx_hash_sha1.c ****         outputaddr+=4;
 641              		.loc 1 290 35 view .LVU235
 642 0138 9360     		str	r3, [r2, #8]
 291:./Library/stm32f4xx_hash_sha1.c ****         *(uint32_t*)(outputaddr)  = __REV(SHA1_MessageDigest.Data[3]);
 643              		.loc 1 291 9 is_stmt 1 view .LVU236
 644              	.LVL80:
 292:./Library/stm32f4xx_hash_sha1.c ****         outputaddr+=4;
 645              		.loc 1 292 9 view .LVU237
 292:./Library/stm32f4xx_hash_sha1.c ****         outputaddr+=4;
 646              		.loc 1 292 37 is_stmt 0 view .LVU238
 647 013a 059B     		ldr	r3, [sp, #20]
 648              	.LVL81:
 649              	.LBB38:
 650              	.LBI38:
 495:./CORE/core_cmInstr.h **** {
 651              		.loc 2 495 57 is_stmt 1 view .LVU239
 652              	.LBB39:
 653              		.loc 2 498 3 view .LVU240
 654              		.loc 2 498 10 is_stmt 0 view .LVU241
 655 013c 1BBA     		rev	r3, r3
 656              	.LVL82:
 657              		.loc 2 498 10 view .LVU242
 658              	.LBE39:
 659              	.LBE38:
 292:./Library/stm32f4xx_hash_sha1.c ****         outputaddr+=4;
 660              		.loc 1 292 35 view .LVU243
 661 013e D360     		str	r3, [r2, #12]
 293:./Library/stm32f4xx_hash_sha1.c ****         *(uint32_t*)(outputaddr)  = __REV(SHA1_MessageDigest.Data[4]);
 662              		.loc 1 293 9 is_stmt 1 view .LVU244
 663              	.LVL83:
 294:./Library/stm32f4xx_hash_sha1.c ****       }
 664              		.loc 1 294 9 view .LVU245
 294:./Library/stm32f4xx_hash_sha1.c ****       }
 665              		.loc 1 294 37 is_stmt 0 view .LVU246
 666 0140 069B     		ldr	r3, [sp, #24]
 667              	.LVL84:
 668              	.LBB40:
 669              	.LBI40:
 495:./CORE/core_cmInstr.h **** {
 670              		.loc 2 495 57 is_stmt 1 view .LVU247
 671              	.LBB41:
 672              		.loc 2 498 3 view .LVU248
 673              		.loc 2 498 10 is_stmt 0 view .LVU249
 674 0142 1BBA     		rev	r3, r3
 675              	.LVL85:
 676              		.loc 2 498 10 view .LVU250
 677              	.LBE41:
 678              	.LBE40:
 294:./Library/stm32f4xx_hash_sha1.c ****       }
 679              		.loc 1 294 35 view .LVU251
 680 0144 1361     		str	r3, [r2, #16]
 172:./Library/stm32f4xx_hash_sha1.c ****   uint32_t keyaddr    = (uint32_t)Key;
 681              		.loc 1 172 15 view .LVU252
 682 0146 0120     		movs	r0, #1
 683 0148 A5E7     		b	.L17
ARM GAS  /var/folders/yl/_q9l42k90g1g4mdhbs226msm0000gn/T//ccwIpdyS.s 			page 29


 684              		.cfi_endproc
 685              	.LFE124:
 687              		.text
 688              	.Letext0:
 689              		.file 3 "/Applications/ARM/arm-none-eabi/include/machine/_default_types.h"
 690              		.file 4 "/Applications/ARM/arm-none-eabi/include/sys/_stdint.h"
 691              		.file 5 "./CORE/stm32f4xx.h"
 692              		.file 6 "./Library/stm32f4xx_hash.h"
ARM GAS  /var/folders/yl/_q9l42k90g1g4mdhbs226msm0000gn/T//ccwIpdyS.s 			page 30

