ARM GAS  /var/folders/yl/_q9l42k90g1g4mdhbs226msm0000gn/T//ccbd40Re.s 			page 1


   1              		.cpu cortex-m4
   2              		.arch armv7e-m
   3              		.fpu fpv4-sp-d16
   4              		.eabi_attribute 27, 1
   5              		.eabi_attribute 28, 1
   6              		.eabi_attribute 20, 1
   7              		.eabi_attribute 21, 1
   8              		.eabi_attribute 23, 3
   9              		.eabi_attribute 24, 1
  10              		.eabi_attribute 25, 1
  11              		.eabi_attribute 26, 1
  12              		.eabi_attribute 30, 6
  13              		.eabi_attribute 34, 1
  14              		.eabi_attribute 18, 4
  15              		.file	"stm32f4xx_it.c"
  16              		.text
  17              	.Ltext0:
  18              		.cfi_sections	.debug_frame
  19              		.section	.text.NMI_Handler,"ax",%progbits
  20              		.align	1
  21              		.global	NMI_Handler
  22              		.syntax unified
  23              		.thumb
  24              		.thumb_func
  26              	NMI_Handler:
  27              	.LFB126:
  28              		.file 1 "./User/stm32f4xx_it.c"
   1:./User/stm32f4xx_it.c **** /**
   2:./User/stm32f4xx_it.c ****   ******************************************************************************
   3:./User/stm32f4xx_it.c ****   * @file    Project/STM32F4xx_StdPeriph_Templates/stm32f4xx_it.c 
   4:./User/stm32f4xx_it.c ****   * @author  MCD Application Team
   5:./User/stm32f4xx_it.c ****   * @version V1.8.1
   6:./User/stm32f4xx_it.c ****   * @date    27-January-2022
   7:./User/stm32f4xx_it.c ****   * @brief   Main Interrupt Service Routines.
   8:./User/stm32f4xx_it.c ****   *          This file provides template for all exceptions handler and 
   9:./User/stm32f4xx_it.c ****   *          peripherals interrupt service routine.
  10:./User/stm32f4xx_it.c ****   ******************************************************************************
  11:./User/stm32f4xx_it.c ****   * @attention
  12:./User/stm32f4xx_it.c ****   *
  13:./User/stm32f4xx_it.c ****   * Copyright (c) 2016 STMicroelectronics.
  14:./User/stm32f4xx_it.c ****   * All rights reserved.
  15:./User/stm32f4xx_it.c ****   *
  16:./User/stm32f4xx_it.c ****   * This software is licensed under terms that can be found in the LICENSE file
  17:./User/stm32f4xx_it.c ****   * in the root directory of this software component.
  18:./User/stm32f4xx_it.c ****   * If no LICENSE file comes with this software, it is provided AS-IS.
  19:./User/stm32f4xx_it.c ****   *
  20:./User/stm32f4xx_it.c ****   ******************************************************************************
  21:./User/stm32f4xx_it.c ****   */
  22:./User/stm32f4xx_it.c **** 
  23:./User/stm32f4xx_it.c **** /* Includes ------------------------------------------------------------------*/
  24:./User/stm32f4xx_it.c **** #include "stm32f4xx_it.h"
  25:./User/stm32f4xx_it.c **** #include "main.h"
  26:./User/stm32f4xx_it.c **** 
  27:./User/stm32f4xx_it.c **** /** @addtogroup Template_Project
  28:./User/stm32f4xx_it.c ****   * @{
  29:./User/stm32f4xx_it.c ****   */
  30:./User/stm32f4xx_it.c **** 
ARM GAS  /var/folders/yl/_q9l42k90g1g4mdhbs226msm0000gn/T//ccbd40Re.s 			page 2


  31:./User/stm32f4xx_it.c **** /* Private typedef -----------------------------------------------------------*/
  32:./User/stm32f4xx_it.c **** /* Private define ------------------------------------------------------------*/
  33:./User/stm32f4xx_it.c **** /* Private macro -------------------------------------------------------------*/
  34:./User/stm32f4xx_it.c **** /* Private variables ---------------------------------------------------------*/
  35:./User/stm32f4xx_it.c **** /* Private function prototypes -----------------------------------------------*/
  36:./User/stm32f4xx_it.c **** /* Private functions ---------------------------------------------------------*/
  37:./User/stm32f4xx_it.c **** 
  38:./User/stm32f4xx_it.c **** /******************************************************************************/
  39:./User/stm32f4xx_it.c **** /*            Cortex-M4 Processor Exceptions Handlers                         */
  40:./User/stm32f4xx_it.c **** /******************************************************************************/
  41:./User/stm32f4xx_it.c **** 
  42:./User/stm32f4xx_it.c **** /**
  43:./User/stm32f4xx_it.c ****   * @brief  This function handles NMI exception.
  44:./User/stm32f4xx_it.c ****   * @param  None
  45:./User/stm32f4xx_it.c ****   * @retval None
  46:./User/stm32f4xx_it.c ****   */
  47:./User/stm32f4xx_it.c **** void NMI_Handler(void)
  48:./User/stm32f4xx_it.c **** {
  29              		.loc 1 48 1
  30              		.cfi_startproc
  31              		@ args = 0, pretend = 0, frame = 0
  32              		@ frame_needed = 1, uses_anonymous_args = 0
  33              		@ link register save eliminated.
  34 0000 80B4     		push	{r7}
  35              	.LCFI0:
  36              		.cfi_def_cfa_offset 4
  37              		.cfi_offset 7, -4
  38 0002 00AF     		add	r7, sp, #0
  39              	.LCFI1:
  40              		.cfi_def_cfa_register 7
  49:./User/stm32f4xx_it.c **** }
  41              		.loc 1 49 1
  42 0004 00BF     		nop
  43 0006 BD46     		mov	sp, r7
  44              	.LCFI2:
  45              		.cfi_def_cfa_register 13
  46              		@ sp needed
  47 0008 5DF8047B 		ldr	r7, [sp], #4
  48              	.LCFI3:
  49              		.cfi_restore 7
  50              		.cfi_def_cfa_offset 0
  51 000c 7047     		bx	lr
  52              		.cfi_endproc
  53              	.LFE126:
  55              		.section	.text.HardFault_Handler,"ax",%progbits
  56              		.align	1
  57              		.global	HardFault_Handler
  58              		.syntax unified
  59              		.thumb
  60              		.thumb_func
  62              	HardFault_Handler:
  63              	.LFB127:
  50:./User/stm32f4xx_it.c **** 
  51:./User/stm32f4xx_it.c **** /**
  52:./User/stm32f4xx_it.c ****   * @brief  This function handles Hard Fault exception.
  53:./User/stm32f4xx_it.c ****   * @param  None
  54:./User/stm32f4xx_it.c ****   * @retval None
ARM GAS  /var/folders/yl/_q9l42k90g1g4mdhbs226msm0000gn/T//ccbd40Re.s 			page 3


  55:./User/stm32f4xx_it.c ****   */
  56:./User/stm32f4xx_it.c **** void HardFault_Handler(void)
  57:./User/stm32f4xx_it.c **** {
  64              		.loc 1 57 1
  65              		.cfi_startproc
  66              		@ args = 0, pretend = 0, frame = 0
  67              		@ frame_needed = 1, uses_anonymous_args = 0
  68              		@ link register save eliminated.
  69 0000 80B4     		push	{r7}
  70              	.LCFI4:
  71              		.cfi_def_cfa_offset 4
  72              		.cfi_offset 7, -4
  73 0002 00AF     		add	r7, sp, #0
  74              	.LCFI5:
  75              		.cfi_def_cfa_register 7
  76              	.L3:
  58:./User/stm32f4xx_it.c ****   /* Go to infinite loop when Hard Fault exception occurs */
  59:./User/stm32f4xx_it.c ****   while (1)
  77              		.loc 1 59 9 discriminator 1
  78 0004 FEE7     		b	.L3
  79              		.cfi_endproc
  80              	.LFE127:
  82              		.section	.text.MemManage_Handler,"ax",%progbits
  83              		.align	1
  84              		.global	MemManage_Handler
  85              		.syntax unified
  86              		.thumb
  87              		.thumb_func
  89              	MemManage_Handler:
  90              	.LFB128:
  60:./User/stm32f4xx_it.c ****   {
  61:./User/stm32f4xx_it.c ****   }
  62:./User/stm32f4xx_it.c **** }
  63:./User/stm32f4xx_it.c **** 
  64:./User/stm32f4xx_it.c **** /**
  65:./User/stm32f4xx_it.c ****   * @brief  This function handles Memory Manage exception.
  66:./User/stm32f4xx_it.c ****   * @param  None
  67:./User/stm32f4xx_it.c ****   * @retval None
  68:./User/stm32f4xx_it.c ****   */
  69:./User/stm32f4xx_it.c **** void MemManage_Handler(void)
  70:./User/stm32f4xx_it.c **** {
  91              		.loc 1 70 1
  92              		.cfi_startproc
  93              		@ args = 0, pretend = 0, frame = 0
  94              		@ frame_needed = 1, uses_anonymous_args = 0
  95              		@ link register save eliminated.
  96 0000 80B4     		push	{r7}
  97              	.LCFI6:
  98              		.cfi_def_cfa_offset 4
  99              		.cfi_offset 7, -4
 100 0002 00AF     		add	r7, sp, #0
 101              	.LCFI7:
 102              		.cfi_def_cfa_register 7
 103              	.L5:
  71:./User/stm32f4xx_it.c ****   /* Go to infinite loop when Memory Manage exception occurs */
  72:./User/stm32f4xx_it.c ****   while (1)
 104              		.loc 1 72 9 discriminator 1
ARM GAS  /var/folders/yl/_q9l42k90g1g4mdhbs226msm0000gn/T//ccbd40Re.s 			page 4


 105 0004 FEE7     		b	.L5
 106              		.cfi_endproc
 107              	.LFE128:
 109              		.section	.text.BusFault_Handler,"ax",%progbits
 110              		.align	1
 111              		.global	BusFault_Handler
 112              		.syntax unified
 113              		.thumb
 114              		.thumb_func
 116              	BusFault_Handler:
 117              	.LFB129:
  73:./User/stm32f4xx_it.c ****   {
  74:./User/stm32f4xx_it.c ****   }
  75:./User/stm32f4xx_it.c **** }
  76:./User/stm32f4xx_it.c **** 
  77:./User/stm32f4xx_it.c **** /**
  78:./User/stm32f4xx_it.c ****   * @brief  This function handles Bus Fault exception.
  79:./User/stm32f4xx_it.c ****   * @param  None
  80:./User/stm32f4xx_it.c ****   * @retval None
  81:./User/stm32f4xx_it.c ****   */
  82:./User/stm32f4xx_it.c **** void BusFault_Handler(void)
  83:./User/stm32f4xx_it.c **** {
 118              		.loc 1 83 1
 119              		.cfi_startproc
 120              		@ args = 0, pretend = 0, frame = 0
 121              		@ frame_needed = 1, uses_anonymous_args = 0
 122              		@ link register save eliminated.
 123 0000 80B4     		push	{r7}
 124              	.LCFI8:
 125              		.cfi_def_cfa_offset 4
 126              		.cfi_offset 7, -4
 127 0002 00AF     		add	r7, sp, #0
 128              	.LCFI9:
 129              		.cfi_def_cfa_register 7
 130              	.L7:
  84:./User/stm32f4xx_it.c ****   /* Go to infinite loop when Bus Fault exception occurs */
  85:./User/stm32f4xx_it.c ****   while (1)
 131              		.loc 1 85 9 discriminator 1
 132 0004 FEE7     		b	.L7
 133              		.cfi_endproc
 134              	.LFE129:
 136              		.section	.text.UsageFault_Handler,"ax",%progbits
 137              		.align	1
 138              		.global	UsageFault_Handler
 139              		.syntax unified
 140              		.thumb
 141              		.thumb_func
 143              	UsageFault_Handler:
 144              	.LFB130:
  86:./User/stm32f4xx_it.c ****   {
  87:./User/stm32f4xx_it.c ****   }
  88:./User/stm32f4xx_it.c **** }
  89:./User/stm32f4xx_it.c **** 
  90:./User/stm32f4xx_it.c **** /**
  91:./User/stm32f4xx_it.c ****   * @brief  This function handles Usage Fault exception.
  92:./User/stm32f4xx_it.c ****   * @param  None
  93:./User/stm32f4xx_it.c ****   * @retval None
ARM GAS  /var/folders/yl/_q9l42k90g1g4mdhbs226msm0000gn/T//ccbd40Re.s 			page 5


  94:./User/stm32f4xx_it.c ****   */
  95:./User/stm32f4xx_it.c **** void UsageFault_Handler(void)
  96:./User/stm32f4xx_it.c **** {
 145              		.loc 1 96 1
 146              		.cfi_startproc
 147              		@ args = 0, pretend = 0, frame = 0
 148              		@ frame_needed = 1, uses_anonymous_args = 0
 149              		@ link register save eliminated.
 150 0000 80B4     		push	{r7}
 151              	.LCFI10:
 152              		.cfi_def_cfa_offset 4
 153              		.cfi_offset 7, -4
 154 0002 00AF     		add	r7, sp, #0
 155              	.LCFI11:
 156              		.cfi_def_cfa_register 7
 157              	.L9:
  97:./User/stm32f4xx_it.c ****   /* Go to infinite loop when Usage Fault exception occurs */
  98:./User/stm32f4xx_it.c ****   while (1)
 158              		.loc 1 98 9 discriminator 1
 159 0004 FEE7     		b	.L9
 160              		.cfi_endproc
 161              	.LFE130:
 163              		.section	.text.SVC_Handler,"ax",%progbits
 164              		.align	1
 165              		.global	SVC_Handler
 166              		.syntax unified
 167              		.thumb
 168              		.thumb_func
 170              	SVC_Handler:
 171              	.LFB131:
  99:./User/stm32f4xx_it.c ****   {
 100:./User/stm32f4xx_it.c ****   }
 101:./User/stm32f4xx_it.c **** }
 102:./User/stm32f4xx_it.c **** 
 103:./User/stm32f4xx_it.c **** /**
 104:./User/stm32f4xx_it.c ****   * @brief  This function handles SVCall exception.
 105:./User/stm32f4xx_it.c ****   * @param  None
 106:./User/stm32f4xx_it.c ****   * @retval None
 107:./User/stm32f4xx_it.c ****   */
 108:./User/stm32f4xx_it.c **** void SVC_Handler(void)
 109:./User/stm32f4xx_it.c **** {
 172              		.loc 1 109 1
 173              		.cfi_startproc
 174              		@ args = 0, pretend = 0, frame = 0
 175              		@ frame_needed = 1, uses_anonymous_args = 0
 176              		@ link register save eliminated.
 177 0000 80B4     		push	{r7}
 178              	.LCFI12:
 179              		.cfi_def_cfa_offset 4
 180              		.cfi_offset 7, -4
 181 0002 00AF     		add	r7, sp, #0
 182              	.LCFI13:
 183              		.cfi_def_cfa_register 7
 110:./User/stm32f4xx_it.c **** }
 184              		.loc 1 110 1
 185 0004 00BF     		nop
 186 0006 BD46     		mov	sp, r7
ARM GAS  /var/folders/yl/_q9l42k90g1g4mdhbs226msm0000gn/T//ccbd40Re.s 			page 6


 187              	.LCFI14:
 188              		.cfi_def_cfa_register 13
 189              		@ sp needed
 190 0008 5DF8047B 		ldr	r7, [sp], #4
 191              	.LCFI15:
 192              		.cfi_restore 7
 193              		.cfi_def_cfa_offset 0
 194 000c 7047     		bx	lr
 195              		.cfi_endproc
 196              	.LFE131:
 198              		.section	.text.DebugMon_Handler,"ax",%progbits
 199              		.align	1
 200              		.global	DebugMon_Handler
 201              		.syntax unified
 202              		.thumb
 203              		.thumb_func
 205              	DebugMon_Handler:
 206              	.LFB132:
 111:./User/stm32f4xx_it.c **** 
 112:./User/stm32f4xx_it.c **** /**
 113:./User/stm32f4xx_it.c ****   * @brief  This function handles Debug Monitor exception.
 114:./User/stm32f4xx_it.c ****   * @param  None
 115:./User/stm32f4xx_it.c ****   * @retval None
 116:./User/stm32f4xx_it.c ****   */
 117:./User/stm32f4xx_it.c **** void DebugMon_Handler(void)
 118:./User/stm32f4xx_it.c **** {
 207              		.loc 1 118 1
 208              		.cfi_startproc
 209              		@ args = 0, pretend = 0, frame = 0
 210              		@ frame_needed = 1, uses_anonymous_args = 0
 211              		@ link register save eliminated.
 212 0000 80B4     		push	{r7}
 213              	.LCFI16:
 214              		.cfi_def_cfa_offset 4
 215              		.cfi_offset 7, -4
 216 0002 00AF     		add	r7, sp, #0
 217              	.LCFI17:
 218              		.cfi_def_cfa_register 7
 119:./User/stm32f4xx_it.c **** }
 219              		.loc 1 119 1
 220 0004 00BF     		nop
 221 0006 BD46     		mov	sp, r7
 222              	.LCFI18:
 223              		.cfi_def_cfa_register 13
 224              		@ sp needed
 225 0008 5DF8047B 		ldr	r7, [sp], #4
 226              	.LCFI19:
 227              		.cfi_restore 7
 228              		.cfi_def_cfa_offset 0
 229 000c 7047     		bx	lr
 230              		.cfi_endproc
 231              	.LFE132:
 233              		.section	.text.PendSV_Handler,"ax",%progbits
 234              		.align	1
 235              		.global	PendSV_Handler
 236              		.syntax unified
 237              		.thumb
ARM GAS  /var/folders/yl/_q9l42k90g1g4mdhbs226msm0000gn/T//ccbd40Re.s 			page 7


 238              		.thumb_func
 240              	PendSV_Handler:
 241              	.LFB133:
 120:./User/stm32f4xx_it.c **** 
 121:./User/stm32f4xx_it.c **** /**
 122:./User/stm32f4xx_it.c ****   * @brief  This function handles PendSVC exception.
 123:./User/stm32f4xx_it.c ****   * @param  None
 124:./User/stm32f4xx_it.c ****   * @retval None
 125:./User/stm32f4xx_it.c ****   */
 126:./User/stm32f4xx_it.c **** void PendSV_Handler(void)
 127:./User/stm32f4xx_it.c **** {
 242              		.loc 1 127 1
 243              		.cfi_startproc
 244              		@ args = 0, pretend = 0, frame = 0
 245              		@ frame_needed = 1, uses_anonymous_args = 0
 246              		@ link register save eliminated.
 247 0000 80B4     		push	{r7}
 248              	.LCFI20:
 249              		.cfi_def_cfa_offset 4
 250              		.cfi_offset 7, -4
 251 0002 00AF     		add	r7, sp, #0
 252              	.LCFI21:
 253              		.cfi_def_cfa_register 7
 128:./User/stm32f4xx_it.c **** }
 254              		.loc 1 128 1
 255 0004 00BF     		nop
 256 0006 BD46     		mov	sp, r7
 257              	.LCFI22:
 258              		.cfi_def_cfa_register 13
 259              		@ sp needed
 260 0008 5DF8047B 		ldr	r7, [sp], #4
 261              	.LCFI23:
 262              		.cfi_restore 7
 263              		.cfi_def_cfa_offset 0
 264 000c 7047     		bx	lr
 265              		.cfi_endproc
 266              	.LFE133:
 268              		.section	.text.SysTick_Handler,"ax",%progbits
 269              		.align	1
 270              		.global	SysTick_Handler
 271              		.syntax unified
 272              		.thumb
 273              		.thumb_func
 275              	SysTick_Handler:
 276              	.LFB134:
 129:./User/stm32f4xx_it.c **** 
 130:./User/stm32f4xx_it.c **** /**
 131:./User/stm32f4xx_it.c ****   * @brief  This function handles SysTick Handler.
 132:./User/stm32f4xx_it.c ****   * @param  None
 133:./User/stm32f4xx_it.c ****   * @retval None
 134:./User/stm32f4xx_it.c ****   */
 135:./User/stm32f4xx_it.c **** void SysTick_Handler(void)
 136:./User/stm32f4xx_it.c **** {
 277              		.loc 1 136 1
 278              		.cfi_startproc
 279              		@ args = 0, pretend = 0, frame = 0
 280              		@ frame_needed = 1, uses_anonymous_args = 0
ARM GAS  /var/folders/yl/_q9l42k90g1g4mdhbs226msm0000gn/T//ccbd40Re.s 			page 8


 281 0000 80B5     		push	{r7, lr}
 282              	.LCFI24:
 283              		.cfi_def_cfa_offset 8
 284              		.cfi_offset 7, -8
 285              		.cfi_offset 14, -4
 286 0002 00AF     		add	r7, sp, #0
 287              	.LCFI25:
 288              		.cfi_def_cfa_register 7
 137:./User/stm32f4xx_it.c ****   TimingDelay_Decrement();
 289              		.loc 1 137 3
 290 0004 FFF7FEFF 		bl	TimingDelay_Decrement
 138:./User/stm32f4xx_it.c **** }
 291              		.loc 1 138 1
 292 0008 00BF     		nop
 293 000a 80BD     		pop	{r7, pc}
 294              		.cfi_endproc
 295              	.LFE134:
 297              		.text
 298              	.Letext0:
ARM GAS  /var/folders/yl/_q9l42k90g1g4mdhbs226msm0000gn/T//ccbd40Re.s 			page 9


DEFINED SYMBOLS
                            *ABS*:0000000000000000 stm32f4xx_it.c
/var/folders/yl/_q9l42k90g1g4mdhbs226msm0000gn/T//ccbd40Re.s:20     .text.NMI_Handler:0000000000000000 $t
/var/folders/yl/_q9l42k90g1g4mdhbs226msm0000gn/T//ccbd40Re.s:26     .text.NMI_Handler:0000000000000000 NMI_Handler
/var/folders/yl/_q9l42k90g1g4mdhbs226msm0000gn/T//ccbd40Re.s:56     .text.HardFault_Handler:0000000000000000 $t
/var/folders/yl/_q9l42k90g1g4mdhbs226msm0000gn/T//ccbd40Re.s:62     .text.HardFault_Handler:0000000000000000 HardFault_Handler
/var/folders/yl/_q9l42k90g1g4mdhbs226msm0000gn/T//ccbd40Re.s:83     .text.MemManage_Handler:0000000000000000 $t
/var/folders/yl/_q9l42k90g1g4mdhbs226msm0000gn/T//ccbd40Re.s:89     .text.MemManage_Handler:0000000000000000 MemManage_Handler
/var/folders/yl/_q9l42k90g1g4mdhbs226msm0000gn/T//ccbd40Re.s:110    .text.BusFault_Handler:0000000000000000 $t
/var/folders/yl/_q9l42k90g1g4mdhbs226msm0000gn/T//ccbd40Re.s:116    .text.BusFault_Handler:0000000000000000 BusFault_Handler
/var/folders/yl/_q9l42k90g1g4mdhbs226msm0000gn/T//ccbd40Re.s:137    .text.UsageFault_Handler:0000000000000000 $t
/var/folders/yl/_q9l42k90g1g4mdhbs226msm0000gn/T//ccbd40Re.s:143    .text.UsageFault_Handler:0000000000000000 UsageFault_Handler
/var/folders/yl/_q9l42k90g1g4mdhbs226msm0000gn/T//ccbd40Re.s:164    .text.SVC_Handler:0000000000000000 $t
/var/folders/yl/_q9l42k90g1g4mdhbs226msm0000gn/T//ccbd40Re.s:170    .text.SVC_Handler:0000000000000000 SVC_Handler
/var/folders/yl/_q9l42k90g1g4mdhbs226msm0000gn/T//ccbd40Re.s:199    .text.DebugMon_Handler:0000000000000000 $t
/var/folders/yl/_q9l42k90g1g4mdhbs226msm0000gn/T//ccbd40Re.s:205    .text.DebugMon_Handler:0000000000000000 DebugMon_Handler
/var/folders/yl/_q9l42k90g1g4mdhbs226msm0000gn/T//ccbd40Re.s:234    .text.PendSV_Handler:0000000000000000 $t
/var/folders/yl/_q9l42k90g1g4mdhbs226msm0000gn/T//ccbd40Re.s:240    .text.PendSV_Handler:0000000000000000 PendSV_Handler
/var/folders/yl/_q9l42k90g1g4mdhbs226msm0000gn/T//ccbd40Re.s:269    .text.SysTick_Handler:0000000000000000 $t
/var/folders/yl/_q9l42k90g1g4mdhbs226msm0000gn/T//ccbd40Re.s:275    .text.SysTick_Handler:0000000000000000 SysTick_Handler

UNDEFINED SYMBOLS
TimingDelay_Decrement
