ARM GAS  /var/folders/yl/_q9l42k90g1g4mdhbs226msm0000gn/T//cczyCFlE.s 			page 1


   1              		.cpu cortex-m4
   2              		.arch armv7e-m
   3              		.fpu fpv4-sp-d16
   4              		.eabi_attribute 27, 1
   5              		.eabi_attribute 28, 1
   6              		.eabi_attribute 20, 1
   7              		.eabi_attribute 21, 1
   8              		.eabi_attribute 23, 3
   9              		.eabi_attribute 24, 1
  10              		.eabi_attribute 25, 1
  11              		.eabi_attribute 26, 1
  12              		.eabi_attribute 30, 6
  13              		.eabi_attribute 34, 1
  14              		.eabi_attribute 18, 4
  15              		.file	"stm32f4xx_sdio.c"
  16              		.text
  17              	.Ltext0:
  18              		.cfi_sections	.debug_frame
  19              		.section	.text.SDIO_DeInit,"ax",%progbits
  20              		.align	1
  21              		.global	SDIO_DeInit
  22              		.syntax unified
  23              		.thumb
  24              		.thumb_func
  26              	SDIO_DeInit:
  27              	.LFB123:
  28              		.file 1 "./Library/stm32f4xx_sdio.c"
   1:./Library/stm32f4xx_sdio.c **** /**
   2:./Library/stm32f4xx_sdio.c ****   ******************************************************************************
   3:./Library/stm32f4xx_sdio.c ****   * @file    stm32f4xx_sdio.c
   4:./Library/stm32f4xx_sdio.c ****   * @author  MCD Application Team
   5:./Library/stm32f4xx_sdio.c ****   * @version V1.8.1
   6:./Library/stm32f4xx_sdio.c ****   * @date    27-January-2022
   7:./Library/stm32f4xx_sdio.c ****   * @brief   This file provides firmware functions to manage the following 
   8:./Library/stm32f4xx_sdio.c ****   *          functionalities of the Secure digital input/output interface (SDIO) 
   9:./Library/stm32f4xx_sdio.c ****   *          peripheral:
  10:./Library/stm32f4xx_sdio.c ****   *           + Initialization and Configuration
  11:./Library/stm32f4xx_sdio.c ****   *           + Command path state machine (CPSM) management
  12:./Library/stm32f4xx_sdio.c ****   *           + Data path state machine (DPSM) management
  13:./Library/stm32f4xx_sdio.c ****   *           + SDIO IO Cards mode management
  14:./Library/stm32f4xx_sdio.c ****   *           + CE-ATA mode management
  15:./Library/stm32f4xx_sdio.c ****   *           + DMA transfers management
  16:./Library/stm32f4xx_sdio.c ****   *           + Interrupts and flags management
  17:./Library/stm32f4xx_sdio.c ****   *
  18:./Library/stm32f4xx_sdio.c **** @verbatim
  19:./Library/stm32f4xx_sdio.c **** 
  20:./Library/stm32f4xx_sdio.c ****  ===================================================================
  21:./Library/stm32f4xx_sdio.c ****                  ##### How to use this driver #####
  22:./Library/stm32f4xx_sdio.c ****  ===================================================================
  23:./Library/stm32f4xx_sdio.c ****  [..]
  24:./Library/stm32f4xx_sdio.c ****    (#) The SDIO clock (SDIOCLK = 48 MHz) is coming from a specific output of PLL 
  25:./Library/stm32f4xx_sdio.c ****        (PLL48CLK). Before to start working with SDIO peripheral make sure that the
  26:./Library/stm32f4xx_sdio.c ****        PLL is well configured.
  27:./Library/stm32f4xx_sdio.c ****        The SDIO peripheral uses two clock signals:
  28:./Library/stm32f4xx_sdio.c ****        (++) SDIO adapter clock (SDIOCLK = 48 MHz)
  29:./Library/stm32f4xx_sdio.c ****        (++) APB2 bus clock (PCLK2)
  30:./Library/stm32f4xx_sdio.c ****        
ARM GAS  /var/folders/yl/_q9l42k90g1g4mdhbs226msm0000gn/T//cczyCFlE.s 			page 2


  31:./Library/stm32f4xx_sdio.c ****        -@@- PCLK2 and SDIO_CK clock frequencies must respect the following condition:
  32:./Library/stm32f4xx_sdio.c ****            Frequency(PCLK2) >= (3 / 8 x Frequency(SDIO_CK))
  33:./Library/stm32f4xx_sdio.c ****   
  34:./Library/stm32f4xx_sdio.c ****    (#) Enable peripheral clock using RCC_APB2PeriphClockCmd(RCC_APB2Periph_SDIO, ENABLE).
  35:./Library/stm32f4xx_sdio.c ****   
  36:./Library/stm32f4xx_sdio.c ****    (#) According to the SDIO mode, enable the GPIO clocks using 
  37:./Library/stm32f4xx_sdio.c ****        RCC_AHB1PeriphClockCmd() function. 
  38:./Library/stm32f4xx_sdio.c ****        The I/O can be one of the following configurations:
  39:./Library/stm32f4xx_sdio.c ****        (++) 1-bit data length: SDIO_CMD, SDIO_CK and D0.
  40:./Library/stm32f4xx_sdio.c ****        (++) 4-bit data length: SDIO_CMD, SDIO_CK and D[3:0].
  41:./Library/stm32f4xx_sdio.c ****        (++) 8-bit data length: SDIO_CMD, SDIO_CK and D[7:0].      
  42:./Library/stm32f4xx_sdio.c ****   
  43:./Library/stm32f4xx_sdio.c ****    (#) Peripheral alternate function: 
  44:./Library/stm32f4xx_sdio.c ****        (++) Connect the pin to the desired peripherals' Alternate Function (AF) 
  45:./Library/stm32f4xx_sdio.c ****            using GPIO_PinAFConfig() function
  46:./Library/stm32f4xx_sdio.c ****        (++) Configure the desired pin in alternate function by: 
  47:./Library/stm32f4xx_sdio.c ****            GPIO_InitStruct->GPIO_Mode = GPIO_Mode_AF
  48:./Library/stm32f4xx_sdio.c ****        (++) Select the type, pull-up/pull-down and output speed via GPIO_PuPd, 
  49:./Library/stm32f4xx_sdio.c ****            GPIO_OType and GPIO_Speed members
  50:./Library/stm32f4xx_sdio.c ****        (++) Call GPIO_Init() function
  51:./Library/stm32f4xx_sdio.c ****   
  52:./Library/stm32f4xx_sdio.c ****    (#) Program the Clock Edge, Clock Bypass, Clock Power Save, Bus Wide, 
  53:./Library/stm32f4xx_sdio.c ****        hardware, flow control and the Clock Divider using the SDIO_Init()
  54:./Library/stm32f4xx_sdio.c ****        function.
  55:./Library/stm32f4xx_sdio.c ****   
  56:./Library/stm32f4xx_sdio.c ****    (#) Enable the Power ON State using the SDIO_SetPowerState(SDIO_PowerState_ON) 
  57:./Library/stm32f4xx_sdio.c ****        function.
  58:./Library/stm32f4xx_sdio.c ****                 
  59:./Library/stm32f4xx_sdio.c ****    (#) Enable the clock using the SDIO_ClockCmd() function.
  60:./Library/stm32f4xx_sdio.c ****   
  61:./Library/stm32f4xx_sdio.c ****    (#) Enable the NVIC and the corresponding interrupt using the function 
  62:./Library/stm32f4xx_sdio.c ****        SDIO_ITConfig() if you need to use interrupt mode. 
  63:./Library/stm32f4xx_sdio.c ****   
  64:./Library/stm32f4xx_sdio.c ****    (#) When using the DMA mode 
  65:./Library/stm32f4xx_sdio.c ****        (++) Configure the DMA using DMA_Init() function
  66:./Library/stm32f4xx_sdio.c ****        (++) Active the needed channel Request using SDIO_DMACmd() function
  67:./Library/stm32f4xx_sdio.c ****   
  68:./Library/stm32f4xx_sdio.c ****    (#) Enable the DMA using the DMA_Cmd() function, when using DMA mode. 
  69:./Library/stm32f4xx_sdio.c ****   
  70:./Library/stm32f4xx_sdio.c ****    (#) To control the CPSM (Command Path State Machine) and send 
  71:./Library/stm32f4xx_sdio.c ****        commands to the card use the SDIO_SendCommand(), 
  72:./Library/stm32f4xx_sdio.c ****        SDIO_GetCommandResponse() and SDIO_GetResponse() functions. First, user has
  73:./Library/stm32f4xx_sdio.c ****        to fill the command structure (pointer to SDIO_CmdInitTypeDef) according 
  74:./Library/stm32f4xx_sdio.c ****        to the selected command to be sent.
  75:./Library/stm32f4xx_sdio.c ****        The parameters that should be filled are:
  76:./Library/stm32f4xx_sdio.c ****        (++) Command Argument
  77:./Library/stm32f4xx_sdio.c ****        (++) Command Index
  78:./Library/stm32f4xx_sdio.c ****        (++) Command Response type
  79:./Library/stm32f4xx_sdio.c ****        (++) Command Wait
  80:./Library/stm32f4xx_sdio.c ****        (++) CPSM Status (Enable or Disable).
  81:./Library/stm32f4xx_sdio.c ****   
  82:./Library/stm32f4xx_sdio.c ****        -@@- To check if the command is well received, read the SDIO_CMDRESP
  83:./Library/stm32f4xx_sdio.c ****            register using the SDIO_GetCommandResponse().
  84:./Library/stm32f4xx_sdio.c ****            The SDIO responses registers (SDIO_RESP1 to SDIO_RESP2), use the
  85:./Library/stm32f4xx_sdio.c ****            SDIO_GetResponse() function.
  86:./Library/stm32f4xx_sdio.c ****   
  87:./Library/stm32f4xx_sdio.c ****    (#) To control the DPSM (Data Path State Machine) and send/receive 
ARM GAS  /var/folders/yl/_q9l42k90g1g4mdhbs226msm0000gn/T//cczyCFlE.s 			page 3


  88:./Library/stm32f4xx_sdio.c ****        data to/from the card use the SDIO_DataConfig(), SDIO_GetDataCounter(), 
  89:./Library/stm32f4xx_sdio.c ****        SDIO_ReadData(), SDIO_WriteData() and SDIO_GetFIFOCount() functions.
  90:./Library/stm32f4xx_sdio.c ****   
  91:./Library/stm32f4xx_sdio.c ****  *** Read Operations ***
  92:./Library/stm32f4xx_sdio.c ****  =======================
  93:./Library/stm32f4xx_sdio.c ****  [..]
  94:./Library/stm32f4xx_sdio.c ****    (#) First, user has to fill the data structure (pointer to
  95:./Library/stm32f4xx_sdio.c ****        SDIO_DataInitTypeDef) according to the selected data type to be received.
  96:./Library/stm32f4xx_sdio.c ****        The parameters that should be filled are:
  97:./Library/stm32f4xx_sdio.c ****        (++) Data TimeOut
  98:./Library/stm32f4xx_sdio.c ****        (++) Data Length
  99:./Library/stm32f4xx_sdio.c ****        (++) Data Block size
 100:./Library/stm32f4xx_sdio.c ****        (++) Data Transfer direction: should be from card (To SDIO)
 101:./Library/stm32f4xx_sdio.c ****        (++) Data Transfer mode
 102:./Library/stm32f4xx_sdio.c ****        (++) DPSM Status (Enable or Disable)
 103:./Library/stm32f4xx_sdio.c ****                                      
 104:./Library/stm32f4xx_sdio.c ****    (#) Configure the SDIO resources to receive the data from the card
 105:./Library/stm32f4xx_sdio.c ****        according to selected transfer mode (Refer to Step 8, 9 and 10).
 106:./Library/stm32f4xx_sdio.c ****   
 107:./Library/stm32f4xx_sdio.c ****    (#)  Send the selected Read command (refer to step 11).
 108:./Library/stm32f4xx_sdio.c ****                     
 109:./Library/stm32f4xx_sdio.c ****    (#) Use the SDIO flags/interrupts to check the transfer status.
 110:./Library/stm32f4xx_sdio.c ****   
 111:./Library/stm32f4xx_sdio.c ****  *** Write Operations ***
 112:./Library/stm32f4xx_sdio.c ****  ========================
 113:./Library/stm32f4xx_sdio.c ****  [..]
 114:./Library/stm32f4xx_sdio.c ****    (#) First, user has to fill the data structure (pointer to
 115:./Library/stm32f4xx_sdio.c ****        SDIO_DataInitTypeDef) according to the selected data type to be received.
 116:./Library/stm32f4xx_sdio.c ****        The parameters that should be filled are:
 117:./Library/stm32f4xx_sdio.c ****        (++) Data TimeOut
 118:./Library/stm32f4xx_sdio.c ****        (++) Data Length
 119:./Library/stm32f4xx_sdio.c ****        (++) Data Block size
 120:./Library/stm32f4xx_sdio.c ****        (++) Data Transfer direction:  should be to card (To CARD)
 121:./Library/stm32f4xx_sdio.c ****        (++) Data Transfer mode
 122:./Library/stm32f4xx_sdio.c ****        (++) DPSM Status (Enable or Disable)
 123:./Library/stm32f4xx_sdio.c ****   
 124:./Library/stm32f4xx_sdio.c ****    (#) Configure the SDIO resources to send the data to the card according to 
 125:./Library/stm32f4xx_sdio.c ****        selected transfer mode (Refer to Step 8, 9 and 10).
 126:./Library/stm32f4xx_sdio.c ****                      
 127:./Library/stm32f4xx_sdio.c ****    (#) Send the selected Write command (refer to step 11).
 128:./Library/stm32f4xx_sdio.c ****                     
 129:./Library/stm32f4xx_sdio.c ****    (#) Use the SDIO flags/interrupts to check the transfer status.
 130:./Library/stm32f4xx_sdio.c ****   
 131:./Library/stm32f4xx_sdio.c ****   
 132:./Library/stm32f4xx_sdio.c **** @endverbatim
 133:./Library/stm32f4xx_sdio.c ****   *
 134:./Library/stm32f4xx_sdio.c ****   *
 135:./Library/stm32f4xx_sdio.c ****   ******************************************************************************
 136:./Library/stm32f4xx_sdio.c ****   * @attention
 137:./Library/stm32f4xx_sdio.c ****   *
 138:./Library/stm32f4xx_sdio.c ****   * Copyright (c) 2016 STMicroelectronics.
 139:./Library/stm32f4xx_sdio.c ****   * All rights reserved.
 140:./Library/stm32f4xx_sdio.c ****   *
 141:./Library/stm32f4xx_sdio.c ****   * This software is licensed under terms that can be found in the LICENSE file
 142:./Library/stm32f4xx_sdio.c ****   * in the root directory of this software component.
 143:./Library/stm32f4xx_sdio.c ****   * If no LICENSE file comes with this software, it is provided AS-IS.
 144:./Library/stm32f4xx_sdio.c ****   *
ARM GAS  /var/folders/yl/_q9l42k90g1g4mdhbs226msm0000gn/T//cczyCFlE.s 			page 4


 145:./Library/stm32f4xx_sdio.c ****   ******************************************************************************
 146:./Library/stm32f4xx_sdio.c ****   */
 147:./Library/stm32f4xx_sdio.c **** 
 148:./Library/stm32f4xx_sdio.c **** /* Includes ------------------------------------------------------------------*/
 149:./Library/stm32f4xx_sdio.c **** #include "stm32f4xx_sdio.h"
 150:./Library/stm32f4xx_sdio.c **** #include "stm32f4xx_rcc.h"
 151:./Library/stm32f4xx_sdio.c **** 
 152:./Library/stm32f4xx_sdio.c **** /** @addtogroup STM32F4xx_StdPeriph_Driver
 153:./Library/stm32f4xx_sdio.c ****   * @{
 154:./Library/stm32f4xx_sdio.c ****   */
 155:./Library/stm32f4xx_sdio.c **** 
 156:./Library/stm32f4xx_sdio.c **** /** @defgroup SDIO 
 157:./Library/stm32f4xx_sdio.c ****   * @brief SDIO driver modules
 158:./Library/stm32f4xx_sdio.c ****   * @{
 159:./Library/stm32f4xx_sdio.c ****   */ 
 160:./Library/stm32f4xx_sdio.c **** 
 161:./Library/stm32f4xx_sdio.c **** /* Private typedef -----------------------------------------------------------*/
 162:./Library/stm32f4xx_sdio.c **** /* Private define ------------------------------------------------------------*/
 163:./Library/stm32f4xx_sdio.c **** 
 164:./Library/stm32f4xx_sdio.c **** /* ------------ SDIO registers bit address in the alias region ----------- */
 165:./Library/stm32f4xx_sdio.c **** #define SDIO_OFFSET                (SDIO_BASE - PERIPH_BASE)
 166:./Library/stm32f4xx_sdio.c **** 
 167:./Library/stm32f4xx_sdio.c **** /* --- CLKCR Register ---*/
 168:./Library/stm32f4xx_sdio.c **** /* Alias word address of CLKEN bit */
 169:./Library/stm32f4xx_sdio.c **** #define CLKCR_OFFSET              (SDIO_OFFSET + 0x04)
 170:./Library/stm32f4xx_sdio.c **** #define CLKEN_BitNumber           0x08
 171:./Library/stm32f4xx_sdio.c **** #define CLKCR_CLKEN_BB            (PERIPH_BB_BASE + (CLKCR_OFFSET * 32) + (CLKEN_BitNumber * 4))
 172:./Library/stm32f4xx_sdio.c **** 
 173:./Library/stm32f4xx_sdio.c **** /* --- CMD Register ---*/
 174:./Library/stm32f4xx_sdio.c **** /* Alias word address of SDIOSUSPEND bit */
 175:./Library/stm32f4xx_sdio.c **** #define CMD_OFFSET                (SDIO_OFFSET + 0x0C)
 176:./Library/stm32f4xx_sdio.c **** #define SDIOSUSPEND_BitNumber     0x0B
 177:./Library/stm32f4xx_sdio.c **** #define CMD_SDIOSUSPEND_BB        (PERIPH_BB_BASE + (CMD_OFFSET * 32) + (SDIOSUSPEND_BitNumber * 4)
 178:./Library/stm32f4xx_sdio.c **** 
 179:./Library/stm32f4xx_sdio.c **** /* Alias word address of ENCMDCOMPL bit */
 180:./Library/stm32f4xx_sdio.c **** #define ENCMDCOMPL_BitNumber      0x0C
 181:./Library/stm32f4xx_sdio.c **** #define CMD_ENCMDCOMPL_BB         (PERIPH_BB_BASE + (CMD_OFFSET * 32) + (ENCMDCOMPL_BitNumber * 4))
 182:./Library/stm32f4xx_sdio.c **** 
 183:./Library/stm32f4xx_sdio.c **** /* Alias word address of NIEN bit */
 184:./Library/stm32f4xx_sdio.c **** #define NIEN_BitNumber            0x0D
 185:./Library/stm32f4xx_sdio.c **** #define CMD_NIEN_BB               (PERIPH_BB_BASE + (CMD_OFFSET * 32) + (NIEN_BitNumber * 4))
 186:./Library/stm32f4xx_sdio.c **** 
 187:./Library/stm32f4xx_sdio.c **** /* Alias word address of ATACMD bit */
 188:./Library/stm32f4xx_sdio.c **** #define ATACMD_BitNumber          0x0E
 189:./Library/stm32f4xx_sdio.c **** #define CMD_ATACMD_BB             (PERIPH_BB_BASE + (CMD_OFFSET * 32) + (ATACMD_BitNumber * 4))
 190:./Library/stm32f4xx_sdio.c **** 
 191:./Library/stm32f4xx_sdio.c **** /* --- DCTRL Register ---*/
 192:./Library/stm32f4xx_sdio.c **** /* Alias word address of DMAEN bit */
 193:./Library/stm32f4xx_sdio.c **** #define DCTRL_OFFSET              (SDIO_OFFSET + 0x2C)
 194:./Library/stm32f4xx_sdio.c **** #define DMAEN_BitNumber           0x03
 195:./Library/stm32f4xx_sdio.c **** #define DCTRL_DMAEN_BB            (PERIPH_BB_BASE + (DCTRL_OFFSET * 32) + (DMAEN_BitNumber * 4))
 196:./Library/stm32f4xx_sdio.c **** 
 197:./Library/stm32f4xx_sdio.c **** /* Alias word address of RWSTART bit */
 198:./Library/stm32f4xx_sdio.c **** #define RWSTART_BitNumber         0x08
 199:./Library/stm32f4xx_sdio.c **** #define DCTRL_RWSTART_BB          (PERIPH_BB_BASE + (DCTRL_OFFSET * 32) + (RWSTART_BitNumber * 4))
 200:./Library/stm32f4xx_sdio.c **** 
 201:./Library/stm32f4xx_sdio.c **** /* Alias word address of RWSTOP bit */
ARM GAS  /var/folders/yl/_q9l42k90g1g4mdhbs226msm0000gn/T//cczyCFlE.s 			page 5


 202:./Library/stm32f4xx_sdio.c **** #define RWSTOP_BitNumber          0x09
 203:./Library/stm32f4xx_sdio.c **** #define DCTRL_RWSTOP_BB           (PERIPH_BB_BASE + (DCTRL_OFFSET * 32) + (RWSTOP_BitNumber * 4))
 204:./Library/stm32f4xx_sdio.c **** 
 205:./Library/stm32f4xx_sdio.c **** /* Alias word address of RWMOD bit */
 206:./Library/stm32f4xx_sdio.c **** #define RWMOD_BitNumber           0x0A
 207:./Library/stm32f4xx_sdio.c **** #define DCTRL_RWMOD_BB            (PERIPH_BB_BASE + (DCTRL_OFFSET * 32) + (RWMOD_BitNumber * 4))
 208:./Library/stm32f4xx_sdio.c **** 
 209:./Library/stm32f4xx_sdio.c **** /* Alias word address of SDIOEN bit */
 210:./Library/stm32f4xx_sdio.c **** #define SDIOEN_BitNumber          0x0B
 211:./Library/stm32f4xx_sdio.c **** #define DCTRL_SDIOEN_BB           (PERIPH_BB_BASE + (DCTRL_OFFSET * 32) + (SDIOEN_BitNumber * 4))
 212:./Library/stm32f4xx_sdio.c **** 
 213:./Library/stm32f4xx_sdio.c **** /* ---------------------- SDIO registers bit mask ------------------------ */
 214:./Library/stm32f4xx_sdio.c **** /* --- CLKCR Register ---*/
 215:./Library/stm32f4xx_sdio.c **** /* CLKCR register clear mask */
 216:./Library/stm32f4xx_sdio.c **** #define CLKCR_CLEAR_MASK         ((uint32_t)0xFFFF8100) 
 217:./Library/stm32f4xx_sdio.c **** 
 218:./Library/stm32f4xx_sdio.c **** /* --- PWRCTRL Register ---*/
 219:./Library/stm32f4xx_sdio.c **** /* SDIO PWRCTRL Mask */
 220:./Library/stm32f4xx_sdio.c **** #define PWR_PWRCTRL_MASK         ((uint32_t)0xFFFFFFFC)
 221:./Library/stm32f4xx_sdio.c **** 
 222:./Library/stm32f4xx_sdio.c **** /* --- DCTRL Register ---*/
 223:./Library/stm32f4xx_sdio.c **** /* SDIO DCTRL Clear Mask */
 224:./Library/stm32f4xx_sdio.c **** #define DCTRL_CLEAR_MASK         ((uint32_t)0xFFFFFF08)
 225:./Library/stm32f4xx_sdio.c **** 
 226:./Library/stm32f4xx_sdio.c **** /* --- CMD Register ---*/
 227:./Library/stm32f4xx_sdio.c **** /* CMD Register clear mask */
 228:./Library/stm32f4xx_sdio.c **** #define CMD_CLEAR_MASK           ((uint32_t)0xFFFFF800)
 229:./Library/stm32f4xx_sdio.c **** 
 230:./Library/stm32f4xx_sdio.c **** /* SDIO RESP Registers Address */
 231:./Library/stm32f4xx_sdio.c **** #define SDIO_RESP_ADDR           ((uint32_t)(SDIO_BASE + 0x14))
 232:./Library/stm32f4xx_sdio.c **** 
 233:./Library/stm32f4xx_sdio.c **** /* Private macro -------------------------------------------------------------*/
 234:./Library/stm32f4xx_sdio.c **** /* Private variables ---------------------------------------------------------*/
 235:./Library/stm32f4xx_sdio.c **** /* Private function prototypes -----------------------------------------------*/
 236:./Library/stm32f4xx_sdio.c **** /* Private functions ---------------------------------------------------------*/
 237:./Library/stm32f4xx_sdio.c **** 
 238:./Library/stm32f4xx_sdio.c **** /** @defgroup SDIO_Private_Functions
 239:./Library/stm32f4xx_sdio.c ****   * @{
 240:./Library/stm32f4xx_sdio.c ****   */
 241:./Library/stm32f4xx_sdio.c **** 
 242:./Library/stm32f4xx_sdio.c **** /** @defgroup SDIO_Group1 Initialization and Configuration functions
 243:./Library/stm32f4xx_sdio.c ****  *  @brief   Initialization and Configuration functions 
 244:./Library/stm32f4xx_sdio.c ****  *
 245:./Library/stm32f4xx_sdio.c **** @verbatim   
 246:./Library/stm32f4xx_sdio.c ****  ===============================================================================
 247:./Library/stm32f4xx_sdio.c ****               ##### Initialization and Configuration functions #####
 248:./Library/stm32f4xx_sdio.c ****  ===============================================================================
 249:./Library/stm32f4xx_sdio.c **** 
 250:./Library/stm32f4xx_sdio.c **** @endverbatim
 251:./Library/stm32f4xx_sdio.c ****   * @{
 252:./Library/stm32f4xx_sdio.c ****   */
 253:./Library/stm32f4xx_sdio.c **** 
 254:./Library/stm32f4xx_sdio.c **** /**
 255:./Library/stm32f4xx_sdio.c ****   * @brief  Deinitializes the SDIO peripheral registers to their default reset values.
 256:./Library/stm32f4xx_sdio.c ****   * @param  None
 257:./Library/stm32f4xx_sdio.c ****   * @retval None
 258:./Library/stm32f4xx_sdio.c ****   */
ARM GAS  /var/folders/yl/_q9l42k90g1g4mdhbs226msm0000gn/T//cczyCFlE.s 			page 6


 259:./Library/stm32f4xx_sdio.c **** void SDIO_DeInit(void)
 260:./Library/stm32f4xx_sdio.c **** {
  29              		.loc 1 260 1
  30              		.cfi_startproc
  31              		@ args = 0, pretend = 0, frame = 0
  32              		@ frame_needed = 1, uses_anonymous_args = 0
  33 0000 80B5     		push	{r7, lr}
  34              	.LCFI0:
  35              		.cfi_def_cfa_offset 8
  36              		.cfi_offset 7, -8
  37              		.cfi_offset 14, -4
  38 0002 00AF     		add	r7, sp, #0
  39              	.LCFI1:
  40              		.cfi_def_cfa_register 7
 261:./Library/stm32f4xx_sdio.c ****   RCC_APB2PeriphResetCmd(RCC_APB2Periph_SDIO, ENABLE);
  41              		.loc 1 261 3
  42 0004 0121     		movs	r1, #1
  43 0006 4FF40060 		mov	r0, #2048
  44 000a FFF7FEFF 		bl	RCC_APB2PeriphResetCmd
 262:./Library/stm32f4xx_sdio.c ****   RCC_APB2PeriphResetCmd(RCC_APB2Periph_SDIO, DISABLE);
  45              		.loc 1 262 3
  46 000e 0021     		movs	r1, #0
  47 0010 4FF40060 		mov	r0, #2048
  48 0014 FFF7FEFF 		bl	RCC_APB2PeriphResetCmd
 263:./Library/stm32f4xx_sdio.c **** }
  49              		.loc 1 263 1
  50 0018 00BF     		nop
  51 001a 80BD     		pop	{r7, pc}
  52              		.cfi_endproc
  53              	.LFE123:
  55              		.section	.text.SDIO_Init,"ax",%progbits
  56              		.align	1
  57              		.global	SDIO_Init
  58              		.syntax unified
  59              		.thumb
  60              		.thumb_func
  62              	SDIO_Init:
  63              	.LFB124:
 264:./Library/stm32f4xx_sdio.c **** 
 265:./Library/stm32f4xx_sdio.c **** /**
 266:./Library/stm32f4xx_sdio.c ****   * @brief  Initializes the SDIO peripheral according to the specified 
 267:./Library/stm32f4xx_sdio.c ****   *         parameters in the SDIO_InitStruct.
 268:./Library/stm32f4xx_sdio.c ****   * @param  SDIO_InitStruct : pointer to a SDIO_InitTypeDef structure 
 269:./Library/stm32f4xx_sdio.c ****   *         that contains the configuration information for the SDIO peripheral.
 270:./Library/stm32f4xx_sdio.c ****   * @retval None
 271:./Library/stm32f4xx_sdio.c ****   */
 272:./Library/stm32f4xx_sdio.c **** void SDIO_Init(SDIO_InitTypeDef* SDIO_InitStruct)
 273:./Library/stm32f4xx_sdio.c **** {
  64              		.loc 1 273 1
  65              		.cfi_startproc
  66              		@ args = 0, pretend = 0, frame = 16
  67              		@ frame_needed = 1, uses_anonymous_args = 0
  68              		@ link register save eliminated.
  69 0000 80B4     		push	{r7}
  70              	.LCFI2:
  71              		.cfi_def_cfa_offset 4
  72              		.cfi_offset 7, -4
ARM GAS  /var/folders/yl/_q9l42k90g1g4mdhbs226msm0000gn/T//cczyCFlE.s 			page 7


  73 0002 85B0     		sub	sp, sp, #20
  74              	.LCFI3:
  75              		.cfi_def_cfa_offset 24
  76 0004 00AF     		add	r7, sp, #0
  77              	.LCFI4:
  78              		.cfi_def_cfa_register 7
  79 0006 7860     		str	r0, [r7, #4]
 274:./Library/stm32f4xx_sdio.c ****   uint32_t tmpreg = 0;
  80              		.loc 1 274 12
  81 0008 0023     		movs	r3, #0
  82 000a FB60     		str	r3, [r7, #12]
 275:./Library/stm32f4xx_sdio.c ****     
 276:./Library/stm32f4xx_sdio.c ****   /* Check the parameters */
 277:./Library/stm32f4xx_sdio.c ****   assert_param(IS_SDIO_CLOCK_EDGE(SDIO_InitStruct->SDIO_ClockEdge));
 278:./Library/stm32f4xx_sdio.c ****   assert_param(IS_SDIO_CLOCK_BYPASS(SDIO_InitStruct->SDIO_ClockBypass));
 279:./Library/stm32f4xx_sdio.c ****   assert_param(IS_SDIO_CLOCK_POWER_SAVE(SDIO_InitStruct->SDIO_ClockPowerSave));
 280:./Library/stm32f4xx_sdio.c ****   assert_param(IS_SDIO_BUS_WIDE(SDIO_InitStruct->SDIO_BusWide));
 281:./Library/stm32f4xx_sdio.c ****   assert_param(IS_SDIO_HARDWARE_FLOW_CONTROL(SDIO_InitStruct->SDIO_HardwareFlowControl)); 
 282:./Library/stm32f4xx_sdio.c ****    
 283:./Library/stm32f4xx_sdio.c **** /*---------------------------- SDIO CLKCR Configuration ------------------------*/  
 284:./Library/stm32f4xx_sdio.c ****   /* Get the SDIO CLKCR value */
 285:./Library/stm32f4xx_sdio.c ****   tmpreg = SDIO->CLKCR;
  83              		.loc 1 285 16
  84 000c 134B     		ldr	r3, .L3
  85              		.loc 1 285 10
  86 000e 5B68     		ldr	r3, [r3, #4]
  87 0010 FB60     		str	r3, [r7, #12]
 286:./Library/stm32f4xx_sdio.c ****   
 287:./Library/stm32f4xx_sdio.c ****   /* Clear CLKDIV, PWRSAV, BYPASS, WIDBUS, NEGEDGE, HWFC_EN bits */
 288:./Library/stm32f4xx_sdio.c ****   tmpreg &= CLKCR_CLEAR_MASK;
  88              		.loc 1 288 10
  89 0012 FB68     		ldr	r3, [r7, #12]
  90 0014 23F4FD43 		bic	r3, r3, #32384
  91 0018 23F07F03 		bic	r3, r3, #127
  92 001c FB60     		str	r3, [r7, #12]
 289:./Library/stm32f4xx_sdio.c ****   
 290:./Library/stm32f4xx_sdio.c ****   /* Set CLKDIV bits according to SDIO_ClockDiv value */
 291:./Library/stm32f4xx_sdio.c ****   /* Set PWRSAV bit according to SDIO_ClockPowerSave value */
 292:./Library/stm32f4xx_sdio.c ****   /* Set BYPASS bit according to SDIO_ClockBypass value */
 293:./Library/stm32f4xx_sdio.c ****   /* Set WIDBUS bits according to SDIO_BusWide value */
 294:./Library/stm32f4xx_sdio.c ****   /* Set NEGEDGE bits according to SDIO_ClockEdge value */
 295:./Library/stm32f4xx_sdio.c ****   /* Set HWFC_EN bits according to SDIO_HardwareFlowControl value */
 296:./Library/stm32f4xx_sdio.c ****   tmpreg |= (SDIO_InitStruct->SDIO_ClockDiv  | SDIO_InitStruct->SDIO_ClockPowerSave |
  93              		.loc 1 296 29
  94 001e 7B68     		ldr	r3, [r7, #4]
  95 0020 1B7D     		ldrb	r3, [r3, #20]	@ zero_extendqisi2
  96 0022 1A46     		mov	r2, r3
  97              		.loc 1 296 63
  98 0024 7B68     		ldr	r3, [r7, #4]
  99 0026 9B68     		ldr	r3, [r3, #8]
 100              		.loc 1 296 46
 101 0028 1A43     		orrs	r2, r2, r3
 297:./Library/stm32f4xx_sdio.c ****              SDIO_InitStruct->SDIO_ClockBypass | SDIO_InitStruct->SDIO_BusWide |
 102              		.loc 1 297 29
 103 002a 7B68     		ldr	r3, [r7, #4]
 104 002c 5B68     		ldr	r3, [r3, #4]
 296:./Library/stm32f4xx_sdio.c ****              SDIO_InitStruct->SDIO_ClockBypass | SDIO_InitStruct->SDIO_BusWide |
ARM GAS  /var/folders/yl/_q9l42k90g1g4mdhbs226msm0000gn/T//cczyCFlE.s 			page 8


 105              		.loc 1 296 85
 106 002e 1A43     		orrs	r2, r2, r3
 107              		.loc 1 297 65
 108 0030 7B68     		ldr	r3, [r7, #4]
 109 0032 DB68     		ldr	r3, [r3, #12]
 110              		.loc 1 297 48
 111 0034 1A43     		orrs	r2, r2, r3
 298:./Library/stm32f4xx_sdio.c ****              SDIO_InitStruct->SDIO_ClockEdge | SDIO_InitStruct->SDIO_HardwareFlowControl); 
 112              		.loc 1 298 29
 113 0036 7B68     		ldr	r3, [r7, #4]
 114 0038 1B68     		ldr	r3, [r3]
 297:./Library/stm32f4xx_sdio.c ****              SDIO_InitStruct->SDIO_ClockBypass | SDIO_InitStruct->SDIO_BusWide |
 115              		.loc 1 297 80
 116 003a 1A43     		orrs	r2, r2, r3
 117              		.loc 1 298 63
 118 003c 7B68     		ldr	r3, [r7, #4]
 119 003e 1B69     		ldr	r3, [r3, #16]
 120              		.loc 1 298 46
 121 0040 1343     		orrs	r3, r3, r2
 296:./Library/stm32f4xx_sdio.c ****              SDIO_InitStruct->SDIO_ClockBypass | SDIO_InitStruct->SDIO_BusWide |
 122              		.loc 1 296 10
 123 0042 FA68     		ldr	r2, [r7, #12]
 124 0044 1343     		orrs	r3, r3, r2
 125 0046 FB60     		str	r3, [r7, #12]
 299:./Library/stm32f4xx_sdio.c ****   
 300:./Library/stm32f4xx_sdio.c ****   /* Write to SDIO CLKCR */
 301:./Library/stm32f4xx_sdio.c ****   SDIO->CLKCR = tmpreg;
 126              		.loc 1 301 7
 127 0048 044A     		ldr	r2, .L3
 128              		.loc 1 301 15
 129 004a FB68     		ldr	r3, [r7, #12]
 130 004c 5360     		str	r3, [r2, #4]
 302:./Library/stm32f4xx_sdio.c **** }
 131              		.loc 1 302 1
 132 004e 00BF     		nop
 133 0050 1437     		adds	r7, r7, #20
 134              	.LCFI5:
 135              		.cfi_def_cfa_offset 4
 136 0052 BD46     		mov	sp, r7
 137              	.LCFI6:
 138              		.cfi_def_cfa_register 13
 139              		@ sp needed
 140 0054 5DF8047B 		ldr	r7, [sp], #4
 141              	.LCFI7:
 142              		.cfi_restore 7
 143              		.cfi_def_cfa_offset 0
 144 0058 7047     		bx	lr
 145              	.L4:
 146 005a 00BF     		.align	2
 147              	.L3:
 148 005c 002C0140 		.word	1073818624
 149              		.cfi_endproc
 150              	.LFE124:
 152              		.section	.text.SDIO_StructInit,"ax",%progbits
 153              		.align	1
 154              		.global	SDIO_StructInit
 155              		.syntax unified
ARM GAS  /var/folders/yl/_q9l42k90g1g4mdhbs226msm0000gn/T//cczyCFlE.s 			page 9


 156              		.thumb
 157              		.thumb_func
 159              	SDIO_StructInit:
 160              	.LFB125:
 303:./Library/stm32f4xx_sdio.c **** 
 304:./Library/stm32f4xx_sdio.c **** /**
 305:./Library/stm32f4xx_sdio.c ****   * @brief  Fills each SDIO_InitStruct member with its default value.
 306:./Library/stm32f4xx_sdio.c ****   * @param  SDIO_InitStruct: pointer to an SDIO_InitTypeDef structure which 
 307:./Library/stm32f4xx_sdio.c ****   *         will be initialized.
 308:./Library/stm32f4xx_sdio.c ****   * @retval None
 309:./Library/stm32f4xx_sdio.c ****   */
 310:./Library/stm32f4xx_sdio.c **** void SDIO_StructInit(SDIO_InitTypeDef* SDIO_InitStruct)
 311:./Library/stm32f4xx_sdio.c **** {
 161              		.loc 1 311 1
 162              		.cfi_startproc
 163              		@ args = 0, pretend = 0, frame = 8
 164              		@ frame_needed = 1, uses_anonymous_args = 0
 165              		@ link register save eliminated.
 166 0000 80B4     		push	{r7}
 167              	.LCFI8:
 168              		.cfi_def_cfa_offset 4
 169              		.cfi_offset 7, -4
 170 0002 83B0     		sub	sp, sp, #12
 171              	.LCFI9:
 172              		.cfi_def_cfa_offset 16
 173 0004 00AF     		add	r7, sp, #0
 174              	.LCFI10:
 175              		.cfi_def_cfa_register 7
 176 0006 7860     		str	r0, [r7, #4]
 312:./Library/stm32f4xx_sdio.c ****   /* SDIO_InitStruct members default value */
 313:./Library/stm32f4xx_sdio.c ****   SDIO_InitStruct->SDIO_ClockDiv = 0x00;
 177              		.loc 1 313 34
 178 0008 7B68     		ldr	r3, [r7, #4]
 179 000a 0022     		movs	r2, #0
 180 000c 1A75     		strb	r2, [r3, #20]
 314:./Library/stm32f4xx_sdio.c ****   SDIO_InitStruct->SDIO_ClockEdge = SDIO_ClockEdge_Rising;
 181              		.loc 1 314 35
 182 000e 7B68     		ldr	r3, [r7, #4]
 183 0010 0022     		movs	r2, #0
 184 0012 1A60     		str	r2, [r3]
 315:./Library/stm32f4xx_sdio.c ****   SDIO_InitStruct->SDIO_ClockBypass = SDIO_ClockBypass_Disable;
 185              		.loc 1 315 37
 186 0014 7B68     		ldr	r3, [r7, #4]
 187 0016 0022     		movs	r2, #0
 188 0018 5A60     		str	r2, [r3, #4]
 316:./Library/stm32f4xx_sdio.c ****   SDIO_InitStruct->SDIO_ClockPowerSave = SDIO_ClockPowerSave_Disable;
 189              		.loc 1 316 40
 190 001a 7B68     		ldr	r3, [r7, #4]
 191 001c 0022     		movs	r2, #0
 192 001e 9A60     		str	r2, [r3, #8]
 317:./Library/stm32f4xx_sdio.c ****   SDIO_InitStruct->SDIO_BusWide = SDIO_BusWide_1b;
 193              		.loc 1 317 33
 194 0020 7B68     		ldr	r3, [r7, #4]
 195 0022 0022     		movs	r2, #0
 196 0024 DA60     		str	r2, [r3, #12]
 318:./Library/stm32f4xx_sdio.c ****   SDIO_InitStruct->SDIO_HardwareFlowControl = SDIO_HardwareFlowControl_Disable;
 197              		.loc 1 318 45
ARM GAS  /var/folders/yl/_q9l42k90g1g4mdhbs226msm0000gn/T//cczyCFlE.s 			page 10


 198 0026 7B68     		ldr	r3, [r7, #4]
 199 0028 0022     		movs	r2, #0
 200 002a 1A61     		str	r2, [r3, #16]
 319:./Library/stm32f4xx_sdio.c **** }
 201              		.loc 1 319 1
 202 002c 00BF     		nop
 203 002e 0C37     		adds	r7, r7, #12
 204              	.LCFI11:
 205              		.cfi_def_cfa_offset 4
 206 0030 BD46     		mov	sp, r7
 207              	.LCFI12:
 208              		.cfi_def_cfa_register 13
 209              		@ sp needed
 210 0032 5DF8047B 		ldr	r7, [sp], #4
 211              	.LCFI13:
 212              		.cfi_restore 7
 213              		.cfi_def_cfa_offset 0
 214 0036 7047     		bx	lr
 215              		.cfi_endproc
 216              	.LFE125:
 218              		.section	.text.SDIO_ClockCmd,"ax",%progbits
 219              		.align	1
 220              		.global	SDIO_ClockCmd
 221              		.syntax unified
 222              		.thumb
 223              		.thumb_func
 225              	SDIO_ClockCmd:
 226              	.LFB126:
 320:./Library/stm32f4xx_sdio.c **** 
 321:./Library/stm32f4xx_sdio.c **** /**
 322:./Library/stm32f4xx_sdio.c ****   * @brief  Enables or disables the SDIO Clock.
 323:./Library/stm32f4xx_sdio.c ****   * @param  NewState: new state of the SDIO Clock. 
 324:./Library/stm32f4xx_sdio.c ****   *         This parameter can be: ENABLE or DISABLE.
 325:./Library/stm32f4xx_sdio.c ****   * @retval None
 326:./Library/stm32f4xx_sdio.c ****   */
 327:./Library/stm32f4xx_sdio.c **** void SDIO_ClockCmd(FunctionalState NewState)
 328:./Library/stm32f4xx_sdio.c **** {
 227              		.loc 1 328 1
 228              		.cfi_startproc
 229              		@ args = 0, pretend = 0, frame = 8
 230              		@ frame_needed = 1, uses_anonymous_args = 0
 231              		@ link register save eliminated.
 232 0000 80B4     		push	{r7}
 233              	.LCFI14:
 234              		.cfi_def_cfa_offset 4
 235              		.cfi_offset 7, -4
 236 0002 83B0     		sub	sp, sp, #12
 237              	.LCFI15:
 238              		.cfi_def_cfa_offset 16
 239 0004 00AF     		add	r7, sp, #0
 240              	.LCFI16:
 241              		.cfi_def_cfa_register 7
 242 0006 0346     		mov	r3, r0
 243 0008 FB71     		strb	r3, [r7, #7]
 329:./Library/stm32f4xx_sdio.c ****   /* Check the parameters */
 330:./Library/stm32f4xx_sdio.c ****   assert_param(IS_FUNCTIONAL_STATE(NewState));
 331:./Library/stm32f4xx_sdio.c ****   
ARM GAS  /var/folders/yl/_q9l42k90g1g4mdhbs226msm0000gn/T//cczyCFlE.s 			page 11


 332:./Library/stm32f4xx_sdio.c ****   *(__IO uint32_t *) CLKCR_CLKEN_BB = (uint32_t)NewState;
 244              		.loc 1 332 3
 245 000a 044A     		ldr	r2, .L7
 246              		.loc 1 332 39
 247 000c FB79     		ldrb	r3, [r7, #7]	@ zero_extendqisi2
 248              		.loc 1 332 37
 249 000e 1360     		str	r3, [r2]
 333:./Library/stm32f4xx_sdio.c **** }
 250              		.loc 1 333 1
 251 0010 00BF     		nop
 252 0012 0C37     		adds	r7, r7, #12
 253              	.LCFI17:
 254              		.cfi_def_cfa_offset 4
 255 0014 BD46     		mov	sp, r7
 256              	.LCFI18:
 257              		.cfi_def_cfa_register 13
 258              		@ sp needed
 259 0016 5DF8047B 		ldr	r7, [sp], #4
 260              	.LCFI19:
 261              		.cfi_restore 7
 262              		.cfi_def_cfa_offset 0
 263 001a 7047     		bx	lr
 264              	.L8:
 265              		.align	2
 266              	.L7:
 267 001c A0802542 		.word	1109754016
 268              		.cfi_endproc
 269              	.LFE126:
 271              		.section	.text.SDIO_SetPowerState,"ax",%progbits
 272              		.align	1
 273              		.global	SDIO_SetPowerState
 274              		.syntax unified
 275              		.thumb
 276              		.thumb_func
 278              	SDIO_SetPowerState:
 279              	.LFB127:
 334:./Library/stm32f4xx_sdio.c **** 
 335:./Library/stm32f4xx_sdio.c **** /**
 336:./Library/stm32f4xx_sdio.c ****   * @brief  Sets the power status of the controller.
 337:./Library/stm32f4xx_sdio.c ****   * @param  SDIO_PowerState: new state of the Power state. 
 338:./Library/stm32f4xx_sdio.c ****   *          This parameter can be one of the following values:
 339:./Library/stm32f4xx_sdio.c ****   *            @arg SDIO_PowerState_OFF: SDIO Power OFF
 340:./Library/stm32f4xx_sdio.c ****   *            @arg SDIO_PowerState_ON: SDIO Power ON
 341:./Library/stm32f4xx_sdio.c ****   * @retval None
 342:./Library/stm32f4xx_sdio.c ****   */
 343:./Library/stm32f4xx_sdio.c **** void SDIO_SetPowerState(uint32_t SDIO_PowerState)
 344:./Library/stm32f4xx_sdio.c **** {
 280              		.loc 1 344 1
 281              		.cfi_startproc
 282              		@ args = 0, pretend = 0, frame = 8
 283              		@ frame_needed = 1, uses_anonymous_args = 0
 284              		@ link register save eliminated.
 285 0000 80B4     		push	{r7}
 286              	.LCFI20:
 287              		.cfi_def_cfa_offset 4
 288              		.cfi_offset 7, -4
 289 0002 83B0     		sub	sp, sp, #12
ARM GAS  /var/folders/yl/_q9l42k90g1g4mdhbs226msm0000gn/T//cczyCFlE.s 			page 12


 290              	.LCFI21:
 291              		.cfi_def_cfa_offset 16
 292 0004 00AF     		add	r7, sp, #0
 293              	.LCFI22:
 294              		.cfi_def_cfa_register 7
 295 0006 7860     		str	r0, [r7, #4]
 345:./Library/stm32f4xx_sdio.c ****   /* Check the parameters */
 346:./Library/stm32f4xx_sdio.c ****   assert_param(IS_SDIO_POWER_STATE(SDIO_PowerState));
 347:./Library/stm32f4xx_sdio.c ****   
 348:./Library/stm32f4xx_sdio.c ****   SDIO->POWER = SDIO_PowerState;
 296              		.loc 1 348 7
 297 0008 044A     		ldr	r2, .L10
 298              		.loc 1 348 15
 299 000a 7B68     		ldr	r3, [r7, #4]
 300 000c 1360     		str	r3, [r2]
 349:./Library/stm32f4xx_sdio.c **** }
 301              		.loc 1 349 1
 302 000e 00BF     		nop
 303 0010 0C37     		adds	r7, r7, #12
 304              	.LCFI23:
 305              		.cfi_def_cfa_offset 4
 306 0012 BD46     		mov	sp, r7
 307              	.LCFI24:
 308              		.cfi_def_cfa_register 13
 309              		@ sp needed
 310 0014 5DF8047B 		ldr	r7, [sp], #4
 311              	.LCFI25:
 312              		.cfi_restore 7
 313              		.cfi_def_cfa_offset 0
 314 0018 7047     		bx	lr
 315              	.L11:
 316 001a 00BF     		.align	2
 317              	.L10:
 318 001c 002C0140 		.word	1073818624
 319              		.cfi_endproc
 320              	.LFE127:
 322              		.section	.text.SDIO_GetPowerState,"ax",%progbits
 323              		.align	1
 324              		.global	SDIO_GetPowerState
 325              		.syntax unified
 326              		.thumb
 327              		.thumb_func
 329              	SDIO_GetPowerState:
 330              	.LFB128:
 350:./Library/stm32f4xx_sdio.c **** 
 351:./Library/stm32f4xx_sdio.c **** /**
 352:./Library/stm32f4xx_sdio.c ****   * @brief  Gets the power status of the controller.
 353:./Library/stm32f4xx_sdio.c ****   * @param  None
 354:./Library/stm32f4xx_sdio.c ****   * @retval Power status of the controller. The returned value can be one of the 
 355:./Library/stm32f4xx_sdio.c ****   *         following values:
 356:./Library/stm32f4xx_sdio.c ****   *            - 0x00: Power OFF
 357:./Library/stm32f4xx_sdio.c ****   *            - 0x02: Power UP
 358:./Library/stm32f4xx_sdio.c ****   *            - 0x03: Power ON 
 359:./Library/stm32f4xx_sdio.c ****   */
 360:./Library/stm32f4xx_sdio.c **** uint32_t SDIO_GetPowerState(void)
 361:./Library/stm32f4xx_sdio.c **** {
 331              		.loc 1 361 1
ARM GAS  /var/folders/yl/_q9l42k90g1g4mdhbs226msm0000gn/T//cczyCFlE.s 			page 13


 332              		.cfi_startproc
 333              		@ args = 0, pretend = 0, frame = 0
 334              		@ frame_needed = 1, uses_anonymous_args = 0
 335              		@ link register save eliminated.
 336 0000 80B4     		push	{r7}
 337              	.LCFI26:
 338              		.cfi_def_cfa_offset 4
 339              		.cfi_offset 7, -4
 340 0002 00AF     		add	r7, sp, #0
 341              	.LCFI27:
 342              		.cfi_def_cfa_register 7
 362:./Library/stm32f4xx_sdio.c ****   return (SDIO->POWER & (~PWR_PWRCTRL_MASK));
 343              		.loc 1 362 15
 344 0004 044B     		ldr	r3, .L14
 345 0006 1B68     		ldr	r3, [r3]
 346              		.loc 1 362 23
 347 0008 03F00303 		and	r3, r3, #3
 363:./Library/stm32f4xx_sdio.c **** }
 348              		.loc 1 363 1
 349 000c 1846     		mov	r0, r3
 350 000e BD46     		mov	sp, r7
 351              	.LCFI28:
 352              		.cfi_def_cfa_register 13
 353              		@ sp needed
 354 0010 5DF8047B 		ldr	r7, [sp], #4
 355              	.LCFI29:
 356              		.cfi_restore 7
 357              		.cfi_def_cfa_offset 0
 358 0014 7047     		bx	lr
 359              	.L15:
 360 0016 00BF     		.align	2
 361              	.L14:
 362 0018 002C0140 		.word	1073818624
 363              		.cfi_endproc
 364              	.LFE128:
 366              		.section	.text.SDIO_SendCommand,"ax",%progbits
 367              		.align	1
 368              		.global	SDIO_SendCommand
 369              		.syntax unified
 370              		.thumb
 371              		.thumb_func
 373              	SDIO_SendCommand:
 374              	.LFB129:
 364:./Library/stm32f4xx_sdio.c **** 
 365:./Library/stm32f4xx_sdio.c **** /**
 366:./Library/stm32f4xx_sdio.c ****   * @}
 367:./Library/stm32f4xx_sdio.c ****   */
 368:./Library/stm32f4xx_sdio.c **** 
 369:./Library/stm32f4xx_sdio.c **** /** @defgroup SDIO_Group2 Command path state machine (CPSM) management functions
 370:./Library/stm32f4xx_sdio.c ****  *  @brief   Command path state machine (CPSM) management functions 
 371:./Library/stm32f4xx_sdio.c ****  *
 372:./Library/stm32f4xx_sdio.c **** @verbatim   
 373:./Library/stm32f4xx_sdio.c ****  ===============================================================================
 374:./Library/stm32f4xx_sdio.c ****         ##### Command path state machine (CPSM) management functions #####
 375:./Library/stm32f4xx_sdio.c ****  ===============================================================================  
 376:./Library/stm32f4xx_sdio.c **** 
 377:./Library/stm32f4xx_sdio.c ****   This section provide functions allowing to program and read the Command path 
ARM GAS  /var/folders/yl/_q9l42k90g1g4mdhbs226msm0000gn/T//cczyCFlE.s 			page 14


 378:./Library/stm32f4xx_sdio.c ****   state machine (CPSM).
 379:./Library/stm32f4xx_sdio.c **** 
 380:./Library/stm32f4xx_sdio.c **** @endverbatim
 381:./Library/stm32f4xx_sdio.c ****   * @{
 382:./Library/stm32f4xx_sdio.c ****   */
 383:./Library/stm32f4xx_sdio.c **** 
 384:./Library/stm32f4xx_sdio.c **** /**
 385:./Library/stm32f4xx_sdio.c ****   * @brief  Initializes the SDIO Command according to the specified 
 386:./Library/stm32f4xx_sdio.c ****   *         parameters in the SDIO_CmdInitStruct and send the command.
 387:./Library/stm32f4xx_sdio.c ****   * @param  SDIO_CmdInitStruct : pointer to a SDIO_CmdInitTypeDef 
 388:./Library/stm32f4xx_sdio.c ****   *         structure that contains the configuration information for the SDIO 
 389:./Library/stm32f4xx_sdio.c ****   *         command.
 390:./Library/stm32f4xx_sdio.c ****   * @retval None
 391:./Library/stm32f4xx_sdio.c ****   */
 392:./Library/stm32f4xx_sdio.c **** void SDIO_SendCommand(SDIO_CmdInitTypeDef *SDIO_CmdInitStruct)
 393:./Library/stm32f4xx_sdio.c **** {
 375              		.loc 1 393 1
 376              		.cfi_startproc
 377              		@ args = 0, pretend = 0, frame = 16
 378              		@ frame_needed = 1, uses_anonymous_args = 0
 379              		@ link register save eliminated.
 380 0000 80B4     		push	{r7}
 381              	.LCFI30:
 382              		.cfi_def_cfa_offset 4
 383              		.cfi_offset 7, -4
 384 0002 85B0     		sub	sp, sp, #20
 385              	.LCFI31:
 386              		.cfi_def_cfa_offset 24
 387 0004 00AF     		add	r7, sp, #0
 388              	.LCFI32:
 389              		.cfi_def_cfa_register 7
 390 0006 7860     		str	r0, [r7, #4]
 394:./Library/stm32f4xx_sdio.c ****   uint32_t tmpreg = 0;
 391              		.loc 1 394 12
 392 0008 0023     		movs	r3, #0
 393 000a FB60     		str	r3, [r7, #12]
 395:./Library/stm32f4xx_sdio.c ****   
 396:./Library/stm32f4xx_sdio.c ****   /* Check the parameters */
 397:./Library/stm32f4xx_sdio.c ****   assert_param(IS_SDIO_CMD_INDEX(SDIO_CmdInitStruct->SDIO_CmdIndex));
 398:./Library/stm32f4xx_sdio.c ****   assert_param(IS_SDIO_RESPONSE(SDIO_CmdInitStruct->SDIO_Response));
 399:./Library/stm32f4xx_sdio.c ****   assert_param(IS_SDIO_WAIT(SDIO_CmdInitStruct->SDIO_Wait));
 400:./Library/stm32f4xx_sdio.c ****   assert_param(IS_SDIO_CPSM(SDIO_CmdInitStruct->SDIO_CPSM));
 401:./Library/stm32f4xx_sdio.c ****   
 402:./Library/stm32f4xx_sdio.c **** /*---------------------------- SDIO ARG Configuration ------------------------*/
 403:./Library/stm32f4xx_sdio.c ****   /* Set the SDIO Argument value */
 404:./Library/stm32f4xx_sdio.c ****   SDIO->ARG = SDIO_CmdInitStruct->SDIO_Argument;
 394              		.loc 1 404 7
 395 000c 114A     		ldr	r2, .L17
 396              		.loc 1 404 33
 397 000e 7B68     		ldr	r3, [r7, #4]
 398 0010 1B68     		ldr	r3, [r3]
 399              		.loc 1 404 13
 400 0012 9360     		str	r3, [r2, #8]
 405:./Library/stm32f4xx_sdio.c ****   
 406:./Library/stm32f4xx_sdio.c **** /*---------------------------- SDIO CMD Configuration ------------------------*/  
 407:./Library/stm32f4xx_sdio.c ****   /* Get the SDIO CMD value */
 408:./Library/stm32f4xx_sdio.c ****   tmpreg = SDIO->CMD;
ARM GAS  /var/folders/yl/_q9l42k90g1g4mdhbs226msm0000gn/T//cczyCFlE.s 			page 15


 401              		.loc 1 408 16
 402 0014 0F4B     		ldr	r3, .L17
 403              		.loc 1 408 10
 404 0016 DB68     		ldr	r3, [r3, #12]
 405 0018 FB60     		str	r3, [r7, #12]
 409:./Library/stm32f4xx_sdio.c ****   /* Clear CMDINDEX, WAITRESP, WAITINT, WAITPEND, CPSMEN bits */
 410:./Library/stm32f4xx_sdio.c ****   tmpreg &= CMD_CLEAR_MASK;
 406              		.loc 1 410 10
 407 001a FB68     		ldr	r3, [r7, #12]
 408 001c 23F4FF63 		bic	r3, r3, #2040
 409 0020 23F00703 		bic	r3, r3, #7
 410 0024 FB60     		str	r3, [r7, #12]
 411:./Library/stm32f4xx_sdio.c ****   /* Set CMDINDEX bits according to SDIO_CmdIndex value */
 412:./Library/stm32f4xx_sdio.c ****   /* Set WAITRESP bits according to SDIO_Response value */
 413:./Library/stm32f4xx_sdio.c ****   /* Set WAITINT and WAITPEND bits according to SDIO_Wait value */
 414:./Library/stm32f4xx_sdio.c ****   /* Set CPSMEN bits according to SDIO_CPSM value */
 415:./Library/stm32f4xx_sdio.c ****   tmpreg |= (uint32_t)SDIO_CmdInitStruct->SDIO_CmdIndex | SDIO_CmdInitStruct->SDIO_Response
 411              		.loc 1 415 41
 412 0026 7B68     		ldr	r3, [r7, #4]
 413 0028 5A68     		ldr	r2, [r3, #4]
 414              		.loc 1 415 77
 415 002a 7B68     		ldr	r3, [r7, #4]
 416 002c 9B68     		ldr	r3, [r3, #8]
 417              		.loc 1 415 57
 418 002e 1A43     		orrs	r2, r2, r3
 416:./Library/stm32f4xx_sdio.c ****            | SDIO_CmdInitStruct->SDIO_Wait | SDIO_CmdInitStruct->SDIO_CPSM;
 419              		.loc 1 416 32
 420 0030 7B68     		ldr	r3, [r7, #4]
 421 0032 DB68     		ldr	r3, [r3, #12]
 422              		.loc 1 416 12
 423 0034 1A43     		orrs	r2, r2, r3
 424              		.loc 1 416 64
 425 0036 7B68     		ldr	r3, [r7, #4]
 426 0038 1B69     		ldr	r3, [r3, #16]
 427              		.loc 1 416 44
 428 003a 1343     		orrs	r3, r3, r2
 415:./Library/stm32f4xx_sdio.c ****            | SDIO_CmdInitStruct->SDIO_Wait | SDIO_CmdInitStruct->SDIO_CPSM;
 429              		.loc 1 415 10
 430 003c FA68     		ldr	r2, [r7, #12]
 431 003e 1343     		orrs	r3, r3, r2
 432 0040 FB60     		str	r3, [r7, #12]
 417:./Library/stm32f4xx_sdio.c ****   
 418:./Library/stm32f4xx_sdio.c ****   /* Write to SDIO CMD */
 419:./Library/stm32f4xx_sdio.c ****   SDIO->CMD = tmpreg;
 433              		.loc 1 419 7
 434 0042 044A     		ldr	r2, .L17
 435              		.loc 1 419 13
 436 0044 FB68     		ldr	r3, [r7, #12]
 437 0046 D360     		str	r3, [r2, #12]
 420:./Library/stm32f4xx_sdio.c **** }
 438              		.loc 1 420 1
 439 0048 00BF     		nop
 440 004a 1437     		adds	r7, r7, #20
 441              	.LCFI33:
 442              		.cfi_def_cfa_offset 4
 443 004c BD46     		mov	sp, r7
 444              	.LCFI34:
ARM GAS  /var/folders/yl/_q9l42k90g1g4mdhbs226msm0000gn/T//cczyCFlE.s 			page 16


 445              		.cfi_def_cfa_register 13
 446              		@ sp needed
 447 004e 5DF8047B 		ldr	r7, [sp], #4
 448              	.LCFI35:
 449              		.cfi_restore 7
 450              		.cfi_def_cfa_offset 0
 451 0052 7047     		bx	lr
 452              	.L18:
 453              		.align	2
 454              	.L17:
 455 0054 002C0140 		.word	1073818624
 456              		.cfi_endproc
 457              	.LFE129:
 459              		.section	.text.SDIO_CmdStructInit,"ax",%progbits
 460              		.align	1
 461              		.global	SDIO_CmdStructInit
 462              		.syntax unified
 463              		.thumb
 464              		.thumb_func
 466              	SDIO_CmdStructInit:
 467              	.LFB130:
 421:./Library/stm32f4xx_sdio.c **** 
 422:./Library/stm32f4xx_sdio.c **** /**
 423:./Library/stm32f4xx_sdio.c ****   * @brief  Fills each SDIO_CmdInitStruct member with its default value.
 424:./Library/stm32f4xx_sdio.c ****   * @param  SDIO_CmdInitStruct: pointer to an SDIO_CmdInitTypeDef 
 425:./Library/stm32f4xx_sdio.c ****   *         structure which will be initialized.
 426:./Library/stm32f4xx_sdio.c ****   * @retval None
 427:./Library/stm32f4xx_sdio.c ****   */
 428:./Library/stm32f4xx_sdio.c **** void SDIO_CmdStructInit(SDIO_CmdInitTypeDef* SDIO_CmdInitStruct)
 429:./Library/stm32f4xx_sdio.c **** {
 468              		.loc 1 429 1
 469              		.cfi_startproc
 470              		@ args = 0, pretend = 0, frame = 8
 471              		@ frame_needed = 1, uses_anonymous_args = 0
 472              		@ link register save eliminated.
 473 0000 80B4     		push	{r7}
 474              	.LCFI36:
 475              		.cfi_def_cfa_offset 4
 476              		.cfi_offset 7, -4
 477 0002 83B0     		sub	sp, sp, #12
 478              	.LCFI37:
 479              		.cfi_def_cfa_offset 16
 480 0004 00AF     		add	r7, sp, #0
 481              	.LCFI38:
 482              		.cfi_def_cfa_register 7
 483 0006 7860     		str	r0, [r7, #4]
 430:./Library/stm32f4xx_sdio.c ****   /* SDIO_CmdInitStruct members default value */
 431:./Library/stm32f4xx_sdio.c ****   SDIO_CmdInitStruct->SDIO_Argument = 0x00;
 484              		.loc 1 431 37
 485 0008 7B68     		ldr	r3, [r7, #4]
 486 000a 0022     		movs	r2, #0
 487 000c 1A60     		str	r2, [r3]
 432:./Library/stm32f4xx_sdio.c ****   SDIO_CmdInitStruct->SDIO_CmdIndex = 0x00;
 488              		.loc 1 432 37
 489 000e 7B68     		ldr	r3, [r7, #4]
 490 0010 0022     		movs	r2, #0
 491 0012 5A60     		str	r2, [r3, #4]
ARM GAS  /var/folders/yl/_q9l42k90g1g4mdhbs226msm0000gn/T//cczyCFlE.s 			page 17


 433:./Library/stm32f4xx_sdio.c ****   SDIO_CmdInitStruct->SDIO_Response = SDIO_Response_No;
 492              		.loc 1 433 37
 493 0014 7B68     		ldr	r3, [r7, #4]
 494 0016 0022     		movs	r2, #0
 495 0018 9A60     		str	r2, [r3, #8]
 434:./Library/stm32f4xx_sdio.c ****   SDIO_CmdInitStruct->SDIO_Wait = SDIO_Wait_No;
 496              		.loc 1 434 33
 497 001a 7B68     		ldr	r3, [r7, #4]
 498 001c 0022     		movs	r2, #0
 499 001e DA60     		str	r2, [r3, #12]
 435:./Library/stm32f4xx_sdio.c ****   SDIO_CmdInitStruct->SDIO_CPSM = SDIO_CPSM_Disable;
 500              		.loc 1 435 33
 501 0020 7B68     		ldr	r3, [r7, #4]
 502 0022 0022     		movs	r2, #0
 503 0024 1A61     		str	r2, [r3, #16]
 436:./Library/stm32f4xx_sdio.c **** }
 504              		.loc 1 436 1
 505 0026 00BF     		nop
 506 0028 0C37     		adds	r7, r7, #12
 507              	.LCFI39:
 508              		.cfi_def_cfa_offset 4
 509 002a BD46     		mov	sp, r7
 510              	.LCFI40:
 511              		.cfi_def_cfa_register 13
 512              		@ sp needed
 513 002c 5DF8047B 		ldr	r7, [sp], #4
 514              	.LCFI41:
 515              		.cfi_restore 7
 516              		.cfi_def_cfa_offset 0
 517 0030 7047     		bx	lr
 518              		.cfi_endproc
 519              	.LFE130:
 521              		.section	.text.SDIO_GetCommandResponse,"ax",%progbits
 522              		.align	1
 523              		.global	SDIO_GetCommandResponse
 524              		.syntax unified
 525              		.thumb
 526              		.thumb_func
 528              	SDIO_GetCommandResponse:
 529              	.LFB131:
 437:./Library/stm32f4xx_sdio.c **** 
 438:./Library/stm32f4xx_sdio.c **** /**
 439:./Library/stm32f4xx_sdio.c ****   * @brief  Returns command index of last command for which response received.
 440:./Library/stm32f4xx_sdio.c ****   * @param  None
 441:./Library/stm32f4xx_sdio.c ****   * @retval Returns the command index of the last command response received.
 442:./Library/stm32f4xx_sdio.c ****   */
 443:./Library/stm32f4xx_sdio.c **** uint8_t SDIO_GetCommandResponse(void)
 444:./Library/stm32f4xx_sdio.c **** {
 530              		.loc 1 444 1
 531              		.cfi_startproc
 532              		@ args = 0, pretend = 0, frame = 0
 533              		@ frame_needed = 1, uses_anonymous_args = 0
 534              		@ link register save eliminated.
 535 0000 80B4     		push	{r7}
 536              	.LCFI42:
 537              		.cfi_def_cfa_offset 4
 538              		.cfi_offset 7, -4
ARM GAS  /var/folders/yl/_q9l42k90g1g4mdhbs226msm0000gn/T//cczyCFlE.s 			page 18


 539 0002 00AF     		add	r7, sp, #0
 540              	.LCFI43:
 541              		.cfi_def_cfa_register 7
 445:./Library/stm32f4xx_sdio.c ****   return (uint8_t)(SDIO->RESPCMD);
 542              		.loc 1 445 24
 543 0004 034B     		ldr	r3, .L22
 544 0006 1B69     		ldr	r3, [r3, #16]
 545              		.loc 1 445 10
 546 0008 DBB2     		uxtb	r3, r3
 446:./Library/stm32f4xx_sdio.c **** }
 547              		.loc 1 446 1
 548 000a 1846     		mov	r0, r3
 549 000c BD46     		mov	sp, r7
 550              	.LCFI44:
 551              		.cfi_def_cfa_register 13
 552              		@ sp needed
 553 000e 5DF8047B 		ldr	r7, [sp], #4
 554              	.LCFI45:
 555              		.cfi_restore 7
 556              		.cfi_def_cfa_offset 0
 557 0012 7047     		bx	lr
 558              	.L23:
 559              		.align	2
 560              	.L22:
 561 0014 002C0140 		.word	1073818624
 562              		.cfi_endproc
 563              	.LFE131:
 565              		.section	.text.SDIO_GetResponse,"ax",%progbits
 566              		.align	1
 567              		.global	SDIO_GetResponse
 568              		.syntax unified
 569              		.thumb
 570              		.thumb_func
 572              	SDIO_GetResponse:
 573              	.LFB132:
 447:./Library/stm32f4xx_sdio.c **** 
 448:./Library/stm32f4xx_sdio.c **** /**
 449:./Library/stm32f4xx_sdio.c ****   * @brief  Returns response received from the card for the last command.
 450:./Library/stm32f4xx_sdio.c ****   * @param  SDIO_RESP: Specifies the SDIO response register. 
 451:./Library/stm32f4xx_sdio.c ****   *          This parameter can be one of the following values:
 452:./Library/stm32f4xx_sdio.c ****   *            @arg SDIO_RESP1: Response Register 1
 453:./Library/stm32f4xx_sdio.c ****   *            @arg SDIO_RESP2: Response Register 2
 454:./Library/stm32f4xx_sdio.c ****   *            @arg SDIO_RESP3: Response Register 3
 455:./Library/stm32f4xx_sdio.c ****   *            @arg SDIO_RESP4: Response Register 4
 456:./Library/stm32f4xx_sdio.c ****   * @retval The Corresponding response register value.
 457:./Library/stm32f4xx_sdio.c ****   */
 458:./Library/stm32f4xx_sdio.c **** uint32_t SDIO_GetResponse(uint32_t SDIO_RESP)
 459:./Library/stm32f4xx_sdio.c **** {
 574              		.loc 1 459 1
 575              		.cfi_startproc
 576              		@ args = 0, pretend = 0, frame = 16
 577              		@ frame_needed = 1, uses_anonymous_args = 0
 578              		@ link register save eliminated.
 579 0000 80B4     		push	{r7}
 580              	.LCFI46:
 581              		.cfi_def_cfa_offset 4
 582              		.cfi_offset 7, -4
ARM GAS  /var/folders/yl/_q9l42k90g1g4mdhbs226msm0000gn/T//cczyCFlE.s 			page 19


 583 0002 85B0     		sub	sp, sp, #20
 584              	.LCFI47:
 585              		.cfi_def_cfa_offset 24
 586 0004 00AF     		add	r7, sp, #0
 587              	.LCFI48:
 588              		.cfi_def_cfa_register 7
 589 0006 7860     		str	r0, [r7, #4]
 460:./Library/stm32f4xx_sdio.c ****   __IO uint32_t tmp = 0;
 590              		.loc 1 460 17
 591 0008 0023     		movs	r3, #0
 592 000a FB60     		str	r3, [r7, #12]
 461:./Library/stm32f4xx_sdio.c **** 
 462:./Library/stm32f4xx_sdio.c ****   /* Check the parameters */
 463:./Library/stm32f4xx_sdio.c ****   assert_param(IS_SDIO_RESP(SDIO_RESP));
 464:./Library/stm32f4xx_sdio.c **** 
 465:./Library/stm32f4xx_sdio.c ****   tmp = SDIO_RESP_ADDR + SDIO_RESP;
 593              		.loc 1 465 24
 594 000c 7A68     		ldr	r2, [r7, #4]
 595 000e 054B     		ldr	r3, .L26
 596 0010 1344     		add	r3, r3, r2
 597              		.loc 1 465 7
 598 0012 FB60     		str	r3, [r7, #12]
 466:./Library/stm32f4xx_sdio.c ****   
 467:./Library/stm32f4xx_sdio.c ****   return (*(__IO uint32_t *) tmp); 
 599              		.loc 1 467 12
 600 0014 FB68     		ldr	r3, [r7, #12]
 601              		.loc 1 467 11
 602 0016 1B68     		ldr	r3, [r3]
 468:./Library/stm32f4xx_sdio.c **** }
 603              		.loc 1 468 1
 604 0018 1846     		mov	r0, r3
 605 001a 1437     		adds	r7, r7, #20
 606              	.LCFI49:
 607              		.cfi_def_cfa_offset 4
 608 001c BD46     		mov	sp, r7
 609              	.LCFI50:
 610              		.cfi_def_cfa_register 13
 611              		@ sp needed
 612 001e 5DF8047B 		ldr	r7, [sp], #4
 613              	.LCFI51:
 614              		.cfi_restore 7
 615              		.cfi_def_cfa_offset 0
 616 0022 7047     		bx	lr
 617              	.L27:
 618              		.align	2
 619              	.L26:
 620 0024 142C0140 		.word	1073818644
 621              		.cfi_endproc
 622              	.LFE132:
 624              		.section	.text.SDIO_DataConfig,"ax",%progbits
 625              		.align	1
 626              		.global	SDIO_DataConfig
 627              		.syntax unified
 628              		.thumb
 629              		.thumb_func
 631              	SDIO_DataConfig:
 632              	.LFB133:
ARM GAS  /var/folders/yl/_q9l42k90g1g4mdhbs226msm0000gn/T//cczyCFlE.s 			page 20


 469:./Library/stm32f4xx_sdio.c **** 
 470:./Library/stm32f4xx_sdio.c **** /**
 471:./Library/stm32f4xx_sdio.c ****   * @}
 472:./Library/stm32f4xx_sdio.c ****   */
 473:./Library/stm32f4xx_sdio.c **** 
 474:./Library/stm32f4xx_sdio.c **** /** @defgroup SDIO_Group3 Data path state machine (DPSM) management functions
 475:./Library/stm32f4xx_sdio.c ****  *  @brief   Data path state machine (DPSM) management functions
 476:./Library/stm32f4xx_sdio.c ****  *
 477:./Library/stm32f4xx_sdio.c **** @verbatim   
 478:./Library/stm32f4xx_sdio.c ****  ===============================================================================
 479:./Library/stm32f4xx_sdio.c ****          ##### Data path state machine (DPSM) management functions #####
 480:./Library/stm32f4xx_sdio.c ****  ===============================================================================  
 481:./Library/stm32f4xx_sdio.c **** 
 482:./Library/stm32f4xx_sdio.c ****   This section provide functions allowing to program and read the Data path 
 483:./Library/stm32f4xx_sdio.c ****   state machine (DPSM).
 484:./Library/stm32f4xx_sdio.c **** 
 485:./Library/stm32f4xx_sdio.c **** @endverbatim
 486:./Library/stm32f4xx_sdio.c ****   * @{
 487:./Library/stm32f4xx_sdio.c ****   */
 488:./Library/stm32f4xx_sdio.c **** 
 489:./Library/stm32f4xx_sdio.c **** /**
 490:./Library/stm32f4xx_sdio.c ****   * @brief  Initializes the SDIO data path according to the specified 
 491:./Library/stm32f4xx_sdio.c ****   *         parameters in the SDIO_DataInitStruct.
 492:./Library/stm32f4xx_sdio.c ****   * @param  SDIO_DataInitStruct : pointer to a SDIO_DataInitTypeDef structure 
 493:./Library/stm32f4xx_sdio.c ****   *         that contains the configuration information for the SDIO command.
 494:./Library/stm32f4xx_sdio.c ****   * @retval None
 495:./Library/stm32f4xx_sdio.c ****   */
 496:./Library/stm32f4xx_sdio.c **** void SDIO_DataConfig(SDIO_DataInitTypeDef* SDIO_DataInitStruct)
 497:./Library/stm32f4xx_sdio.c **** {
 633              		.loc 1 497 1
 634              		.cfi_startproc
 635              		@ args = 0, pretend = 0, frame = 16
 636              		@ frame_needed = 1, uses_anonymous_args = 0
 637              		@ link register save eliminated.
 638 0000 80B4     		push	{r7}
 639              	.LCFI52:
 640              		.cfi_def_cfa_offset 4
 641              		.cfi_offset 7, -4
 642 0002 85B0     		sub	sp, sp, #20
 643              	.LCFI53:
 644              		.cfi_def_cfa_offset 24
 645 0004 00AF     		add	r7, sp, #0
 646              	.LCFI54:
 647              		.cfi_def_cfa_register 7
 648 0006 7860     		str	r0, [r7, #4]
 498:./Library/stm32f4xx_sdio.c ****   uint32_t tmpreg = 0;
 649              		.loc 1 498 12
 650 0008 0023     		movs	r3, #0
 651 000a FB60     		str	r3, [r7, #12]
 499:./Library/stm32f4xx_sdio.c ****   
 500:./Library/stm32f4xx_sdio.c ****   /* Check the parameters */
 501:./Library/stm32f4xx_sdio.c ****   assert_param(IS_SDIO_DATA_LENGTH(SDIO_DataInitStruct->SDIO_DataLength));
 502:./Library/stm32f4xx_sdio.c ****   assert_param(IS_SDIO_BLOCK_SIZE(SDIO_DataInitStruct->SDIO_DataBlockSize));
 503:./Library/stm32f4xx_sdio.c ****   assert_param(IS_SDIO_TRANSFER_DIR(SDIO_DataInitStruct->SDIO_TransferDir));
 504:./Library/stm32f4xx_sdio.c ****   assert_param(IS_SDIO_TRANSFER_MODE(SDIO_DataInitStruct->SDIO_TransferMode));
 505:./Library/stm32f4xx_sdio.c ****   assert_param(IS_SDIO_DPSM(SDIO_DataInitStruct->SDIO_DPSM));
 506:./Library/stm32f4xx_sdio.c **** 
ARM GAS  /var/folders/yl/_q9l42k90g1g4mdhbs226msm0000gn/T//cczyCFlE.s 			page 21


 507:./Library/stm32f4xx_sdio.c **** /*---------------------------- SDIO DTIMER Configuration ---------------------*/
 508:./Library/stm32f4xx_sdio.c ****   /* Set the SDIO Data TimeOut value */
 509:./Library/stm32f4xx_sdio.c ****   SDIO->DTIMER = SDIO_DataInitStruct->SDIO_DataTimeOut;
 652              		.loc 1 509 7
 653 000c 124A     		ldr	r2, .L29
 654              		.loc 1 509 37
 655 000e 7B68     		ldr	r3, [r7, #4]
 656 0010 1B68     		ldr	r3, [r3]
 657              		.loc 1 509 16
 658 0012 5362     		str	r3, [r2, #36]
 510:./Library/stm32f4xx_sdio.c **** 
 511:./Library/stm32f4xx_sdio.c **** /*---------------------------- SDIO DLEN Configuration -----------------------*/
 512:./Library/stm32f4xx_sdio.c ****   /* Set the SDIO DataLength value */
 513:./Library/stm32f4xx_sdio.c ****   SDIO->DLEN = SDIO_DataInitStruct->SDIO_DataLength;
 659              		.loc 1 513 7
 660 0014 104A     		ldr	r2, .L29
 661              		.loc 1 513 35
 662 0016 7B68     		ldr	r3, [r7, #4]
 663 0018 5B68     		ldr	r3, [r3, #4]
 664              		.loc 1 513 14
 665 001a 9362     		str	r3, [r2, #40]
 514:./Library/stm32f4xx_sdio.c **** 
 515:./Library/stm32f4xx_sdio.c **** /*---------------------------- SDIO DCTRL Configuration ----------------------*/  
 516:./Library/stm32f4xx_sdio.c ****   /* Get the SDIO DCTRL value */
 517:./Library/stm32f4xx_sdio.c ****   tmpreg = SDIO->DCTRL;
 666              		.loc 1 517 16
 667 001c 0E4B     		ldr	r3, .L29
 668              		.loc 1 517 10
 669 001e DB6A     		ldr	r3, [r3, #44]
 670 0020 FB60     		str	r3, [r7, #12]
 518:./Library/stm32f4xx_sdio.c ****   /* Clear DEN, DTMODE, DTDIR and DBCKSIZE bits */
 519:./Library/stm32f4xx_sdio.c ****   tmpreg &= DCTRL_CLEAR_MASK;
 671              		.loc 1 519 10
 672 0022 FB68     		ldr	r3, [r7, #12]
 673 0024 23F0F703 		bic	r3, r3, #247
 674 0028 FB60     		str	r3, [r7, #12]
 520:./Library/stm32f4xx_sdio.c ****   /* Set DEN bit according to SDIO_DPSM value */
 521:./Library/stm32f4xx_sdio.c ****   /* Set DTMODE bit according to SDIO_TransferMode value */
 522:./Library/stm32f4xx_sdio.c ****   /* Set DTDIR bit according to SDIO_TransferDir value */
 523:./Library/stm32f4xx_sdio.c ****   /* Set DBCKSIZE bits according to SDIO_DataBlockSize value */
 524:./Library/stm32f4xx_sdio.c ****   tmpreg |= (uint32_t)SDIO_DataInitStruct->SDIO_DataBlockSize | SDIO_DataInitStruct->SDIO_TransferD
 675              		.loc 1 524 42
 676 002a 7B68     		ldr	r3, [r7, #4]
 677 002c 9A68     		ldr	r2, [r3, #8]
 678              		.loc 1 524 84
 679 002e 7B68     		ldr	r3, [r7, #4]
 680 0030 DB68     		ldr	r3, [r3, #12]
 681              		.loc 1 524 63
 682 0032 1A43     		orrs	r2, r2, r3
 525:./Library/stm32f4xx_sdio.c ****            | SDIO_DataInitStruct->SDIO_TransferMode | SDIO_DataInitStruct->SDIO_DPSM;
 683              		.loc 1 525 33
 684 0034 7B68     		ldr	r3, [r7, #4]
 685 0036 1B69     		ldr	r3, [r3, #16]
 686              		.loc 1 525 12
 687 0038 1A43     		orrs	r2, r2, r3
 688              		.loc 1 525 74
 689 003a 7B68     		ldr	r3, [r7, #4]
ARM GAS  /var/folders/yl/_q9l42k90g1g4mdhbs226msm0000gn/T//cczyCFlE.s 			page 22


 690 003c 5B69     		ldr	r3, [r3, #20]
 691              		.loc 1 525 53
 692 003e 1343     		orrs	r3, r3, r2
 524:./Library/stm32f4xx_sdio.c ****            | SDIO_DataInitStruct->SDIO_TransferMode | SDIO_DataInitStruct->SDIO_DPSM;
 693              		.loc 1 524 10
 694 0040 FA68     		ldr	r2, [r7, #12]
 695 0042 1343     		orrs	r3, r3, r2
 696 0044 FB60     		str	r3, [r7, #12]
 526:./Library/stm32f4xx_sdio.c **** 
 527:./Library/stm32f4xx_sdio.c ****   /* Write to SDIO DCTRL */
 528:./Library/stm32f4xx_sdio.c ****   SDIO->DCTRL = tmpreg;
 697              		.loc 1 528 7
 698 0046 044A     		ldr	r2, .L29
 699              		.loc 1 528 15
 700 0048 FB68     		ldr	r3, [r7, #12]
 701 004a D362     		str	r3, [r2, #44]
 529:./Library/stm32f4xx_sdio.c **** }
 702              		.loc 1 529 1
 703 004c 00BF     		nop
 704 004e 1437     		adds	r7, r7, #20
 705              	.LCFI55:
 706              		.cfi_def_cfa_offset 4
 707 0050 BD46     		mov	sp, r7
 708              	.LCFI56:
 709              		.cfi_def_cfa_register 13
 710              		@ sp needed
 711 0052 5DF8047B 		ldr	r7, [sp], #4
 712              	.LCFI57:
 713              		.cfi_restore 7
 714              		.cfi_def_cfa_offset 0
 715 0056 7047     		bx	lr
 716              	.L30:
 717              		.align	2
 718              	.L29:
 719 0058 002C0140 		.word	1073818624
 720              		.cfi_endproc
 721              	.LFE133:
 723              		.section	.text.SDIO_DataStructInit,"ax",%progbits
 724              		.align	1
 725              		.global	SDIO_DataStructInit
 726              		.syntax unified
 727              		.thumb
 728              		.thumb_func
 730              	SDIO_DataStructInit:
 731              	.LFB134:
 530:./Library/stm32f4xx_sdio.c **** 
 531:./Library/stm32f4xx_sdio.c **** /**
 532:./Library/stm32f4xx_sdio.c ****   * @brief  Fills each SDIO_DataInitStruct member with its default value.
 533:./Library/stm32f4xx_sdio.c ****   * @param  SDIO_DataInitStruct: pointer to an SDIO_DataInitTypeDef structure 
 534:./Library/stm32f4xx_sdio.c ****   *         which will be initialized.
 535:./Library/stm32f4xx_sdio.c ****   * @retval None
 536:./Library/stm32f4xx_sdio.c ****   */
 537:./Library/stm32f4xx_sdio.c **** void SDIO_DataStructInit(SDIO_DataInitTypeDef* SDIO_DataInitStruct)
 538:./Library/stm32f4xx_sdio.c **** {
 732              		.loc 1 538 1
 733              		.cfi_startproc
 734              		@ args = 0, pretend = 0, frame = 8
ARM GAS  /var/folders/yl/_q9l42k90g1g4mdhbs226msm0000gn/T//cczyCFlE.s 			page 23


 735              		@ frame_needed = 1, uses_anonymous_args = 0
 736              		@ link register save eliminated.
 737 0000 80B4     		push	{r7}
 738              	.LCFI58:
 739              		.cfi_def_cfa_offset 4
 740              		.cfi_offset 7, -4
 741 0002 83B0     		sub	sp, sp, #12
 742              	.LCFI59:
 743              		.cfi_def_cfa_offset 16
 744 0004 00AF     		add	r7, sp, #0
 745              	.LCFI60:
 746              		.cfi_def_cfa_register 7
 747 0006 7860     		str	r0, [r7, #4]
 539:./Library/stm32f4xx_sdio.c ****   /* SDIO_DataInitStruct members default value */
 540:./Library/stm32f4xx_sdio.c ****   SDIO_DataInitStruct->SDIO_DataTimeOut = 0xFFFFFFFF;
 748              		.loc 1 540 41
 749 0008 7B68     		ldr	r3, [r7, #4]
 750 000a 4FF0FF32 		mov	r2, #-1
 751 000e 1A60     		str	r2, [r3]
 541:./Library/stm32f4xx_sdio.c ****   SDIO_DataInitStruct->SDIO_DataLength = 0x00;
 752              		.loc 1 541 40
 753 0010 7B68     		ldr	r3, [r7, #4]
 754 0012 0022     		movs	r2, #0
 755 0014 5A60     		str	r2, [r3, #4]
 542:./Library/stm32f4xx_sdio.c ****   SDIO_DataInitStruct->SDIO_DataBlockSize = SDIO_DataBlockSize_1b;
 756              		.loc 1 542 43
 757 0016 7B68     		ldr	r3, [r7, #4]
 758 0018 0022     		movs	r2, #0
 759 001a 9A60     		str	r2, [r3, #8]
 543:./Library/stm32f4xx_sdio.c ****   SDIO_DataInitStruct->SDIO_TransferDir = SDIO_TransferDir_ToCard;
 760              		.loc 1 543 41
 761 001c 7B68     		ldr	r3, [r7, #4]
 762 001e 0022     		movs	r2, #0
 763 0020 DA60     		str	r2, [r3, #12]
 544:./Library/stm32f4xx_sdio.c ****   SDIO_DataInitStruct->SDIO_TransferMode = SDIO_TransferMode_Block;  
 764              		.loc 1 544 42
 765 0022 7B68     		ldr	r3, [r7, #4]
 766 0024 0022     		movs	r2, #0
 767 0026 1A61     		str	r2, [r3, #16]
 545:./Library/stm32f4xx_sdio.c ****   SDIO_DataInitStruct->SDIO_DPSM = SDIO_DPSM_Disable;
 768              		.loc 1 545 34
 769 0028 7B68     		ldr	r3, [r7, #4]
 770 002a 0022     		movs	r2, #0
 771 002c 5A61     		str	r2, [r3, #20]
 546:./Library/stm32f4xx_sdio.c **** }
 772              		.loc 1 546 1
 773 002e 00BF     		nop
 774 0030 0C37     		adds	r7, r7, #12
 775              	.LCFI61:
 776              		.cfi_def_cfa_offset 4
 777 0032 BD46     		mov	sp, r7
 778              	.LCFI62:
 779              		.cfi_def_cfa_register 13
 780              		@ sp needed
 781 0034 5DF8047B 		ldr	r7, [sp], #4
 782              	.LCFI63:
 783              		.cfi_restore 7
ARM GAS  /var/folders/yl/_q9l42k90g1g4mdhbs226msm0000gn/T//cczyCFlE.s 			page 24


 784              		.cfi_def_cfa_offset 0
 785 0038 7047     		bx	lr
 786              		.cfi_endproc
 787              	.LFE134:
 789              		.section	.text.SDIO_GetDataCounter,"ax",%progbits
 790              		.align	1
 791              		.global	SDIO_GetDataCounter
 792              		.syntax unified
 793              		.thumb
 794              		.thumb_func
 796              	SDIO_GetDataCounter:
 797              	.LFB135:
 547:./Library/stm32f4xx_sdio.c **** 
 548:./Library/stm32f4xx_sdio.c **** /**
 549:./Library/stm32f4xx_sdio.c ****   * @brief  Returns number of remaining data bytes to be transferred.
 550:./Library/stm32f4xx_sdio.c ****   * @param  None
 551:./Library/stm32f4xx_sdio.c ****   * @retval Number of remaining data bytes to be transferred
 552:./Library/stm32f4xx_sdio.c ****   */
 553:./Library/stm32f4xx_sdio.c **** uint32_t SDIO_GetDataCounter(void)
 554:./Library/stm32f4xx_sdio.c **** { 
 798              		.loc 1 554 1
 799              		.cfi_startproc
 800              		@ args = 0, pretend = 0, frame = 0
 801              		@ frame_needed = 1, uses_anonymous_args = 0
 802              		@ link register save eliminated.
 803 0000 80B4     		push	{r7}
 804              	.LCFI64:
 805              		.cfi_def_cfa_offset 4
 806              		.cfi_offset 7, -4
 807 0002 00AF     		add	r7, sp, #0
 808              	.LCFI65:
 809              		.cfi_def_cfa_register 7
 555:./Library/stm32f4xx_sdio.c ****   return SDIO->DCOUNT;
 810              		.loc 1 555 14
 811 0004 034B     		ldr	r3, .L34
 812 0006 1B6B     		ldr	r3, [r3, #48]
 556:./Library/stm32f4xx_sdio.c **** }
 813              		.loc 1 556 1
 814 0008 1846     		mov	r0, r3
 815 000a BD46     		mov	sp, r7
 816              	.LCFI66:
 817              		.cfi_def_cfa_register 13
 818              		@ sp needed
 819 000c 5DF8047B 		ldr	r7, [sp], #4
 820              	.LCFI67:
 821              		.cfi_restore 7
 822              		.cfi_def_cfa_offset 0
 823 0010 7047     		bx	lr
 824              	.L35:
 825 0012 00BF     		.align	2
 826              	.L34:
 827 0014 002C0140 		.word	1073818624
 828              		.cfi_endproc
 829              	.LFE135:
 831              		.section	.text.SDIO_ReadData,"ax",%progbits
 832              		.align	1
 833              		.global	SDIO_ReadData
ARM GAS  /var/folders/yl/_q9l42k90g1g4mdhbs226msm0000gn/T//cczyCFlE.s 			page 25


 834              		.syntax unified
 835              		.thumb
 836              		.thumb_func
 838              	SDIO_ReadData:
 839              	.LFB136:
 557:./Library/stm32f4xx_sdio.c **** 
 558:./Library/stm32f4xx_sdio.c **** /**
 559:./Library/stm32f4xx_sdio.c ****   * @brief  Read one data word from Rx FIFO.
 560:./Library/stm32f4xx_sdio.c ****   * @param  None
 561:./Library/stm32f4xx_sdio.c ****   * @retval Data received
 562:./Library/stm32f4xx_sdio.c ****   */
 563:./Library/stm32f4xx_sdio.c **** uint32_t SDIO_ReadData(void)
 564:./Library/stm32f4xx_sdio.c **** { 
 840              		.loc 1 564 1
 841              		.cfi_startproc
 842              		@ args = 0, pretend = 0, frame = 0
 843              		@ frame_needed = 1, uses_anonymous_args = 0
 844              		@ link register save eliminated.
 845 0000 80B4     		push	{r7}
 846              	.LCFI68:
 847              		.cfi_def_cfa_offset 4
 848              		.cfi_offset 7, -4
 849 0002 00AF     		add	r7, sp, #0
 850              	.LCFI69:
 851              		.cfi_def_cfa_register 7
 565:./Library/stm32f4xx_sdio.c ****   return SDIO->FIFO;
 852              		.loc 1 565 14
 853 0004 034B     		ldr	r3, .L38
 854 0006 D3F88030 		ldr	r3, [r3, #128]
 566:./Library/stm32f4xx_sdio.c **** }
 855              		.loc 1 566 1
 856 000a 1846     		mov	r0, r3
 857 000c BD46     		mov	sp, r7
 858              	.LCFI70:
 859              		.cfi_def_cfa_register 13
 860              		@ sp needed
 861 000e 5DF8047B 		ldr	r7, [sp], #4
 862              	.LCFI71:
 863              		.cfi_restore 7
 864              		.cfi_def_cfa_offset 0
 865 0012 7047     		bx	lr
 866              	.L39:
 867              		.align	2
 868              	.L38:
 869 0014 002C0140 		.word	1073818624
 870              		.cfi_endproc
 871              	.LFE136:
 873              		.section	.text.SDIO_WriteData,"ax",%progbits
 874              		.align	1
 875              		.global	SDIO_WriteData
 876              		.syntax unified
 877              		.thumb
 878              		.thumb_func
 880              	SDIO_WriteData:
 881              	.LFB137:
 567:./Library/stm32f4xx_sdio.c **** 
 568:./Library/stm32f4xx_sdio.c **** /**
ARM GAS  /var/folders/yl/_q9l42k90g1g4mdhbs226msm0000gn/T//cczyCFlE.s 			page 26


 569:./Library/stm32f4xx_sdio.c ****   * @brief  Write one data word to Tx FIFO.
 570:./Library/stm32f4xx_sdio.c ****   * @param  Data: 32-bit data word to write.
 571:./Library/stm32f4xx_sdio.c ****   * @retval None
 572:./Library/stm32f4xx_sdio.c ****   */
 573:./Library/stm32f4xx_sdio.c **** void SDIO_WriteData(uint32_t Data)
 574:./Library/stm32f4xx_sdio.c **** { 
 882              		.loc 1 574 1
 883              		.cfi_startproc
 884              		@ args = 0, pretend = 0, frame = 8
 885              		@ frame_needed = 1, uses_anonymous_args = 0
 886              		@ link register save eliminated.
 887 0000 80B4     		push	{r7}
 888              	.LCFI72:
 889              		.cfi_def_cfa_offset 4
 890              		.cfi_offset 7, -4
 891 0002 83B0     		sub	sp, sp, #12
 892              	.LCFI73:
 893              		.cfi_def_cfa_offset 16
 894 0004 00AF     		add	r7, sp, #0
 895              	.LCFI74:
 896              		.cfi_def_cfa_register 7
 897 0006 7860     		str	r0, [r7, #4]
 575:./Library/stm32f4xx_sdio.c ****   SDIO->FIFO = Data;
 898              		.loc 1 575 7
 899 0008 044A     		ldr	r2, .L41
 900              		.loc 1 575 14
 901 000a 7B68     		ldr	r3, [r7, #4]
 902 000c C2F88030 		str	r3, [r2, #128]
 576:./Library/stm32f4xx_sdio.c **** }
 903              		.loc 1 576 1
 904 0010 00BF     		nop
 905 0012 0C37     		adds	r7, r7, #12
 906              	.LCFI75:
 907              		.cfi_def_cfa_offset 4
 908 0014 BD46     		mov	sp, r7
 909              	.LCFI76:
 910              		.cfi_def_cfa_register 13
 911              		@ sp needed
 912 0016 5DF8047B 		ldr	r7, [sp], #4
 913              	.LCFI77:
 914              		.cfi_restore 7
 915              		.cfi_def_cfa_offset 0
 916 001a 7047     		bx	lr
 917              	.L42:
 918              		.align	2
 919              	.L41:
 920 001c 002C0140 		.word	1073818624
 921              		.cfi_endproc
 922              	.LFE137:
 924              		.section	.text.SDIO_GetFIFOCount,"ax",%progbits
 925              		.align	1
 926              		.global	SDIO_GetFIFOCount
 927              		.syntax unified
 928              		.thumb
 929              		.thumb_func
 931              	SDIO_GetFIFOCount:
 932              	.LFB138:
ARM GAS  /var/folders/yl/_q9l42k90g1g4mdhbs226msm0000gn/T//cczyCFlE.s 			page 27


 577:./Library/stm32f4xx_sdio.c **** 
 578:./Library/stm32f4xx_sdio.c **** /**
 579:./Library/stm32f4xx_sdio.c ****   * @brief  Returns the number of words left to be written to or read from FIFO.	
 580:./Library/stm32f4xx_sdio.c ****   * @param  None
 581:./Library/stm32f4xx_sdio.c ****   * @retval Remaining number of words.
 582:./Library/stm32f4xx_sdio.c ****   */
 583:./Library/stm32f4xx_sdio.c **** uint32_t SDIO_GetFIFOCount(void)
 584:./Library/stm32f4xx_sdio.c **** { 
 933              		.loc 1 584 1
 934              		.cfi_startproc
 935              		@ args = 0, pretend = 0, frame = 0
 936              		@ frame_needed = 1, uses_anonymous_args = 0
 937              		@ link register save eliminated.
 938 0000 80B4     		push	{r7}
 939              	.LCFI78:
 940              		.cfi_def_cfa_offset 4
 941              		.cfi_offset 7, -4
 942 0002 00AF     		add	r7, sp, #0
 943              	.LCFI79:
 944              		.cfi_def_cfa_register 7
 585:./Library/stm32f4xx_sdio.c ****   return SDIO->FIFOCNT;
 945              		.loc 1 585 14
 946 0004 034B     		ldr	r3, .L45
 947 0006 9B6C     		ldr	r3, [r3, #72]
 586:./Library/stm32f4xx_sdio.c **** }
 948              		.loc 1 586 1
 949 0008 1846     		mov	r0, r3
 950 000a BD46     		mov	sp, r7
 951              	.LCFI80:
 952              		.cfi_def_cfa_register 13
 953              		@ sp needed
 954 000c 5DF8047B 		ldr	r7, [sp], #4
 955              	.LCFI81:
 956              		.cfi_restore 7
 957              		.cfi_def_cfa_offset 0
 958 0010 7047     		bx	lr
 959              	.L46:
 960 0012 00BF     		.align	2
 961              	.L45:
 962 0014 002C0140 		.word	1073818624
 963              		.cfi_endproc
 964              	.LFE138:
 966              		.section	.text.SDIO_StartSDIOReadWait,"ax",%progbits
 967              		.align	1
 968              		.global	SDIO_StartSDIOReadWait
 969              		.syntax unified
 970              		.thumb
 971              		.thumb_func
 973              	SDIO_StartSDIOReadWait:
 974              	.LFB139:
 587:./Library/stm32f4xx_sdio.c **** 
 588:./Library/stm32f4xx_sdio.c **** /**
 589:./Library/stm32f4xx_sdio.c ****   * @}
 590:./Library/stm32f4xx_sdio.c ****   */
 591:./Library/stm32f4xx_sdio.c **** 
 592:./Library/stm32f4xx_sdio.c **** /** @defgroup SDIO_Group4 SDIO IO Cards mode management functions
 593:./Library/stm32f4xx_sdio.c ****  *  @brief   SDIO IO Cards mode management functions
ARM GAS  /var/folders/yl/_q9l42k90g1g4mdhbs226msm0000gn/T//cczyCFlE.s 			page 28


 594:./Library/stm32f4xx_sdio.c ****  *
 595:./Library/stm32f4xx_sdio.c **** @verbatim   
 596:./Library/stm32f4xx_sdio.c ****  ===============================================================================
 597:./Library/stm32f4xx_sdio.c ****                ##### SDIO IO Cards mode management functions #####
 598:./Library/stm32f4xx_sdio.c ****  ===============================================================================  
 599:./Library/stm32f4xx_sdio.c **** 
 600:./Library/stm32f4xx_sdio.c ****   This section provide functions allowing to program and read the SDIO IO Cards.
 601:./Library/stm32f4xx_sdio.c **** 
 602:./Library/stm32f4xx_sdio.c **** @endverbatim
 603:./Library/stm32f4xx_sdio.c ****   * @{
 604:./Library/stm32f4xx_sdio.c ****   */
 605:./Library/stm32f4xx_sdio.c **** 
 606:./Library/stm32f4xx_sdio.c **** /**
 607:./Library/stm32f4xx_sdio.c ****   * @brief  Starts the SD I/O Read Wait operation.	
 608:./Library/stm32f4xx_sdio.c ****   * @param  NewState: new state of the Start SDIO Read Wait operation. 
 609:./Library/stm32f4xx_sdio.c ****   *         This parameter can be: ENABLE or DISABLE.
 610:./Library/stm32f4xx_sdio.c ****   * @retval None
 611:./Library/stm32f4xx_sdio.c ****   */
 612:./Library/stm32f4xx_sdio.c **** void SDIO_StartSDIOReadWait(FunctionalState NewState)
 613:./Library/stm32f4xx_sdio.c **** { 
 975              		.loc 1 613 1
 976              		.cfi_startproc
 977              		@ args = 0, pretend = 0, frame = 8
 978              		@ frame_needed = 1, uses_anonymous_args = 0
 979              		@ link register save eliminated.
 980 0000 80B4     		push	{r7}
 981              	.LCFI82:
 982              		.cfi_def_cfa_offset 4
 983              		.cfi_offset 7, -4
 984 0002 83B0     		sub	sp, sp, #12
 985              	.LCFI83:
 986              		.cfi_def_cfa_offset 16
 987 0004 00AF     		add	r7, sp, #0
 988              	.LCFI84:
 989              		.cfi_def_cfa_register 7
 990 0006 0346     		mov	r3, r0
 991 0008 FB71     		strb	r3, [r7, #7]
 614:./Library/stm32f4xx_sdio.c ****   /* Check the parameters */
 615:./Library/stm32f4xx_sdio.c ****   assert_param(IS_FUNCTIONAL_STATE(NewState));
 616:./Library/stm32f4xx_sdio.c ****   
 617:./Library/stm32f4xx_sdio.c ****   *(__IO uint32_t *) DCTRL_RWSTART_BB = (uint32_t) NewState;
 992              		.loc 1 617 3
 993 000a 044A     		ldr	r2, .L48
 994              		.loc 1 617 41
 995 000c FB79     		ldrb	r3, [r7, #7]	@ zero_extendqisi2
 996              		.loc 1 617 39
 997 000e 1360     		str	r3, [r2]
 618:./Library/stm32f4xx_sdio.c **** }
 998              		.loc 1 618 1
 999 0010 00BF     		nop
 1000 0012 0C37     		adds	r7, r7, #12
 1001              	.LCFI85:
 1002              		.cfi_def_cfa_offset 4
 1003 0014 BD46     		mov	sp, r7
 1004              	.LCFI86:
 1005              		.cfi_def_cfa_register 13
 1006              		@ sp needed
ARM GAS  /var/folders/yl/_q9l42k90g1g4mdhbs226msm0000gn/T//cczyCFlE.s 			page 29


 1007 0016 5DF8047B 		ldr	r7, [sp], #4
 1008              	.LCFI87:
 1009              		.cfi_restore 7
 1010              		.cfi_def_cfa_offset 0
 1011 001a 7047     		bx	lr
 1012              	.L49:
 1013              		.align	2
 1014              	.L48:
 1015 001c A0852542 		.word	1109755296
 1016              		.cfi_endproc
 1017              	.LFE139:
 1019              		.section	.text.SDIO_StopSDIOReadWait,"ax",%progbits
 1020              		.align	1
 1021              		.global	SDIO_StopSDIOReadWait
 1022              		.syntax unified
 1023              		.thumb
 1024              		.thumb_func
 1026              	SDIO_StopSDIOReadWait:
 1027              	.LFB140:
 619:./Library/stm32f4xx_sdio.c **** 
 620:./Library/stm32f4xx_sdio.c **** /**
 621:./Library/stm32f4xx_sdio.c ****   * @brief  Stops the SD I/O Read Wait operation.	
 622:./Library/stm32f4xx_sdio.c ****   * @param  NewState: new state of the Stop SDIO Read Wait operation. 
 623:./Library/stm32f4xx_sdio.c ****   *         This parameter can be: ENABLE or DISABLE.
 624:./Library/stm32f4xx_sdio.c ****   * @retval None
 625:./Library/stm32f4xx_sdio.c ****   */
 626:./Library/stm32f4xx_sdio.c **** void SDIO_StopSDIOReadWait(FunctionalState NewState)
 627:./Library/stm32f4xx_sdio.c **** { 
 1028              		.loc 1 627 1
 1029              		.cfi_startproc
 1030              		@ args = 0, pretend = 0, frame = 8
 1031              		@ frame_needed = 1, uses_anonymous_args = 0
 1032              		@ link register save eliminated.
 1033 0000 80B4     		push	{r7}
 1034              	.LCFI88:
 1035              		.cfi_def_cfa_offset 4
 1036              		.cfi_offset 7, -4
 1037 0002 83B0     		sub	sp, sp, #12
 1038              	.LCFI89:
 1039              		.cfi_def_cfa_offset 16
 1040 0004 00AF     		add	r7, sp, #0
 1041              	.LCFI90:
 1042              		.cfi_def_cfa_register 7
 1043 0006 0346     		mov	r3, r0
 1044 0008 FB71     		strb	r3, [r7, #7]
 628:./Library/stm32f4xx_sdio.c ****   /* Check the parameters */
 629:./Library/stm32f4xx_sdio.c ****   assert_param(IS_FUNCTIONAL_STATE(NewState));
 630:./Library/stm32f4xx_sdio.c ****   
 631:./Library/stm32f4xx_sdio.c ****   *(__IO uint32_t *) DCTRL_RWSTOP_BB = (uint32_t) NewState;
 1045              		.loc 1 631 3
 1046 000a 044A     		ldr	r2, .L51
 1047              		.loc 1 631 40
 1048 000c FB79     		ldrb	r3, [r7, #7]	@ zero_extendqisi2
 1049              		.loc 1 631 38
 1050 000e 1360     		str	r3, [r2]
 632:./Library/stm32f4xx_sdio.c **** }
 1051              		.loc 1 632 1
ARM GAS  /var/folders/yl/_q9l42k90g1g4mdhbs226msm0000gn/T//cczyCFlE.s 			page 30


 1052 0010 00BF     		nop
 1053 0012 0C37     		adds	r7, r7, #12
 1054              	.LCFI91:
 1055              		.cfi_def_cfa_offset 4
 1056 0014 BD46     		mov	sp, r7
 1057              	.LCFI92:
 1058              		.cfi_def_cfa_register 13
 1059              		@ sp needed
 1060 0016 5DF8047B 		ldr	r7, [sp], #4
 1061              	.LCFI93:
 1062              		.cfi_restore 7
 1063              		.cfi_def_cfa_offset 0
 1064 001a 7047     		bx	lr
 1065              	.L52:
 1066              		.align	2
 1067              	.L51:
 1068 001c A4852542 		.word	1109755300
 1069              		.cfi_endproc
 1070              	.LFE140:
 1072              		.section	.text.SDIO_SetSDIOReadWaitMode,"ax",%progbits
 1073              		.align	1
 1074              		.global	SDIO_SetSDIOReadWaitMode
 1075              		.syntax unified
 1076              		.thumb
 1077              		.thumb_func
 1079              	SDIO_SetSDIOReadWaitMode:
 1080              	.LFB141:
 633:./Library/stm32f4xx_sdio.c **** 
 634:./Library/stm32f4xx_sdio.c **** /**
 635:./Library/stm32f4xx_sdio.c ****   * @brief  Sets one of the two options of inserting read wait interval.
 636:./Library/stm32f4xx_sdio.c ****   * @param  SDIO_ReadWaitMode: SD I/O Read Wait operation mode.
 637:./Library/stm32f4xx_sdio.c ****   *          This parameter can be:
 638:./Library/stm32f4xx_sdio.c ****   *            @arg SDIO_ReadWaitMode_CLK: Read Wait control by stopping SDIOCLK
 639:./Library/stm32f4xx_sdio.c ****   *            @arg SDIO_ReadWaitMode_DATA2: Read Wait control using SDIO_DATA2
 640:./Library/stm32f4xx_sdio.c ****   * @retval None
 641:./Library/stm32f4xx_sdio.c ****   */
 642:./Library/stm32f4xx_sdio.c **** void SDIO_SetSDIOReadWaitMode(uint32_t SDIO_ReadWaitMode)
 643:./Library/stm32f4xx_sdio.c **** {
 1081              		.loc 1 643 1
 1082              		.cfi_startproc
 1083              		@ args = 0, pretend = 0, frame = 8
 1084              		@ frame_needed = 1, uses_anonymous_args = 0
 1085              		@ link register save eliminated.
 1086 0000 80B4     		push	{r7}
 1087              	.LCFI94:
 1088              		.cfi_def_cfa_offset 4
 1089              		.cfi_offset 7, -4
 1090 0002 83B0     		sub	sp, sp, #12
 1091              	.LCFI95:
 1092              		.cfi_def_cfa_offset 16
 1093 0004 00AF     		add	r7, sp, #0
 1094              	.LCFI96:
 1095              		.cfi_def_cfa_register 7
 1096 0006 7860     		str	r0, [r7, #4]
 644:./Library/stm32f4xx_sdio.c ****   /* Check the parameters */
 645:./Library/stm32f4xx_sdio.c ****   assert_param(IS_SDIO_READWAIT_MODE(SDIO_ReadWaitMode));
 646:./Library/stm32f4xx_sdio.c ****   
ARM GAS  /var/folders/yl/_q9l42k90g1g4mdhbs226msm0000gn/T//cczyCFlE.s 			page 31


 647:./Library/stm32f4xx_sdio.c ****   *(__IO uint32_t *) DCTRL_RWMOD_BB = SDIO_ReadWaitMode;
 1097              		.loc 1 647 3
 1098 0008 044A     		ldr	r2, .L54
 1099              		.loc 1 647 37
 1100 000a 7B68     		ldr	r3, [r7, #4]
 1101 000c 1360     		str	r3, [r2]
 648:./Library/stm32f4xx_sdio.c **** }
 1102              		.loc 1 648 1
 1103 000e 00BF     		nop
 1104 0010 0C37     		adds	r7, r7, #12
 1105              	.LCFI97:
 1106              		.cfi_def_cfa_offset 4
 1107 0012 BD46     		mov	sp, r7
 1108              	.LCFI98:
 1109              		.cfi_def_cfa_register 13
 1110              		@ sp needed
 1111 0014 5DF8047B 		ldr	r7, [sp], #4
 1112              	.LCFI99:
 1113              		.cfi_restore 7
 1114              		.cfi_def_cfa_offset 0
 1115 0018 7047     		bx	lr
 1116              	.L55:
 1117 001a 00BF     		.align	2
 1118              	.L54:
 1119 001c A8852542 		.word	1109755304
 1120              		.cfi_endproc
 1121              	.LFE141:
 1123              		.section	.text.SDIO_SetSDIOOperation,"ax",%progbits
 1124              		.align	1
 1125              		.global	SDIO_SetSDIOOperation
 1126              		.syntax unified
 1127              		.thumb
 1128              		.thumb_func
 1130              	SDIO_SetSDIOOperation:
 1131              	.LFB142:
 649:./Library/stm32f4xx_sdio.c **** 
 650:./Library/stm32f4xx_sdio.c **** /**
 651:./Library/stm32f4xx_sdio.c ****   * @brief  Enables or disables the SD I/O Mode Operation.
 652:./Library/stm32f4xx_sdio.c ****   * @param  NewState: new state of SDIO specific operation. 
 653:./Library/stm32f4xx_sdio.c ****   *         This parameter can be: ENABLE or DISABLE.
 654:./Library/stm32f4xx_sdio.c ****   * @retval None
 655:./Library/stm32f4xx_sdio.c ****   */
 656:./Library/stm32f4xx_sdio.c **** void SDIO_SetSDIOOperation(FunctionalState NewState)
 657:./Library/stm32f4xx_sdio.c **** { 
 1132              		.loc 1 657 1
 1133              		.cfi_startproc
 1134              		@ args = 0, pretend = 0, frame = 8
 1135              		@ frame_needed = 1, uses_anonymous_args = 0
 1136              		@ link register save eliminated.
 1137 0000 80B4     		push	{r7}
 1138              	.LCFI100:
 1139              		.cfi_def_cfa_offset 4
 1140              		.cfi_offset 7, -4
 1141 0002 83B0     		sub	sp, sp, #12
 1142              	.LCFI101:
 1143              		.cfi_def_cfa_offset 16
 1144 0004 00AF     		add	r7, sp, #0
ARM GAS  /var/folders/yl/_q9l42k90g1g4mdhbs226msm0000gn/T//cczyCFlE.s 			page 32


 1145              	.LCFI102:
 1146              		.cfi_def_cfa_register 7
 1147 0006 0346     		mov	r3, r0
 1148 0008 FB71     		strb	r3, [r7, #7]
 658:./Library/stm32f4xx_sdio.c ****   /* Check the parameters */
 659:./Library/stm32f4xx_sdio.c ****   assert_param(IS_FUNCTIONAL_STATE(NewState));
 660:./Library/stm32f4xx_sdio.c ****   
 661:./Library/stm32f4xx_sdio.c ****   *(__IO uint32_t *) DCTRL_SDIOEN_BB = (uint32_t)NewState;
 1149              		.loc 1 661 3
 1150 000a 044A     		ldr	r2, .L57
 1151              		.loc 1 661 40
 1152 000c FB79     		ldrb	r3, [r7, #7]	@ zero_extendqisi2
 1153              		.loc 1 661 38
 1154 000e 1360     		str	r3, [r2]
 662:./Library/stm32f4xx_sdio.c **** }
 1155              		.loc 1 662 1
 1156 0010 00BF     		nop
 1157 0012 0C37     		adds	r7, r7, #12
 1158              	.LCFI103:
 1159              		.cfi_def_cfa_offset 4
 1160 0014 BD46     		mov	sp, r7
 1161              	.LCFI104:
 1162              		.cfi_def_cfa_register 13
 1163              		@ sp needed
 1164 0016 5DF8047B 		ldr	r7, [sp], #4
 1165              	.LCFI105:
 1166              		.cfi_restore 7
 1167              		.cfi_def_cfa_offset 0
 1168 001a 7047     		bx	lr
 1169              	.L58:
 1170              		.align	2
 1171              	.L57:
 1172 001c AC852542 		.word	1109755308
 1173              		.cfi_endproc
 1174              	.LFE142:
 1176              		.section	.text.SDIO_SendSDIOSuspendCmd,"ax",%progbits
 1177              		.align	1
 1178              		.global	SDIO_SendSDIOSuspendCmd
 1179              		.syntax unified
 1180              		.thumb
 1181              		.thumb_func
 1183              	SDIO_SendSDIOSuspendCmd:
 1184              	.LFB143:
 663:./Library/stm32f4xx_sdio.c **** 
 664:./Library/stm32f4xx_sdio.c **** /**
 665:./Library/stm32f4xx_sdio.c ****   * @brief  Enables or disables the SD I/O Mode suspend command sending.
 666:./Library/stm32f4xx_sdio.c ****   * @param  NewState: new state of the SD I/O Mode suspend command.
 667:./Library/stm32f4xx_sdio.c ****   *         This parameter can be: ENABLE or DISABLE.
 668:./Library/stm32f4xx_sdio.c ****   * @retval None
 669:./Library/stm32f4xx_sdio.c ****   */
 670:./Library/stm32f4xx_sdio.c **** void SDIO_SendSDIOSuspendCmd(FunctionalState NewState)
 671:./Library/stm32f4xx_sdio.c **** { 
 1185              		.loc 1 671 1
 1186              		.cfi_startproc
 1187              		@ args = 0, pretend = 0, frame = 8
 1188              		@ frame_needed = 1, uses_anonymous_args = 0
 1189              		@ link register save eliminated.
ARM GAS  /var/folders/yl/_q9l42k90g1g4mdhbs226msm0000gn/T//cczyCFlE.s 			page 33


 1190 0000 80B4     		push	{r7}
 1191              	.LCFI106:
 1192              		.cfi_def_cfa_offset 4
 1193              		.cfi_offset 7, -4
 1194 0002 83B0     		sub	sp, sp, #12
 1195              	.LCFI107:
 1196              		.cfi_def_cfa_offset 16
 1197 0004 00AF     		add	r7, sp, #0
 1198              	.LCFI108:
 1199              		.cfi_def_cfa_register 7
 1200 0006 0346     		mov	r3, r0
 1201 0008 FB71     		strb	r3, [r7, #7]
 672:./Library/stm32f4xx_sdio.c ****   /* Check the parameters */
 673:./Library/stm32f4xx_sdio.c ****   assert_param(IS_FUNCTIONAL_STATE(NewState));
 674:./Library/stm32f4xx_sdio.c ****   
 675:./Library/stm32f4xx_sdio.c ****   *(__IO uint32_t *) CMD_SDIOSUSPEND_BB = (uint32_t)NewState;
 1202              		.loc 1 675 3
 1203 000a 044A     		ldr	r2, .L60
 1204              		.loc 1 675 43
 1205 000c FB79     		ldrb	r3, [r7, #7]	@ zero_extendqisi2
 1206              		.loc 1 675 41
 1207 000e 1360     		str	r3, [r2]
 676:./Library/stm32f4xx_sdio.c **** }
 1208              		.loc 1 676 1
 1209 0010 00BF     		nop
 1210 0012 0C37     		adds	r7, r7, #12
 1211              	.LCFI109:
 1212              		.cfi_def_cfa_offset 4
 1213 0014 BD46     		mov	sp, r7
 1214              	.LCFI110:
 1215              		.cfi_def_cfa_register 13
 1216              		@ sp needed
 1217 0016 5DF8047B 		ldr	r7, [sp], #4
 1218              	.LCFI111:
 1219              		.cfi_restore 7
 1220              		.cfi_def_cfa_offset 0
 1221 001a 7047     		bx	lr
 1222              	.L61:
 1223              		.align	2
 1224              	.L60:
 1225 001c AC812542 		.word	1109754284
 1226              		.cfi_endproc
 1227              	.LFE143:
 1229              		.section	.text.SDIO_CommandCompletionCmd,"ax",%progbits
 1230              		.align	1
 1231              		.global	SDIO_CommandCompletionCmd
 1232              		.syntax unified
 1233              		.thumb
 1234              		.thumb_func
 1236              	SDIO_CommandCompletionCmd:
 1237              	.LFB144:
 677:./Library/stm32f4xx_sdio.c **** 
 678:./Library/stm32f4xx_sdio.c **** /**
 679:./Library/stm32f4xx_sdio.c ****   * @}
 680:./Library/stm32f4xx_sdio.c ****   */
 681:./Library/stm32f4xx_sdio.c **** 
 682:./Library/stm32f4xx_sdio.c **** /** @defgroup SDIO_Group5 CE-ATA mode management functions
ARM GAS  /var/folders/yl/_q9l42k90g1g4mdhbs226msm0000gn/T//cczyCFlE.s 			page 34


 683:./Library/stm32f4xx_sdio.c ****  *  @brief   CE-ATA mode management functions
 684:./Library/stm32f4xx_sdio.c ****  *
 685:./Library/stm32f4xx_sdio.c **** @verbatim   
 686:./Library/stm32f4xx_sdio.c ****  ===============================================================================
 687:./Library/stm32f4xx_sdio.c ****                   ##### CE-ATA mode management functions #####
 688:./Library/stm32f4xx_sdio.c ****  ===============================================================================  
 689:./Library/stm32f4xx_sdio.c **** 
 690:./Library/stm32f4xx_sdio.c ****   This section provide functions allowing to program and read the CE-ATA card.
 691:./Library/stm32f4xx_sdio.c **** 
 692:./Library/stm32f4xx_sdio.c **** @endverbatim
 693:./Library/stm32f4xx_sdio.c ****   * @{
 694:./Library/stm32f4xx_sdio.c ****   */
 695:./Library/stm32f4xx_sdio.c **** 
 696:./Library/stm32f4xx_sdio.c **** /**
 697:./Library/stm32f4xx_sdio.c ****   * @brief  Enables or disables the command completion signal.
 698:./Library/stm32f4xx_sdio.c ****   * @param  NewState: new state of command completion signal. 
 699:./Library/stm32f4xx_sdio.c ****   *         This parameter can be: ENABLE or DISABLE.
 700:./Library/stm32f4xx_sdio.c ****   * @retval None
 701:./Library/stm32f4xx_sdio.c ****   */
 702:./Library/stm32f4xx_sdio.c **** void SDIO_CommandCompletionCmd(FunctionalState NewState)
 703:./Library/stm32f4xx_sdio.c **** { 
 1238              		.loc 1 703 1
 1239              		.cfi_startproc
 1240              		@ args = 0, pretend = 0, frame = 8
 1241              		@ frame_needed = 1, uses_anonymous_args = 0
 1242              		@ link register save eliminated.
 1243 0000 80B4     		push	{r7}
 1244              	.LCFI112:
 1245              		.cfi_def_cfa_offset 4
 1246              		.cfi_offset 7, -4
 1247 0002 83B0     		sub	sp, sp, #12
 1248              	.LCFI113:
 1249              		.cfi_def_cfa_offset 16
 1250 0004 00AF     		add	r7, sp, #0
 1251              	.LCFI114:
 1252              		.cfi_def_cfa_register 7
 1253 0006 0346     		mov	r3, r0
 1254 0008 FB71     		strb	r3, [r7, #7]
 704:./Library/stm32f4xx_sdio.c ****   /* Check the parameters */
 705:./Library/stm32f4xx_sdio.c ****   assert_param(IS_FUNCTIONAL_STATE(NewState));
 706:./Library/stm32f4xx_sdio.c ****   
 707:./Library/stm32f4xx_sdio.c ****   *(__IO uint32_t *) CMD_ENCMDCOMPL_BB = (uint32_t)NewState;
 1255              		.loc 1 707 3
 1256 000a 044A     		ldr	r2, .L63
 1257              		.loc 1 707 42
 1258 000c FB79     		ldrb	r3, [r7, #7]	@ zero_extendqisi2
 1259              		.loc 1 707 40
 1260 000e 1360     		str	r3, [r2]
 708:./Library/stm32f4xx_sdio.c **** }
 1261              		.loc 1 708 1
 1262 0010 00BF     		nop
 1263 0012 0C37     		adds	r7, r7, #12
 1264              	.LCFI115:
 1265              		.cfi_def_cfa_offset 4
 1266 0014 BD46     		mov	sp, r7
 1267              	.LCFI116:
 1268              		.cfi_def_cfa_register 13
ARM GAS  /var/folders/yl/_q9l42k90g1g4mdhbs226msm0000gn/T//cczyCFlE.s 			page 35


 1269              		@ sp needed
 1270 0016 5DF8047B 		ldr	r7, [sp], #4
 1271              	.LCFI117:
 1272              		.cfi_restore 7
 1273              		.cfi_def_cfa_offset 0
 1274 001a 7047     		bx	lr
 1275              	.L64:
 1276              		.align	2
 1277              	.L63:
 1278 001c B0812542 		.word	1109754288
 1279              		.cfi_endproc
 1280              	.LFE144:
 1282              		.section	.text.SDIO_CEATAITCmd,"ax",%progbits
 1283              		.align	1
 1284              		.global	SDIO_CEATAITCmd
 1285              		.syntax unified
 1286              		.thumb
 1287              		.thumb_func
 1289              	SDIO_CEATAITCmd:
 1290              	.LFB145:
 709:./Library/stm32f4xx_sdio.c **** 
 710:./Library/stm32f4xx_sdio.c **** /**
 711:./Library/stm32f4xx_sdio.c ****   * @brief  Enables or disables the CE-ATA interrupt.
 712:./Library/stm32f4xx_sdio.c ****   * @param  NewState: new state of CE-ATA interrupt. 
 713:./Library/stm32f4xx_sdio.c ****   *         This parameter can be: ENABLE or DISABLE.
 714:./Library/stm32f4xx_sdio.c ****   * @retval None
 715:./Library/stm32f4xx_sdio.c ****   */
 716:./Library/stm32f4xx_sdio.c **** void SDIO_CEATAITCmd(FunctionalState NewState)
 717:./Library/stm32f4xx_sdio.c **** { 
 1291              		.loc 1 717 1
 1292              		.cfi_startproc
 1293              		@ args = 0, pretend = 0, frame = 8
 1294              		@ frame_needed = 1, uses_anonymous_args = 0
 1295              		@ link register save eliminated.
 1296 0000 80B4     		push	{r7}
 1297              	.LCFI118:
 1298              		.cfi_def_cfa_offset 4
 1299              		.cfi_offset 7, -4
 1300 0002 83B0     		sub	sp, sp, #12
 1301              	.LCFI119:
 1302              		.cfi_def_cfa_offset 16
 1303 0004 00AF     		add	r7, sp, #0
 1304              	.LCFI120:
 1305              		.cfi_def_cfa_register 7
 1306 0006 0346     		mov	r3, r0
 1307 0008 FB71     		strb	r3, [r7, #7]
 718:./Library/stm32f4xx_sdio.c ****   /* Check the parameters */
 719:./Library/stm32f4xx_sdio.c ****   assert_param(IS_FUNCTIONAL_STATE(NewState));
 720:./Library/stm32f4xx_sdio.c ****   
 721:./Library/stm32f4xx_sdio.c ****   *(__IO uint32_t *) CMD_NIEN_BB = (uint32_t)((~((uint32_t)NewState)) & ((uint32_t)0x1));
 1308              		.loc 1 721 50
 1309 000a FB79     		ldrb	r3, [r7, #7]	@ zero_extendqisi2
 1310              		.loc 1 721 36
 1311 000c 03F00103 		and	r3, r3, #1
 1312 0010 002B     		cmp	r3, #0
 1313 0012 0CBF     		ite	eq
 1314 0014 0123     		moveq	r3, #1
ARM GAS  /var/folders/yl/_q9l42k90g1g4mdhbs226msm0000gn/T//cczyCFlE.s 			page 36


 1315 0016 0023     		movne	r3, #0
 1316 0018 DAB2     		uxtb	r2, r3
 1317              		.loc 1 721 3
 1318 001a 044B     		ldr	r3, .L66
 1319              		.loc 1 721 34
 1320 001c 1A60     		str	r2, [r3]
 722:./Library/stm32f4xx_sdio.c **** }
 1321              		.loc 1 722 1
 1322 001e 00BF     		nop
 1323 0020 0C37     		adds	r7, r7, #12
 1324              	.LCFI121:
 1325              		.cfi_def_cfa_offset 4
 1326 0022 BD46     		mov	sp, r7
 1327              	.LCFI122:
 1328              		.cfi_def_cfa_register 13
 1329              		@ sp needed
 1330 0024 5DF8047B 		ldr	r7, [sp], #4
 1331              	.LCFI123:
 1332              		.cfi_restore 7
 1333              		.cfi_def_cfa_offset 0
 1334 0028 7047     		bx	lr
 1335              	.L67:
 1336 002a 00BF     		.align	2
 1337              	.L66:
 1338 002c B4812542 		.word	1109754292
 1339              		.cfi_endproc
 1340              	.LFE145:
 1342              		.section	.text.SDIO_SendCEATACmd,"ax",%progbits
 1343              		.align	1
 1344              		.global	SDIO_SendCEATACmd
 1345              		.syntax unified
 1346              		.thumb
 1347              		.thumb_func
 1349              	SDIO_SendCEATACmd:
 1350              	.LFB146:
 723:./Library/stm32f4xx_sdio.c **** 
 724:./Library/stm32f4xx_sdio.c **** /**
 725:./Library/stm32f4xx_sdio.c ****   * @brief  Sends CE-ATA command (CMD61).
 726:./Library/stm32f4xx_sdio.c ****   * @param  NewState: new state of CE-ATA command. 
 727:./Library/stm32f4xx_sdio.c ****   *         This parameter can be: ENABLE or DISABLE.
 728:./Library/stm32f4xx_sdio.c ****   * @retval None
 729:./Library/stm32f4xx_sdio.c ****   */
 730:./Library/stm32f4xx_sdio.c **** void SDIO_SendCEATACmd(FunctionalState NewState)
 731:./Library/stm32f4xx_sdio.c **** { 
 1351              		.loc 1 731 1
 1352              		.cfi_startproc
 1353              		@ args = 0, pretend = 0, frame = 8
 1354              		@ frame_needed = 1, uses_anonymous_args = 0
 1355              		@ link register save eliminated.
 1356 0000 80B4     		push	{r7}
 1357              	.LCFI124:
 1358              		.cfi_def_cfa_offset 4
 1359              		.cfi_offset 7, -4
 1360 0002 83B0     		sub	sp, sp, #12
 1361              	.LCFI125:
 1362              		.cfi_def_cfa_offset 16
 1363 0004 00AF     		add	r7, sp, #0
ARM GAS  /var/folders/yl/_q9l42k90g1g4mdhbs226msm0000gn/T//cczyCFlE.s 			page 37


 1364              	.LCFI126:
 1365              		.cfi_def_cfa_register 7
 1366 0006 0346     		mov	r3, r0
 1367 0008 FB71     		strb	r3, [r7, #7]
 732:./Library/stm32f4xx_sdio.c ****   /* Check the parameters */
 733:./Library/stm32f4xx_sdio.c ****   assert_param(IS_FUNCTIONAL_STATE(NewState));
 734:./Library/stm32f4xx_sdio.c ****   
 735:./Library/stm32f4xx_sdio.c ****   *(__IO uint32_t *) CMD_ATACMD_BB = (uint32_t)NewState;
 1368              		.loc 1 735 3
 1369 000a 044A     		ldr	r2, .L69
 1370              		.loc 1 735 38
 1371 000c FB79     		ldrb	r3, [r7, #7]	@ zero_extendqisi2
 1372              		.loc 1 735 36
 1373 000e 1360     		str	r3, [r2]
 736:./Library/stm32f4xx_sdio.c **** }
 1374              		.loc 1 736 1
 1375 0010 00BF     		nop
 1376 0012 0C37     		adds	r7, r7, #12
 1377              	.LCFI127:
 1378              		.cfi_def_cfa_offset 4
 1379 0014 BD46     		mov	sp, r7
 1380              	.LCFI128:
 1381              		.cfi_def_cfa_register 13
 1382              		@ sp needed
 1383 0016 5DF8047B 		ldr	r7, [sp], #4
 1384              	.LCFI129:
 1385              		.cfi_restore 7
 1386              		.cfi_def_cfa_offset 0
 1387 001a 7047     		bx	lr
 1388              	.L70:
 1389              		.align	2
 1390              	.L69:
 1391 001c B8812542 		.word	1109754296
 1392              		.cfi_endproc
 1393              	.LFE146:
 1395              		.section	.text.SDIO_DMACmd,"ax",%progbits
 1396              		.align	1
 1397              		.global	SDIO_DMACmd
 1398              		.syntax unified
 1399              		.thumb
 1400              		.thumb_func
 1402              	SDIO_DMACmd:
 1403              	.LFB147:
 737:./Library/stm32f4xx_sdio.c **** 
 738:./Library/stm32f4xx_sdio.c **** /**
 739:./Library/stm32f4xx_sdio.c ****   * @}
 740:./Library/stm32f4xx_sdio.c ****   */
 741:./Library/stm32f4xx_sdio.c **** 
 742:./Library/stm32f4xx_sdio.c **** /** @defgroup SDIO_Group6 DMA transfers management functions
 743:./Library/stm32f4xx_sdio.c ****  *  @brief   DMA transfers management functions
 744:./Library/stm32f4xx_sdio.c ****  *
 745:./Library/stm32f4xx_sdio.c **** @verbatim   
 746:./Library/stm32f4xx_sdio.c ****  ===============================================================================
 747:./Library/stm32f4xx_sdio.c ****                   ##### DMA transfers management functions #####
 748:./Library/stm32f4xx_sdio.c ****  ===============================================================================  
 749:./Library/stm32f4xx_sdio.c **** 
 750:./Library/stm32f4xx_sdio.c ****   This section provide functions allowing to program SDIO DMA transfer.
ARM GAS  /var/folders/yl/_q9l42k90g1g4mdhbs226msm0000gn/T//cczyCFlE.s 			page 38


 751:./Library/stm32f4xx_sdio.c **** 
 752:./Library/stm32f4xx_sdio.c **** @endverbatim
 753:./Library/stm32f4xx_sdio.c ****   * @{
 754:./Library/stm32f4xx_sdio.c ****   */
 755:./Library/stm32f4xx_sdio.c **** 
 756:./Library/stm32f4xx_sdio.c **** /**
 757:./Library/stm32f4xx_sdio.c ****   * @brief  Enables or disables the SDIO DMA request.
 758:./Library/stm32f4xx_sdio.c ****   * @param  NewState: new state of the selected SDIO DMA request.
 759:./Library/stm32f4xx_sdio.c ****   *          This parameter can be: ENABLE or DISABLE.
 760:./Library/stm32f4xx_sdio.c ****   * @retval None
 761:./Library/stm32f4xx_sdio.c ****   */
 762:./Library/stm32f4xx_sdio.c **** void SDIO_DMACmd(FunctionalState NewState)
 763:./Library/stm32f4xx_sdio.c **** {
 1404              		.loc 1 763 1
 1405              		.cfi_startproc
 1406              		@ args = 0, pretend = 0, frame = 8
 1407              		@ frame_needed = 1, uses_anonymous_args = 0
 1408              		@ link register save eliminated.
 1409 0000 80B4     		push	{r7}
 1410              	.LCFI130:
 1411              		.cfi_def_cfa_offset 4
 1412              		.cfi_offset 7, -4
 1413 0002 83B0     		sub	sp, sp, #12
 1414              	.LCFI131:
 1415              		.cfi_def_cfa_offset 16
 1416 0004 00AF     		add	r7, sp, #0
 1417              	.LCFI132:
 1418              		.cfi_def_cfa_register 7
 1419 0006 0346     		mov	r3, r0
 1420 0008 FB71     		strb	r3, [r7, #7]
 764:./Library/stm32f4xx_sdio.c ****   /* Check the parameters */
 765:./Library/stm32f4xx_sdio.c ****   assert_param(IS_FUNCTIONAL_STATE(NewState));
 766:./Library/stm32f4xx_sdio.c ****   
 767:./Library/stm32f4xx_sdio.c ****   *(__IO uint32_t *) DCTRL_DMAEN_BB = (uint32_t)NewState;
 1421              		.loc 1 767 3
 1422 000a 044A     		ldr	r2, .L72
 1423              		.loc 1 767 39
 1424 000c FB79     		ldrb	r3, [r7, #7]	@ zero_extendqisi2
 1425              		.loc 1 767 37
 1426 000e 1360     		str	r3, [r2]
 768:./Library/stm32f4xx_sdio.c **** }
 1427              		.loc 1 768 1
 1428 0010 00BF     		nop
 1429 0012 0C37     		adds	r7, r7, #12
 1430              	.LCFI133:
 1431              		.cfi_def_cfa_offset 4
 1432 0014 BD46     		mov	sp, r7
 1433              	.LCFI134:
 1434              		.cfi_def_cfa_register 13
 1435              		@ sp needed
 1436 0016 5DF8047B 		ldr	r7, [sp], #4
 1437              	.LCFI135:
 1438              		.cfi_restore 7
 1439              		.cfi_def_cfa_offset 0
 1440 001a 7047     		bx	lr
 1441              	.L73:
 1442              		.align	2
ARM GAS  /var/folders/yl/_q9l42k90g1g4mdhbs226msm0000gn/T//cczyCFlE.s 			page 39


 1443              	.L72:
 1444 001c 8C852542 		.word	1109755276
 1445              		.cfi_endproc
 1446              	.LFE147:
 1448              		.section	.text.SDIO_ITConfig,"ax",%progbits
 1449              		.align	1
 1450              		.global	SDIO_ITConfig
 1451              		.syntax unified
 1452              		.thumb
 1453              		.thumb_func
 1455              	SDIO_ITConfig:
 1456              	.LFB148:
 769:./Library/stm32f4xx_sdio.c **** 
 770:./Library/stm32f4xx_sdio.c **** /**
 771:./Library/stm32f4xx_sdio.c ****   * @}
 772:./Library/stm32f4xx_sdio.c ****   */
 773:./Library/stm32f4xx_sdio.c **** 
 774:./Library/stm32f4xx_sdio.c **** /** @defgroup SDIO_Group7 Interrupts and flags management functions
 775:./Library/stm32f4xx_sdio.c ****  *  @brief   Interrupts and flags management functions  
 776:./Library/stm32f4xx_sdio.c ****  *
 777:./Library/stm32f4xx_sdio.c **** @verbatim   
 778:./Library/stm32f4xx_sdio.c ****  ===============================================================================
 779:./Library/stm32f4xx_sdio.c ****               ##### Interrupts and flags management functions #####
 780:./Library/stm32f4xx_sdio.c ****  ===============================================================================  
 781:./Library/stm32f4xx_sdio.c **** 
 782:./Library/stm32f4xx_sdio.c **** 
 783:./Library/stm32f4xx_sdio.c **** @endverbatim
 784:./Library/stm32f4xx_sdio.c ****   * @{
 785:./Library/stm32f4xx_sdio.c ****   */
 786:./Library/stm32f4xx_sdio.c **** 
 787:./Library/stm32f4xx_sdio.c **** /**
 788:./Library/stm32f4xx_sdio.c ****   * @brief  Enables or disables the SDIO interrupts.
 789:./Library/stm32f4xx_sdio.c ****   * @param  SDIO_IT: specifies the SDIO interrupt sources to be enabled or disabled.
 790:./Library/stm32f4xx_sdio.c ****   *          This parameter can be one or a combination of the following values:
 791:./Library/stm32f4xx_sdio.c ****   *            @arg SDIO_IT_CCRCFAIL: Command response received (CRC check failed) interrupt
 792:./Library/stm32f4xx_sdio.c ****   *            @arg SDIO_IT_DCRCFAIL: Data block sent/received (CRC check failed) interrupt
 793:./Library/stm32f4xx_sdio.c ****   *            @arg SDIO_IT_CTIMEOUT: Command response timeout interrupt
 794:./Library/stm32f4xx_sdio.c ****   *            @arg SDIO_IT_DTIMEOUT: Data timeout interrupt
 795:./Library/stm32f4xx_sdio.c ****   *            @arg SDIO_IT_TXUNDERR: Transmit FIFO underrun error interrupt
 796:./Library/stm32f4xx_sdio.c ****   *            @arg SDIO_IT_RXOVERR:  Received FIFO overrun error interrupt
 797:./Library/stm32f4xx_sdio.c ****   *            @arg SDIO_IT_CMDREND:  Command response received (CRC check passed) interrupt
 798:./Library/stm32f4xx_sdio.c ****   *            @arg SDIO_IT_CMDSENT:  Command sent (no response required) interrupt
 799:./Library/stm32f4xx_sdio.c ****   *            @arg SDIO_IT_DATAEND:  Data end (data counter, SDIDCOUNT, is zero) interrupt
 800:./Library/stm32f4xx_sdio.c ****   *            @arg SDIO_IT_STBITERR: Start bit not detected on all data signals in wide 
 801:./Library/stm32f4xx_sdio.c ****   *                                   bus mode interrupt
 802:./Library/stm32f4xx_sdio.c ****   *            @arg SDIO_IT_DBCKEND:  Data block sent/received (CRC check passed) interrupt
 803:./Library/stm32f4xx_sdio.c ****   *            @arg SDIO_IT_CMDACT:   Command transfer in progress interrupt
 804:./Library/stm32f4xx_sdio.c ****   *            @arg SDIO_IT_TXACT:    Data transmit in progress interrupt
 805:./Library/stm32f4xx_sdio.c ****   *            @arg SDIO_IT_RXACT:    Data receive in progress interrupt
 806:./Library/stm32f4xx_sdio.c ****   *            @arg SDIO_IT_TXFIFOHE: Transmit FIFO Half Empty interrupt
 807:./Library/stm32f4xx_sdio.c ****   *            @arg SDIO_IT_RXFIFOHF: Receive FIFO Half Full interrupt
 808:./Library/stm32f4xx_sdio.c ****   *            @arg SDIO_IT_TXFIFOF:  Transmit FIFO full interrupt
 809:./Library/stm32f4xx_sdio.c ****   *            @arg SDIO_IT_RXFIFOF:  Receive FIFO full interrupt
 810:./Library/stm32f4xx_sdio.c ****   *            @arg SDIO_IT_TXFIFOE:  Transmit FIFO empty interrupt
 811:./Library/stm32f4xx_sdio.c ****   *            @arg SDIO_IT_RXFIFOE:  Receive FIFO empty interrupt
 812:./Library/stm32f4xx_sdio.c ****   *            @arg SDIO_IT_TXDAVL:   Data available in transmit FIFO interrupt
 813:./Library/stm32f4xx_sdio.c ****   *            @arg SDIO_IT_RXDAVL:   Data available in receive FIFO interrupt
ARM GAS  /var/folders/yl/_q9l42k90g1g4mdhbs226msm0000gn/T//cczyCFlE.s 			page 40


 814:./Library/stm32f4xx_sdio.c ****   *            @arg SDIO_IT_SDIOIT:   SD I/O interrupt received interrupt
 815:./Library/stm32f4xx_sdio.c ****   *            @arg SDIO_IT_CEATAEND: CE-ATA command completion signal received for CMD61 interrupt
 816:./Library/stm32f4xx_sdio.c ****   * @param  NewState: new state of the specified SDIO interrupts.
 817:./Library/stm32f4xx_sdio.c ****   *          This parameter can be: ENABLE or DISABLE.
 818:./Library/stm32f4xx_sdio.c ****   * @retval None 
 819:./Library/stm32f4xx_sdio.c ****   */
 820:./Library/stm32f4xx_sdio.c **** void SDIO_ITConfig(uint32_t SDIO_IT, FunctionalState NewState)
 821:./Library/stm32f4xx_sdio.c **** {
 1457              		.loc 1 821 1
 1458              		.cfi_startproc
 1459              		@ args = 0, pretend = 0, frame = 8
 1460              		@ frame_needed = 1, uses_anonymous_args = 0
 1461              		@ link register save eliminated.
 1462 0000 80B4     		push	{r7}
 1463              	.LCFI136:
 1464              		.cfi_def_cfa_offset 4
 1465              		.cfi_offset 7, -4
 1466 0002 83B0     		sub	sp, sp, #12
 1467              	.LCFI137:
 1468              		.cfi_def_cfa_offset 16
 1469 0004 00AF     		add	r7, sp, #0
 1470              	.LCFI138:
 1471              		.cfi_def_cfa_register 7
 1472 0006 7860     		str	r0, [r7, #4]
 1473 0008 0B46     		mov	r3, r1
 1474 000a FB70     		strb	r3, [r7, #3]
 822:./Library/stm32f4xx_sdio.c ****   /* Check the parameters */
 823:./Library/stm32f4xx_sdio.c ****   assert_param(IS_SDIO_IT(SDIO_IT));
 824:./Library/stm32f4xx_sdio.c ****   assert_param(IS_FUNCTIONAL_STATE(NewState));
 825:./Library/stm32f4xx_sdio.c ****   
 826:./Library/stm32f4xx_sdio.c ****   if (NewState != DISABLE)
 1475              		.loc 1 826 6
 1476 000c FB78     		ldrb	r3, [r7, #3]	@ zero_extendqisi2
 1477 000e 002B     		cmp	r3, #0
 1478 0010 06D0     		beq	.L75
 827:./Library/stm32f4xx_sdio.c ****   {
 828:./Library/stm32f4xx_sdio.c ****     /* Enable the SDIO interrupts */
 829:./Library/stm32f4xx_sdio.c ****     SDIO->MASK |= SDIO_IT;
 1479              		.loc 1 829 16
 1480 0012 0A4B     		ldr	r3, .L78
 1481 0014 DA6B     		ldr	r2, [r3, #60]
 1482 0016 0949     		ldr	r1, .L78
 1483 0018 7B68     		ldr	r3, [r7, #4]
 1484 001a 1343     		orrs	r3, r3, r2
 1485 001c CB63     		str	r3, [r1, #60]
 830:./Library/stm32f4xx_sdio.c ****   }
 831:./Library/stm32f4xx_sdio.c ****   else
 832:./Library/stm32f4xx_sdio.c ****   {
 833:./Library/stm32f4xx_sdio.c ****     /* Disable the SDIO interrupts */
 834:./Library/stm32f4xx_sdio.c ****     SDIO->MASK &= ~SDIO_IT;
 835:./Library/stm32f4xx_sdio.c ****   } 
 836:./Library/stm32f4xx_sdio.c **** }
 1486              		.loc 1 836 1
 1487 001e 06E0     		b	.L77
 1488              	.L75:
 834:./Library/stm32f4xx_sdio.c ****   } 
 1489              		.loc 1 834 16
ARM GAS  /var/folders/yl/_q9l42k90g1g4mdhbs226msm0000gn/T//cczyCFlE.s 			page 41


 1490 0020 064B     		ldr	r3, .L78
 1491 0022 DA6B     		ldr	r2, [r3, #60]
 834:./Library/stm32f4xx_sdio.c ****   } 
 1492              		.loc 1 834 19
 1493 0024 7B68     		ldr	r3, [r7, #4]
 1494 0026 DB43     		mvns	r3, r3
 834:./Library/stm32f4xx_sdio.c ****   } 
 1495              		.loc 1 834 16
 1496 0028 0449     		ldr	r1, .L78
 1497 002a 1340     		ands	r3, r3, r2
 1498 002c CB63     		str	r3, [r1, #60]
 1499              	.L77:
 1500              		.loc 1 836 1
 1501 002e 00BF     		nop
 1502 0030 0C37     		adds	r7, r7, #12
 1503              	.LCFI139:
 1504              		.cfi_def_cfa_offset 4
 1505 0032 BD46     		mov	sp, r7
 1506              	.LCFI140:
 1507              		.cfi_def_cfa_register 13
 1508              		@ sp needed
 1509 0034 5DF8047B 		ldr	r7, [sp], #4
 1510              	.LCFI141:
 1511              		.cfi_restore 7
 1512              		.cfi_def_cfa_offset 0
 1513 0038 7047     		bx	lr
 1514              	.L79:
 1515 003a 00BF     		.align	2
 1516              	.L78:
 1517 003c 002C0140 		.word	1073818624
 1518              		.cfi_endproc
 1519              	.LFE148:
 1521              		.section	.text.SDIO_GetFlagStatus,"ax",%progbits
 1522              		.align	1
 1523              		.global	SDIO_GetFlagStatus
 1524              		.syntax unified
 1525              		.thumb
 1526              		.thumb_func
 1528              	SDIO_GetFlagStatus:
 1529              	.LFB149:
 837:./Library/stm32f4xx_sdio.c **** 
 838:./Library/stm32f4xx_sdio.c **** /**
 839:./Library/stm32f4xx_sdio.c ****   * @brief  Checks whether the specified SDIO flag is set or not.
 840:./Library/stm32f4xx_sdio.c ****   * @param  SDIO_FLAG: specifies the flag to check. 
 841:./Library/stm32f4xx_sdio.c ****   *          This parameter can be one of the following values:
 842:./Library/stm32f4xx_sdio.c ****   *            @arg SDIO_FLAG_CCRCFAIL: Command response received (CRC check failed)
 843:./Library/stm32f4xx_sdio.c ****   *            @arg SDIO_FLAG_DCRCFAIL: Data block sent/received (CRC check failed)
 844:./Library/stm32f4xx_sdio.c ****   *            @arg SDIO_FLAG_CTIMEOUT: Command response timeout
 845:./Library/stm32f4xx_sdio.c ****   *            @arg SDIO_FLAG_DTIMEOUT: Data timeout
 846:./Library/stm32f4xx_sdio.c ****   *            @arg SDIO_FLAG_TXUNDERR: Transmit FIFO underrun error
 847:./Library/stm32f4xx_sdio.c ****   *            @arg SDIO_FLAG_RXOVERR:  Received FIFO overrun error
 848:./Library/stm32f4xx_sdio.c ****   *            @arg SDIO_FLAG_CMDREND:  Command response received (CRC check passed)
 849:./Library/stm32f4xx_sdio.c ****   *            @arg SDIO_FLAG_CMDSENT:  Command sent (no response required)
 850:./Library/stm32f4xx_sdio.c ****   *            @arg SDIO_FLAG_DATAEND:  Data end (data counter, SDIDCOUNT, is zero)
 851:./Library/stm32f4xx_sdio.c ****   *            @arg SDIO_FLAG_STBITERR: Start bit not detected on all data signals in wide bus mode
 852:./Library/stm32f4xx_sdio.c ****   *            @arg SDIO_FLAG_DBCKEND:  Data block sent/received (CRC check passed)
 853:./Library/stm32f4xx_sdio.c ****   *            @arg SDIO_FLAG_CMDACT:   Command transfer in progress
ARM GAS  /var/folders/yl/_q9l42k90g1g4mdhbs226msm0000gn/T//cczyCFlE.s 			page 42


 854:./Library/stm32f4xx_sdio.c ****   *            @arg SDIO_FLAG_TXACT:    Data transmit in progress
 855:./Library/stm32f4xx_sdio.c ****   *            @arg SDIO_FLAG_RXACT:    Data receive in progress
 856:./Library/stm32f4xx_sdio.c ****   *            @arg SDIO_FLAG_TXFIFOHE: Transmit FIFO Half Empty
 857:./Library/stm32f4xx_sdio.c ****   *            @arg SDIO_FLAG_RXFIFOHF: Receive FIFO Half Full
 858:./Library/stm32f4xx_sdio.c ****   *            @arg SDIO_FLAG_TXFIFOF:  Transmit FIFO full
 859:./Library/stm32f4xx_sdio.c ****   *            @arg SDIO_FLAG_RXFIFOF:  Receive FIFO full
 860:./Library/stm32f4xx_sdio.c ****   *            @arg SDIO_FLAG_TXFIFOE:  Transmit FIFO empty
 861:./Library/stm32f4xx_sdio.c ****   *            @arg SDIO_FLAG_RXFIFOE:  Receive FIFO empty
 862:./Library/stm32f4xx_sdio.c ****   *            @arg SDIO_FLAG_TXDAVL:   Data available in transmit FIFO
 863:./Library/stm32f4xx_sdio.c ****   *            @arg SDIO_FLAG_RXDAVL:   Data available in receive FIFO
 864:./Library/stm32f4xx_sdio.c ****   *            @arg SDIO_FLAG_SDIOIT:   SD I/O interrupt received
 865:./Library/stm32f4xx_sdio.c ****   *            @arg SDIO_FLAG_CEATAEND: CE-ATA command completion signal received for CMD61
 866:./Library/stm32f4xx_sdio.c ****   * @retval The new state of SDIO_FLAG (SET or RESET).
 867:./Library/stm32f4xx_sdio.c ****   */
 868:./Library/stm32f4xx_sdio.c **** FlagStatus SDIO_GetFlagStatus(uint32_t SDIO_FLAG)
 869:./Library/stm32f4xx_sdio.c **** { 
 1530              		.loc 1 869 1
 1531              		.cfi_startproc
 1532              		@ args = 0, pretend = 0, frame = 16
 1533              		@ frame_needed = 1, uses_anonymous_args = 0
 1534              		@ link register save eliminated.
 1535 0000 80B4     		push	{r7}
 1536              	.LCFI142:
 1537              		.cfi_def_cfa_offset 4
 1538              		.cfi_offset 7, -4
 1539 0002 85B0     		sub	sp, sp, #20
 1540              	.LCFI143:
 1541              		.cfi_def_cfa_offset 24
 1542 0004 00AF     		add	r7, sp, #0
 1543              	.LCFI144:
 1544              		.cfi_def_cfa_register 7
 1545 0006 7860     		str	r0, [r7, #4]
 870:./Library/stm32f4xx_sdio.c ****   FlagStatus bitstatus = RESET;
 1546              		.loc 1 870 14
 1547 0008 0023     		movs	r3, #0
 1548 000a FB73     		strb	r3, [r7, #15]
 871:./Library/stm32f4xx_sdio.c ****   
 872:./Library/stm32f4xx_sdio.c ****   /* Check the parameters */
 873:./Library/stm32f4xx_sdio.c ****   assert_param(IS_SDIO_FLAG(SDIO_FLAG));
 874:./Library/stm32f4xx_sdio.c ****   
 875:./Library/stm32f4xx_sdio.c ****   if ((SDIO->STA & SDIO_FLAG) != (uint32_t)RESET)
 1549              		.loc 1 875 12
 1550 000c 084B     		ldr	r3, .L84
 1551 000e 5A6B     		ldr	r2, [r3, #52]
 1552              		.loc 1 875 18
 1553 0010 7B68     		ldr	r3, [r7, #4]
 1554 0012 1340     		ands	r3, r3, r2
 1555              		.loc 1 875 6
 1556 0014 002B     		cmp	r3, #0
 1557 0016 02D0     		beq	.L81
 876:./Library/stm32f4xx_sdio.c ****   {
 877:./Library/stm32f4xx_sdio.c ****     bitstatus = SET;
 1558              		.loc 1 877 15
 1559 0018 0123     		movs	r3, #1
 1560 001a FB73     		strb	r3, [r7, #15]
 1561 001c 01E0     		b	.L82
 1562              	.L81:
ARM GAS  /var/folders/yl/_q9l42k90g1g4mdhbs226msm0000gn/T//cczyCFlE.s 			page 43


 878:./Library/stm32f4xx_sdio.c ****   }
 879:./Library/stm32f4xx_sdio.c ****   else
 880:./Library/stm32f4xx_sdio.c ****   {
 881:./Library/stm32f4xx_sdio.c ****     bitstatus = RESET;
 1563              		.loc 1 881 15
 1564 001e 0023     		movs	r3, #0
 1565 0020 FB73     		strb	r3, [r7, #15]
 1566              	.L82:
 882:./Library/stm32f4xx_sdio.c ****   }
 883:./Library/stm32f4xx_sdio.c ****   return bitstatus;
 1567              		.loc 1 883 10
 1568 0022 FB7B     		ldrb	r3, [r7, #15]	@ zero_extendqisi2
 884:./Library/stm32f4xx_sdio.c **** }
 1569              		.loc 1 884 1
 1570 0024 1846     		mov	r0, r3
 1571 0026 1437     		adds	r7, r7, #20
 1572              	.LCFI145:
 1573              		.cfi_def_cfa_offset 4
 1574 0028 BD46     		mov	sp, r7
 1575              	.LCFI146:
 1576              		.cfi_def_cfa_register 13
 1577              		@ sp needed
 1578 002a 5DF8047B 		ldr	r7, [sp], #4
 1579              	.LCFI147:
 1580              		.cfi_restore 7
 1581              		.cfi_def_cfa_offset 0
 1582 002e 7047     		bx	lr
 1583              	.L85:
 1584              		.align	2
 1585              	.L84:
 1586 0030 002C0140 		.word	1073818624
 1587              		.cfi_endproc
 1588              	.LFE149:
 1590              		.section	.text.SDIO_ClearFlag,"ax",%progbits
 1591              		.align	1
 1592              		.global	SDIO_ClearFlag
 1593              		.syntax unified
 1594              		.thumb
 1595              		.thumb_func
 1597              	SDIO_ClearFlag:
 1598              	.LFB150:
 885:./Library/stm32f4xx_sdio.c **** 
 886:./Library/stm32f4xx_sdio.c **** /**
 887:./Library/stm32f4xx_sdio.c ****   * @brief  Clears the SDIO's pending flags.
 888:./Library/stm32f4xx_sdio.c ****   * @param  SDIO_FLAG: specifies the flag to clear.  
 889:./Library/stm32f4xx_sdio.c ****   *          This parameter can be one or a combination of the following values:
 890:./Library/stm32f4xx_sdio.c ****   *            @arg SDIO_FLAG_CCRCFAIL: Command response received (CRC check failed)
 891:./Library/stm32f4xx_sdio.c ****   *            @arg SDIO_FLAG_DCRCFAIL: Data block sent/received (CRC check failed)
 892:./Library/stm32f4xx_sdio.c ****   *            @arg SDIO_FLAG_CTIMEOUT: Command response timeout
 893:./Library/stm32f4xx_sdio.c ****   *            @arg SDIO_FLAG_DTIMEOUT: Data timeout
 894:./Library/stm32f4xx_sdio.c ****   *            @arg SDIO_FLAG_TXUNDERR: Transmit FIFO underrun error
 895:./Library/stm32f4xx_sdio.c ****   *            @arg SDIO_FLAG_RXOVERR:  Received FIFO overrun error
 896:./Library/stm32f4xx_sdio.c ****   *            @arg SDIO_FLAG_CMDREND:  Command response received (CRC check passed)
 897:./Library/stm32f4xx_sdio.c ****   *            @arg SDIO_FLAG_CMDSENT:  Command sent (no response required)
 898:./Library/stm32f4xx_sdio.c ****   *            @arg SDIO_FLAG_DATAEND:  Data end (data counter, SDIDCOUNT, is zero)
 899:./Library/stm32f4xx_sdio.c ****   *            @arg SDIO_FLAG_STBITERR: Start bit not detected on all data signals in wide bus mode
 900:./Library/stm32f4xx_sdio.c ****   *            @arg SDIO_FLAG_DBCKEND:  Data block sent/received (CRC check passed)
ARM GAS  /var/folders/yl/_q9l42k90g1g4mdhbs226msm0000gn/T//cczyCFlE.s 			page 44


 901:./Library/stm32f4xx_sdio.c ****   *            @arg SDIO_FLAG_SDIOIT:   SD I/O interrupt received
 902:./Library/stm32f4xx_sdio.c ****   *            @arg SDIO_FLAG_CEATAEND: CE-ATA command completion signal received for CMD61
 903:./Library/stm32f4xx_sdio.c ****   * @retval None
 904:./Library/stm32f4xx_sdio.c ****   */
 905:./Library/stm32f4xx_sdio.c **** void SDIO_ClearFlag(uint32_t SDIO_FLAG)
 906:./Library/stm32f4xx_sdio.c **** { 
 1599              		.loc 1 906 1
 1600              		.cfi_startproc
 1601              		@ args = 0, pretend = 0, frame = 8
 1602              		@ frame_needed = 1, uses_anonymous_args = 0
 1603              		@ link register save eliminated.
 1604 0000 80B4     		push	{r7}
 1605              	.LCFI148:
 1606              		.cfi_def_cfa_offset 4
 1607              		.cfi_offset 7, -4
 1608 0002 83B0     		sub	sp, sp, #12
 1609              	.LCFI149:
 1610              		.cfi_def_cfa_offset 16
 1611 0004 00AF     		add	r7, sp, #0
 1612              	.LCFI150:
 1613              		.cfi_def_cfa_register 7
 1614 0006 7860     		str	r0, [r7, #4]
 907:./Library/stm32f4xx_sdio.c ****   /* Check the parameters */
 908:./Library/stm32f4xx_sdio.c ****   assert_param(IS_SDIO_CLEAR_FLAG(SDIO_FLAG));
 909:./Library/stm32f4xx_sdio.c ****    
 910:./Library/stm32f4xx_sdio.c ****   SDIO->ICR = SDIO_FLAG;
 1615              		.loc 1 910 7
 1616 0008 044A     		ldr	r2, .L87
 1617              		.loc 1 910 13
 1618 000a 7B68     		ldr	r3, [r7, #4]
 1619 000c 9363     		str	r3, [r2, #56]
 911:./Library/stm32f4xx_sdio.c **** }
 1620              		.loc 1 911 1
 1621 000e 00BF     		nop
 1622 0010 0C37     		adds	r7, r7, #12
 1623              	.LCFI151:
 1624              		.cfi_def_cfa_offset 4
 1625 0012 BD46     		mov	sp, r7
 1626              	.LCFI152:
 1627              		.cfi_def_cfa_register 13
 1628              		@ sp needed
 1629 0014 5DF8047B 		ldr	r7, [sp], #4
 1630              	.LCFI153:
 1631              		.cfi_restore 7
 1632              		.cfi_def_cfa_offset 0
 1633 0018 7047     		bx	lr
 1634              	.L88:
 1635 001a 00BF     		.align	2
 1636              	.L87:
 1637 001c 002C0140 		.word	1073818624
 1638              		.cfi_endproc
 1639              	.LFE150:
 1641              		.section	.text.SDIO_GetITStatus,"ax",%progbits
 1642              		.align	1
 1643              		.global	SDIO_GetITStatus
 1644              		.syntax unified
 1645              		.thumb
ARM GAS  /var/folders/yl/_q9l42k90g1g4mdhbs226msm0000gn/T//cczyCFlE.s 			page 45


 1646              		.thumb_func
 1648              	SDIO_GetITStatus:
 1649              	.LFB151:
 912:./Library/stm32f4xx_sdio.c **** 
 913:./Library/stm32f4xx_sdio.c **** /**
 914:./Library/stm32f4xx_sdio.c ****   * @brief  Checks whether the specified SDIO interrupt has occurred or not.
 915:./Library/stm32f4xx_sdio.c ****   * @param  SDIO_IT: specifies the SDIO interrupt source to check. 
 916:./Library/stm32f4xx_sdio.c ****   *          This parameter can be one of the following values:
 917:./Library/stm32f4xx_sdio.c ****   *            @arg SDIO_IT_CCRCFAIL: Command response received (CRC check failed) interrupt
 918:./Library/stm32f4xx_sdio.c ****   *            @arg SDIO_IT_DCRCFAIL: Data block sent/received (CRC check failed) interrupt
 919:./Library/stm32f4xx_sdio.c ****   *            @arg SDIO_IT_CTIMEOUT: Command response timeout interrupt
 920:./Library/stm32f4xx_sdio.c ****   *            @arg SDIO_IT_DTIMEOUT: Data timeout interrupt
 921:./Library/stm32f4xx_sdio.c ****   *            @arg SDIO_IT_TXUNDERR: Transmit FIFO underrun error interrupt
 922:./Library/stm32f4xx_sdio.c ****   *            @arg SDIO_IT_RXOVERR:  Received FIFO overrun error interrupt
 923:./Library/stm32f4xx_sdio.c ****   *            @arg SDIO_IT_CMDREND:  Command response received (CRC check passed) interrupt
 924:./Library/stm32f4xx_sdio.c ****   *            @arg SDIO_IT_CMDSENT:  Command sent (no response required) interrupt
 925:./Library/stm32f4xx_sdio.c ****   *            @arg SDIO_IT_DATAEND:  Data end (data counter, SDIDCOUNT, is zero) interrupt
 926:./Library/stm32f4xx_sdio.c ****   *            @arg SDIO_IT_STBITERR: Start bit not detected on all data signals in wide 
 927:./Library/stm32f4xx_sdio.c ****   *                                   bus mode interrupt
 928:./Library/stm32f4xx_sdio.c ****   *            @arg SDIO_IT_DBCKEND:  Data block sent/received (CRC check passed) interrupt
 929:./Library/stm32f4xx_sdio.c ****   *            @arg SDIO_IT_CMDACT:   Command transfer in progress interrupt
 930:./Library/stm32f4xx_sdio.c ****   *            @arg SDIO_IT_TXACT:    Data transmit in progress interrupt
 931:./Library/stm32f4xx_sdio.c ****   *            @arg SDIO_IT_RXACT:    Data receive in progress interrupt
 932:./Library/stm32f4xx_sdio.c ****   *            @arg SDIO_IT_TXFIFOHE: Transmit FIFO Half Empty interrupt
 933:./Library/stm32f4xx_sdio.c ****   *            @arg SDIO_IT_RXFIFOHF: Receive FIFO Half Full interrupt
 934:./Library/stm32f4xx_sdio.c ****   *            @arg SDIO_IT_TXFIFOF:  Transmit FIFO full interrupt
 935:./Library/stm32f4xx_sdio.c ****   *            @arg SDIO_IT_RXFIFOF:  Receive FIFO full interrupt
 936:./Library/stm32f4xx_sdio.c ****   *            @arg SDIO_IT_TXFIFOE:  Transmit FIFO empty interrupt
 937:./Library/stm32f4xx_sdio.c ****   *            @arg SDIO_IT_RXFIFOE:  Receive FIFO empty interrupt
 938:./Library/stm32f4xx_sdio.c ****   *            @arg SDIO_IT_TXDAVL:   Data available in transmit FIFO interrupt
 939:./Library/stm32f4xx_sdio.c ****   *            @arg SDIO_IT_RXDAVL:   Data available in receive FIFO interrupt
 940:./Library/stm32f4xx_sdio.c ****   *            @arg SDIO_IT_SDIOIT:   SD I/O interrupt received interrupt
 941:./Library/stm32f4xx_sdio.c ****   *            @arg SDIO_IT_CEATAEND: CE-ATA command completion signal received for CMD61 interrupt
 942:./Library/stm32f4xx_sdio.c ****   * @retval The new state of SDIO_IT (SET or RESET).
 943:./Library/stm32f4xx_sdio.c ****   */
 944:./Library/stm32f4xx_sdio.c **** ITStatus SDIO_GetITStatus(uint32_t SDIO_IT)
 945:./Library/stm32f4xx_sdio.c **** { 
 1650              		.loc 1 945 1
 1651              		.cfi_startproc
 1652              		@ args = 0, pretend = 0, frame = 16
 1653              		@ frame_needed = 1, uses_anonymous_args = 0
 1654              		@ link register save eliminated.
 1655 0000 80B4     		push	{r7}
 1656              	.LCFI154:
 1657              		.cfi_def_cfa_offset 4
 1658              		.cfi_offset 7, -4
 1659 0002 85B0     		sub	sp, sp, #20
 1660              	.LCFI155:
 1661              		.cfi_def_cfa_offset 24
 1662 0004 00AF     		add	r7, sp, #0
 1663              	.LCFI156:
 1664              		.cfi_def_cfa_register 7
 1665 0006 7860     		str	r0, [r7, #4]
 946:./Library/stm32f4xx_sdio.c ****   ITStatus bitstatus = RESET;
 1666              		.loc 1 946 12
 1667 0008 0023     		movs	r3, #0
 1668 000a FB73     		strb	r3, [r7, #15]
ARM GAS  /var/folders/yl/_q9l42k90g1g4mdhbs226msm0000gn/T//cczyCFlE.s 			page 46


 947:./Library/stm32f4xx_sdio.c ****   
 948:./Library/stm32f4xx_sdio.c ****   /* Check the parameters */
 949:./Library/stm32f4xx_sdio.c ****   assert_param(IS_SDIO_GET_IT(SDIO_IT));
 950:./Library/stm32f4xx_sdio.c ****   if ((SDIO->STA & SDIO_IT) != (uint32_t)RESET)  
 1669              		.loc 1 950 12
 1670 000c 084B     		ldr	r3, .L93
 1671 000e 5A6B     		ldr	r2, [r3, #52]
 1672              		.loc 1 950 18
 1673 0010 7B68     		ldr	r3, [r7, #4]
 1674 0012 1340     		ands	r3, r3, r2
 1675              		.loc 1 950 6
 1676 0014 002B     		cmp	r3, #0
 1677 0016 02D0     		beq	.L90
 951:./Library/stm32f4xx_sdio.c ****   {
 952:./Library/stm32f4xx_sdio.c ****     bitstatus = SET;
 1678              		.loc 1 952 15
 1679 0018 0123     		movs	r3, #1
 1680 001a FB73     		strb	r3, [r7, #15]
 1681 001c 01E0     		b	.L91
 1682              	.L90:
 953:./Library/stm32f4xx_sdio.c ****   }
 954:./Library/stm32f4xx_sdio.c ****   else
 955:./Library/stm32f4xx_sdio.c ****   {
 956:./Library/stm32f4xx_sdio.c ****     bitstatus = RESET;
 1683              		.loc 1 956 15
 1684 001e 0023     		movs	r3, #0
 1685 0020 FB73     		strb	r3, [r7, #15]
 1686              	.L91:
 957:./Library/stm32f4xx_sdio.c ****   }
 958:./Library/stm32f4xx_sdio.c ****   return bitstatus;
 1687              		.loc 1 958 10
 1688 0022 FB7B     		ldrb	r3, [r7, #15]	@ zero_extendqisi2
 959:./Library/stm32f4xx_sdio.c **** }
 1689              		.loc 1 959 1
 1690 0024 1846     		mov	r0, r3
 1691 0026 1437     		adds	r7, r7, #20
 1692              	.LCFI157:
 1693              		.cfi_def_cfa_offset 4
 1694 0028 BD46     		mov	sp, r7
 1695              	.LCFI158:
 1696              		.cfi_def_cfa_register 13
 1697              		@ sp needed
 1698 002a 5DF8047B 		ldr	r7, [sp], #4
 1699              	.LCFI159:
 1700              		.cfi_restore 7
 1701              		.cfi_def_cfa_offset 0
 1702 002e 7047     		bx	lr
 1703              	.L94:
 1704              		.align	2
 1705              	.L93:
 1706 0030 002C0140 		.word	1073818624
 1707              		.cfi_endproc
 1708              	.LFE151:
 1710              		.section	.text.SDIO_ClearITPendingBit,"ax",%progbits
 1711              		.align	1
 1712              		.global	SDIO_ClearITPendingBit
 1713              		.syntax unified
ARM GAS  /var/folders/yl/_q9l42k90g1g4mdhbs226msm0000gn/T//cczyCFlE.s 			page 47


 1714              		.thumb
 1715              		.thumb_func
 1717              	SDIO_ClearITPendingBit:
 1718              	.LFB152:
 960:./Library/stm32f4xx_sdio.c **** 
 961:./Library/stm32f4xx_sdio.c **** /**
 962:./Library/stm32f4xx_sdio.c ****   * @brief  Clears the SDIO's interrupt pending bits.
 963:./Library/stm32f4xx_sdio.c ****   * @param  SDIO_IT: specifies the interrupt pending bit to clear. 
 964:./Library/stm32f4xx_sdio.c ****   *          This parameter can be one or a combination of the following values:
 965:./Library/stm32f4xx_sdio.c ****   *            @arg SDIO_IT_CCRCFAIL: Command response received (CRC check failed) interrupt
 966:./Library/stm32f4xx_sdio.c ****   *            @arg SDIO_IT_DCRCFAIL: Data block sent/received (CRC check failed) interrupt
 967:./Library/stm32f4xx_sdio.c ****   *            @arg SDIO_IT_CTIMEOUT: Command response timeout interrupt
 968:./Library/stm32f4xx_sdio.c ****   *            @arg SDIO_IT_DTIMEOUT: Data timeout interrupt
 969:./Library/stm32f4xx_sdio.c ****   *            @arg SDIO_IT_TXUNDERR: Transmit FIFO underrun error interrupt
 970:./Library/stm32f4xx_sdio.c ****   *            @arg SDIO_IT_RXOVERR:  Received FIFO overrun error interrupt
 971:./Library/stm32f4xx_sdio.c ****   *            @arg SDIO_IT_CMDREND:  Command response received (CRC check passed) interrupt
 972:./Library/stm32f4xx_sdio.c ****   *            @arg SDIO_IT_CMDSENT:  Command sent (no response required) interrupt
 973:./Library/stm32f4xx_sdio.c ****   *            @arg SDIO_IT_DATAEND:  Data end (data counter, SDIO_DCOUNT, is zero) interrupt
 974:./Library/stm32f4xx_sdio.c ****   *            @arg SDIO_IT_STBITERR: Start bit not detected on all data signals in wide 
 975:./Library/stm32f4xx_sdio.c ****   *                                   bus mode interrupt
 976:./Library/stm32f4xx_sdio.c ****   *            @arg SDIO_IT_SDIOIT:   SD I/O interrupt received interrupt
 977:./Library/stm32f4xx_sdio.c ****   *            @arg SDIO_IT_CEATAEND: CE-ATA command completion signal received for CMD61
 978:./Library/stm32f4xx_sdio.c ****   * @retval None
 979:./Library/stm32f4xx_sdio.c ****   */
 980:./Library/stm32f4xx_sdio.c **** void SDIO_ClearITPendingBit(uint32_t SDIO_IT)
 981:./Library/stm32f4xx_sdio.c **** { 
 1719              		.loc 1 981 1
 1720              		.cfi_startproc
 1721              		@ args = 0, pretend = 0, frame = 8
 1722              		@ frame_needed = 1, uses_anonymous_args = 0
 1723              		@ link register save eliminated.
 1724 0000 80B4     		push	{r7}
 1725              	.LCFI160:
 1726              		.cfi_def_cfa_offset 4
 1727              		.cfi_offset 7, -4
 1728 0002 83B0     		sub	sp, sp, #12
 1729              	.LCFI161:
 1730              		.cfi_def_cfa_offset 16
 1731 0004 00AF     		add	r7, sp, #0
 1732              	.LCFI162:
 1733              		.cfi_def_cfa_register 7
 1734 0006 7860     		str	r0, [r7, #4]
 982:./Library/stm32f4xx_sdio.c ****   /* Check the parameters */
 983:./Library/stm32f4xx_sdio.c ****   assert_param(IS_SDIO_CLEAR_IT(SDIO_IT));
 984:./Library/stm32f4xx_sdio.c ****    
 985:./Library/stm32f4xx_sdio.c ****   SDIO->ICR = SDIO_IT;
 1735              		.loc 1 985 7
 1736 0008 044A     		ldr	r2, .L96
 1737              		.loc 1 985 13
 1738 000a 7B68     		ldr	r3, [r7, #4]
 1739 000c 9363     		str	r3, [r2, #56]
 986:./Library/stm32f4xx_sdio.c **** }
 1740              		.loc 1 986 1
 1741 000e 00BF     		nop
 1742 0010 0C37     		adds	r7, r7, #12
 1743              	.LCFI163:
 1744              		.cfi_def_cfa_offset 4
ARM GAS  /var/folders/yl/_q9l42k90g1g4mdhbs226msm0000gn/T//cczyCFlE.s 			page 48


 1745 0012 BD46     		mov	sp, r7
 1746              	.LCFI164:
 1747              		.cfi_def_cfa_register 13
 1748              		@ sp needed
 1749 0014 5DF8047B 		ldr	r7, [sp], #4
 1750              	.LCFI165:
 1751              		.cfi_restore 7
 1752              		.cfi_def_cfa_offset 0
 1753 0018 7047     		bx	lr
 1754              	.L97:
 1755 001a 00BF     		.align	2
 1756              	.L96:
 1757 001c 002C0140 		.word	1073818624
 1758              		.cfi_endproc
 1759              	.LFE152:
 1761              		.text
 1762              	.Letext0:
 1763              		.file 2 "/Applications/ARM/arm-none-eabi/include/machine/_default_types.h"
 1764              		.file 3 "/Applications/ARM/arm-none-eabi/include/sys/_stdint.h"
 1765              		.file 4 "./CORE/stm32f4xx.h"
 1766              		.file 5 "./Library/stm32f4xx_sdio.h"
ARM GAS  /var/folders/yl/_q9l42k90g1g4mdhbs226msm0000gn/T//cczyCFlE.s 			page 49

