ARM GAS  /var/folders/yl/_q9l42k90g1g4mdhbs226msm0000gn/T//cc1LQhoj.s 			page 1


   1              		.cpu cortex-m4
   2              		.arch armv7e-m
   3              		.fpu fpv4-sp-d16
   4              		.eabi_attribute 27, 1
   5              		.eabi_attribute 28, 1
   6              		.eabi_attribute 20, 1
   7              		.eabi_attribute 21, 1
   8              		.eabi_attribute 23, 3
   9              		.eabi_attribute 24, 1
  10              		.eabi_attribute 25, 1
  11              		.eabi_attribute 26, 1
  12              		.eabi_attribute 30, 6
  13              		.eabi_attribute 34, 1
  14              		.eabi_attribute 18, 4
  15              		.file	"stm32f4xx_syscfg.c"
  16              		.text
  17              	.Ltext0:
  18              		.cfi_sections	.debug_frame
  19              		.section	.text.SYSCFG_DeInit,"ax",%progbits
  20              		.align	1
  21              		.global	SYSCFG_DeInit
  22              		.syntax unified
  23              		.thumb
  24              		.thumb_func
  26              	SYSCFG_DeInit:
  27              	.LFB123:
  28              		.file 1 "./Library/stm32f4xx_syscfg.c"
   1:./Library/stm32f4xx_syscfg.c **** /**
   2:./Library/stm32f4xx_syscfg.c ****   ******************************************************************************
   3:./Library/stm32f4xx_syscfg.c ****   * @file    stm32f4xx_syscfg.c
   4:./Library/stm32f4xx_syscfg.c ****   * @author  MCD Application Team
   5:./Library/stm32f4xx_syscfg.c ****   * @version V1.8.1
   6:./Library/stm32f4xx_syscfg.c ****   * @date    27-January-2022
   7:./Library/stm32f4xx_syscfg.c ****   * @brief   This file provides firmware functions to manage the SYSCFG peripheral.
   8:./Library/stm32f4xx_syscfg.c ****   *
   9:./Library/stm32f4xx_syscfg.c ****  @verbatim
  10:./Library/stm32f4xx_syscfg.c ****     
  11:./Library/stm32f4xx_syscfg.c ****  ===============================================================================
  12:./Library/stm32f4xx_syscfg.c ****                      ##### How to use this driver #####
  13:./Library/stm32f4xx_syscfg.c ****  ===============================================================================
  14:./Library/stm32f4xx_syscfg.c ****     [..] This driver provides functions for:
  15:./Library/stm32f4xx_syscfg.c ****             
  16:./Library/stm32f4xx_syscfg.c ****        (#) Remapping the memory accessible in the code area using SYSCFG_MemoryRemapConfig()
  17:./Library/stm32f4xx_syscfg.c ****             
  18:./Library/stm32f4xx_syscfg.c ****        (#) Swapping the internal flash Bank1 and Bank2 this features is only visible for 
  19:./Library/stm32f4xx_syscfg.c ****            STM32F42xxx/43xxx devices Devices. 
  20:./Library/stm32f4xx_syscfg.c ****                 
  21:./Library/stm32f4xx_syscfg.c ****        (#) Manage the EXTI lines connection to the GPIOs using SYSCFG_EXTILineConfig()
  22:./Library/stm32f4xx_syscfg.c ****               
  23:./Library/stm32f4xx_syscfg.c ****        (#) Select the ETHERNET media interface (RMII/RII) using SYSCFG_ETH_MediaInterfaceConfig()
  24:./Library/stm32f4xx_syscfg.c ****   
  25:./Library/stm32f4xx_syscfg.c ****        -@- SYSCFG APB clock must be enabled to get write access to SYSCFG registers,
  26:./Library/stm32f4xx_syscfg.c ****            using RCC_APB2PeriphClockCmd(RCC_APB2Periph_SYSCFG, ENABLE);
  27:./Library/stm32f4xx_syscfg.c ****                    
  28:./Library/stm32f4xx_syscfg.c ****  @endverbatim      
  29:./Library/stm32f4xx_syscfg.c ****   ******************************************************************************
  30:./Library/stm32f4xx_syscfg.c ****   * @attention
ARM GAS  /var/folders/yl/_q9l42k90g1g4mdhbs226msm0000gn/T//cc1LQhoj.s 			page 2


  31:./Library/stm32f4xx_syscfg.c ****   *
  32:./Library/stm32f4xx_syscfg.c ****   * Copyright (c) 2016 STMicroelectronics.
  33:./Library/stm32f4xx_syscfg.c ****   * All rights reserved.
  34:./Library/stm32f4xx_syscfg.c ****   *
  35:./Library/stm32f4xx_syscfg.c ****   * This software is licensed under terms that can be found in the LICENSE file
  36:./Library/stm32f4xx_syscfg.c ****   * in the root directory of this software component.
  37:./Library/stm32f4xx_syscfg.c ****   * If no LICENSE file comes with this software, it is provided AS-IS.
  38:./Library/stm32f4xx_syscfg.c ****   *
  39:./Library/stm32f4xx_syscfg.c ****   ******************************************************************************
  40:./Library/stm32f4xx_syscfg.c ****   */
  41:./Library/stm32f4xx_syscfg.c **** 
  42:./Library/stm32f4xx_syscfg.c **** /* Includes ------------------------------------------------------------------*/
  43:./Library/stm32f4xx_syscfg.c **** #include "stm32f4xx_syscfg.h"
  44:./Library/stm32f4xx_syscfg.c **** #include "stm32f4xx_rcc.h"
  45:./Library/stm32f4xx_syscfg.c **** 
  46:./Library/stm32f4xx_syscfg.c **** /** @addtogroup STM32F4xx_StdPeriph_Driver
  47:./Library/stm32f4xx_syscfg.c ****   * @{
  48:./Library/stm32f4xx_syscfg.c ****   */
  49:./Library/stm32f4xx_syscfg.c **** 
  50:./Library/stm32f4xx_syscfg.c **** /** @defgroup SYSCFG 
  51:./Library/stm32f4xx_syscfg.c ****   * @brief SYSCFG driver modules
  52:./Library/stm32f4xx_syscfg.c ****   * @{
  53:./Library/stm32f4xx_syscfg.c ****   */ 
  54:./Library/stm32f4xx_syscfg.c **** 
  55:./Library/stm32f4xx_syscfg.c **** /* Private typedef -----------------------------------------------------------*/
  56:./Library/stm32f4xx_syscfg.c **** /* Private define ------------------------------------------------------------*/
  57:./Library/stm32f4xx_syscfg.c **** /* ------------ RCC registers bit address in the alias region ----------- */
  58:./Library/stm32f4xx_syscfg.c **** #define SYSCFG_OFFSET             (SYSCFG_BASE - PERIPH_BASE)
  59:./Library/stm32f4xx_syscfg.c **** /* ---  MEMRMP Register ---*/ 
  60:./Library/stm32f4xx_syscfg.c **** /* Alias word address of UFB_MODE bit */ 
  61:./Library/stm32f4xx_syscfg.c **** #define MEMRMP_OFFSET             SYSCFG_OFFSET 
  62:./Library/stm32f4xx_syscfg.c **** #define UFB_MODE_BitNumber        ((uint8_t)0x8) 
  63:./Library/stm32f4xx_syscfg.c **** #define UFB_MODE_BB               (PERIPH_BB_BASE + (MEMRMP_OFFSET * 32) + (UFB_MODE_BitNumber * 4)
  64:./Library/stm32f4xx_syscfg.c ****     
  65:./Library/stm32f4xx_syscfg.c **** /* ---  PMC Register ---*/ 
  66:./Library/stm32f4xx_syscfg.c **** /* Alias word address of MII_RMII_SEL bit */ 
  67:./Library/stm32f4xx_syscfg.c **** #define PMC_OFFSET                (SYSCFG_OFFSET + 0x04) 
  68:./Library/stm32f4xx_syscfg.c **** #define MII_RMII_SEL_BitNumber    ((uint8_t)0x17) 
  69:./Library/stm32f4xx_syscfg.c **** #define PMC_MII_RMII_SEL_BB       (PERIPH_BB_BASE + (PMC_OFFSET * 32) + (MII_RMII_SEL_BitNumber * 4
  70:./Library/stm32f4xx_syscfg.c ****     
  71:./Library/stm32f4xx_syscfg.c **** /* ---  CMPCR Register ---*/ 
  72:./Library/stm32f4xx_syscfg.c **** /* Alias word address of CMP_PD bit */ 
  73:./Library/stm32f4xx_syscfg.c **** #define CMPCR_OFFSET              (SYSCFG_OFFSET + 0x20) 
  74:./Library/stm32f4xx_syscfg.c **** #define CMP_PD_BitNumber          ((uint8_t)0x00) 
  75:./Library/stm32f4xx_syscfg.c **** #define CMPCR_CMP_PD_BB           (PERIPH_BB_BASE + (CMPCR_OFFSET * 32) + (CMP_PD_BitNumber * 4)) 
  76:./Library/stm32f4xx_syscfg.c **** 
  77:./Library/stm32f4xx_syscfg.c **** /* ---  MCHDLYCR Register ---*/ 
  78:./Library/stm32f4xx_syscfg.c **** /* Alias word address of BSCKSEL bit */ 
  79:./Library/stm32f4xx_syscfg.c **** #define MCHDLYCR_OFFSET            (SYSCFG_OFFSET + 0x30) 
  80:./Library/stm32f4xx_syscfg.c **** #define BSCKSEL_BIT_NUMBER         POSITION_VAL(SYSCFG_MCHDLYCR_BSCKSEL)
  81:./Library/stm32f4xx_syscfg.c **** #define MCHDLYCR_BSCKSEL_BB        (uint32_t)(PERIPH_BB_BASE + (MCHDLYCR_OFFSET * 32) + (BSCKSEL_BI
  82:./Library/stm32f4xx_syscfg.c **** 
  83:./Library/stm32f4xx_syscfg.c **** /* Private macro -------------------------------------------------------------*/
  84:./Library/stm32f4xx_syscfg.c **** /* Private variables ---------------------------------------------------------*/
  85:./Library/stm32f4xx_syscfg.c **** /* Private function prototypes -----------------------------------------------*/
  86:./Library/stm32f4xx_syscfg.c **** /* Private functions ---------------------------------------------------------*/
  87:./Library/stm32f4xx_syscfg.c **** 
ARM GAS  /var/folders/yl/_q9l42k90g1g4mdhbs226msm0000gn/T//cc1LQhoj.s 			page 3


  88:./Library/stm32f4xx_syscfg.c **** /** @defgroup SYSCFG_Private_Functions
  89:./Library/stm32f4xx_syscfg.c ****   * @{
  90:./Library/stm32f4xx_syscfg.c ****   */ 
  91:./Library/stm32f4xx_syscfg.c **** 
  92:./Library/stm32f4xx_syscfg.c **** /**
  93:./Library/stm32f4xx_syscfg.c ****   * @brief  Deinitializes the Alternate Functions (remap and EXTI configuration)
  94:./Library/stm32f4xx_syscfg.c ****   *   registers to their default reset values.
  95:./Library/stm32f4xx_syscfg.c ****   * @param  None
  96:./Library/stm32f4xx_syscfg.c ****   * @retval None
  97:./Library/stm32f4xx_syscfg.c ****   */
  98:./Library/stm32f4xx_syscfg.c **** void SYSCFG_DeInit(void)
  99:./Library/stm32f4xx_syscfg.c **** {
  29              		.loc 1 99 1
  30              		.cfi_startproc
  31              		@ args = 0, pretend = 0, frame = 0
  32              		@ frame_needed = 1, uses_anonymous_args = 0
  33 0000 80B5     		push	{r7, lr}
  34              	.LCFI0:
  35              		.cfi_def_cfa_offset 8
  36              		.cfi_offset 7, -8
  37              		.cfi_offset 14, -4
  38 0002 00AF     		add	r7, sp, #0
  39              	.LCFI1:
  40              		.cfi_def_cfa_register 7
 100:./Library/stm32f4xx_syscfg.c ****    RCC_APB2PeriphResetCmd(RCC_APB2Periph_SYSCFG, ENABLE);
  41              		.loc 1 100 4
  42 0004 0121     		movs	r1, #1
  43 0006 4FF48040 		mov	r0, #16384
  44 000a FFF7FEFF 		bl	RCC_APB2PeriphResetCmd
 101:./Library/stm32f4xx_syscfg.c ****    RCC_APB2PeriphResetCmd(RCC_APB2Periph_SYSCFG, DISABLE);
  45              		.loc 1 101 4
  46 000e 0021     		movs	r1, #0
  47 0010 4FF48040 		mov	r0, #16384
  48 0014 FFF7FEFF 		bl	RCC_APB2PeriphResetCmd
 102:./Library/stm32f4xx_syscfg.c **** }
  49              		.loc 1 102 1
  50 0018 00BF     		nop
  51 001a 80BD     		pop	{r7, pc}
  52              		.cfi_endproc
  53              	.LFE123:
  55              		.section	.text.SYSCFG_MemoryRemapConfig,"ax",%progbits
  56              		.align	1
  57              		.global	SYSCFG_MemoryRemapConfig
  58              		.syntax unified
  59              		.thumb
  60              		.thumb_func
  62              	SYSCFG_MemoryRemapConfig:
  63              	.LFB124:
 103:./Library/stm32f4xx_syscfg.c **** 
 104:./Library/stm32f4xx_syscfg.c **** /**
 105:./Library/stm32f4xx_syscfg.c ****   * @brief  Changes the mapping of the specified pin.
 106:./Library/stm32f4xx_syscfg.c ****   * @param  SYSCFG_Memory: selects the memory remapping.
 107:./Library/stm32f4xx_syscfg.c ****   *         This parameter can be one of the following values:
 108:./Library/stm32f4xx_syscfg.c ****   *            @arg SYSCFG_MemoryRemap_Flash:       Main Flash memory mapped at 0x00000000  
 109:./Library/stm32f4xx_syscfg.c ****   *            @arg SYSCFG_MemoryRemap_SystemFlash: System Flash memory mapped at 0x00000000
 110:./Library/stm32f4xx_syscfg.c ****   *            @arg SYSCFG_MemoryRemap_FSMC:        FSMC (Bank1 (NOR/PSRAM 1 and 2) mapped at 0x000
 111:./Library/stm32f4xx_syscfg.c ****   *            @arg SYSCFG_MemoryRemap_FMC:         FMC (Bank1 (NOR/PSRAM 1 and 2) mapped at 0x0000
ARM GAS  /var/folders/yl/_q9l42k90g1g4mdhbs226msm0000gn/T//cc1LQhoj.s 			page 4


 112:./Library/stm32f4xx_syscfg.c ****   *            @arg SYSCFG_MemoryRemap_ExtMEM:      External Memory mapped at 0x00000000 for STM32F
 113:./Library/stm32f4xx_syscfg.c ****   *            @arg SYSCFG_MemoryRemap_SRAM:        Embedded SRAM (112kB) mapped at 0x00000000
 114:./Library/stm32f4xx_syscfg.c ****   *            @arg SYSCFG_MemoryRemap_SDRAM:       FMC (External SDRAM)  mapped at 0x00000000 for 
 115:./Library/stm32f4xx_syscfg.c ****   * @retval None
 116:./Library/stm32f4xx_syscfg.c ****   */
 117:./Library/stm32f4xx_syscfg.c **** void SYSCFG_MemoryRemapConfig(uint8_t SYSCFG_MemoryRemap)
 118:./Library/stm32f4xx_syscfg.c **** {
  64              		.loc 1 118 1
  65              		.cfi_startproc
  66              		@ args = 0, pretend = 0, frame = 8
  67              		@ frame_needed = 1, uses_anonymous_args = 0
  68              		@ link register save eliminated.
  69 0000 80B4     		push	{r7}
  70              	.LCFI2:
  71              		.cfi_def_cfa_offset 4
  72              		.cfi_offset 7, -4
  73 0002 83B0     		sub	sp, sp, #12
  74              	.LCFI3:
  75              		.cfi_def_cfa_offset 16
  76 0004 00AF     		add	r7, sp, #0
  77              	.LCFI4:
  78              		.cfi_def_cfa_register 7
  79 0006 0346     		mov	r3, r0
  80 0008 FB71     		strb	r3, [r7, #7]
 119:./Library/stm32f4xx_syscfg.c ****   /* Check the parameters */
 120:./Library/stm32f4xx_syscfg.c ****   assert_param(IS_SYSCFG_MEMORY_REMAP_CONFING(SYSCFG_MemoryRemap));
 121:./Library/stm32f4xx_syscfg.c **** 
 122:./Library/stm32f4xx_syscfg.c ****   SYSCFG->MEMRMP = SYSCFG_MemoryRemap;
  81              		.loc 1 122 9
  82 000a 044A     		ldr	r2, .L3
  83              		.loc 1 122 18
  84 000c FB79     		ldrb	r3, [r7, #7]	@ zero_extendqisi2
  85 000e 1360     		str	r3, [r2]
 123:./Library/stm32f4xx_syscfg.c **** }
  86              		.loc 1 123 1
  87 0010 00BF     		nop
  88 0012 0C37     		adds	r7, r7, #12
  89              	.LCFI5:
  90              		.cfi_def_cfa_offset 4
  91 0014 BD46     		mov	sp, r7
  92              	.LCFI6:
  93              		.cfi_def_cfa_register 13
  94              		@ sp needed
  95 0016 5DF8047B 		ldr	r7, [sp], #4
  96              	.LCFI7:
  97              		.cfi_restore 7
  98              		.cfi_def_cfa_offset 0
  99 001a 7047     		bx	lr
 100              	.L4:
 101              		.align	2
 102              	.L3:
 103 001c 00380140 		.word	1073821696
 104              		.cfi_endproc
 105              	.LFE124:
 107              		.section	.text.SYSCFG_MemorySwappingBank,"ax",%progbits
 108              		.align	1
 109              		.global	SYSCFG_MemorySwappingBank
ARM GAS  /var/folders/yl/_q9l42k90g1g4mdhbs226msm0000gn/T//cc1LQhoj.s 			page 5


 110              		.syntax unified
 111              		.thumb
 112              		.thumb_func
 114              	SYSCFG_MemorySwappingBank:
 115              	.LFB125:
 124:./Library/stm32f4xx_syscfg.c **** 
 125:./Library/stm32f4xx_syscfg.c **** /**
 126:./Library/stm32f4xx_syscfg.c ****   * @brief  Enables or disables the Internal FLASH Bank Swapping.
 127:./Library/stm32f4xx_syscfg.c ****   *   
 128:./Library/stm32f4xx_syscfg.c ****   * @note   This function can be used only for STM32F42xxx/43xxx devices. 
 129:./Library/stm32f4xx_syscfg.c ****   *
 130:./Library/stm32f4xx_syscfg.c ****   * @param  NewState: new state of Internal FLASH Bank swapping.
 131:./Library/stm32f4xx_syscfg.c ****   *          This parameter can be one of the following values:
 132:./Library/stm32f4xx_syscfg.c ****   *            @arg ENABLE: Flash Bank2 mapped at 0x08000000 (and aliased @0x00000000) 
 133:./Library/stm32f4xx_syscfg.c ****   *                         and Flash Bank1 mapped at 0x08100000 (and aliased at 0x00100000)   
 134:./Library/stm32f4xx_syscfg.c ****   *            @arg DISABLE:(the default state) Flash Bank1 mapped at 0x08000000 (and aliased @0x00
 135:./Library/stm32f4xx_syscfg.c ****                             and Flash Bank2 mapped at 0x08100000 (and aliased at 0x00100000)  
 136:./Library/stm32f4xx_syscfg.c ****   * @retval None
 137:./Library/stm32f4xx_syscfg.c ****   */
 138:./Library/stm32f4xx_syscfg.c **** void SYSCFG_MemorySwappingBank(FunctionalState NewState)
 139:./Library/stm32f4xx_syscfg.c **** {
 116              		.loc 1 139 1
 117              		.cfi_startproc
 118              		@ args = 0, pretend = 0, frame = 8
 119              		@ frame_needed = 1, uses_anonymous_args = 0
 120              		@ link register save eliminated.
 121 0000 80B4     		push	{r7}
 122              	.LCFI8:
 123              		.cfi_def_cfa_offset 4
 124              		.cfi_offset 7, -4
 125 0002 83B0     		sub	sp, sp, #12
 126              	.LCFI9:
 127              		.cfi_def_cfa_offset 16
 128 0004 00AF     		add	r7, sp, #0
 129              	.LCFI10:
 130              		.cfi_def_cfa_register 7
 131 0006 0346     		mov	r3, r0
 132 0008 FB71     		strb	r3, [r7, #7]
 140:./Library/stm32f4xx_syscfg.c ****   /* Check the parameters */
 141:./Library/stm32f4xx_syscfg.c ****   assert_param(IS_FUNCTIONAL_STATE(NewState));
 142:./Library/stm32f4xx_syscfg.c **** 
 143:./Library/stm32f4xx_syscfg.c ****   *(__IO uint32_t *) UFB_MODE_BB = (uint32_t)NewState;
 133              		.loc 1 143 3
 134 000a 044A     		ldr	r2, .L6
 135              		.loc 1 143 36
 136 000c FB79     		ldrb	r3, [r7, #7]	@ zero_extendqisi2
 137              		.loc 1 143 34
 138 000e 1360     		str	r3, [r2]
 144:./Library/stm32f4xx_syscfg.c **** }
 139              		.loc 1 144 1
 140 0010 00BF     		nop
 141 0012 0C37     		adds	r7, r7, #12
 142              	.LCFI11:
 143              		.cfi_def_cfa_offset 4
 144 0014 BD46     		mov	sp, r7
 145              	.LCFI12:
 146              		.cfi_def_cfa_register 13
ARM GAS  /var/folders/yl/_q9l42k90g1g4mdhbs226msm0000gn/T//cc1LQhoj.s 			page 6


 147              		@ sp needed
 148 0016 5DF8047B 		ldr	r7, [sp], #4
 149              	.LCFI13:
 150              		.cfi_restore 7
 151              		.cfi_def_cfa_offset 0
 152 001a 7047     		bx	lr
 153              	.L7:
 154              		.align	2
 155              	.L6:
 156 001c 20002742 		.word	1109852192
 157              		.cfi_endproc
 158              	.LFE125:
 160              		.section	.text.SYSCFG_EXTILineConfig,"ax",%progbits
 161              		.align	1
 162              		.global	SYSCFG_EXTILineConfig
 163              		.syntax unified
 164              		.thumb
 165              		.thumb_func
 167              	SYSCFG_EXTILineConfig:
 168              	.LFB126:
 145:./Library/stm32f4xx_syscfg.c **** 
 146:./Library/stm32f4xx_syscfg.c **** /**
 147:./Library/stm32f4xx_syscfg.c ****   * @brief  Selects the GPIO pin used as EXTI Line.
 148:./Library/stm32f4xx_syscfg.c ****   * @param  EXTI_PortSourceGPIOx : selects the GPIO port to be used as source for
 149:./Library/stm32f4xx_syscfg.c ****   *          EXTI lines where x can be (A..K) for STM32F42xxx/43xxx devices, (A..I) 
 150:./Library/stm32f4xx_syscfg.c ****   *          for STM32F405xx/407xx and STM32F415xx/417xx devices or (A, B, C, D and H)
 151:./Library/stm32f4xx_syscfg.c ****   *          for STM32401xx devices.  
 152:./Library/stm32f4xx_syscfg.c ****   *            
 153:./Library/stm32f4xx_syscfg.c ****   * @param  EXTI_PinSourcex: specifies the EXTI line to be configured.
 154:./Library/stm32f4xx_syscfg.c ****   *           This parameter can be EXTI_PinSourcex where x can be (0..15, except
 155:./Library/stm32f4xx_syscfg.c ****   *           for EXTI_PortSourceGPIOI x can be (0..11) for STM32F405xx/407xx
 156:./Library/stm32f4xx_syscfg.c ****   *           and STM32F405xx/407xx devices and for EXTI_PortSourceGPIOK x can   
 157:./Library/stm32f4xx_syscfg.c ****   *           be (0..7) for STM32F42xxx/43xxx devices. 
 158:./Library/stm32f4xx_syscfg.c ****   *             
 159:./Library/stm32f4xx_syscfg.c ****   * @retval None
 160:./Library/stm32f4xx_syscfg.c ****   */
 161:./Library/stm32f4xx_syscfg.c **** void SYSCFG_EXTILineConfig(uint8_t EXTI_PortSourceGPIOx, uint8_t EXTI_PinSourcex)
 162:./Library/stm32f4xx_syscfg.c **** {
 169              		.loc 1 162 1
 170              		.cfi_startproc
 171              		@ args = 0, pretend = 0, frame = 16
 172              		@ frame_needed = 1, uses_anonymous_args = 0
 173              		@ link register save eliminated.
 174 0000 80B4     		push	{r7}
 175              	.LCFI14:
 176              		.cfi_def_cfa_offset 4
 177              		.cfi_offset 7, -4
 178 0002 85B0     		sub	sp, sp, #20
 179              	.LCFI15:
 180              		.cfi_def_cfa_offset 24
 181 0004 00AF     		add	r7, sp, #0
 182              	.LCFI16:
 183              		.cfi_def_cfa_register 7
 184 0006 0346     		mov	r3, r0
 185 0008 0A46     		mov	r2, r1
 186 000a FB71     		strb	r3, [r7, #7]
 187 000c 1346     		mov	r3, r2
ARM GAS  /var/folders/yl/_q9l42k90g1g4mdhbs226msm0000gn/T//cc1LQhoj.s 			page 7


 188 000e BB71     		strb	r3, [r7, #6]
 163:./Library/stm32f4xx_syscfg.c ****   uint32_t tmp = 0x00;
 189              		.loc 1 163 12
 190 0010 0023     		movs	r3, #0
 191 0012 FB60     		str	r3, [r7, #12]
 164:./Library/stm32f4xx_syscfg.c **** 
 165:./Library/stm32f4xx_syscfg.c ****   /* Check the parameters */
 166:./Library/stm32f4xx_syscfg.c ****   assert_param(IS_EXTI_PORT_SOURCE(EXTI_PortSourceGPIOx));
 167:./Library/stm32f4xx_syscfg.c ****   assert_param(IS_EXTI_PIN_SOURCE(EXTI_PinSourcex));
 168:./Library/stm32f4xx_syscfg.c **** 
 169:./Library/stm32f4xx_syscfg.c ****   tmp = ((uint32_t)0x0F) << (0x04 * (EXTI_PinSourcex & (uint8_t)0x03));
 192              		.loc 1 169 54
 193 0014 BB79     		ldrb	r3, [r7, #6]	@ zero_extendqisi2
 194 0016 03F00303 		and	r3, r3, #3
 195              		.loc 1 169 35
 196 001a 9B00     		lsls	r3, r3, #2
 197              		.loc 1 169 7
 198 001c 0F22     		movs	r2, #15
 199 001e 02FA03F3 		lsl	r3, r2, r3
 200 0022 FB60     		str	r3, [r7, #12]
 170:./Library/stm32f4xx_syscfg.c ****   SYSCFG->EXTICR[EXTI_PinSourcex >> 0x02] &= ~tmp;
 201              		.loc 1 170 43
 202 0024 164A     		ldr	r2, .L9
 203 0026 BB79     		ldrb	r3, [r7, #6]	@ zero_extendqisi2
 204 0028 9B08     		lsrs	r3, r3, #2
 205 002a DBB2     		uxtb	r3, r3
 206 002c 0233     		adds	r3, r3, #2
 207 002e 52F82320 		ldr	r2, [r2, r3, lsl #2]
 208              		.loc 1 170 46
 209 0032 FB68     		ldr	r3, [r7, #12]
 210 0034 DB43     		mvns	r3, r3
 211              		.loc 1 170 43
 212 0036 1248     		ldr	r0, .L9
 213 0038 B979     		ldrb	r1, [r7, #6]	@ zero_extendqisi2
 214 003a 8908     		lsrs	r1, r1, #2
 215 003c C9B2     		uxtb	r1, r1
 216 003e 1A40     		ands	r2, r2, r3
 217 0040 8B1C     		adds	r3, r1, #2
 218 0042 40F82320 		str	r2, [r0, r3, lsl #2]
 171:./Library/stm32f4xx_syscfg.c ****   SYSCFG->EXTICR[EXTI_PinSourcex >> 0x02] |= (((uint32_t)EXTI_PortSourceGPIOx) << (0x04 * (EXTI_Pin
 219              		.loc 1 171 43
 220 0046 0E4A     		ldr	r2, .L9
 221 0048 BB79     		ldrb	r3, [r7, #6]	@ zero_extendqisi2
 222 004a 9B08     		lsrs	r3, r3, #2
 223 004c DBB2     		uxtb	r3, r3
 224 004e 0233     		adds	r3, r3, #2
 225 0050 52F82320 		ldr	r2, [r2, r3, lsl #2]
 226              		.loc 1 171 48
 227 0054 F979     		ldrb	r1, [r7, #7]	@ zero_extendqisi2
 228              		.loc 1 171 108
 229 0056 BB79     		ldrb	r3, [r7, #6]	@ zero_extendqisi2
 230 0058 03F00303 		and	r3, r3, #3
 231              		.loc 1 171 89
 232 005c 9B00     		lsls	r3, r3, #2
 233              		.loc 1 171 80
 234 005e 01FA03F3 		lsl	r3, r1, r3
 235              		.loc 1 171 43
ARM GAS  /var/folders/yl/_q9l42k90g1g4mdhbs226msm0000gn/T//cc1LQhoj.s 			page 8


 236 0062 0748     		ldr	r0, .L9
 237 0064 B979     		ldrb	r1, [r7, #6]	@ zero_extendqisi2
 238 0066 8908     		lsrs	r1, r1, #2
 239 0068 C9B2     		uxtb	r1, r1
 240 006a 1A43     		orrs	r2, r2, r3
 241 006c 8B1C     		adds	r3, r1, #2
 242 006e 40F82320 		str	r2, [r0, r3, lsl #2]
 172:./Library/stm32f4xx_syscfg.c **** }
 243              		.loc 1 172 1
 244 0072 00BF     		nop
 245 0074 1437     		adds	r7, r7, #20
 246              	.LCFI17:
 247              		.cfi_def_cfa_offset 4
 248 0076 BD46     		mov	sp, r7
 249              	.LCFI18:
 250              		.cfi_def_cfa_register 13
 251              		@ sp needed
 252 0078 5DF8047B 		ldr	r7, [sp], #4
 253              	.LCFI19:
 254              		.cfi_restore 7
 255              		.cfi_def_cfa_offset 0
 256 007c 7047     		bx	lr
 257              	.L10:
 258 007e 00BF     		.align	2
 259              	.L9:
 260 0080 00380140 		.word	1073821696
 261              		.cfi_endproc
 262              	.LFE126:
 264              		.section	.text.SYSCFG_ETH_MediaInterfaceConfig,"ax",%progbits
 265              		.align	1
 266              		.global	SYSCFG_ETH_MediaInterfaceConfig
 267              		.syntax unified
 268              		.thumb
 269              		.thumb_func
 271              	SYSCFG_ETH_MediaInterfaceConfig:
 272              	.LFB127:
 173:./Library/stm32f4xx_syscfg.c **** 
 174:./Library/stm32f4xx_syscfg.c **** /**
 175:./Library/stm32f4xx_syscfg.c ****   * @brief  Selects the ETHERNET media interface 
 176:./Library/stm32f4xx_syscfg.c ****   * @param  SYSCFG_ETH_MediaInterface: specifies the Media Interface mode. 
 177:./Library/stm32f4xx_syscfg.c ****   *          This parameter can be one of the following values: 
 178:./Library/stm32f4xx_syscfg.c ****   *            @arg SYSCFG_ETH_MediaInterface_MII: MII mode selected
 179:./Library/stm32f4xx_syscfg.c ****   *            @arg SYSCFG_ETH_MediaInterface_RMII: RMII mode selected 
 180:./Library/stm32f4xx_syscfg.c ****   * @retval None 
 181:./Library/stm32f4xx_syscfg.c ****   */
 182:./Library/stm32f4xx_syscfg.c **** void SYSCFG_ETH_MediaInterfaceConfig(uint32_t SYSCFG_ETH_MediaInterface) 
 183:./Library/stm32f4xx_syscfg.c **** { 
 273              		.loc 1 183 1
 274              		.cfi_startproc
 275              		@ args = 0, pretend = 0, frame = 8
 276              		@ frame_needed = 1, uses_anonymous_args = 0
 277              		@ link register save eliminated.
 278 0000 80B4     		push	{r7}
 279              	.LCFI20:
 280              		.cfi_def_cfa_offset 4
 281              		.cfi_offset 7, -4
 282 0002 83B0     		sub	sp, sp, #12
ARM GAS  /var/folders/yl/_q9l42k90g1g4mdhbs226msm0000gn/T//cc1LQhoj.s 			page 9


 283              	.LCFI21:
 284              		.cfi_def_cfa_offset 16
 285 0004 00AF     		add	r7, sp, #0
 286              	.LCFI22:
 287              		.cfi_def_cfa_register 7
 288 0006 7860     		str	r0, [r7, #4]
 184:./Library/stm32f4xx_syscfg.c ****   assert_param(IS_SYSCFG_ETH_MEDIA_INTERFACE(SYSCFG_ETH_MediaInterface)); 
 185:./Library/stm32f4xx_syscfg.c ****   /* Configure MII_RMII selection bit */ 
 186:./Library/stm32f4xx_syscfg.c ****   *(__IO uint32_t *) PMC_MII_RMII_SEL_BB = SYSCFG_ETH_MediaInterface; 
 289              		.loc 1 186 3
 290 0008 044A     		ldr	r2, .L12
 291              		.loc 1 186 42
 292 000a 7B68     		ldr	r3, [r7, #4]
 293 000c 1360     		str	r3, [r2]
 187:./Library/stm32f4xx_syscfg.c **** }
 294              		.loc 1 187 1
 295 000e 00BF     		nop
 296 0010 0C37     		adds	r7, r7, #12
 297              	.LCFI23:
 298              		.cfi_def_cfa_offset 4
 299 0012 BD46     		mov	sp, r7
 300              	.LCFI24:
 301              		.cfi_def_cfa_register 13
 302              		@ sp needed
 303 0014 5DF8047B 		ldr	r7, [sp], #4
 304              	.LCFI25:
 305              		.cfi_restore 7
 306              		.cfi_def_cfa_offset 0
 307 0018 7047     		bx	lr
 308              	.L13:
 309 001a 00BF     		.align	2
 310              	.L12:
 311 001c DC002742 		.word	1109852380
 312              		.cfi_endproc
 313              	.LFE127:
 315              		.section	.text.SYSCFG_CompensationCellCmd,"ax",%progbits
 316              		.align	1
 317              		.global	SYSCFG_CompensationCellCmd
 318              		.syntax unified
 319              		.thumb
 320              		.thumb_func
 322              	SYSCFG_CompensationCellCmd:
 323              	.LFB128:
 188:./Library/stm32f4xx_syscfg.c **** 
 189:./Library/stm32f4xx_syscfg.c **** /**
 190:./Library/stm32f4xx_syscfg.c ****   * @brief  Enables or disables the I/O Compensation Cell.
 191:./Library/stm32f4xx_syscfg.c ****   * @note   The I/O compensation cell can be used only when the device supply
 192:./Library/stm32f4xx_syscfg.c ****   *         voltage ranges from 2.4 to 3.6 V.  
 193:./Library/stm32f4xx_syscfg.c ****   * @param  NewState: new state of the I/O Compensation Cell.
 194:./Library/stm32f4xx_syscfg.c ****   *          This parameter can be one of the following values:
 195:./Library/stm32f4xx_syscfg.c ****   *            @arg ENABLE: I/O compensation cell enabled  
 196:./Library/stm32f4xx_syscfg.c ****   *            @arg DISABLE: I/O compensation cell power-down mode  
 197:./Library/stm32f4xx_syscfg.c ****   * @retval None
 198:./Library/stm32f4xx_syscfg.c ****   */
 199:./Library/stm32f4xx_syscfg.c **** void SYSCFG_CompensationCellCmd(FunctionalState NewState)
 200:./Library/stm32f4xx_syscfg.c **** {
 324              		.loc 1 200 1
ARM GAS  /var/folders/yl/_q9l42k90g1g4mdhbs226msm0000gn/T//cc1LQhoj.s 			page 10


 325              		.cfi_startproc
 326              		@ args = 0, pretend = 0, frame = 8
 327              		@ frame_needed = 1, uses_anonymous_args = 0
 328              		@ link register save eliminated.
 329 0000 80B4     		push	{r7}
 330              	.LCFI26:
 331              		.cfi_def_cfa_offset 4
 332              		.cfi_offset 7, -4
 333 0002 83B0     		sub	sp, sp, #12
 334              	.LCFI27:
 335              		.cfi_def_cfa_offset 16
 336 0004 00AF     		add	r7, sp, #0
 337              	.LCFI28:
 338              		.cfi_def_cfa_register 7
 339 0006 0346     		mov	r3, r0
 340 0008 FB71     		strb	r3, [r7, #7]
 201:./Library/stm32f4xx_syscfg.c ****   /* Check the parameters */
 202:./Library/stm32f4xx_syscfg.c ****   assert_param(IS_FUNCTIONAL_STATE(NewState));
 203:./Library/stm32f4xx_syscfg.c **** 
 204:./Library/stm32f4xx_syscfg.c ****   *(__IO uint32_t *) CMPCR_CMP_PD_BB = (uint32_t)NewState;
 341              		.loc 1 204 3
 342 000a 044A     		ldr	r2, .L15
 343              		.loc 1 204 40
 344 000c FB79     		ldrb	r3, [r7, #7]	@ zero_extendqisi2
 345              		.loc 1 204 38
 346 000e 1360     		str	r3, [r2]
 205:./Library/stm32f4xx_syscfg.c **** }
 347              		.loc 1 205 1
 348 0010 00BF     		nop
 349 0012 0C37     		adds	r7, r7, #12
 350              	.LCFI29:
 351              		.cfi_def_cfa_offset 4
 352 0014 BD46     		mov	sp, r7
 353              	.LCFI30:
 354              		.cfi_def_cfa_register 13
 355              		@ sp needed
 356 0016 5DF8047B 		ldr	r7, [sp], #4
 357              	.LCFI31:
 358              		.cfi_restore 7
 359              		.cfi_def_cfa_offset 0
 360 001a 7047     		bx	lr
 361              	.L16:
 362              		.align	2
 363              	.L15:
 364 001c 00042742 		.word	1109853184
 365              		.cfi_endproc
 366              	.LFE128:
 368              		.section	.text.SYSCFG_GetCompensationCellStatus,"ax",%progbits
 369              		.align	1
 370              		.global	SYSCFG_GetCompensationCellStatus
 371              		.syntax unified
 372              		.thumb
 373              		.thumb_func
 375              	SYSCFG_GetCompensationCellStatus:
 376              	.LFB129:
 206:./Library/stm32f4xx_syscfg.c **** 
 207:./Library/stm32f4xx_syscfg.c **** /**
ARM GAS  /var/folders/yl/_q9l42k90g1g4mdhbs226msm0000gn/T//cc1LQhoj.s 			page 11


 208:./Library/stm32f4xx_syscfg.c ****   * @brief  Checks whether the I/O Compensation Cell ready flag is set or not.
 209:./Library/stm32f4xx_syscfg.c ****   * @param  None
 210:./Library/stm32f4xx_syscfg.c ****   * @retval The new state of the I/O Compensation Cell ready flag (SET or RESET)
 211:./Library/stm32f4xx_syscfg.c ****   */
 212:./Library/stm32f4xx_syscfg.c **** FlagStatus SYSCFG_GetCompensationCellStatus(void)
 213:./Library/stm32f4xx_syscfg.c **** {
 377              		.loc 1 213 1
 378              		.cfi_startproc
 379              		@ args = 0, pretend = 0, frame = 8
 380              		@ frame_needed = 1, uses_anonymous_args = 0
 381              		@ link register save eliminated.
 382 0000 80B4     		push	{r7}
 383              	.LCFI32:
 384              		.cfi_def_cfa_offset 4
 385              		.cfi_offset 7, -4
 386 0002 83B0     		sub	sp, sp, #12
 387              	.LCFI33:
 388              		.cfi_def_cfa_offset 16
 389 0004 00AF     		add	r7, sp, #0
 390              	.LCFI34:
 391              		.cfi_def_cfa_register 7
 214:./Library/stm32f4xx_syscfg.c ****   FlagStatus bitstatus = RESET;
 392              		.loc 1 214 14
 393 0006 0023     		movs	r3, #0
 394 0008 FB71     		strb	r3, [r7, #7]
 215:./Library/stm32f4xx_syscfg.c ****     
 216:./Library/stm32f4xx_syscfg.c ****   if ((SYSCFG->CMPCR & SYSCFG_CMPCR_READY ) != (uint32_t)RESET)
 395              		.loc 1 216 14
 396 000a 094B     		ldr	r3, .L21
 397 000c 1B6A     		ldr	r3, [r3, #32]
 398              		.loc 1 216 22
 399 000e 03F48073 		and	r3, r3, #256
 400              		.loc 1 216 6
 401 0012 002B     		cmp	r3, #0
 402 0014 02D0     		beq	.L18
 217:./Library/stm32f4xx_syscfg.c ****   {
 218:./Library/stm32f4xx_syscfg.c ****     bitstatus = SET;
 403              		.loc 1 218 15
 404 0016 0123     		movs	r3, #1
 405 0018 FB71     		strb	r3, [r7, #7]
 406 001a 01E0     		b	.L19
 407              	.L18:
 219:./Library/stm32f4xx_syscfg.c ****   }
 220:./Library/stm32f4xx_syscfg.c ****   else
 221:./Library/stm32f4xx_syscfg.c ****   {
 222:./Library/stm32f4xx_syscfg.c ****     bitstatus = RESET;
 408              		.loc 1 222 15
 409 001c 0023     		movs	r3, #0
 410 001e FB71     		strb	r3, [r7, #7]
 411              	.L19:
 223:./Library/stm32f4xx_syscfg.c ****   }
 224:./Library/stm32f4xx_syscfg.c ****   return bitstatus;
 412              		.loc 1 224 10
 413 0020 FB79     		ldrb	r3, [r7, #7]	@ zero_extendqisi2
 225:./Library/stm32f4xx_syscfg.c **** }
 414              		.loc 1 225 1
 415 0022 1846     		mov	r0, r3
ARM GAS  /var/folders/yl/_q9l42k90g1g4mdhbs226msm0000gn/T//cc1LQhoj.s 			page 12


 416 0024 0C37     		adds	r7, r7, #12
 417              	.LCFI35:
 418              		.cfi_def_cfa_offset 4
 419 0026 BD46     		mov	sp, r7
 420              	.LCFI36:
 421              		.cfi_def_cfa_register 13
 422              		@ sp needed
 423 0028 5DF8047B 		ldr	r7, [sp], #4
 424              	.LCFI37:
 425              		.cfi_restore 7
 426              		.cfi_def_cfa_offset 0
 427 002c 7047     		bx	lr
 428              	.L22:
 429 002e 00BF     		.align	2
 430              	.L21:
 431 0030 00380140 		.word	1073821696
 432              		.cfi_endproc
 433              	.LFE129:
 435              		.text
 436              	.Letext0:
 437              		.file 2 "/Applications/ARM/arm-none-eabi/include/machine/_default_types.h"
 438              		.file 3 "/Applications/ARM/arm-none-eabi/include/sys/_stdint.h"
 439              		.file 4 "./CORE/stm32f4xx.h"
ARM GAS  /var/folders/yl/_q9l42k90g1g4mdhbs226msm0000gn/T//cc1LQhoj.s 			page 13

