ARM GAS  /var/folders/yl/_q9l42k90g1g4mdhbs226msm0000gn/T//ccpYyaD8.s 			page 1


   1              		.cpu cortex-m4
   2              		.arch armv7e-m
   3              		.fpu fpv4-sp-d16
   4              		.eabi_attribute 27, 1
   5              		.eabi_attribute 28, 1
   6              		.eabi_attribute 20, 1
   7              		.eabi_attribute 21, 1
   8              		.eabi_attribute 23, 3
   9              		.eabi_attribute 24, 1
  10              		.eabi_attribute 25, 1
  11              		.eabi_attribute 26, 1
  12              		.eabi_attribute 30, 1
  13              		.eabi_attribute 34, 1
  14              		.eabi_attribute 18, 4
  15              		.file	"stm32f4xx_flash.c"
  16              		.text
  17              	.Ltext0:
  18              		.cfi_sections	.debug_frame
  19              		.section	.text.FLASH_SetLatency,"ax",%progbits
  20              		.align	1
  21              		.global	FLASH_SetLatency
  22              		.syntax unified
  23              		.thumb
  24              		.thumb_func
  26              	FLASH_SetLatency:
  27              	.LVL0:
  28              	.LFB123:
  29              		.file 1 "./Library/stm32f4xx_flash.c"
   1:./Library/stm32f4xx_flash.c **** /**
   2:./Library/stm32f4xx_flash.c ****   ******************************************************************************
   3:./Library/stm32f4xx_flash.c ****   * @file    stm32f4xx_flash.c
   4:./Library/stm32f4xx_flash.c ****   * @author  MCD Application Team
   5:./Library/stm32f4xx_flash.c ****   * @version V1.8.1
   6:./Library/stm32f4xx_flash.c ****   * @date    27-January-2022
   7:./Library/stm32f4xx_flash.c ****   * @brief   This file provides firmware functions to manage the following 
   8:./Library/stm32f4xx_flash.c ****   *          functionalities of the FLASH peripheral:
   9:./Library/stm32f4xx_flash.c ****   *            + FLASH Interface configuration
  10:./Library/stm32f4xx_flash.c ****   *            + FLASH Memory Programming
  11:./Library/stm32f4xx_flash.c ****   *            + Option Bytes Programming
  12:./Library/stm32f4xx_flash.c ****   *            + Interrupts and flags management
  13:./Library/stm32f4xx_flash.c ****   *  
  14:./Library/stm32f4xx_flash.c ****  @verbatim    
  15:./Library/stm32f4xx_flash.c ****  ===============================================================================
  16:./Library/stm32f4xx_flash.c ****                         ##### How to use this driver #####
  17:./Library/stm32f4xx_flash.c ****  ===============================================================================
  18:./Library/stm32f4xx_flash.c ****     [..]                             
  19:./Library/stm32f4xx_flash.c ****       This driver provides functions to configure and program the FLASH memory 
  20:./Library/stm32f4xx_flash.c ****       of all STM32F4xx devices. These functions are split in 4 groups:
  21:./Library/stm32f4xx_flash.c ****    
  22:./Library/stm32f4xx_flash.c ****       (#) FLASH Interface configuration functions: this group includes the
  23:./Library/stm32f4xx_flash.c ****           management of the following features:
  24:./Library/stm32f4xx_flash.c ****         (++) Set the latency
  25:./Library/stm32f4xx_flash.c ****         (++) Enable/Disable the prefetch buffer
  26:./Library/stm32f4xx_flash.c ****         (++) Enable/Disable the Instruction cache and the Data cache
  27:./Library/stm32f4xx_flash.c ****         (++) Reset the Instruction cache and the Data cache
  28:./Library/stm32f4xx_flash.c ****     
  29:./Library/stm32f4xx_flash.c ****       (#) FLASH Memory Programming functions: this group includes all needed
ARM GAS  /var/folders/yl/_q9l42k90g1g4mdhbs226msm0000gn/T//ccpYyaD8.s 			page 2


  30:./Library/stm32f4xx_flash.c ****           functions to erase and program the main memory:
  31:./Library/stm32f4xx_flash.c ****         (++) Lock and Unlock the FLASH interface
  32:./Library/stm32f4xx_flash.c ****         (++) Erase function: Erase sector, erase all sectors
  33:./Library/stm32f4xx_flash.c ****         (++) Program functions: byte, half word, word and double word
  34:./Library/stm32f4xx_flash.c ****     
  35:./Library/stm32f4xx_flash.c ****       (#) Option Bytes Programming functions: this group includes all needed
  36:./Library/stm32f4xx_flash.c ****           functions to manage the Option Bytes:
  37:./Library/stm32f4xx_flash.c ****         (++) Set/Reset the write protection
  38:./Library/stm32f4xx_flash.c ****         (++) Set the Read protection Level
  39:./Library/stm32f4xx_flash.c ****         (++) Set the BOR level
  40:./Library/stm32f4xx_flash.c ****         (++) Program the user Option Bytes
  41:./Library/stm32f4xx_flash.c ****         (++) Launch the Option Bytes loader
  42:./Library/stm32f4xx_flash.c ****     
  43:./Library/stm32f4xx_flash.c ****       (#) Interrupts and flags management functions: this group 
  44:./Library/stm32f4xx_flash.c ****           includes all needed functions to:
  45:./Library/stm32f4xx_flash.c ****         (++) Enable/Disable the FLASH interrupt sources
  46:./Library/stm32f4xx_flash.c ****         (++) Get flags status
  47:./Library/stm32f4xx_flash.c ****         (++) Clear flags
  48:./Library/stm32f4xx_flash.c ****         (++) Get FLASH operation status
  49:./Library/stm32f4xx_flash.c ****         (++) Wait for last FLASH operation   
  50:./Library/stm32f4xx_flash.c ****  @endverbatim
  51:./Library/stm32f4xx_flash.c ****   ******************************************************************************
  52:./Library/stm32f4xx_flash.c ****   * @attention
  53:./Library/stm32f4xx_flash.c ****   *
  54:./Library/stm32f4xx_flash.c ****   * Copyright (c) 2016 STMicroelectronics.
  55:./Library/stm32f4xx_flash.c ****   * All rights reserved.
  56:./Library/stm32f4xx_flash.c ****   *
  57:./Library/stm32f4xx_flash.c ****   * This software is licensed under terms that can be found in the LICENSE file
  58:./Library/stm32f4xx_flash.c ****   * in the root directory of this software component.
  59:./Library/stm32f4xx_flash.c ****   * If no LICENSE file comes with this software, it is provided AS-IS.
  60:./Library/stm32f4xx_flash.c ****   *
  61:./Library/stm32f4xx_flash.c ****   ******************************************************************************
  62:./Library/stm32f4xx_flash.c ****   */
  63:./Library/stm32f4xx_flash.c **** 
  64:./Library/stm32f4xx_flash.c **** /* Includes ------------------------------------------------------------------*/
  65:./Library/stm32f4xx_flash.c **** #include "stm32f4xx_flash.h"
  66:./Library/stm32f4xx_flash.c **** 
  67:./Library/stm32f4xx_flash.c **** /** @addtogroup STM32F4xx_StdPeriph_Driver
  68:./Library/stm32f4xx_flash.c ****   * @{
  69:./Library/stm32f4xx_flash.c ****   */
  70:./Library/stm32f4xx_flash.c **** 
  71:./Library/stm32f4xx_flash.c **** /** @defgroup FLASH 
  72:./Library/stm32f4xx_flash.c ****   * @brief FLASH driver modules
  73:./Library/stm32f4xx_flash.c ****   * @{
  74:./Library/stm32f4xx_flash.c ****   */ 
  75:./Library/stm32f4xx_flash.c **** 
  76:./Library/stm32f4xx_flash.c **** /* Private typedef -----------------------------------------------------------*/
  77:./Library/stm32f4xx_flash.c **** /* Private define ------------------------------------------------------------*/ 
  78:./Library/stm32f4xx_flash.c **** #define SECTOR_MASK               ((uint32_t)0xFFFFFF07)
  79:./Library/stm32f4xx_flash.c **** 
  80:./Library/stm32f4xx_flash.c **** /* Private macro -------------------------------------------------------------*/
  81:./Library/stm32f4xx_flash.c **** /* Private variables ---------------------------------------------------------*/
  82:./Library/stm32f4xx_flash.c **** /* Private function prototypes -----------------------------------------------*/
  83:./Library/stm32f4xx_flash.c **** /* Private functions ---------------------------------------------------------*/
  84:./Library/stm32f4xx_flash.c **** 
  85:./Library/stm32f4xx_flash.c **** /** @defgroup FLASH_Private_Functions
  86:./Library/stm32f4xx_flash.c ****   * @{
ARM GAS  /var/folders/yl/_q9l42k90g1g4mdhbs226msm0000gn/T//ccpYyaD8.s 			page 3


  87:./Library/stm32f4xx_flash.c ****   */ 
  88:./Library/stm32f4xx_flash.c **** 
  89:./Library/stm32f4xx_flash.c **** /** @defgroup FLASH_Group1 FLASH Interface configuration functions
  90:./Library/stm32f4xx_flash.c ****   *  @brief   FLASH Interface configuration functions 
  91:./Library/stm32f4xx_flash.c ****  *
  92:./Library/stm32f4xx_flash.c **** 
  93:./Library/stm32f4xx_flash.c **** @verbatim   
  94:./Library/stm32f4xx_flash.c ****  ===============================================================================
  95:./Library/stm32f4xx_flash.c ****               ##### FLASH Interface configuration functions #####
  96:./Library/stm32f4xx_flash.c ****  ===============================================================================
  97:./Library/stm32f4xx_flash.c ****     [..]
  98:./Library/stm32f4xx_flash.c ****       This group includes the following functions:
  99:./Library/stm32f4xx_flash.c ****       (+) void FLASH_SetLatency(uint32_t FLASH_Latency)
 100:./Library/stm32f4xx_flash.c ****           To correctly read data from FLASH memory, the number of wait states (LATENCY) 
 101:./Library/stm32f4xx_flash.c ****           must be correctly programmed according to the frequency of the CPU clock 
 102:./Library/stm32f4xx_flash.c ****           (HCLK) and the supply voltage of the device.
 103:./Library/stm32f4xx_flash.c ****     [..]      
 104:./Library/stm32f4xx_flash.c ****       For STM32F405xx/07xx and STM32F415xx/17xx devices
 105:./Library/stm32f4xx_flash.c ****  +-------------------------------------------------------------------------------------+
 106:./Library/stm32f4xx_flash.c ****  | Latency       |                HCLK clock frequency (MHz)                           |
 107:./Library/stm32f4xx_flash.c ****  |               |---------------------------------------------------------------------|
 108:./Library/stm32f4xx_flash.c ****  |               | voltage range  | voltage range  | voltage range   | voltage range   |
 109:./Library/stm32f4xx_flash.c ****  |               | 2.7 V - 3.6 V  | 2.4 V - 2.7 V  | 2.1 V - 2.4 V   | 1.8 V - 2.1 V   |
 110:./Library/stm32f4xx_flash.c ****  |---------------|----------------|----------------|-----------------|-----------------|
 111:./Library/stm32f4xx_flash.c ****  |0WS(1CPU cycle)|0 < HCLK <= 30  |0 < HCLK <= 24  |0 < HCLK <= 22   |0 < HCLK <= 20   |
 112:./Library/stm32f4xx_flash.c ****  |---------------|----------------|----------------|-----------------|-----------------|
 113:./Library/stm32f4xx_flash.c ****  |1WS(2CPU cycle)|30 < HCLK <= 60 |24 < HCLK <= 48 |22 < HCLK <= 44  |20 < HCLK <= 40  |
 114:./Library/stm32f4xx_flash.c ****  |---------------|----------------|----------------|-----------------|-----------------|
 115:./Library/stm32f4xx_flash.c ****  |2WS(3CPU cycle)|60 < HCLK <= 90 |48 < HCLK <= 72 |44 < HCLK <= 66  |40 < HCLK <= 60  |
 116:./Library/stm32f4xx_flash.c ****  |---------------|----------------|----------------|-----------------|-----------------|
 117:./Library/stm32f4xx_flash.c ****  |3WS(4CPU cycle)|90 < HCLK <= 120|72 < HCLK <= 96 |66 < HCLK <= 88  |60 < HCLK <= 80  |
 118:./Library/stm32f4xx_flash.c ****  |---------------|----------------|----------------|-----------------|-----------------|
 119:./Library/stm32f4xx_flash.c ****  |4WS(5CPU cycle)|120< HCLK <= 150|96 < HCLK <= 120|88 < HCLK <= 110 |80 < HCLK <= 100 |
 120:./Library/stm32f4xx_flash.c ****  |---------------|----------------|----------------|-----------------|-----------------|
 121:./Library/stm32f4xx_flash.c ****  |5WS(6CPU cycle)|150< HCLK <= 168|120< HCLK <= 144|110 < HCLK <= 132|100 < HCLK <= 120|
 122:./Library/stm32f4xx_flash.c ****  |---------------|----------------|----------------|-----------------|-----------------|
 123:./Library/stm32f4xx_flash.c ****  |6WS(7CPU cycle)|      NA        |144< HCLK <= 168|132 < HCLK <= 154|120 < HCLK <= 140|
 124:./Library/stm32f4xx_flash.c ****  |---------------|----------------|----------------|-----------------|-----------------|
 125:./Library/stm32f4xx_flash.c ****  |7WS(8CPU cycle)|      NA        |      NA        |154 < HCLK <= 168|140 < HCLK <= 160|
 126:./Library/stm32f4xx_flash.c ****  +---------------|----------------|----------------|-----------------|-----------------+
 127:./Library/stm32f4xx_flash.c **** 
 128:./Library/stm32f4xx_flash.c ****     [..]      
 129:./Library/stm32f4xx_flash.c ****       For STM32F42xxx/43xxx devices
 130:./Library/stm32f4xx_flash.c ****  +-------------------------------------------------------------------------------------+
 131:./Library/stm32f4xx_flash.c ****  | Latency       |                HCLK clock frequency (MHz)                           |
 132:./Library/stm32f4xx_flash.c ****  |               |---------------------------------------------------------------------|
 133:./Library/stm32f4xx_flash.c ****  |               | voltage range  | voltage range  | voltage range   | voltage range   |
 134:./Library/stm32f4xx_flash.c ****  |               | 2.7 V - 3.6 V  | 2.4 V - 2.7 V  | 2.1 V - 2.4 V   | 1.8 V - 2.1 V   |
 135:./Library/stm32f4xx_flash.c ****  |---------------|----------------|----------------|-----------------|-----------------|
 136:./Library/stm32f4xx_flash.c ****  |0WS(1CPU cycle)|0 < HCLK <= 30  |0 < HCLK <= 24  |0 < HCLK <= 22   |0 < HCLK <= 20   |
 137:./Library/stm32f4xx_flash.c ****  |---------------|----------------|----------------|-----------------|-----------------|
 138:./Library/stm32f4xx_flash.c ****  |1WS(2CPU cycle)|30 < HCLK <= 60 |24 < HCLK <= 48 |22 < HCLK <= 44  |20 < HCLK <= 40  |
 139:./Library/stm32f4xx_flash.c ****  |---------------|----------------|----------------|-----------------|-----------------|
 140:./Library/stm32f4xx_flash.c ****  |2WS(3CPU cycle)|60 < HCLK <= 90 |48 < HCLK <= 72 |44 < HCLK <= 66  |40 < HCLK <= 60  |
 141:./Library/stm32f4xx_flash.c ****  |---------------|----------------|----------------|-----------------|-----------------|
 142:./Library/stm32f4xx_flash.c ****  |3WS(4CPU cycle)|90 < HCLK <= 120|72 < HCLK <= 96 |66 < HCLK <= 88  |60 < HCLK <= 80  |
 143:./Library/stm32f4xx_flash.c ****  |---------------|----------------|----------------|-----------------|-----------------|
ARM GAS  /var/folders/yl/_q9l42k90g1g4mdhbs226msm0000gn/T//ccpYyaD8.s 			page 4


 144:./Library/stm32f4xx_flash.c ****  |4WS(5CPU cycle)|120< HCLK <= 150|96 < HCLK <= 120|88 < HCLK <= 110 |80 < HCLK <= 100 |
 145:./Library/stm32f4xx_flash.c ****  |---------------|----------------|----------------|-----------------|-----------------|
 146:./Library/stm32f4xx_flash.c ****  |5WS(6CPU cycle)|120< HCLK <= 180|120< HCLK <= 144|110 < HCLK <= 132|100 < HCLK <= 120|
 147:./Library/stm32f4xx_flash.c ****  |---------------|----------------|----------------|-----------------|-----------------|
 148:./Library/stm32f4xx_flash.c ****  |6WS(7CPU cycle)|      NA        |144< HCLK <= 168|132 < HCLK <= 154|120 < HCLK <= 140|
 149:./Library/stm32f4xx_flash.c ****  |---------------|----------------|----------------|-----------------|-----------------|
 150:./Library/stm32f4xx_flash.c ****  |7WS(8CPU cycle)|      NA        |168< HCLK <= 180|154 < HCLK <= 176|140 < HCLK <= 160|
 151:./Library/stm32f4xx_flash.c ****  |---------------|----------------|----------------|-----------------|-----------------|
 152:./Library/stm32f4xx_flash.c ****  |8WS(9CPU cycle)|      NA        |      NA        |176 < HCLK <= 180|160 < HCLK <= 168|
 153:./Library/stm32f4xx_flash.c ****  +-------------------------------------------------------------------------------------+
 154:./Library/stm32f4xx_flash.c ****    
 155:./Library/stm32f4xx_flash.c ****     [..]
 156:./Library/stm32f4xx_flash.c ****     For STM32F401x devices
 157:./Library/stm32f4xx_flash.c ****  +-------------------------------------------------------------------------------------+
 158:./Library/stm32f4xx_flash.c ****  | Latency       |                HCLK clock frequency (MHz)                           |
 159:./Library/stm32f4xx_flash.c ****  |               |---------------------------------------------------------------------|
 160:./Library/stm32f4xx_flash.c ****  |               | voltage range  | voltage range  | voltage range   | voltage range   |
 161:./Library/stm32f4xx_flash.c ****  |               | 2.7 V - 3.6 V  | 2.4 V - 2.7 V  | 2.1 V - 2.4 V   | 1.8 V - 2.1 V   |
 162:./Library/stm32f4xx_flash.c ****  |---------------|----------------|----------------|-----------------|-----------------|
 163:./Library/stm32f4xx_flash.c ****  |0WS(1CPU cycle)|0 < HCLK <= 30  |0 < HCLK <= 24  |0 < HCLK <= 22   |0 < HCLK <= 20   |
 164:./Library/stm32f4xx_flash.c ****  |---------------|----------------|----------------|-----------------|-----------------|
 165:./Library/stm32f4xx_flash.c ****  |1WS(2CPU cycle)|30 < HCLK <= 60 |24 < HCLK <= 48 |22 < HCLK <= 44  |20 < HCLK <= 40  |
 166:./Library/stm32f4xx_flash.c ****  |---------------|----------------|----------------|-----------------|-----------------|
 167:./Library/stm32f4xx_flash.c ****  |2WS(3CPU cycle)|60 < HCLK <= 84 |48 < HCLK <= 72 |44 < HCLK <= 66  |40 < HCLK <= 60  |
 168:./Library/stm32f4xx_flash.c ****  |---------------|----------------|----------------|-----------------|-----------------|
 169:./Library/stm32f4xx_flash.c ****  |3WS(4CPU cycle)|      NA        |72 < HCLK <= 84 |66 < HCLK <= 84  |60 < HCLK <= 80  |
 170:./Library/stm32f4xx_flash.c ****  |---------------|----------------|----------------|-----------------|-----------------|
 171:./Library/stm32f4xx_flash.c ****  |4WS(5CPU cycle)|      NA        |      NA        |      NA         |80 < HCLK <= 84  |
 172:./Library/stm32f4xx_flash.c ****  +-------------------------------------------------------------------------------------+
 173:./Library/stm32f4xx_flash.c **** 
 174:./Library/stm32f4xx_flash.c ****     [..]
 175:./Library/stm32f4xx_flash.c ****     For STM32F410xx/STM32F411xE devices
 176:./Library/stm32f4xx_flash.c ****  +-------------------------------------------------------------------------------------+
 177:./Library/stm32f4xx_flash.c ****  | Latency       |                HCLK clock frequency (MHz)                           |
 178:./Library/stm32f4xx_flash.c ****  |               |---------------------------------------------------------------------|
 179:./Library/stm32f4xx_flash.c ****  |               | voltage range  | voltage range  | voltage range   | voltage range   |
 180:./Library/stm32f4xx_flash.c ****  |               | 2.7 V - 3.6 V  | 2.4 V - 2.7 V  | 2.1 V - 2.4 V   | 1.8 V - 2.1 V   |
 181:./Library/stm32f4xx_flash.c ****  |---------------|----------------|----------------|-----------------|-----------------|
 182:./Library/stm32f4xx_flash.c ****  |0WS(1CPU cycle)|0 < HCLK <= 30  |0 < HCLK <= 24  |0 < HCLK <= 18   |0 < HCLK <= 16   |
 183:./Library/stm32f4xx_flash.c ****  |---------------|----------------|----------------|-----------------|-----------------|
 184:./Library/stm32f4xx_flash.c ****  |1WS(2CPU cycle)|30 < HCLK <= 64 |24 < HCLK <= 48 |18 < HCLK <= 36  |16 < HCLK <= 32  |
 185:./Library/stm32f4xx_flash.c ****  |---------------|----------------|----------------|-----------------|-----------------|
 186:./Library/stm32f4xx_flash.c ****  |2WS(3CPU cycle)|64 < HCLK <= 90 |48 < HCLK <= 72 |36 < HCLK <= 54  |32 < HCLK <= 48  |
 187:./Library/stm32f4xx_flash.c ****  |---------------|----------------|----------------|-----------------|-----------------|
 188:./Library/stm32f4xx_flash.c ****  |3WS(4CPU cycle)|90 < HCLK <= 100|72 < HCLK <= 96 |54 < HCLK <= 72  |48 < HCLK <= 64  |
 189:./Library/stm32f4xx_flash.c ****  |---------------|----------------|----------------|-----------------|-----------------|
 190:./Library/stm32f4xx_flash.c ****  |4WS(5CPU cycle)|      NA        |96 < HCLK <= 100|72 < HCLK <= 90  |64 < HCLK <= 80  |
 191:./Library/stm32f4xx_flash.c ****  |---------------|----------------|----------------|-----------------|-----------------|
 192:./Library/stm32f4xx_flash.c ****  |5WS(6CPU cycle)|      NA        |       NA       |90 < HCLK <= 100 |80 < HCLK <= 96  |
 193:./Library/stm32f4xx_flash.c ****  |---------------|----------------|----------------|-----------------|-----------------|
 194:./Library/stm32f4xx_flash.c ****  |6WS(7CPU cycle)|      NA        |       NA       |        NA       |96 < HCLK <= 100 |
 195:./Library/stm32f4xx_flash.c ****  +-------------------------------------------------------------------------------------+
 196:./Library/stm32f4xx_flash.c ****  
 197:./Library/stm32f4xx_flash.c ****  [..]
 198:./Library/stm32f4xx_flash.c ****  +-------------------------------------------------------------------------------------------------
 199:./Library/stm32f4xx_flash.c ****  |               | voltage range  | voltage range  | voltage range   | voltage range   | voltage ra
 200:./Library/stm32f4xx_flash.c ****  |               | 2.7 V - 3.6 V  | 2.4 V - 2.7 V  | 2.1 V - 2.4 V   | 1.8 V - 2.1 V   | with Exter
ARM GAS  /var/folders/yl/_q9l42k90g1g4mdhbs226msm0000gn/T//ccpYyaD8.s 			page 5


 201:./Library/stm32f4xx_flash.c ****  |---------------|----------------|----------------|-----------------|-----------------|-----------
 202:./Library/stm32f4xx_flash.c ****  |Max Parallelism|      x32       |               x16                |       x8        |          x
 203:./Library/stm32f4xx_flash.c ****  |---------------|----------------|----------------|-----------------|-----------------|-----------
 204:./Library/stm32f4xx_flash.c ****  |PSIZE[1:0]     |      10        |               01                 |       00        |           
 205:./Library/stm32f4xx_flash.c ****  +-------------------------------------------------------------------------------------------------
 206:./Library/stm32f4xx_flash.c **** 
 207:./Library/stm32f4xx_flash.c ****       -@- On STM32F405xx/407xx and STM32F415xx/417xx devices: 
 208:./Library/stm32f4xx_flash.c ****            (++) when VOS = '0' Scale 2 mode, the maximum value of fHCLK = 144MHz. 
 209:./Library/stm32f4xx_flash.c ****            (++) when VOS = '1' Scale 1 mode, the maximum value of fHCLK = 168MHz. 
 210:./Library/stm32f4xx_flash.c ****           [..] 
 211:./Library/stm32f4xx_flash.c ****           On STM32F42xxx/43xxx devices:
 212:./Library/stm32f4xx_flash.c ****            (++) when VOS[1:0] = '0x01' Scale 3 mode, the maximum value of fHCLK is 120MHz.
 213:./Library/stm32f4xx_flash.c ****            (++) when VOS[1:0] = '0x10' Scale 2 mode, the maximum value of fHCLK is 144MHz if OverDr
 214:./Library/stm32f4xx_flash.c ****            (++) when VOS[1:0] = '0x11' Scale 1 mode, the maximum value of fHCLK is 168MHz if OverDr
 215:./Library/stm32f4xx_flash.c ****           [..]
 216:./Library/stm32f4xx_flash.c ****           On STM32F401x devices:
 217:./Library/stm32f4xx_flash.c ****            (++) when VOS[1:0] = '0x01' Scale 3 mode, the maximum value of fHCLK is 60MHz.
 218:./Library/stm32f4xx_flash.c ****            (++) when VOS[1:0] = '0x10' Scale 2 mode, the maximum value of fHCLK is 84MHz.
 219:./Library/stm32f4xx_flash.c ****           [..]  
 220:./Library/stm32f4xx_flash.c ****           On STM32F410xx/STM32F411xE devices:
 221:./Library/stm32f4xx_flash.c ****            (++) when VOS[1:0] = '0x01' Scale 3 mode, the maximum value of fHCLK is 64MHz.
 222:./Library/stm32f4xx_flash.c ****            (++) when VOS[1:0] = '0x10' Scale 2 mode, the maximum value of fHCLK is 84MHz.
 223:./Library/stm32f4xx_flash.c ****            (++) when VOS[1:0] = '0x11' Scale 1 mode, the maximum value of fHCLK is 100MHz.
 224:./Library/stm32f4xx_flash.c **** 
 225:./Library/stm32f4xx_flash.c ****         For more details please refer product DataSheet 
 226:./Library/stm32f4xx_flash.c ****            You can use PWR_MainRegulatorModeConfig() function to control VOS bits.
 227:./Library/stm32f4xx_flash.c **** 
 228:./Library/stm32f4xx_flash.c ****       (+) void FLASH_PrefetchBufferCmd(FunctionalState NewState)
 229:./Library/stm32f4xx_flash.c ****       (+) void FLASH_InstructionCacheCmd(FunctionalState NewState)
 230:./Library/stm32f4xx_flash.c ****       (+) void FLASH_DataCacheCmd(FunctionalState NewState)
 231:./Library/stm32f4xx_flash.c ****       (+) void FLASH_InstructionCacheReset(void)
 232:./Library/stm32f4xx_flash.c ****       (+) void FLASH_DataCacheReset(void)
 233:./Library/stm32f4xx_flash.c ****       
 234:./Library/stm32f4xx_flash.c ****     [..]   
 235:./Library/stm32f4xx_flash.c ****       The unlock sequence is not needed for these functions.
 236:./Library/stm32f4xx_flash.c ****  
 237:./Library/stm32f4xx_flash.c **** @endverbatim
 238:./Library/stm32f4xx_flash.c ****   * @{
 239:./Library/stm32f4xx_flash.c ****   */
 240:./Library/stm32f4xx_flash.c ****  
 241:./Library/stm32f4xx_flash.c **** /**
 242:./Library/stm32f4xx_flash.c ****   * @brief  Sets the code latency value.  
 243:./Library/stm32f4xx_flash.c ****   * @param  FLASH_Latency: specifies the FLASH Latency value.
 244:./Library/stm32f4xx_flash.c ****   *          This parameter can be one of the following values:
 245:./Library/stm32f4xx_flash.c ****   *            @arg FLASH_Latency_0: FLASH Zero Latency cycle
 246:./Library/stm32f4xx_flash.c ****   *            @arg FLASH_Latency_1: FLASH One Latency cycle
 247:./Library/stm32f4xx_flash.c ****   *            @arg FLASH_Latency_2: FLASH Two Latency cycles
 248:./Library/stm32f4xx_flash.c ****   *            @arg FLASH_Latency_3: FLASH Three Latency cycles
 249:./Library/stm32f4xx_flash.c ****   *            @arg FLASH_Latency_4: FLASH Four Latency cycles 
 250:./Library/stm32f4xx_flash.c ****   *            @arg FLASH_Latency_5: FLASH Five Latency cycles 
 251:./Library/stm32f4xx_flash.c ****   *            @arg FLASH_Latency_6: FLASH Six Latency cycles
 252:./Library/stm32f4xx_flash.c ****   *            @arg FLASH_Latency_7: FLASH Seven Latency cycles 
 253:./Library/stm32f4xx_flash.c ****   *            @arg FLASH_Latency_8: FLASH Eight Latency cycles
 254:./Library/stm32f4xx_flash.c ****   *            @arg FLASH_Latency_9: FLASH Nine Latency cycles
 255:./Library/stm32f4xx_flash.c ****   *            @arg FLASH_Latency_10: FLASH Teen Latency cycles 
 256:./Library/stm32f4xx_flash.c ****   *            @arg FLASH_Latency_11: FLASH Eleven Latency cycles 
 257:./Library/stm32f4xx_flash.c ****   *            @arg FLASH_Latency_12: FLASH Twelve Latency cycles
ARM GAS  /var/folders/yl/_q9l42k90g1g4mdhbs226msm0000gn/T//ccpYyaD8.s 			page 6


 258:./Library/stm32f4xx_flash.c ****   *            @arg FLASH_Latency_13: FLASH Thirteen Latency cycles
 259:./Library/stm32f4xx_flash.c ****   *            @arg FLASH_Latency_14: FLASH Fourteen Latency cycles
 260:./Library/stm32f4xx_flash.c ****   *            @arg FLASH_Latency_15: FLASH Fifteen Latency cycles 
 261:./Library/stm32f4xx_flash.c ****   *              
 262:./Library/stm32f4xx_flash.c ****   * @note For STM32F405xx/407xx, STM32F415xx/417xx, STM32F401xx/411xE/STM32F412xG and STM32F413_423
 263:./Library/stm32f4xx_flash.c ****   *       this parameter can be a value between FLASH_Latency_0 and FLASH_Latency_7.
 264:./Library/stm32f4xx_flash.c ****   *
 265:./Library/stm32f4xx_flash.c ****   * @note For STM32F42xxx/43xxx devices this parameter can be a value between 
 266:./Library/stm32f4xx_flash.c ****   *       FLASH_Latency_0 and FLASH_Latency_15. 
 267:./Library/stm32f4xx_flash.c ****   *         
 268:./Library/stm32f4xx_flash.c ****   * @retval None
 269:./Library/stm32f4xx_flash.c ****   */
 270:./Library/stm32f4xx_flash.c **** void FLASH_SetLatency(uint32_t FLASH_Latency)
 271:./Library/stm32f4xx_flash.c **** {
  30              		.loc 1 271 1 view -0
  31              		.cfi_startproc
  32              		@ args = 0, pretend = 0, frame = 0
  33              		@ frame_needed = 0, uses_anonymous_args = 0
  34              		@ link register save eliminated.
 272:./Library/stm32f4xx_flash.c ****   /* Check the parameters */
 273:./Library/stm32f4xx_flash.c ****   assert_param(IS_FLASH_LATENCY(FLASH_Latency));
  35              		.loc 1 273 3 view .LVU1
 274:./Library/stm32f4xx_flash.c ****   
 275:./Library/stm32f4xx_flash.c ****   /* Perform Byte access to FLASH_ACR[8:0] to set the Latency value */
 276:./Library/stm32f4xx_flash.c ****   *(__IO uint8_t *)ACR_BYTE0_ADDRESS = (uint8_t)FLASH_Latency;
  36              		.loc 1 276 3 view .LVU2
  37              		.loc 1 276 40 is_stmt 0 view .LVU3
  38 0000 C0B2     		uxtb	r0, r0
  39              	.LVL1:
  40              		.loc 1 276 38 view .LVU4
  41 0002 014B     		ldr	r3, .L2
  42 0004 1870     		strb	r0, [r3]
 277:./Library/stm32f4xx_flash.c **** }
  43              		.loc 1 277 1 view .LVU5
  44 0006 7047     		bx	lr
  45              	.L3:
  46              		.align	2
  47              	.L2:
  48 0008 003C0240 		.word	1073888256
  49              		.cfi_endproc
  50              	.LFE123:
  52              		.section	.text.FLASH_PrefetchBufferCmd,"ax",%progbits
  53              		.align	1
  54              		.global	FLASH_PrefetchBufferCmd
  55              		.syntax unified
  56              		.thumb
  57              		.thumb_func
  59              	FLASH_PrefetchBufferCmd:
  60              	.LVL2:
  61              	.LFB124:
 278:./Library/stm32f4xx_flash.c **** 
 279:./Library/stm32f4xx_flash.c **** /**
 280:./Library/stm32f4xx_flash.c ****   * @brief  Enables or disables the Prefetch Buffer.
 281:./Library/stm32f4xx_flash.c ****   * @param  NewState: new state of the Prefetch Buffer.
 282:./Library/stm32f4xx_flash.c ****   *          This parameter  can be: ENABLE or DISABLE.
 283:./Library/stm32f4xx_flash.c ****   * @retval None
 284:./Library/stm32f4xx_flash.c ****   */
ARM GAS  /var/folders/yl/_q9l42k90g1g4mdhbs226msm0000gn/T//ccpYyaD8.s 			page 7


 285:./Library/stm32f4xx_flash.c **** void FLASH_PrefetchBufferCmd(FunctionalState NewState)
 286:./Library/stm32f4xx_flash.c **** {
  62              		.loc 1 286 1 is_stmt 1 view -0
  63              		.cfi_startproc
  64              		@ args = 0, pretend = 0, frame = 0
  65              		@ frame_needed = 0, uses_anonymous_args = 0
  66              		@ link register save eliminated.
 287:./Library/stm32f4xx_flash.c ****   /* Check the parameters */
 288:./Library/stm32f4xx_flash.c ****   assert_param(IS_FUNCTIONAL_STATE(NewState));
  67              		.loc 1 288 3 view .LVU7
 289:./Library/stm32f4xx_flash.c ****   
 290:./Library/stm32f4xx_flash.c ****   /* Enable or disable the Prefetch Buffer */
 291:./Library/stm32f4xx_flash.c ****   if(NewState != DISABLE)
  68              		.loc 1 291 3 view .LVU8
  69              		.loc 1 291 5 is_stmt 0 view .LVU9
  70 0000 28B1     		cbz	r0, .L5
 292:./Library/stm32f4xx_flash.c ****   {
 293:./Library/stm32f4xx_flash.c ****     FLASH->ACR |= FLASH_ACR_PRFTEN;
  71              		.loc 1 293 5 is_stmt 1 view .LVU10
  72              		.loc 1 293 16 is_stmt 0 view .LVU11
  73 0002 064A     		ldr	r2, .L7
  74 0004 1368     		ldr	r3, [r2]
  75 0006 43F48073 		orr	r3, r3, #256
  76 000a 1360     		str	r3, [r2]
  77 000c 7047     		bx	lr
  78              	.L5:
 294:./Library/stm32f4xx_flash.c ****   }
 295:./Library/stm32f4xx_flash.c ****   else
 296:./Library/stm32f4xx_flash.c ****   {
 297:./Library/stm32f4xx_flash.c ****     FLASH->ACR &= (~FLASH_ACR_PRFTEN);
  79              		.loc 1 297 5 is_stmt 1 view .LVU12
  80              		.loc 1 297 16 is_stmt 0 view .LVU13
  81 000e 034A     		ldr	r2, .L7
  82 0010 1368     		ldr	r3, [r2]
  83 0012 23F48073 		bic	r3, r3, #256
  84 0016 1360     		str	r3, [r2]
 298:./Library/stm32f4xx_flash.c ****   }
 299:./Library/stm32f4xx_flash.c **** }
  85              		.loc 1 299 1 view .LVU14
  86 0018 7047     		bx	lr
  87              	.L8:
  88 001a 00BF     		.align	2
  89              	.L7:
  90 001c 003C0240 		.word	1073888256
  91              		.cfi_endproc
  92              	.LFE124:
  94              		.section	.text.FLASH_InstructionCacheCmd,"ax",%progbits
  95              		.align	1
  96              		.global	FLASH_InstructionCacheCmd
  97              		.syntax unified
  98              		.thumb
  99              		.thumb_func
 101              	FLASH_InstructionCacheCmd:
 102              	.LVL3:
 103              	.LFB125:
 300:./Library/stm32f4xx_flash.c **** 
 301:./Library/stm32f4xx_flash.c **** /**
ARM GAS  /var/folders/yl/_q9l42k90g1g4mdhbs226msm0000gn/T//ccpYyaD8.s 			page 8


 302:./Library/stm32f4xx_flash.c ****   * @brief  Enables or disables the Instruction Cache feature.
 303:./Library/stm32f4xx_flash.c ****   * @param  NewState: new state of the Instruction Cache.
 304:./Library/stm32f4xx_flash.c ****   *          This parameter  can be: ENABLE or DISABLE.
 305:./Library/stm32f4xx_flash.c ****   * @retval None
 306:./Library/stm32f4xx_flash.c ****   */
 307:./Library/stm32f4xx_flash.c **** void FLASH_InstructionCacheCmd(FunctionalState NewState)
 308:./Library/stm32f4xx_flash.c **** {
 104              		.loc 1 308 1 is_stmt 1 view -0
 105              		.cfi_startproc
 106              		@ args = 0, pretend = 0, frame = 0
 107              		@ frame_needed = 0, uses_anonymous_args = 0
 108              		@ link register save eliminated.
 309:./Library/stm32f4xx_flash.c ****   /* Check the parameters */
 310:./Library/stm32f4xx_flash.c ****   assert_param(IS_FUNCTIONAL_STATE(NewState));
 109              		.loc 1 310 3 view .LVU16
 311:./Library/stm32f4xx_flash.c ****   
 312:./Library/stm32f4xx_flash.c ****   if(NewState != DISABLE)
 110              		.loc 1 312 3 view .LVU17
 111              		.loc 1 312 5 is_stmt 0 view .LVU18
 112 0000 28B1     		cbz	r0, .L10
 313:./Library/stm32f4xx_flash.c ****   {
 314:./Library/stm32f4xx_flash.c ****     FLASH->ACR |= FLASH_ACR_ICEN;
 113              		.loc 1 314 5 is_stmt 1 view .LVU19
 114              		.loc 1 314 16 is_stmt 0 view .LVU20
 115 0002 064A     		ldr	r2, .L12
 116 0004 1368     		ldr	r3, [r2]
 117 0006 43F40073 		orr	r3, r3, #512
 118 000a 1360     		str	r3, [r2]
 119 000c 7047     		bx	lr
 120              	.L10:
 315:./Library/stm32f4xx_flash.c ****   }
 316:./Library/stm32f4xx_flash.c ****   else
 317:./Library/stm32f4xx_flash.c ****   {
 318:./Library/stm32f4xx_flash.c ****     FLASH->ACR &= (~FLASH_ACR_ICEN);
 121              		.loc 1 318 5 is_stmt 1 view .LVU21
 122              		.loc 1 318 16 is_stmt 0 view .LVU22
 123 000e 034A     		ldr	r2, .L12
 124 0010 1368     		ldr	r3, [r2]
 125 0012 23F40073 		bic	r3, r3, #512
 126 0016 1360     		str	r3, [r2]
 319:./Library/stm32f4xx_flash.c ****   }
 320:./Library/stm32f4xx_flash.c **** }
 127              		.loc 1 320 1 view .LVU23
 128 0018 7047     		bx	lr
 129              	.L13:
 130 001a 00BF     		.align	2
 131              	.L12:
 132 001c 003C0240 		.word	1073888256
 133              		.cfi_endproc
 134              	.LFE125:
 136              		.section	.text.FLASH_DataCacheCmd,"ax",%progbits
 137              		.align	1
 138              		.global	FLASH_DataCacheCmd
 139              		.syntax unified
 140              		.thumb
 141              		.thumb_func
 143              	FLASH_DataCacheCmd:
ARM GAS  /var/folders/yl/_q9l42k90g1g4mdhbs226msm0000gn/T//ccpYyaD8.s 			page 9


 144              	.LVL4:
 145              	.LFB126:
 321:./Library/stm32f4xx_flash.c **** 
 322:./Library/stm32f4xx_flash.c **** /**
 323:./Library/stm32f4xx_flash.c ****   * @brief  Enables or disables the Data Cache feature.
 324:./Library/stm32f4xx_flash.c ****   * @param  NewState: new state of the Data Cache.
 325:./Library/stm32f4xx_flash.c ****   *          This parameter  can be: ENABLE or DISABLE.
 326:./Library/stm32f4xx_flash.c ****   * @retval None
 327:./Library/stm32f4xx_flash.c ****   */
 328:./Library/stm32f4xx_flash.c **** void FLASH_DataCacheCmd(FunctionalState NewState)
 329:./Library/stm32f4xx_flash.c **** {
 146              		.loc 1 329 1 is_stmt 1 view -0
 147              		.cfi_startproc
 148              		@ args = 0, pretend = 0, frame = 0
 149              		@ frame_needed = 0, uses_anonymous_args = 0
 150              		@ link register save eliminated.
 330:./Library/stm32f4xx_flash.c ****   /* Check the parameters */
 331:./Library/stm32f4xx_flash.c ****   assert_param(IS_FUNCTIONAL_STATE(NewState));
 151              		.loc 1 331 3 view .LVU25
 332:./Library/stm32f4xx_flash.c ****   
 333:./Library/stm32f4xx_flash.c ****   if(NewState != DISABLE)
 152              		.loc 1 333 3 view .LVU26
 153              		.loc 1 333 5 is_stmt 0 view .LVU27
 154 0000 28B1     		cbz	r0, .L15
 334:./Library/stm32f4xx_flash.c ****   {
 335:./Library/stm32f4xx_flash.c ****     FLASH->ACR |= FLASH_ACR_DCEN;
 155              		.loc 1 335 5 is_stmt 1 view .LVU28
 156              		.loc 1 335 16 is_stmt 0 view .LVU29
 157 0002 064A     		ldr	r2, .L17
 158 0004 1368     		ldr	r3, [r2]
 159 0006 43F48063 		orr	r3, r3, #1024
 160 000a 1360     		str	r3, [r2]
 161 000c 7047     		bx	lr
 162              	.L15:
 336:./Library/stm32f4xx_flash.c ****   }
 337:./Library/stm32f4xx_flash.c ****   else
 338:./Library/stm32f4xx_flash.c ****   {
 339:./Library/stm32f4xx_flash.c ****     FLASH->ACR &= (~FLASH_ACR_DCEN);
 163              		.loc 1 339 5 is_stmt 1 view .LVU30
 164              		.loc 1 339 16 is_stmt 0 view .LVU31
 165 000e 034A     		ldr	r2, .L17
 166 0010 1368     		ldr	r3, [r2]
 167 0012 23F48063 		bic	r3, r3, #1024
 168 0016 1360     		str	r3, [r2]
 340:./Library/stm32f4xx_flash.c ****   }
 341:./Library/stm32f4xx_flash.c **** }
 169              		.loc 1 341 1 view .LVU32
 170 0018 7047     		bx	lr
 171              	.L18:
 172 001a 00BF     		.align	2
 173              	.L17:
 174 001c 003C0240 		.word	1073888256
 175              		.cfi_endproc
 176              	.LFE126:
 178              		.section	.text.FLASH_InstructionCacheReset,"ax",%progbits
 179              		.align	1
 180              		.global	FLASH_InstructionCacheReset
ARM GAS  /var/folders/yl/_q9l42k90g1g4mdhbs226msm0000gn/T//ccpYyaD8.s 			page 10


 181              		.syntax unified
 182              		.thumb
 183              		.thumb_func
 185              	FLASH_InstructionCacheReset:
 186              	.LFB127:
 342:./Library/stm32f4xx_flash.c **** 
 343:./Library/stm32f4xx_flash.c **** /**
 344:./Library/stm32f4xx_flash.c ****   * @brief  Resets the Instruction Cache.
 345:./Library/stm32f4xx_flash.c ****   * @note   This function must be used only when the Instruction Cache is disabled.  
 346:./Library/stm32f4xx_flash.c ****   * @param  None
 347:./Library/stm32f4xx_flash.c ****   * @retval None
 348:./Library/stm32f4xx_flash.c ****   */
 349:./Library/stm32f4xx_flash.c **** void FLASH_InstructionCacheReset(void)
 350:./Library/stm32f4xx_flash.c **** {
 187              		.loc 1 350 1 is_stmt 1 view -0
 188              		.cfi_startproc
 189              		@ args = 0, pretend = 0, frame = 0
 190              		@ frame_needed = 0, uses_anonymous_args = 0
 191              		@ link register save eliminated.
 351:./Library/stm32f4xx_flash.c ****   FLASH->ACR |= FLASH_ACR_ICRST;
 192              		.loc 1 351 3 view .LVU34
 193              		.loc 1 351 14 is_stmt 0 view .LVU35
 194 0000 024A     		ldr	r2, .L20
 195 0002 1368     		ldr	r3, [r2]
 196 0004 43F40063 		orr	r3, r3, #2048
 197 0008 1360     		str	r3, [r2]
 352:./Library/stm32f4xx_flash.c **** }
 198              		.loc 1 352 1 view .LVU36
 199 000a 7047     		bx	lr
 200              	.L21:
 201              		.align	2
 202              	.L20:
 203 000c 003C0240 		.word	1073888256
 204              		.cfi_endproc
 205              	.LFE127:
 207              		.section	.text.FLASH_DataCacheReset,"ax",%progbits
 208              		.align	1
 209              		.global	FLASH_DataCacheReset
 210              		.syntax unified
 211              		.thumb
 212              		.thumb_func
 214              	FLASH_DataCacheReset:
 215              	.LFB128:
 353:./Library/stm32f4xx_flash.c **** 
 354:./Library/stm32f4xx_flash.c **** /**
 355:./Library/stm32f4xx_flash.c ****   * @brief  Resets the Data Cache.
 356:./Library/stm32f4xx_flash.c ****   * @note   This function must be used only when the Data Cache is disabled.  
 357:./Library/stm32f4xx_flash.c ****   * @param  None
 358:./Library/stm32f4xx_flash.c ****   * @retval None
 359:./Library/stm32f4xx_flash.c ****   */
 360:./Library/stm32f4xx_flash.c **** void FLASH_DataCacheReset(void)
 361:./Library/stm32f4xx_flash.c **** {
 216              		.loc 1 361 1 is_stmt 1 view -0
 217              		.cfi_startproc
 218              		@ args = 0, pretend = 0, frame = 0
 219              		@ frame_needed = 0, uses_anonymous_args = 0
 220              		@ link register save eliminated.
ARM GAS  /var/folders/yl/_q9l42k90g1g4mdhbs226msm0000gn/T//ccpYyaD8.s 			page 11


 362:./Library/stm32f4xx_flash.c ****   FLASH->ACR |= FLASH_ACR_DCRST;
 221              		.loc 1 362 3 view .LVU38
 222              		.loc 1 362 14 is_stmt 0 view .LVU39
 223 0000 024A     		ldr	r2, .L23
 224 0002 1368     		ldr	r3, [r2]
 225 0004 43F48053 		orr	r3, r3, #4096
 226 0008 1360     		str	r3, [r2]
 363:./Library/stm32f4xx_flash.c **** }
 227              		.loc 1 363 1 view .LVU40
 228 000a 7047     		bx	lr
 229              	.L24:
 230              		.align	2
 231              	.L23:
 232 000c 003C0240 		.word	1073888256
 233              		.cfi_endproc
 234              	.LFE128:
 236              		.section	.text.FLASH_Unlock,"ax",%progbits
 237              		.align	1
 238              		.global	FLASH_Unlock
 239              		.syntax unified
 240              		.thumb
 241              		.thumb_func
 243              	FLASH_Unlock:
 244              	.LFB129:
 364:./Library/stm32f4xx_flash.c **** 
 365:./Library/stm32f4xx_flash.c **** /**
 366:./Library/stm32f4xx_flash.c ****   * @}
 367:./Library/stm32f4xx_flash.c ****   */
 368:./Library/stm32f4xx_flash.c **** 
 369:./Library/stm32f4xx_flash.c **** /** @defgroup FLASH_Group2 FLASH Memory Programming functions
 370:./Library/stm32f4xx_flash.c ****  *  @brief   FLASH Memory Programming functions
 371:./Library/stm32f4xx_flash.c ****  *
 372:./Library/stm32f4xx_flash.c **** @verbatim   
 373:./Library/stm32f4xx_flash.c ****  ===============================================================================
 374:./Library/stm32f4xx_flash.c ****                 ##### FLASH Memory Programming functions #####
 375:./Library/stm32f4xx_flash.c ****  ===============================================================================   
 376:./Library/stm32f4xx_flash.c ****     [..]
 377:./Library/stm32f4xx_flash.c ****       This group includes the following functions:
 378:./Library/stm32f4xx_flash.c ****       (+) void FLASH_Unlock(void)
 379:./Library/stm32f4xx_flash.c ****       (+) void FLASH_Lock(void)
 380:./Library/stm32f4xx_flash.c ****       (+) FLASH_Status FLASH_EraseSector(uint32_t FLASH_Sector, uint8_t VoltageRange)
 381:./Library/stm32f4xx_flash.c ****       (+) FLASH_Status FLASH_EraseAllSectors(uint8_t VoltageRange)       
 382:./Library/stm32f4xx_flash.c ****       (+) FLASH_Status FLASH_ProgramDoubleWord(uint32_t Address, uint64_t Data)
 383:./Library/stm32f4xx_flash.c ****       (+) FLASH_Status FLASH_ProgramWord(uint32_t Address, uint32_t Data)
 384:./Library/stm32f4xx_flash.c ****       (+) FLASH_Status FLASH_ProgramHalfWord(uint32_t Address, uint16_t Data)
 385:./Library/stm32f4xx_flash.c ****       (+) FLASH_Status FLASH_ProgramByte(uint32_t Address, uint8_t Data)
 386:./Library/stm32f4xx_flash.c ****           The following functions can be used only for STM32F42xxx/43xxx devices. 
 387:./Library/stm32f4xx_flash.c ****       (+) FLASH_Status FLASH_EraseAllBank1Sectors(uint8_t VoltageRange)
 388:./Library/stm32f4xx_flash.c ****       (+) FLASH_Status FLASH_EraseAllBank2Sectors(uint8_t VoltageRange)    
 389:./Library/stm32f4xx_flash.c ****     [..]   
 390:./Library/stm32f4xx_flash.c ****       Any operation of erase or program should follow these steps:
 391:./Library/stm32f4xx_flash.c ****       (#) Call the FLASH_Unlock() function to enable the FLASH control register access
 392:./Library/stm32f4xx_flash.c **** 
 393:./Library/stm32f4xx_flash.c ****       (#) Call the desired function to erase sector(s) or program data
 394:./Library/stm32f4xx_flash.c **** 
 395:./Library/stm32f4xx_flash.c ****       (#) Call the FLASH_Lock() function to disable the FLASH control register access
 396:./Library/stm32f4xx_flash.c ****           (recommended to protect the FLASH memory against possible unwanted operation)
ARM GAS  /var/folders/yl/_q9l42k90g1g4mdhbs226msm0000gn/T//ccpYyaD8.s 			page 12


 397:./Library/stm32f4xx_flash.c ****     
 398:./Library/stm32f4xx_flash.c **** @endverbatim
 399:./Library/stm32f4xx_flash.c ****   * @{
 400:./Library/stm32f4xx_flash.c ****   */
 401:./Library/stm32f4xx_flash.c **** 
 402:./Library/stm32f4xx_flash.c **** /**
 403:./Library/stm32f4xx_flash.c ****   * @brief  Unlocks the FLASH control register access
 404:./Library/stm32f4xx_flash.c ****   * @param  None
 405:./Library/stm32f4xx_flash.c ****   * @retval None
 406:./Library/stm32f4xx_flash.c ****   */
 407:./Library/stm32f4xx_flash.c **** void FLASH_Unlock(void)
 408:./Library/stm32f4xx_flash.c **** {
 245              		.loc 1 408 1 is_stmt 1 view -0
 246              		.cfi_startproc
 247              		@ args = 0, pretend = 0, frame = 0
 248              		@ frame_needed = 0, uses_anonymous_args = 0
 249              		@ link register save eliminated.
 409:./Library/stm32f4xx_flash.c ****   if((FLASH->CR & FLASH_CR_LOCK) != RESET)
 250              		.loc 1 409 3 view .LVU42
 251              		.loc 1 409 12 is_stmt 0 view .LVU43
 252 0000 054B     		ldr	r3, .L28
 253 0002 1B69     		ldr	r3, [r3, #16]
 254              		.loc 1 409 5 view .LVU44
 255 0004 002B     		cmp	r3, #0
 256 0006 00DB     		blt	.L27
 257              	.L25:
 410:./Library/stm32f4xx_flash.c ****   {
 411:./Library/stm32f4xx_flash.c ****     /* Authorize the FLASH Registers access */
 412:./Library/stm32f4xx_flash.c ****     FLASH->KEYR = FLASH_KEY1;
 413:./Library/stm32f4xx_flash.c ****     FLASH->KEYR = FLASH_KEY2;
 414:./Library/stm32f4xx_flash.c ****   }  
 415:./Library/stm32f4xx_flash.c **** }
 258              		.loc 1 415 1 view .LVU45
 259 0008 7047     		bx	lr
 260              	.L27:
 412:./Library/stm32f4xx_flash.c ****     FLASH->KEYR = FLASH_KEY2;
 261              		.loc 1 412 5 is_stmt 1 view .LVU46
 412:./Library/stm32f4xx_flash.c ****     FLASH->KEYR = FLASH_KEY2;
 262              		.loc 1 412 17 is_stmt 0 view .LVU47
 263 000a 034B     		ldr	r3, .L28
 264 000c 034A     		ldr	r2, .L28+4
 265 000e 5A60     		str	r2, [r3, #4]
 413:./Library/stm32f4xx_flash.c ****   }  
 266              		.loc 1 413 5 is_stmt 1 view .LVU48
 413:./Library/stm32f4xx_flash.c ****   }  
 267              		.loc 1 413 17 is_stmt 0 view .LVU49
 268 0010 02F18832 		add	r2, r2, #-2004318072
 269 0014 5A60     		str	r2, [r3, #4]
 270              		.loc 1 415 1 view .LVU50
 271 0016 F7E7     		b	.L25
 272              	.L29:
 273              		.align	2
 274              	.L28:
 275 0018 003C0240 		.word	1073888256
 276 001c 23016745 		.word	1164378403
 277              		.cfi_endproc
 278              	.LFE129:
ARM GAS  /var/folders/yl/_q9l42k90g1g4mdhbs226msm0000gn/T//ccpYyaD8.s 			page 13


 280              		.section	.text.FLASH_Lock,"ax",%progbits
 281              		.align	1
 282              		.global	FLASH_Lock
 283              		.syntax unified
 284              		.thumb
 285              		.thumb_func
 287              	FLASH_Lock:
 288              	.LFB130:
 416:./Library/stm32f4xx_flash.c **** 
 417:./Library/stm32f4xx_flash.c **** /**
 418:./Library/stm32f4xx_flash.c ****   * @brief  Locks the FLASH control register access
 419:./Library/stm32f4xx_flash.c ****   * @param  None
 420:./Library/stm32f4xx_flash.c ****   * @retval None
 421:./Library/stm32f4xx_flash.c ****   */
 422:./Library/stm32f4xx_flash.c **** void FLASH_Lock(void)
 423:./Library/stm32f4xx_flash.c **** {
 289              		.loc 1 423 1 is_stmt 1 view -0
 290              		.cfi_startproc
 291              		@ args = 0, pretend = 0, frame = 0
 292              		@ frame_needed = 0, uses_anonymous_args = 0
 293              		@ link register save eliminated.
 424:./Library/stm32f4xx_flash.c ****   /* Set the LOCK Bit to lock the FLASH Registers access */
 425:./Library/stm32f4xx_flash.c ****   FLASH->CR |= FLASH_CR_LOCK;
 294              		.loc 1 425 3 view .LVU52
 295              		.loc 1 425 13 is_stmt 0 view .LVU53
 296 0000 024A     		ldr	r2, .L31
 297 0002 1369     		ldr	r3, [r2, #16]
 298 0004 43F00043 		orr	r3, r3, #-2147483648
 299 0008 1361     		str	r3, [r2, #16]
 426:./Library/stm32f4xx_flash.c **** }
 300              		.loc 1 426 1 view .LVU54
 301 000a 7047     		bx	lr
 302              	.L32:
 303              		.align	2
 304              	.L31:
 305 000c 003C0240 		.word	1073888256
 306              		.cfi_endproc
 307              	.LFE130:
 309              		.section	.text.FLASH_OB_Unlock,"ax",%progbits
 310              		.align	1
 311              		.global	FLASH_OB_Unlock
 312              		.syntax unified
 313              		.thumb
 314              		.thumb_func
 316              	FLASH_OB_Unlock:
 317              	.LFB139:
 427:./Library/stm32f4xx_flash.c **** 
 428:./Library/stm32f4xx_flash.c **** /**
 429:./Library/stm32f4xx_flash.c ****   * @brief  Erases a specified FLASH Sector.
 430:./Library/stm32f4xx_flash.c ****   *
 431:./Library/stm32f4xx_flash.c ****   * @note   If an erase and a program operations are requested simultaneously,    
 432:./Library/stm32f4xx_flash.c ****   *         the erase operation is performed before the program one.
 433:./Library/stm32f4xx_flash.c ****   *
 434:./Library/stm32f4xx_flash.c ****   * @param  FLASH_Sector: The Sector number to be erased.
 435:./Library/stm32f4xx_flash.c ****   *
 436:./Library/stm32f4xx_flash.c ****   *  @note  For STM32F405xx/407xx and STM32F415xx/417xx devices this parameter can 
 437:./Library/stm32f4xx_flash.c ****   *         be a value between FLASH_Sector_0 and FLASH_Sector_11.
ARM GAS  /var/folders/yl/_q9l42k90g1g4mdhbs226msm0000gn/T//ccpYyaD8.s 			page 14


 438:./Library/stm32f4xx_flash.c ****   *
 439:./Library/stm32f4xx_flash.c ****   *         For STM32F42xxx/43xxx devices this parameter can be a value between 
 440:./Library/stm32f4xx_flash.c ****   *         FLASH_Sector_0 and FLASH_Sector_23.
 441:./Library/stm32f4xx_flash.c ****   *
 442:./Library/stm32f4xx_flash.c ****   *         For STM32F401xx devices this parameter can be a value between 
 443:./Library/stm32f4xx_flash.c ****   *         FLASH_Sector_0 and FLASH_Sector_5.
 444:./Library/stm32f4xx_flash.c ****   *
 445:./Library/stm32f4xx_flash.c ****   *         For STM32F411xE and STM32F412xG devices this parameter can be a value between 
 446:./Library/stm32f4xx_flash.c ****   *         FLASH_Sector_0 and FLASH_Sector_7.
 447:./Library/stm32f4xx_flash.c ****   *
 448:./Library/stm32f4xx_flash.c ****   *         For STM32F410xx devices this parameter can be a value between 
 449:./Library/stm32f4xx_flash.c ****   *         FLASH_Sector_0 and FLASH_Sector_4.
 450:./Library/stm32f4xx_flash.c ****   *
 451:./Library/stm32f4xx_flash.c ****   *         For STM32F413_423xx devices this parameter can be a value between 
 452:./Library/stm32f4xx_flash.c ****   *         FLASH_Sector_0 and FLASH_Sector_15.
 453:./Library/stm32f4xx_flash.c ****   *
 454:./Library/stm32f4xx_flash.c ****   * @param  VoltageRange: The device voltage range which defines the erase parallelism.  
 455:./Library/stm32f4xx_flash.c ****   *          This parameter can be one of the following values:
 456:./Library/stm32f4xx_flash.c ****   *            @arg VoltageRange_1: when the device voltage range is 1.8V to 2.1V, 
 457:./Library/stm32f4xx_flash.c ****   *                                  the operation will be done by byte (8-bit) 
 458:./Library/stm32f4xx_flash.c ****   *            @arg VoltageRange_2: when the device voltage range is 2.1V to 2.7V,
 459:./Library/stm32f4xx_flash.c ****   *                                  the operation will be done by half word (16-bit)
 460:./Library/stm32f4xx_flash.c ****   *            @arg VoltageRange_3: when the device voltage range is 2.7V to 3.6V,
 461:./Library/stm32f4xx_flash.c ****   *                                  the operation will be done by word (32-bit)
 462:./Library/stm32f4xx_flash.c ****   *            @arg VoltageRange_4: when the device voltage range is 2.7V to 3.6V + External Vpp, 
 463:./Library/stm32f4xx_flash.c ****   *                                  the operation will be done by double word (64-bit)
 464:./Library/stm32f4xx_flash.c ****   *       
 465:./Library/stm32f4xx_flash.c ****   * @retval FLASH Status: The returned value can be: FLASH_BUSY, FLASH_ERROR_PROGRAM,
 466:./Library/stm32f4xx_flash.c ****   *                       FLASH_ERROR_WRP, FLASH_ERROR_OPERATION or FLASH_COMPLETE.
 467:./Library/stm32f4xx_flash.c ****   */
 468:./Library/stm32f4xx_flash.c **** FLASH_Status FLASH_EraseSector(uint32_t FLASH_Sector, uint8_t VoltageRange)
 469:./Library/stm32f4xx_flash.c **** {
 470:./Library/stm32f4xx_flash.c ****   uint32_t tmp_psize = 0x0;
 471:./Library/stm32f4xx_flash.c ****   FLASH_Status status = FLASH_COMPLETE;
 472:./Library/stm32f4xx_flash.c **** 
 473:./Library/stm32f4xx_flash.c ****   /* Check the parameters */
 474:./Library/stm32f4xx_flash.c ****   assert_param(IS_FLASH_SECTOR(FLASH_Sector));
 475:./Library/stm32f4xx_flash.c ****   assert_param(IS_VOLTAGERANGE(VoltageRange));
 476:./Library/stm32f4xx_flash.c ****   
 477:./Library/stm32f4xx_flash.c ****   if(VoltageRange == VoltageRange_1)
 478:./Library/stm32f4xx_flash.c ****   {
 479:./Library/stm32f4xx_flash.c ****      tmp_psize = FLASH_PSIZE_BYTE;
 480:./Library/stm32f4xx_flash.c ****   }
 481:./Library/stm32f4xx_flash.c ****   else if(VoltageRange == VoltageRange_2)
 482:./Library/stm32f4xx_flash.c ****   {
 483:./Library/stm32f4xx_flash.c ****     tmp_psize = FLASH_PSIZE_HALF_WORD;
 484:./Library/stm32f4xx_flash.c ****   }
 485:./Library/stm32f4xx_flash.c ****   else if(VoltageRange == VoltageRange_3)
 486:./Library/stm32f4xx_flash.c ****   {
 487:./Library/stm32f4xx_flash.c ****     tmp_psize = FLASH_PSIZE_WORD;
 488:./Library/stm32f4xx_flash.c ****   }
 489:./Library/stm32f4xx_flash.c ****   else
 490:./Library/stm32f4xx_flash.c ****   {
 491:./Library/stm32f4xx_flash.c ****     tmp_psize = FLASH_PSIZE_DOUBLE_WORD;
 492:./Library/stm32f4xx_flash.c ****   }
 493:./Library/stm32f4xx_flash.c ****   /* Wait for last operation to be completed */
 494:./Library/stm32f4xx_flash.c ****   status = FLASH_WaitForLastOperation();
ARM GAS  /var/folders/yl/_q9l42k90g1g4mdhbs226msm0000gn/T//ccpYyaD8.s 			page 15


 495:./Library/stm32f4xx_flash.c ****   
 496:./Library/stm32f4xx_flash.c ****   if(status == FLASH_COMPLETE)
 497:./Library/stm32f4xx_flash.c ****   { 
 498:./Library/stm32f4xx_flash.c ****     /* if the previous operation is completed, proceed to erase the sector */
 499:./Library/stm32f4xx_flash.c ****     FLASH->CR &= CR_PSIZE_MASK;
 500:./Library/stm32f4xx_flash.c ****     FLASH->CR |= tmp_psize;
 501:./Library/stm32f4xx_flash.c ****     FLASH->CR &= SECTOR_MASK;
 502:./Library/stm32f4xx_flash.c ****     FLASH->CR |= FLASH_CR_SER | FLASH_Sector;
 503:./Library/stm32f4xx_flash.c ****     FLASH->CR |= FLASH_CR_STRT;
 504:./Library/stm32f4xx_flash.c ****     
 505:./Library/stm32f4xx_flash.c ****     /* Wait for last operation to be completed */
 506:./Library/stm32f4xx_flash.c ****     status = FLASH_WaitForLastOperation();
 507:./Library/stm32f4xx_flash.c ****     
 508:./Library/stm32f4xx_flash.c ****     /* if the erase operation is completed, disable the SER Bit */
 509:./Library/stm32f4xx_flash.c ****     FLASH->CR &= (~FLASH_CR_SER);
 510:./Library/stm32f4xx_flash.c ****     FLASH->CR &= SECTOR_MASK; 
 511:./Library/stm32f4xx_flash.c ****   }
 512:./Library/stm32f4xx_flash.c ****   /* Return the Erase Status */
 513:./Library/stm32f4xx_flash.c ****   return status;
 514:./Library/stm32f4xx_flash.c **** }
 515:./Library/stm32f4xx_flash.c **** 
 516:./Library/stm32f4xx_flash.c **** /**
 517:./Library/stm32f4xx_flash.c ****   * @brief  Erases all FLASH Sectors.
 518:./Library/stm32f4xx_flash.c ****   *
 519:./Library/stm32f4xx_flash.c ****   * @note   If an erase and a program operations are requested simultaneously,    
 520:./Library/stm32f4xx_flash.c ****   *         the erase operation is performed before the program one.
 521:./Library/stm32f4xx_flash.c ****   *  
 522:./Library/stm32f4xx_flash.c ****   * @param  VoltageRange: The device voltage range which defines the erase parallelism.  
 523:./Library/stm32f4xx_flash.c ****   *          This parameter can be one of the following values:
 524:./Library/stm32f4xx_flash.c ****   *            @arg VoltageRange_1: when the device voltage range is 1.8V to 2.1V, 
 525:./Library/stm32f4xx_flash.c ****   *                                  the operation will be done by byte (8-bit) 
 526:./Library/stm32f4xx_flash.c ****   *            @arg VoltageRange_2: when the device voltage range is 2.1V to 2.7V,
 527:./Library/stm32f4xx_flash.c ****   *                                  the operation will be done by half word (16-bit)
 528:./Library/stm32f4xx_flash.c ****   *            @arg VoltageRange_3: when the device voltage range is 2.7V to 3.6V,
 529:./Library/stm32f4xx_flash.c ****   *                                  the operation will be done by word (32-bit)
 530:./Library/stm32f4xx_flash.c ****   *            @arg VoltageRange_4: when the device voltage range is 2.7V to 3.6V + External Vpp, 
 531:./Library/stm32f4xx_flash.c ****   *                                  the operation will be done by double word (64-bit)
 532:./Library/stm32f4xx_flash.c ****   *       
 533:./Library/stm32f4xx_flash.c ****   * @retval FLASH Status: The returned value can be: FLASH_BUSY, FLASH_ERROR_PROGRAM,
 534:./Library/stm32f4xx_flash.c ****   *                       FLASH_ERROR_WRP, FLASH_ERROR_OPERATION or FLASH_COMPLETE.
 535:./Library/stm32f4xx_flash.c ****   */
 536:./Library/stm32f4xx_flash.c **** FLASH_Status FLASH_EraseAllSectors(uint8_t VoltageRange)
 537:./Library/stm32f4xx_flash.c **** {
 538:./Library/stm32f4xx_flash.c ****   uint32_t tmp_psize = 0x0;
 539:./Library/stm32f4xx_flash.c ****   FLASH_Status status = FLASH_COMPLETE;
 540:./Library/stm32f4xx_flash.c ****   
 541:./Library/stm32f4xx_flash.c ****   /* Wait for last operation to be completed */
 542:./Library/stm32f4xx_flash.c ****   status = FLASH_WaitForLastOperation();
 543:./Library/stm32f4xx_flash.c ****   assert_param(IS_VOLTAGERANGE(VoltageRange));
 544:./Library/stm32f4xx_flash.c ****   
 545:./Library/stm32f4xx_flash.c ****   if(VoltageRange == VoltageRange_1)
 546:./Library/stm32f4xx_flash.c ****   {
 547:./Library/stm32f4xx_flash.c ****      tmp_psize = FLASH_PSIZE_BYTE;
 548:./Library/stm32f4xx_flash.c ****   }
 549:./Library/stm32f4xx_flash.c ****   else if(VoltageRange == VoltageRange_2)
 550:./Library/stm32f4xx_flash.c ****   {
 551:./Library/stm32f4xx_flash.c ****     tmp_psize = FLASH_PSIZE_HALF_WORD;
ARM GAS  /var/folders/yl/_q9l42k90g1g4mdhbs226msm0000gn/T//ccpYyaD8.s 			page 16


 552:./Library/stm32f4xx_flash.c ****   }
 553:./Library/stm32f4xx_flash.c ****   else if(VoltageRange == VoltageRange_3)
 554:./Library/stm32f4xx_flash.c ****   {
 555:./Library/stm32f4xx_flash.c ****     tmp_psize = FLASH_PSIZE_WORD;
 556:./Library/stm32f4xx_flash.c ****   }
 557:./Library/stm32f4xx_flash.c ****   else
 558:./Library/stm32f4xx_flash.c ****   {
 559:./Library/stm32f4xx_flash.c ****     tmp_psize = FLASH_PSIZE_DOUBLE_WORD;
 560:./Library/stm32f4xx_flash.c ****   }  
 561:./Library/stm32f4xx_flash.c ****   if(status == FLASH_COMPLETE)
 562:./Library/stm32f4xx_flash.c ****   {
 563:./Library/stm32f4xx_flash.c ****     /* if the previous operation is completed, proceed to erase all sectors */
 564:./Library/stm32f4xx_flash.c **** #if defined(STM32F427_437xx) || defined(STM32F429_439xx) || defined(STM32F469_479xx)
 565:./Library/stm32f4xx_flash.c ****     FLASH->CR &= CR_PSIZE_MASK;
 566:./Library/stm32f4xx_flash.c ****     FLASH->CR |= tmp_psize;
 567:./Library/stm32f4xx_flash.c ****     FLASH->CR |= (FLASH_CR_MER1 | FLASH_CR_MER2);
 568:./Library/stm32f4xx_flash.c ****     FLASH->CR |= FLASH_CR_STRT;
 569:./Library/stm32f4xx_flash.c ****     
 570:./Library/stm32f4xx_flash.c ****     /* Wait for last operation to be completed */
 571:./Library/stm32f4xx_flash.c ****     status = FLASH_WaitForLastOperation();
 572:./Library/stm32f4xx_flash.c **** 
 573:./Library/stm32f4xx_flash.c ****     /* if the erase operation is completed, disable the MER Bit */
 574:./Library/stm32f4xx_flash.c ****     FLASH->CR &= ~(FLASH_CR_MER1 | FLASH_CR_MER2);
 575:./Library/stm32f4xx_flash.c **** #endif /* STM32F427_437xx ||  STM32F429_439xx ||  STM32F469_479xx */
 576:./Library/stm32f4xx_flash.c **** 
 577:./Library/stm32f4xx_flash.c **** #if defined(STM32F40_41xxx) || defined(STM32F401xx) || defined(STM32F410xx) || defined(STM32F411xE)
 578:./Library/stm32f4xx_flash.c ****     FLASH->CR &= CR_PSIZE_MASK;
 579:./Library/stm32f4xx_flash.c ****     FLASH->CR |= tmp_psize;
 580:./Library/stm32f4xx_flash.c ****     FLASH->CR |= FLASH_CR_MER;
 581:./Library/stm32f4xx_flash.c ****     FLASH->CR |= FLASH_CR_STRT;
 582:./Library/stm32f4xx_flash.c ****     
 583:./Library/stm32f4xx_flash.c ****     /* Wait for last operation to be completed */
 584:./Library/stm32f4xx_flash.c ****     status = FLASH_WaitForLastOperation();
 585:./Library/stm32f4xx_flash.c **** 
 586:./Library/stm32f4xx_flash.c ****     /* if the erase operation is completed, disable the MER Bit */
 587:./Library/stm32f4xx_flash.c ****     FLASH->CR &= (~FLASH_CR_MER);
 588:./Library/stm32f4xx_flash.c **** #endif /* STM32F40_41xxx || STM32F401xx || STM32F410xx || STM32F411xE || STM32F412xG || STM32F413_4
 589:./Library/stm32f4xx_flash.c **** 
 590:./Library/stm32f4xx_flash.c ****   }   
 591:./Library/stm32f4xx_flash.c ****   /* Return the Erase Status */
 592:./Library/stm32f4xx_flash.c ****   return status;
 593:./Library/stm32f4xx_flash.c **** }
 594:./Library/stm32f4xx_flash.c **** 
 595:./Library/stm32f4xx_flash.c **** /**
 596:./Library/stm32f4xx_flash.c ****   * @brief  Erases all FLASH Sectors in Bank 1.
 597:./Library/stm32f4xx_flash.c ****   *
 598:./Library/stm32f4xx_flash.c ****   * @note   This function can be used only for STM32F42xxx/43xxx devices.
 599:./Library/stm32f4xx_flash.c ****   *      
 600:./Library/stm32f4xx_flash.c ****   * @note   If an erase and a program operations are requested simultaneously,    
 601:./Library/stm32f4xx_flash.c ****   *         the erase operation is performed before the program one. 
 602:./Library/stm32f4xx_flash.c ****   *  
 603:./Library/stm32f4xx_flash.c ****   * @param  VoltageRange: The device voltage range which defines the erase parallelism.  
 604:./Library/stm32f4xx_flash.c ****   *          This parameter can be one of the following values:
 605:./Library/stm32f4xx_flash.c ****   *            @arg VoltageRange_1: when the device voltage range is 1.8V to 2.1V, 
 606:./Library/stm32f4xx_flash.c ****   *                                  the operation will be done by byte (8-bit) 
 607:./Library/stm32f4xx_flash.c ****   *            @arg VoltageRange_2: when the device voltage range is 2.1V to 2.7V,
 608:./Library/stm32f4xx_flash.c ****   *                                  the operation will be done by half word (16-bit)
ARM GAS  /var/folders/yl/_q9l42k90g1g4mdhbs226msm0000gn/T//ccpYyaD8.s 			page 17


 609:./Library/stm32f4xx_flash.c ****   *            @arg VoltageRange_3: when the device voltage range is 2.7V to 3.6V,
 610:./Library/stm32f4xx_flash.c ****   *                                  the operation will be done by word (32-bit)
 611:./Library/stm32f4xx_flash.c ****   *            @arg VoltageRange_4: when the device voltage range is 2.7V to 3.6V + External Vpp, 
 612:./Library/stm32f4xx_flash.c ****   *                                  the operation will be done by double word (64-bit)
 613:./Library/stm32f4xx_flash.c ****   *       
 614:./Library/stm32f4xx_flash.c ****   * @retval FLASH Status: The returned value can be: FLASH_BUSY, FLASH_ERROR_PROGRAM,
 615:./Library/stm32f4xx_flash.c ****   *                       FLASH_ERROR_WRP, FLASH_ERROR_OPERATION or FLASH_COMPLETE.
 616:./Library/stm32f4xx_flash.c ****   */
 617:./Library/stm32f4xx_flash.c **** FLASH_Status FLASH_EraseAllBank1Sectors(uint8_t VoltageRange)
 618:./Library/stm32f4xx_flash.c **** {
 619:./Library/stm32f4xx_flash.c ****   uint32_t tmp_psize = 0x0;
 620:./Library/stm32f4xx_flash.c ****   FLASH_Status status = FLASH_COMPLETE;
 621:./Library/stm32f4xx_flash.c ****   
 622:./Library/stm32f4xx_flash.c ****   /* Wait for last operation to be completed */
 623:./Library/stm32f4xx_flash.c ****   status = FLASH_WaitForLastOperation();
 624:./Library/stm32f4xx_flash.c ****   assert_param(IS_VOLTAGERANGE(VoltageRange));
 625:./Library/stm32f4xx_flash.c ****   
 626:./Library/stm32f4xx_flash.c ****   if(VoltageRange == VoltageRange_1)
 627:./Library/stm32f4xx_flash.c ****   {
 628:./Library/stm32f4xx_flash.c ****      tmp_psize = FLASH_PSIZE_BYTE;
 629:./Library/stm32f4xx_flash.c ****   }
 630:./Library/stm32f4xx_flash.c ****   else if(VoltageRange == VoltageRange_2)
 631:./Library/stm32f4xx_flash.c ****   {
 632:./Library/stm32f4xx_flash.c ****     tmp_psize = FLASH_PSIZE_HALF_WORD;
 633:./Library/stm32f4xx_flash.c ****   }
 634:./Library/stm32f4xx_flash.c ****   else if(VoltageRange == VoltageRange_3)
 635:./Library/stm32f4xx_flash.c ****   {
 636:./Library/stm32f4xx_flash.c ****     tmp_psize = FLASH_PSIZE_WORD;
 637:./Library/stm32f4xx_flash.c ****   }
 638:./Library/stm32f4xx_flash.c ****   else
 639:./Library/stm32f4xx_flash.c ****   {
 640:./Library/stm32f4xx_flash.c ****     tmp_psize = FLASH_PSIZE_DOUBLE_WORD;
 641:./Library/stm32f4xx_flash.c ****   }  
 642:./Library/stm32f4xx_flash.c ****   if(status == FLASH_COMPLETE)
 643:./Library/stm32f4xx_flash.c ****   {
 644:./Library/stm32f4xx_flash.c ****     /* if the previous operation is completed, proceed to erase all sectors */
 645:./Library/stm32f4xx_flash.c ****      FLASH->CR &= CR_PSIZE_MASK;
 646:./Library/stm32f4xx_flash.c ****      FLASH->CR |= tmp_psize;
 647:./Library/stm32f4xx_flash.c ****      FLASH->CR |= FLASH_CR_MER1;
 648:./Library/stm32f4xx_flash.c ****      FLASH->CR |= FLASH_CR_STRT;
 649:./Library/stm32f4xx_flash.c ****     
 650:./Library/stm32f4xx_flash.c ****     /* Wait for last operation to be completed */
 651:./Library/stm32f4xx_flash.c ****     status = FLASH_WaitForLastOperation();
 652:./Library/stm32f4xx_flash.c **** 
 653:./Library/stm32f4xx_flash.c ****     /* if the erase operation is completed, disable the MER Bit */
 654:./Library/stm32f4xx_flash.c ****     FLASH->CR &= (~FLASH_CR_MER1);
 655:./Library/stm32f4xx_flash.c **** 
 656:./Library/stm32f4xx_flash.c ****   }   
 657:./Library/stm32f4xx_flash.c ****   /* Return the Erase Status */
 658:./Library/stm32f4xx_flash.c ****   return status;
 659:./Library/stm32f4xx_flash.c **** }
 660:./Library/stm32f4xx_flash.c **** 
 661:./Library/stm32f4xx_flash.c **** 
 662:./Library/stm32f4xx_flash.c **** /**
 663:./Library/stm32f4xx_flash.c ****   * @brief  Erases all FLASH Sectors in Bank 2.
 664:./Library/stm32f4xx_flash.c ****   *
 665:./Library/stm32f4xx_flash.c ****   * @note   This function can be used only for STM32F42xxx/43xxx devices.
ARM GAS  /var/folders/yl/_q9l42k90g1g4mdhbs226msm0000gn/T//ccpYyaD8.s 			page 18


 666:./Library/stm32f4xx_flash.c ****   *     
 667:./Library/stm32f4xx_flash.c ****   * @note   If an erase and a program operations are requested simultaneously,    
 668:./Library/stm32f4xx_flash.c ****   *         the erase operation is performed before the program one.
 669:./Library/stm32f4xx_flash.c ****   *     
 670:./Library/stm32f4xx_flash.c ****   * @param  VoltageRange: The device voltage range which defines the erase parallelism.  
 671:./Library/stm32f4xx_flash.c ****   *          This parameter can be one of the following values:
 672:./Library/stm32f4xx_flash.c ****   *            @arg VoltageRange_1: when the device voltage range is 1.8V to 2.1V, 
 673:./Library/stm32f4xx_flash.c ****   *                                  the operation will be done by byte (8-bit) 
 674:./Library/stm32f4xx_flash.c ****   *            @arg VoltageRange_2: when the device voltage range is 2.1V to 2.7V,
 675:./Library/stm32f4xx_flash.c ****   *                                  the operation will be done by half word (16-bit)
 676:./Library/stm32f4xx_flash.c ****   *            @arg VoltageRange_3: when the device voltage range is 2.7V to 3.6V,
 677:./Library/stm32f4xx_flash.c ****   *                                  the operation will be done by word (32-bit)
 678:./Library/stm32f4xx_flash.c ****   *            @arg VoltageRange_4: when the device voltage range is 2.7V to 3.6V + External Vpp, 
 679:./Library/stm32f4xx_flash.c ****   *                                  the operation will be done by double word (64-bit)
 680:./Library/stm32f4xx_flash.c ****   *       
 681:./Library/stm32f4xx_flash.c ****   * @retval FLASH Status: The returned value can be: FLASH_BUSY, FLASH_ERROR_PROGRAM,
 682:./Library/stm32f4xx_flash.c ****   *                       FLASH_ERROR_WRP, FLASH_ERROR_OPERATION or FLASH_COMPLETE.
 683:./Library/stm32f4xx_flash.c ****   */
 684:./Library/stm32f4xx_flash.c **** FLASH_Status FLASH_EraseAllBank2Sectors(uint8_t VoltageRange)
 685:./Library/stm32f4xx_flash.c **** {
 686:./Library/stm32f4xx_flash.c ****   uint32_t tmp_psize = 0x0;
 687:./Library/stm32f4xx_flash.c ****   FLASH_Status status = FLASH_COMPLETE;
 688:./Library/stm32f4xx_flash.c ****   
 689:./Library/stm32f4xx_flash.c ****   /* Wait for last operation to be completed */
 690:./Library/stm32f4xx_flash.c ****   status = FLASH_WaitForLastOperation();
 691:./Library/stm32f4xx_flash.c ****   assert_param(IS_VOLTAGERANGE(VoltageRange));
 692:./Library/stm32f4xx_flash.c ****   
 693:./Library/stm32f4xx_flash.c ****   if(VoltageRange == VoltageRange_1)
 694:./Library/stm32f4xx_flash.c ****   {
 695:./Library/stm32f4xx_flash.c ****      tmp_psize = FLASH_PSIZE_BYTE;
 696:./Library/stm32f4xx_flash.c ****   }
 697:./Library/stm32f4xx_flash.c ****   else if(VoltageRange == VoltageRange_2)
 698:./Library/stm32f4xx_flash.c ****   {
 699:./Library/stm32f4xx_flash.c ****     tmp_psize = FLASH_PSIZE_HALF_WORD;
 700:./Library/stm32f4xx_flash.c ****   }
 701:./Library/stm32f4xx_flash.c ****   else if(VoltageRange == VoltageRange_3)
 702:./Library/stm32f4xx_flash.c ****   {
 703:./Library/stm32f4xx_flash.c ****     tmp_psize = FLASH_PSIZE_WORD;
 704:./Library/stm32f4xx_flash.c ****   }
 705:./Library/stm32f4xx_flash.c ****   else
 706:./Library/stm32f4xx_flash.c ****   {
 707:./Library/stm32f4xx_flash.c ****     tmp_psize = FLASH_PSIZE_DOUBLE_WORD;
 708:./Library/stm32f4xx_flash.c ****   }  
 709:./Library/stm32f4xx_flash.c ****   if(status == FLASH_COMPLETE)
 710:./Library/stm32f4xx_flash.c ****   {
 711:./Library/stm32f4xx_flash.c ****     /* if the previous operation is completed, proceed to erase all sectors */
 712:./Library/stm32f4xx_flash.c ****      FLASH->CR &= CR_PSIZE_MASK;
 713:./Library/stm32f4xx_flash.c ****      FLASH->CR |= tmp_psize;
 714:./Library/stm32f4xx_flash.c ****      FLASH->CR |= FLASH_CR_MER2;
 715:./Library/stm32f4xx_flash.c ****      FLASH->CR |= FLASH_CR_STRT;
 716:./Library/stm32f4xx_flash.c ****     
 717:./Library/stm32f4xx_flash.c ****     /* Wait for last operation to be completed */
 718:./Library/stm32f4xx_flash.c ****     status = FLASH_WaitForLastOperation();
 719:./Library/stm32f4xx_flash.c **** 
 720:./Library/stm32f4xx_flash.c ****     /* if the erase operation is completed, disable the MER Bit */
 721:./Library/stm32f4xx_flash.c ****     FLASH->CR &= (~FLASH_CR_MER2);
 722:./Library/stm32f4xx_flash.c **** 
ARM GAS  /var/folders/yl/_q9l42k90g1g4mdhbs226msm0000gn/T//ccpYyaD8.s 			page 19


 723:./Library/stm32f4xx_flash.c ****   }   
 724:./Library/stm32f4xx_flash.c ****   /* Return the Erase Status */
 725:./Library/stm32f4xx_flash.c ****   return status;
 726:./Library/stm32f4xx_flash.c **** }
 727:./Library/stm32f4xx_flash.c **** 
 728:./Library/stm32f4xx_flash.c **** /**
 729:./Library/stm32f4xx_flash.c ****   * @brief  Programs a double word (64-bit) at a specified address.
 730:./Library/stm32f4xx_flash.c ****   * @note   This function must be used when the device voltage range is from
 731:./Library/stm32f4xx_flash.c ****   *         2.7V to 3.6V and an External Vpp is present.
 732:./Library/stm32f4xx_flash.c ****   *
 733:./Library/stm32f4xx_flash.c ****   * @note   If an erase and a program operations are requested simultaneously,    
 734:./Library/stm32f4xx_flash.c ****   *         the erase operation is performed before the program one.
 735:./Library/stm32f4xx_flash.c ****   *  
 736:./Library/stm32f4xx_flash.c ****   * @param  Address: specifies the address to be programmed.
 737:./Library/stm32f4xx_flash.c ****   * @param  Data: specifies the data to be programmed.
 738:./Library/stm32f4xx_flash.c ****   * @retval FLASH Status: The returned value can be: FLASH_BUSY, FLASH_ERROR_PROGRAM,
 739:./Library/stm32f4xx_flash.c ****   *                       FLASH_ERROR_WRP, FLASH_ERROR_OPERATION or FLASH_COMPLETE.
 740:./Library/stm32f4xx_flash.c ****   */
 741:./Library/stm32f4xx_flash.c **** FLASH_Status FLASH_ProgramDoubleWord(uint32_t Address, uint64_t Data)
 742:./Library/stm32f4xx_flash.c **** {
 743:./Library/stm32f4xx_flash.c ****   FLASH_Status status = FLASH_COMPLETE;
 744:./Library/stm32f4xx_flash.c **** 
 745:./Library/stm32f4xx_flash.c ****   /* Check the parameters */
 746:./Library/stm32f4xx_flash.c ****   assert_param(IS_FLASH_ADDRESS(Address));
 747:./Library/stm32f4xx_flash.c **** 
 748:./Library/stm32f4xx_flash.c ****   /* Wait for last operation to be completed */
 749:./Library/stm32f4xx_flash.c ****   status = FLASH_WaitForLastOperation();
 750:./Library/stm32f4xx_flash.c ****   
 751:./Library/stm32f4xx_flash.c ****   if(status == FLASH_COMPLETE)
 752:./Library/stm32f4xx_flash.c ****   {
 753:./Library/stm32f4xx_flash.c ****     /* if the previous operation is completed, proceed to program the new data */
 754:./Library/stm32f4xx_flash.c ****     FLASH->CR &= CR_PSIZE_MASK;
 755:./Library/stm32f4xx_flash.c ****     FLASH->CR |= FLASH_PSIZE_DOUBLE_WORD;
 756:./Library/stm32f4xx_flash.c ****     FLASH->CR |= FLASH_CR_PG;
 757:./Library/stm32f4xx_flash.c ****   
 758:./Library/stm32f4xx_flash.c ****     *(__IO uint64_t*)Address = Data;
 759:./Library/stm32f4xx_flash.c ****         
 760:./Library/stm32f4xx_flash.c ****     /* Wait for last operation to be completed */
 761:./Library/stm32f4xx_flash.c ****     status = FLASH_WaitForLastOperation();
 762:./Library/stm32f4xx_flash.c **** 
 763:./Library/stm32f4xx_flash.c ****     /* if the program operation is completed, disable the PG Bit */
 764:./Library/stm32f4xx_flash.c ****     FLASH->CR &= (~FLASH_CR_PG);
 765:./Library/stm32f4xx_flash.c ****   } 
 766:./Library/stm32f4xx_flash.c ****   /* Return the Program Status */
 767:./Library/stm32f4xx_flash.c ****   return status;
 768:./Library/stm32f4xx_flash.c **** }
 769:./Library/stm32f4xx_flash.c **** 
 770:./Library/stm32f4xx_flash.c **** /**
 771:./Library/stm32f4xx_flash.c ****   * @brief  Programs a word (32-bit) at a specified address.
 772:./Library/stm32f4xx_flash.c ****   *
 773:./Library/stm32f4xx_flash.c ****   * @note   This function must be used when the device voltage range is from 2.7V to 3.6V. 
 774:./Library/stm32f4xx_flash.c ****   *
 775:./Library/stm32f4xx_flash.c ****   * @note   If an erase and a program operations are requested simultaneously,    
 776:./Library/stm32f4xx_flash.c ****   *         the erase operation is performed before the program one.
 777:./Library/stm32f4xx_flash.c ****   *  
 778:./Library/stm32f4xx_flash.c ****   * @param  Address: specifies the address to be programmed.
 779:./Library/stm32f4xx_flash.c ****   *         This parameter can be any address in Program memory zone or in OTP zone.  
ARM GAS  /var/folders/yl/_q9l42k90g1g4mdhbs226msm0000gn/T//ccpYyaD8.s 			page 20


 780:./Library/stm32f4xx_flash.c ****   * @param  Data: specifies the data to be programmed.
 781:./Library/stm32f4xx_flash.c ****   * @retval FLASH Status: The returned value can be: FLASH_BUSY, FLASH_ERROR_PROGRAM,
 782:./Library/stm32f4xx_flash.c ****   *                       FLASH_ERROR_WRP, FLASH_ERROR_OPERATION or FLASH_COMPLETE.
 783:./Library/stm32f4xx_flash.c ****   */
 784:./Library/stm32f4xx_flash.c **** FLASH_Status FLASH_ProgramWord(uint32_t Address, uint32_t Data)
 785:./Library/stm32f4xx_flash.c **** {
 786:./Library/stm32f4xx_flash.c ****   FLASH_Status status = FLASH_COMPLETE;
 787:./Library/stm32f4xx_flash.c **** 
 788:./Library/stm32f4xx_flash.c ****   /* Check the parameters */
 789:./Library/stm32f4xx_flash.c ****   assert_param(IS_FLASH_ADDRESS(Address));
 790:./Library/stm32f4xx_flash.c **** 
 791:./Library/stm32f4xx_flash.c ****   /* Wait for last operation to be completed */
 792:./Library/stm32f4xx_flash.c ****   status = FLASH_WaitForLastOperation();
 793:./Library/stm32f4xx_flash.c ****   
 794:./Library/stm32f4xx_flash.c ****   if(status == FLASH_COMPLETE)
 795:./Library/stm32f4xx_flash.c ****   {
 796:./Library/stm32f4xx_flash.c ****     /* if the previous operation is completed, proceed to program the new data */
 797:./Library/stm32f4xx_flash.c ****     FLASH->CR &= CR_PSIZE_MASK;
 798:./Library/stm32f4xx_flash.c ****     FLASH->CR |= FLASH_PSIZE_WORD;
 799:./Library/stm32f4xx_flash.c ****     FLASH->CR |= FLASH_CR_PG;
 800:./Library/stm32f4xx_flash.c ****   
 801:./Library/stm32f4xx_flash.c ****     *(__IO uint32_t*)Address = Data;
 802:./Library/stm32f4xx_flash.c ****         
 803:./Library/stm32f4xx_flash.c ****     /* Wait for last operation to be completed */
 804:./Library/stm32f4xx_flash.c ****     status = FLASH_WaitForLastOperation();
 805:./Library/stm32f4xx_flash.c **** 
 806:./Library/stm32f4xx_flash.c ****     /* if the program operation is completed, disable the PG Bit */
 807:./Library/stm32f4xx_flash.c ****     FLASH->CR &= (~FLASH_CR_PG);
 808:./Library/stm32f4xx_flash.c ****   } 
 809:./Library/stm32f4xx_flash.c ****   /* Return the Program Status */
 810:./Library/stm32f4xx_flash.c ****   return status;
 811:./Library/stm32f4xx_flash.c **** }
 812:./Library/stm32f4xx_flash.c **** 
 813:./Library/stm32f4xx_flash.c **** /**
 814:./Library/stm32f4xx_flash.c ****   * @brief  Programs a half word (16-bit) at a specified address. 
 815:./Library/stm32f4xx_flash.c ****   * @note   This function must be used when the device voltage range is from 2.1V to 3.6V. 
 816:./Library/stm32f4xx_flash.c ****   *
 817:./Library/stm32f4xx_flash.c ****   * @note   If an erase and a program operations are requested simultaneously,    
 818:./Library/stm32f4xx_flash.c ****   *         the erase operation is performed before the program one.
 819:./Library/stm32f4xx_flash.c ****   * 
 820:./Library/stm32f4xx_flash.c ****   * @param  Address: specifies the address to be programmed.
 821:./Library/stm32f4xx_flash.c ****   *         This parameter can be any address in Program memory zone or in OTP zone.  
 822:./Library/stm32f4xx_flash.c ****   * @param  Data: specifies the data to be programmed.
 823:./Library/stm32f4xx_flash.c ****   * @retval FLASH Status: The returned value can be: FLASH_BUSY, FLASH_ERROR_PROGRAM,
 824:./Library/stm32f4xx_flash.c ****   *                       FLASH_ERROR_WRP, FLASH_ERROR_OPERATION or FLASH_COMPLETE.
 825:./Library/stm32f4xx_flash.c ****   */
 826:./Library/stm32f4xx_flash.c **** FLASH_Status FLASH_ProgramHalfWord(uint32_t Address, uint16_t Data)
 827:./Library/stm32f4xx_flash.c **** {
 828:./Library/stm32f4xx_flash.c ****   FLASH_Status status = FLASH_COMPLETE;
 829:./Library/stm32f4xx_flash.c **** 
 830:./Library/stm32f4xx_flash.c ****   /* Check the parameters */
 831:./Library/stm32f4xx_flash.c ****   assert_param(IS_FLASH_ADDRESS(Address));
 832:./Library/stm32f4xx_flash.c **** 
 833:./Library/stm32f4xx_flash.c ****   /* Wait for last operation to be completed */
 834:./Library/stm32f4xx_flash.c ****   status = FLASH_WaitForLastOperation();
 835:./Library/stm32f4xx_flash.c ****   
 836:./Library/stm32f4xx_flash.c ****   if(status == FLASH_COMPLETE)
ARM GAS  /var/folders/yl/_q9l42k90g1g4mdhbs226msm0000gn/T//ccpYyaD8.s 			page 21


 837:./Library/stm32f4xx_flash.c ****   {
 838:./Library/stm32f4xx_flash.c ****     /* if the previous operation is completed, proceed to program the new data */
 839:./Library/stm32f4xx_flash.c ****     FLASH->CR &= CR_PSIZE_MASK;
 840:./Library/stm32f4xx_flash.c ****     FLASH->CR |= FLASH_PSIZE_HALF_WORD;
 841:./Library/stm32f4xx_flash.c ****     FLASH->CR |= FLASH_CR_PG;
 842:./Library/stm32f4xx_flash.c ****   
 843:./Library/stm32f4xx_flash.c ****     *(__IO uint16_t*)Address = Data;
 844:./Library/stm32f4xx_flash.c ****         
 845:./Library/stm32f4xx_flash.c ****     /* Wait for last operation to be completed */
 846:./Library/stm32f4xx_flash.c ****     status = FLASH_WaitForLastOperation();
 847:./Library/stm32f4xx_flash.c **** 
 848:./Library/stm32f4xx_flash.c ****     /* if the program operation is completed, disable the PG Bit */
 849:./Library/stm32f4xx_flash.c ****     FLASH->CR &= (~FLASH_CR_PG);
 850:./Library/stm32f4xx_flash.c ****   } 
 851:./Library/stm32f4xx_flash.c ****   /* Return the Program Status */
 852:./Library/stm32f4xx_flash.c ****   return status;
 853:./Library/stm32f4xx_flash.c **** }
 854:./Library/stm32f4xx_flash.c **** 
 855:./Library/stm32f4xx_flash.c **** /**
 856:./Library/stm32f4xx_flash.c ****   * @brief  Programs a byte (8-bit) at a specified address.
 857:./Library/stm32f4xx_flash.c ****   * @note   This function can be used within all the device supply voltage ranges.  
 858:./Library/stm32f4xx_flash.c ****   *
 859:./Library/stm32f4xx_flash.c ****   * @note   If an erase and a program operations are requested simultaneously,    
 860:./Library/stm32f4xx_flash.c ****   *         the erase operation is performed before the program one.
 861:./Library/stm32f4xx_flash.c ****   * 
 862:./Library/stm32f4xx_flash.c ****   * @param  Address: specifies the address to be programmed.
 863:./Library/stm32f4xx_flash.c ****   *         This parameter can be any address in Program memory zone or in OTP zone.  
 864:./Library/stm32f4xx_flash.c ****   * @param  Data: specifies the data to be programmed.
 865:./Library/stm32f4xx_flash.c ****   * @retval FLASH Status: The returned value can be: FLASH_BUSY, FLASH_ERROR_PROGRAM,
 866:./Library/stm32f4xx_flash.c ****   *                       FLASH_ERROR_WRP, FLASH_ERROR_OPERATION or FLASH_COMPLETE.
 867:./Library/stm32f4xx_flash.c ****   */
 868:./Library/stm32f4xx_flash.c **** FLASH_Status FLASH_ProgramByte(uint32_t Address, uint8_t Data)
 869:./Library/stm32f4xx_flash.c **** {
 870:./Library/stm32f4xx_flash.c ****   FLASH_Status status = FLASH_COMPLETE;
 871:./Library/stm32f4xx_flash.c **** 
 872:./Library/stm32f4xx_flash.c ****   /* Check the parameters */
 873:./Library/stm32f4xx_flash.c ****   assert_param(IS_FLASH_ADDRESS(Address));
 874:./Library/stm32f4xx_flash.c **** 
 875:./Library/stm32f4xx_flash.c ****   /* Wait for last operation to be completed */
 876:./Library/stm32f4xx_flash.c ****   status = FLASH_WaitForLastOperation();
 877:./Library/stm32f4xx_flash.c ****   
 878:./Library/stm32f4xx_flash.c ****   if(status == FLASH_COMPLETE)
 879:./Library/stm32f4xx_flash.c ****   {
 880:./Library/stm32f4xx_flash.c ****     /* if the previous operation is completed, proceed to program the new data */
 881:./Library/stm32f4xx_flash.c ****     FLASH->CR &= CR_PSIZE_MASK;
 882:./Library/stm32f4xx_flash.c ****     FLASH->CR |= FLASH_PSIZE_BYTE;
 883:./Library/stm32f4xx_flash.c ****     FLASH->CR |= FLASH_CR_PG;
 884:./Library/stm32f4xx_flash.c ****   
 885:./Library/stm32f4xx_flash.c ****     *(__IO uint8_t*)Address = Data;
 886:./Library/stm32f4xx_flash.c ****         
 887:./Library/stm32f4xx_flash.c ****     /* Wait for last operation to be completed */
 888:./Library/stm32f4xx_flash.c ****     status = FLASH_WaitForLastOperation();
 889:./Library/stm32f4xx_flash.c **** 
 890:./Library/stm32f4xx_flash.c ****     /* if the program operation is completed, disable the PG Bit */
 891:./Library/stm32f4xx_flash.c ****     FLASH->CR &= (~FLASH_CR_PG);
 892:./Library/stm32f4xx_flash.c ****   } 
 893:./Library/stm32f4xx_flash.c **** 
ARM GAS  /var/folders/yl/_q9l42k90g1g4mdhbs226msm0000gn/T//ccpYyaD8.s 			page 22


 894:./Library/stm32f4xx_flash.c ****   /* Return the Program Status */
 895:./Library/stm32f4xx_flash.c ****   return status;
 896:./Library/stm32f4xx_flash.c **** }
 897:./Library/stm32f4xx_flash.c **** 
 898:./Library/stm32f4xx_flash.c **** /**
 899:./Library/stm32f4xx_flash.c ****   * @}
 900:./Library/stm32f4xx_flash.c ****   */
 901:./Library/stm32f4xx_flash.c **** 
 902:./Library/stm32f4xx_flash.c **** /** @defgroup FLASH_Group3 Option Bytes Programming functions
 903:./Library/stm32f4xx_flash.c ****  *  @brief   Option Bytes Programming functions 
 904:./Library/stm32f4xx_flash.c ****  *
 905:./Library/stm32f4xx_flash.c **** @verbatim   
 906:./Library/stm32f4xx_flash.c ****  ===============================================================================
 907:./Library/stm32f4xx_flash.c ****                 ##### Option Bytes Programming functions #####
 908:./Library/stm32f4xx_flash.c ****  ===============================================================================  
 909:./Library/stm32f4xx_flash.c ****     [..]
 910:./Library/stm32f4xx_flash.c ****       This group includes the following functions:
 911:./Library/stm32f4xx_flash.c ****       (+) void FLASH_OB_Unlock(void)
 912:./Library/stm32f4xx_flash.c ****       (+) void FLASH_OB_Lock(void)
 913:./Library/stm32f4xx_flash.c ****       (+) void FLASH_OB_WRPConfig(uint32_t OB_WRP, FunctionalState NewState)
 914:./Library/stm32f4xx_flash.c ****       (+) void FLASH_OB_WRP1Config(uint32_t OB_WRP, FunctionalState NewState)  
 915:./Library/stm32f4xx_flash.c ****       (+) void FLASH_OB_PCROPSelectionConfig(uint8_t OB_PCROPSelect)
 916:./Library/stm32f4xx_flash.c ****       (+) void FLASH_OB_PCROPConfig(uint32_t OB_PCROP, FunctionalState NewState)
 917:./Library/stm32f4xx_flash.c ****       (+) void FLASH_OB_PCROP1Config(uint32_t OB_PCROP, FunctionalState NewState) 
 918:./Library/stm32f4xx_flash.c ****       (+) void FLASH_OB_RDPConfig(uint8_t OB_RDP)
 919:./Library/stm32f4xx_flash.c ****       (+) void FLASH_OB_UserConfig(uint8_t OB_IWDG, uint8_t OB_STOP, uint8_t OB_STDBY)
 920:./Library/stm32f4xx_flash.c ****       (+) void FLASH_OB_BORConfig(uint8_t OB_BOR)
 921:./Library/stm32f4xx_flash.c ****       (+) FLASH_Status FLASH_ProgramOTP(uint32_t Address, uint32_t Data)
 922:./Library/stm32f4xx_flash.c ****       (+) FLASH_Status FLASH_OB_Launch(void)
 923:./Library/stm32f4xx_flash.c ****       (+) uint32_t FLASH_OB_GetUser(void)
 924:./Library/stm32f4xx_flash.c ****       (+) uint8_t FLASH_OB_GetWRP(void)
 925:./Library/stm32f4xx_flash.c ****       (+) uint8_t FLASH_OB_GetWRP1(void)
 926:./Library/stm32f4xx_flash.c ****       (+) uint8_t FLASH_OB_GetPCROP(void)
 927:./Library/stm32f4xx_flash.c ****       (+) uint8_t FLASH_OB_GetPCROP1(void)
 928:./Library/stm32f4xx_flash.c ****       (+) uint8_t FLASH_OB_GetRDP(void)
 929:./Library/stm32f4xx_flash.c ****       (+) uint8_t FLASH_OB_GetBOR(void)
 930:./Library/stm32f4xx_flash.c ****     [..]  
 931:./Library/stm32f4xx_flash.c ****       The following function can be used only for STM32F42xxx/43xxx devices. 
 932:./Library/stm32f4xx_flash.c ****       (+) void FLASH_OB_BootConfig(uint8_t OB_BOOT)
 933:./Library/stm32f4xx_flash.c ****     [..]   
 934:./Library/stm32f4xx_flash.c ****      Any operation of erase or program should follow these steps:
 935:./Library/stm32f4xx_flash.c ****       (#) Call the FLASH_OB_Unlock() function to enable the FLASH option control 
 936:./Library/stm32f4xx_flash.c ****           register access
 937:./Library/stm32f4xx_flash.c **** 
 938:./Library/stm32f4xx_flash.c ****       (#) Call one or several functions to program the desired Option Bytes:
 939:./Library/stm32f4xx_flash.c ****         (++) void FLASH_OB_WRPConfig(uint32_t OB_WRP, FunctionalState NewState) 
 940:./Library/stm32f4xx_flash.c ****              => to Enable/Disable the desired sector write protection
 941:./Library/stm32f4xx_flash.c ****         (++) void FLASH_OB_RDPConfig(uint8_t OB_RDP) => to set the desired read 
 942:./Library/stm32f4xx_flash.c ****              Protection Level
 943:./Library/stm32f4xx_flash.c ****         (++) void FLASH_OB_UserConfig(uint8_t OB_IWDG, uint8_t OB_STOP, uint8_t OB_STDBY) 
 944:./Library/stm32f4xx_flash.c ****              => to configure the user Option Bytes.
 945:./Library/stm32f4xx_flash.c ****         (++) void FLASH_OB_BORConfig(uint8_t OB_BOR) => to set the BOR Level 			 
 946:./Library/stm32f4xx_flash.c **** 
 947:./Library/stm32f4xx_flash.c ****       (#) Once all needed Option Bytes to be programmed are correctly written, 
 948:./Library/stm32f4xx_flash.c ****           call the FLASH_OB_Launch() function to launch the Option Bytes 
 949:./Library/stm32f4xx_flash.c ****           programming process.
 950:./Library/stm32f4xx_flash.c ****      
ARM GAS  /var/folders/yl/_q9l42k90g1g4mdhbs226msm0000gn/T//ccpYyaD8.s 			page 23


 951:./Library/stm32f4xx_flash.c ****       -@- When changing the IWDG mode from HW to SW or from SW to HW, a system 
 952:./Library/stm32f4xx_flash.c ****           reset is needed to make the change effective.  
 953:./Library/stm32f4xx_flash.c **** 
 954:./Library/stm32f4xx_flash.c ****       (#) Call the FLASH_OB_Lock() function to disable the FLASH option control 
 955:./Library/stm32f4xx_flash.c ****           register access (recommended to protect the Option Bytes against 
 956:./Library/stm32f4xx_flash.c ****           possible unwanted operations)
 957:./Library/stm32f4xx_flash.c ****     
 958:./Library/stm32f4xx_flash.c **** @endverbatim
 959:./Library/stm32f4xx_flash.c ****   * @{
 960:./Library/stm32f4xx_flash.c ****   */
 961:./Library/stm32f4xx_flash.c **** 
 962:./Library/stm32f4xx_flash.c **** /**
 963:./Library/stm32f4xx_flash.c ****   * @brief  Unlocks the FLASH Option Control Registers access.
 964:./Library/stm32f4xx_flash.c ****   * @param  None
 965:./Library/stm32f4xx_flash.c ****   * @retval None
 966:./Library/stm32f4xx_flash.c ****   */
 967:./Library/stm32f4xx_flash.c **** void FLASH_OB_Unlock(void)
 968:./Library/stm32f4xx_flash.c **** {
 318              		.loc 1 968 1 is_stmt 1 view -0
 319              		.cfi_startproc
 320              		@ args = 0, pretend = 0, frame = 0
 321              		@ frame_needed = 0, uses_anonymous_args = 0
 322              		@ link register save eliminated.
 969:./Library/stm32f4xx_flash.c ****   if((FLASH->OPTCR & FLASH_OPTCR_OPTLOCK) != RESET)
 323              		.loc 1 969 3 view .LVU56
 324              		.loc 1 969 12 is_stmt 0 view .LVU57
 325 0000 054B     		ldr	r3, .L35
 326 0002 5B69     		ldr	r3, [r3, #20]
 327              		.loc 1 969 5 view .LVU58
 328 0004 13F0010F 		tst	r3, #1
 329 0008 05D0     		beq	.L33
 970:./Library/stm32f4xx_flash.c ****   {
 971:./Library/stm32f4xx_flash.c ****     /* Authorizes the Option Byte register programming */
 972:./Library/stm32f4xx_flash.c ****     FLASH->OPTKEYR = FLASH_OPT_KEY1;
 330              		.loc 1 972 5 is_stmt 1 view .LVU59
 331              		.loc 1 972 20 is_stmt 0 view .LVU60
 332 000a 034B     		ldr	r3, .L35
 333 000c 034A     		ldr	r2, .L35+4
 334 000e 9A60     		str	r2, [r3, #8]
 973:./Library/stm32f4xx_flash.c ****     FLASH->OPTKEYR = FLASH_OPT_KEY2;
 335              		.loc 1 973 5 is_stmt 1 view .LVU61
 336              		.loc 1 973 20 is_stmt 0 view .LVU62
 337 0010 02F14432 		add	r2, r2, #1145324612
 338 0014 9A60     		str	r2, [r3, #8]
 339              	.L33:
 974:./Library/stm32f4xx_flash.c ****   }  
 975:./Library/stm32f4xx_flash.c **** }
 340              		.loc 1 975 1 view .LVU63
 341 0016 7047     		bx	lr
 342              	.L36:
 343              		.align	2
 344              	.L35:
 345 0018 003C0240 		.word	1073888256
 346 001c 3B2A1908 		.word	135866939
 347              		.cfi_endproc
 348              	.LFE139:
 350              		.section	.text.FLASH_OB_Lock,"ax",%progbits
ARM GAS  /var/folders/yl/_q9l42k90g1g4mdhbs226msm0000gn/T//ccpYyaD8.s 			page 24


 351              		.align	1
 352              		.global	FLASH_OB_Lock
 353              		.syntax unified
 354              		.thumb
 355              		.thumb_func
 357              	FLASH_OB_Lock:
 358              	.LFB140:
 976:./Library/stm32f4xx_flash.c **** 
 977:./Library/stm32f4xx_flash.c **** /**
 978:./Library/stm32f4xx_flash.c ****   * @brief  Locks the FLASH Option Control Registers access.
 979:./Library/stm32f4xx_flash.c ****   * @param  None
 980:./Library/stm32f4xx_flash.c ****   * @retval None
 981:./Library/stm32f4xx_flash.c ****   */
 982:./Library/stm32f4xx_flash.c **** void FLASH_OB_Lock(void)
 983:./Library/stm32f4xx_flash.c **** {
 359              		.loc 1 983 1 is_stmt 1 view -0
 360              		.cfi_startproc
 361              		@ args = 0, pretend = 0, frame = 0
 362              		@ frame_needed = 0, uses_anonymous_args = 0
 363              		@ link register save eliminated.
 984:./Library/stm32f4xx_flash.c ****   /* Set the OPTLOCK Bit to lock the FLASH Option Byte Registers access */
 985:./Library/stm32f4xx_flash.c ****   FLASH->OPTCR |= FLASH_OPTCR_OPTLOCK;
 364              		.loc 1 985 3 view .LVU65
 365              		.loc 1 985 16 is_stmt 0 view .LVU66
 366 0000 024A     		ldr	r2, .L38
 367 0002 5369     		ldr	r3, [r2, #20]
 368 0004 43F00103 		orr	r3, r3, #1
 369 0008 5361     		str	r3, [r2, #20]
 986:./Library/stm32f4xx_flash.c **** }
 370              		.loc 1 986 1 view .LVU67
 371 000a 7047     		bx	lr
 372              	.L39:
 373              		.align	2
 374              	.L38:
 375 000c 003C0240 		.word	1073888256
 376              		.cfi_endproc
 377              	.LFE140:
 379              		.section	.text.FLASH_OB_PCROPSelectionConfig,"ax",%progbits
 380              		.align	1
 381              		.global	FLASH_OB_PCROPSelectionConfig
 382              		.syntax unified
 383              		.thumb
 384              		.thumb_func
 386              	FLASH_OB_PCROPSelectionConfig:
 387              	.LVL5:
 388              	.LFB143:
 987:./Library/stm32f4xx_flash.c **** 
 988:./Library/stm32f4xx_flash.c **** /**
 989:./Library/stm32f4xx_flash.c ****   * @brief  Enables or disables the write protection of the desired sectors, for the first
 990:./Library/stm32f4xx_flash.c ****   *         1 Mb of the Flash  
 991:./Library/stm32f4xx_flash.c ****   *
 992:./Library/stm32f4xx_flash.c ****   * @note   When the memory read protection level is selected (RDP level = 1), 
 993:./Library/stm32f4xx_flash.c ****   *         it is not possible to program or erase the flash sector i if CortexM4  
 994:./Library/stm32f4xx_flash.c ****   *         debug features are connected or boot code is executed in RAM, even if nWRPi = 1 
 995:./Library/stm32f4xx_flash.c ****   * @note   Active value of nWRPi bits is inverted when PCROP mode is active (SPRMOD =1).   
 996:./Library/stm32f4xx_flash.c ****   * 
 997:./Library/stm32f4xx_flash.c ****   * @param  OB_WRP: specifies the sector(s) to be write protected or unprotected.
ARM GAS  /var/folders/yl/_q9l42k90g1g4mdhbs226msm0000gn/T//ccpYyaD8.s 			page 25


 998:./Library/stm32f4xx_flash.c ****   *          This parameter can be one of the following values:
 999:./Library/stm32f4xx_flash.c ****   *            @arg OB_WRP: A value between OB_WRP_Sector0 and OB_WRP_Sector11                     
1000:./Library/stm32f4xx_flash.c ****   *            @arg OB_WRP_Sector_All
1001:./Library/stm32f4xx_flash.c ****   * @param  Newstate: new state of the Write Protection.
1002:./Library/stm32f4xx_flash.c ****   *          This parameter can be: ENABLE or DISABLE.
1003:./Library/stm32f4xx_flash.c ****   * @retval None  
1004:./Library/stm32f4xx_flash.c ****   */
1005:./Library/stm32f4xx_flash.c **** void FLASH_OB_WRPConfig(uint32_t OB_WRP, FunctionalState NewState)
1006:./Library/stm32f4xx_flash.c **** { 
1007:./Library/stm32f4xx_flash.c ****   FLASH_Status status = FLASH_COMPLETE;
1008:./Library/stm32f4xx_flash.c ****   
1009:./Library/stm32f4xx_flash.c ****   /* Check the parameters */
1010:./Library/stm32f4xx_flash.c ****   assert_param(IS_OB_WRP(OB_WRP));
1011:./Library/stm32f4xx_flash.c ****   assert_param(IS_FUNCTIONAL_STATE(NewState));
1012:./Library/stm32f4xx_flash.c ****     
1013:./Library/stm32f4xx_flash.c ****   status = FLASH_WaitForLastOperation();
1014:./Library/stm32f4xx_flash.c **** 
1015:./Library/stm32f4xx_flash.c ****   if(status == FLASH_COMPLETE)
1016:./Library/stm32f4xx_flash.c ****   { 
1017:./Library/stm32f4xx_flash.c ****     if(NewState != DISABLE)
1018:./Library/stm32f4xx_flash.c ****     {
1019:./Library/stm32f4xx_flash.c ****       *(__IO uint16_t*)OPTCR_BYTE2_ADDRESS &= (~OB_WRP);
1020:./Library/stm32f4xx_flash.c ****     }
1021:./Library/stm32f4xx_flash.c ****     else
1022:./Library/stm32f4xx_flash.c ****     {
1023:./Library/stm32f4xx_flash.c ****       *(__IO uint16_t*)OPTCR_BYTE2_ADDRESS |= (uint16_t)OB_WRP;
1024:./Library/stm32f4xx_flash.c ****     }
1025:./Library/stm32f4xx_flash.c ****   }
1026:./Library/stm32f4xx_flash.c **** }
1027:./Library/stm32f4xx_flash.c **** 
1028:./Library/stm32f4xx_flash.c **** /**
1029:./Library/stm32f4xx_flash.c ****   * @brief  Enables or disables the write protection of the desired sectors, for the second
1030:./Library/stm32f4xx_flash.c ****   *         1 Mb of the Flash  
1031:./Library/stm32f4xx_flash.c ****   *           
1032:./Library/stm32f4xx_flash.c ****   * @note   This function can be used only for STM32F42xxx/43xxx devices.
1033:./Library/stm32f4xx_flash.c ****   *   
1034:./Library/stm32f4xx_flash.c ****   * @note   When the memory read out protection is selected (RDP level = 1), 
1035:./Library/stm32f4xx_flash.c ****   *         it is not possible to program or erase the flash sector i if CortexM4  
1036:./Library/stm32f4xx_flash.c ****   *         debug features are connected or boot code is executed in RAM, even if nWRPi = 1 
1037:./Library/stm32f4xx_flash.c ****   * @note   Active value of nWRPi bits is inverted when PCROP mode is active (SPRMOD =1).      
1038:./Library/stm32f4xx_flash.c ****   * 
1039:./Library/stm32f4xx_flash.c ****   * @param  OB_WRP: specifies the sector(s) to be write protected or unprotected.
1040:./Library/stm32f4xx_flash.c ****   *          This parameter can be one of the following values:
1041:./Library/stm32f4xx_flash.c ****   *            @arg OB_WRP: A value between OB_WRP_Sector12 and OB_WRP_Sector23
1042:./Library/stm32f4xx_flash.c ****   *            @arg OB_WRP_Sector_All                        
1043:./Library/stm32f4xx_flash.c ****   * @param  Newstate: new state of the Write Protection.
1044:./Library/stm32f4xx_flash.c ****   *          This parameter can be: ENABLE or DISABLE.
1045:./Library/stm32f4xx_flash.c ****   * @retval None  
1046:./Library/stm32f4xx_flash.c ****   */
1047:./Library/stm32f4xx_flash.c **** void FLASH_OB_WRP1Config(uint32_t OB_WRP, FunctionalState NewState)
1048:./Library/stm32f4xx_flash.c **** { 
1049:./Library/stm32f4xx_flash.c ****   FLASH_Status status = FLASH_COMPLETE;
1050:./Library/stm32f4xx_flash.c ****   
1051:./Library/stm32f4xx_flash.c ****   /* Check the parameters */
1052:./Library/stm32f4xx_flash.c ****   assert_param(IS_OB_WRP(OB_WRP));
1053:./Library/stm32f4xx_flash.c ****   assert_param(IS_FUNCTIONAL_STATE(NewState));
1054:./Library/stm32f4xx_flash.c ****     
ARM GAS  /var/folders/yl/_q9l42k90g1g4mdhbs226msm0000gn/T//ccpYyaD8.s 			page 26


1055:./Library/stm32f4xx_flash.c ****   status = FLASH_WaitForLastOperation();
1056:./Library/stm32f4xx_flash.c **** 
1057:./Library/stm32f4xx_flash.c ****   if(status == FLASH_COMPLETE)
1058:./Library/stm32f4xx_flash.c ****   { 
1059:./Library/stm32f4xx_flash.c ****     if(NewState != DISABLE)
1060:./Library/stm32f4xx_flash.c ****     {
1061:./Library/stm32f4xx_flash.c ****       *(__IO uint16_t*)OPTCR1_BYTE2_ADDRESS &= (~OB_WRP);
1062:./Library/stm32f4xx_flash.c ****     }
1063:./Library/stm32f4xx_flash.c ****     else
1064:./Library/stm32f4xx_flash.c ****     {
1065:./Library/stm32f4xx_flash.c ****       *(__IO uint16_t*)OPTCR1_BYTE2_ADDRESS |= (uint16_t)OB_WRP;
1066:./Library/stm32f4xx_flash.c ****     }
1067:./Library/stm32f4xx_flash.c ****   }
1068:./Library/stm32f4xx_flash.c **** }
1069:./Library/stm32f4xx_flash.c **** 
1070:./Library/stm32f4xx_flash.c **** /**
1071:./Library/stm32f4xx_flash.c ****   * @brief  Select the Protection Mode (SPRMOD). 
1072:./Library/stm32f4xx_flash.c ****   * 
1073:./Library/stm32f4xx_flash.c ****   * @note   This function can be used only for STM32F42xxx/43xxx and STM32F401xx/411xE devices.    
1074:./Library/stm32f4xx_flash.c ****   * 
1075:./Library/stm32f4xx_flash.c ****   * @note   After PCROP activation, Option Byte modification is not possible. 
1076:./Library/stm32f4xx_flash.c ****   *         Exception made for the global Read Out Protection modification level (level1 to level0)
1077:./Library/stm32f4xx_flash.c ****   * @note   Once SPRMOD bit is active unprotection of a protected sector is not possible 
1078:./Library/stm32f4xx_flash.c ****   *   
1079:./Library/stm32f4xx_flash.c ****   * @note   Read a protected sector will set RDERR Flag and write a protected sector will set WRPER
1080:./Library/stm32f4xx_flash.c ****   *   
1081:./Library/stm32f4xx_flash.c ****   * @note   Some Precautions should be taken when activating the PCROP feature :
1082:./Library/stm32f4xx_flash.c ****   *         The active value of nWRPi bits is inverted when PCROP mode is active, this means if SPR
1083:./Library/stm32f4xx_flash.c ****   *         and WRPi = 1 (default value), then the user sector i is read/write protected.
1084:./Library/stm32f4xx_flash.c ****   *         In order to avoid activation of PCROP Mode for undesired sectors, please follow the
1085:./Library/stm32f4xx_flash.c ****   *         below safety sequence :       
1086:./Library/stm32f4xx_flash.c ****   *         - Disable PCROP for all Sectors using FLASH_OB_PCROPConfig(OB_PCROP_Sector_All, DISABLE
1087:./Library/stm32f4xx_flash.c ****   *           for Bank1 or FLASH_OB_PCROP1Config(OB_PCROP_Sector_All, DISABLE) function for Bank2  
1088:./Library/stm32f4xx_flash.c ****   *         - Enable PCROP for the desired Sector i using FLASH_OB_PCROPConfig(Sector i, ENABLE) fu
1089:./Library/stm32f4xx_flash.c ****   *         - Activate the PCROP Mode FLASH_OB_PCROPSelectionConfig() function. 
1090:./Library/stm32f4xx_flash.c ****   * 
1091:./Library/stm32f4xx_flash.c ****   * @param  OB_PCROP:  Select the Protection Mode of nWPRi bits 
1092:./Library/stm32f4xx_flash.c ****   *          This parameter can be one of the following values:
1093:./Library/stm32f4xx_flash.c ****   *            @arg OB_PcROP_Disable: nWRPi control the write protection of respective user sectors
1094:./Library/stm32f4xx_flash.c ****   *            @arg OB_PcROP_Enable: nWRPi control the  read&write protection (PCROP) of respective
1095:./Library/stm32f4xx_flash.c ****   * @retval None
1096:./Library/stm32f4xx_flash.c ****   */
1097:./Library/stm32f4xx_flash.c **** void FLASH_OB_PCROPSelectionConfig(uint8_t OB_PcROP)
1098:./Library/stm32f4xx_flash.c **** {  
 389              		.loc 1 1098 1 is_stmt 1 view -0
 390              		.cfi_startproc
 391              		@ args = 0, pretend = 0, frame = 0
 392              		@ frame_needed = 0, uses_anonymous_args = 0
 393              		@ link register save eliminated.
1099:./Library/stm32f4xx_flash.c ****   uint8_t optiontmp = 0xFF;
 394              		.loc 1 1099 3 view .LVU69
1100:./Library/stm32f4xx_flash.c ****       
1101:./Library/stm32f4xx_flash.c ****   /* Check the parameters */
1102:./Library/stm32f4xx_flash.c ****   assert_param(IS_OB_PCROP_SELECT(OB_PcROP));
 395              		.loc 1 1102 3 view .LVU70
1103:./Library/stm32f4xx_flash.c ****   
1104:./Library/stm32f4xx_flash.c ****   /* Mask SPRMOD bit */
ARM GAS  /var/folders/yl/_q9l42k90g1g4mdhbs226msm0000gn/T//ccpYyaD8.s 			page 27


1105:./Library/stm32f4xx_flash.c ****   optiontmp =  (uint8_t)((*(__IO uint8_t *)OPTCR_BYTE3_ADDRESS) & (uint8_t)0x7F); 
 396              		.loc 1 1105 3 view .LVU71
 397              		.loc 1 1105 65 is_stmt 0 view .LVU72
 398 0000 034A     		ldr	r2, .L41
 399 0002 D37D     		ldrb	r3, [r2, #23]	@ zero_extendqisi2
 400              		.loc 1 1105 13 view .LVU73
 401 0004 03F07F03 		and	r3, r3, #127
 402              	.LVL6:
1106:./Library/stm32f4xx_flash.c ****   /* Update Option Byte */
1107:./Library/stm32f4xx_flash.c ****   *(__IO uint8_t *)OPTCR_BYTE3_ADDRESS = (uint8_t)(OB_PcROP | optiontmp); 
 403              		.loc 1 1107 3 is_stmt 1 view .LVU74
 404              		.loc 1 1107 42 is_stmt 0 view .LVU75
 405 0008 0343     		orrs	r3, r3, r0
 406              	.LVL7:
 407              		.loc 1 1107 40 view .LVU76
 408 000a D375     		strb	r3, [r2, #23]
1108:./Library/stm32f4xx_flash.c ****     
1109:./Library/stm32f4xx_flash.c **** }
 409              		.loc 1 1109 1 view .LVU77
 410 000c 7047     		bx	lr
 411              	.L42:
 412 000e 00BF     		.align	2
 413              	.L41:
 414 0010 003C0240 		.word	1073888256
 415              		.cfi_endproc
 416              	.LFE143:
 418              		.section	.text.FLASH_OB_BootConfig,"ax",%progbits
 419              		.align	1
 420              		.global	FLASH_OB_BootConfig
 421              		.syntax unified
 422              		.thumb
 423              		.thumb_func
 425              	FLASH_OB_BootConfig:
 426              	.LVL8:
 427              	.LFB148:
1110:./Library/stm32f4xx_flash.c **** 
1111:./Library/stm32f4xx_flash.c **** /**
1112:./Library/stm32f4xx_flash.c ****   * @brief  Enables or disables the read/write protection (PCROP) of the desired 
1113:./Library/stm32f4xx_flash.c ****   *         sectors, for the first 1 MB of the Flash.
1114:./Library/stm32f4xx_flash.c ****   *           
1115:./Library/stm32f4xx_flash.c ****   * @note   This function can be used only for STM32F42xxx/43xxx , STM32F401xx/411xE 
1116:./Library/stm32f4xx_flash.c ****   *         STM32F412xG and STM32F413_423xx devices.
1117:./Library/stm32f4xx_flash.c ****   *   
1118:./Library/stm32f4xx_flash.c ****   * @param  OB_PCROP: specifies the sector(s) to be read/write protected or unprotected.
1119:./Library/stm32f4xx_flash.c ****   *          This parameter can be one of the following values:
1120:./Library/stm32f4xx_flash.c ****   *            @arg OB_PCROP: A value between OB_PCROP_Sector0 and OB_PCROP_Sector11 for 
1121:./Library/stm32f4xx_flash.c ****   *                           STM32F42xxx/43xxx devices and between OB_PCROP_Sector0 and 
1122:./Library/stm32f4xx_flash.c ****   *                           OB_PCROP_Sector5 for STM32F401xx/411xE devices.
1123:./Library/stm32f4xx_flash.c ****   *            @arg OB_PCROP_Sector_All
1124:./Library/stm32f4xx_flash.c ****   * @param  Newstate: new state of the Write Protection.
1125:./Library/stm32f4xx_flash.c ****   *          This parameter can be: ENABLE or DISABLE.
1126:./Library/stm32f4xx_flash.c ****   * @retval None  
1127:./Library/stm32f4xx_flash.c ****   */
1128:./Library/stm32f4xx_flash.c **** void FLASH_OB_PCROPConfig(uint32_t OB_PCROP, FunctionalState NewState)
1129:./Library/stm32f4xx_flash.c **** { 
1130:./Library/stm32f4xx_flash.c ****   FLASH_Status status = FLASH_COMPLETE;
1131:./Library/stm32f4xx_flash.c ****   
ARM GAS  /var/folders/yl/_q9l42k90g1g4mdhbs226msm0000gn/T//ccpYyaD8.s 			page 28


1132:./Library/stm32f4xx_flash.c ****   /* Check the parameters */
1133:./Library/stm32f4xx_flash.c ****   assert_param(IS_OB_PCROP(OB_PCROP));
1134:./Library/stm32f4xx_flash.c ****   assert_param(IS_FUNCTIONAL_STATE(NewState));
1135:./Library/stm32f4xx_flash.c ****     
1136:./Library/stm32f4xx_flash.c ****   status = FLASH_WaitForLastOperation();
1137:./Library/stm32f4xx_flash.c **** 
1138:./Library/stm32f4xx_flash.c ****   if(status == FLASH_COMPLETE)
1139:./Library/stm32f4xx_flash.c ****   { 
1140:./Library/stm32f4xx_flash.c ****     if(NewState != DISABLE)
1141:./Library/stm32f4xx_flash.c ****     {
1142:./Library/stm32f4xx_flash.c ****       *(__IO uint16_t*)OPTCR_BYTE2_ADDRESS |= (uint16_t)OB_PCROP;    
1143:./Library/stm32f4xx_flash.c ****     }
1144:./Library/stm32f4xx_flash.c ****     else
1145:./Library/stm32f4xx_flash.c ****     {
1146:./Library/stm32f4xx_flash.c ****       *(__IO uint16_t*)OPTCR_BYTE2_ADDRESS &= (~OB_PCROP);
1147:./Library/stm32f4xx_flash.c ****     }
1148:./Library/stm32f4xx_flash.c ****   }
1149:./Library/stm32f4xx_flash.c **** }
1150:./Library/stm32f4xx_flash.c **** 
1151:./Library/stm32f4xx_flash.c **** /**
1152:./Library/stm32f4xx_flash.c ****    * @brief Enables or disables the read/write protection (PCROP) of the desired 
1153:./Library/stm32f4xx_flash.c ****   *         sectors
1154:./Library/stm32f4xx_flash.c ****   *           
1155:./Library/stm32f4xx_flash.c ****   * @note   This function can be used only for STM32F42xxx/43xxx devices.
1156:./Library/stm32f4xx_flash.c ****   *   
1157:./Library/stm32f4xx_flash.c ****   * @param  OB_PCROP: specifies the sector(s) to be read/write protected or unprotected.
1158:./Library/stm32f4xx_flash.c ****   *          This parameter can be one of the following values:
1159:./Library/stm32f4xx_flash.c ****   *            @arg OB_PCROP: A value between OB_PCROP_Sector12 and OB_PCROP_Sector23 
1160:./Library/stm32f4xx_flash.c ****   *            @arg OB_PCROP_Sector_All
1161:./Library/stm32f4xx_flash.c ****   * @param  Newstate: new state of the Write Protection.
1162:./Library/stm32f4xx_flash.c ****   *          This parameter can be: ENABLE or DISABLE.
1163:./Library/stm32f4xx_flash.c ****   * @retval None  
1164:./Library/stm32f4xx_flash.c ****   */
1165:./Library/stm32f4xx_flash.c **** void FLASH_OB_PCROP1Config(uint32_t OB_PCROP, FunctionalState NewState)
1166:./Library/stm32f4xx_flash.c **** { 
1167:./Library/stm32f4xx_flash.c ****   FLASH_Status status = FLASH_COMPLETE;
1168:./Library/stm32f4xx_flash.c ****   
1169:./Library/stm32f4xx_flash.c ****   /* Check the parameters */
1170:./Library/stm32f4xx_flash.c ****   assert_param(IS_OB_PCROP(OB_PCROP));
1171:./Library/stm32f4xx_flash.c ****   assert_param(IS_FUNCTIONAL_STATE(NewState));
1172:./Library/stm32f4xx_flash.c ****     
1173:./Library/stm32f4xx_flash.c ****   status = FLASH_WaitForLastOperation();
1174:./Library/stm32f4xx_flash.c **** 
1175:./Library/stm32f4xx_flash.c ****   if(status == FLASH_COMPLETE)
1176:./Library/stm32f4xx_flash.c ****   { 
1177:./Library/stm32f4xx_flash.c ****     if(NewState != DISABLE)
1178:./Library/stm32f4xx_flash.c ****     {
1179:./Library/stm32f4xx_flash.c ****       *(__IO uint16_t*)OPTCR1_BYTE2_ADDRESS |= (uint16_t)OB_PCROP;
1180:./Library/stm32f4xx_flash.c ****     }
1181:./Library/stm32f4xx_flash.c ****     else
1182:./Library/stm32f4xx_flash.c ****     {
1183:./Library/stm32f4xx_flash.c ****       *(__IO uint16_t*)OPTCR1_BYTE2_ADDRESS &= (~OB_PCROP);
1184:./Library/stm32f4xx_flash.c ****     }
1185:./Library/stm32f4xx_flash.c ****   }
1186:./Library/stm32f4xx_flash.c **** }
1187:./Library/stm32f4xx_flash.c **** 
1188:./Library/stm32f4xx_flash.c **** 
ARM GAS  /var/folders/yl/_q9l42k90g1g4mdhbs226msm0000gn/T//ccpYyaD8.s 			page 29


1189:./Library/stm32f4xx_flash.c **** /**
1190:./Library/stm32f4xx_flash.c ****   * @brief  Sets the read protection level.
1191:./Library/stm32f4xx_flash.c ****   * @param  OB_RDP: specifies the read protection level.
1192:./Library/stm32f4xx_flash.c ****   *          This parameter can be one of the following values:
1193:./Library/stm32f4xx_flash.c ****   *            @arg OB_RDP_Level_0: No protection
1194:./Library/stm32f4xx_flash.c ****   *            @arg OB_RDP_Level_1: Read protection of the memory
1195:./Library/stm32f4xx_flash.c ****   *            @arg OB_RDP_Level_2: Full chip protection
1196:./Library/stm32f4xx_flash.c ****   *   
1197:./Library/stm32f4xx_flash.c ****   * /!\ Warning /!\ When enabling OB_RDP level 2 it's no more possible to go back to level 1 or 0
1198:./Library/stm32f4xx_flash.c ****   *    
1199:./Library/stm32f4xx_flash.c ****   * @retval None
1200:./Library/stm32f4xx_flash.c ****   */
1201:./Library/stm32f4xx_flash.c **** void FLASH_OB_RDPConfig(uint8_t OB_RDP)
1202:./Library/stm32f4xx_flash.c **** {
1203:./Library/stm32f4xx_flash.c ****   FLASH_Status status = FLASH_COMPLETE;
1204:./Library/stm32f4xx_flash.c **** 
1205:./Library/stm32f4xx_flash.c ****   /* Check the parameters */
1206:./Library/stm32f4xx_flash.c ****   assert_param(IS_OB_RDP(OB_RDP));
1207:./Library/stm32f4xx_flash.c **** 
1208:./Library/stm32f4xx_flash.c ****   status = FLASH_WaitForLastOperation();
1209:./Library/stm32f4xx_flash.c **** 
1210:./Library/stm32f4xx_flash.c ****   if(status == FLASH_COMPLETE)
1211:./Library/stm32f4xx_flash.c ****   {
1212:./Library/stm32f4xx_flash.c ****     *(__IO uint8_t*)OPTCR_BYTE1_ADDRESS = OB_RDP;
1213:./Library/stm32f4xx_flash.c **** 
1214:./Library/stm32f4xx_flash.c ****   }
1215:./Library/stm32f4xx_flash.c **** }
1216:./Library/stm32f4xx_flash.c **** 
1217:./Library/stm32f4xx_flash.c **** /**
1218:./Library/stm32f4xx_flash.c ****   * @brief  Programs the FLASH User Option Byte: IWDG_SW / RST_STOP / RST_STDBY.    
1219:./Library/stm32f4xx_flash.c ****   * @param  OB_IWDG: Selects the IWDG mode
1220:./Library/stm32f4xx_flash.c ****   *          This parameter can be one of the following values:
1221:./Library/stm32f4xx_flash.c ****   *            @arg OB_IWDG_SW: Software IWDG selected
1222:./Library/stm32f4xx_flash.c ****   *            @arg OB_IWDG_HW: Hardware IWDG selected
1223:./Library/stm32f4xx_flash.c ****   * @param  OB_STOP: Reset event when entering STOP mode.
1224:./Library/stm32f4xx_flash.c ****   *          This parameter  can be one of the following values:
1225:./Library/stm32f4xx_flash.c ****   *            @arg OB_STOP_NoRST: No reset generated when entering in STOP
1226:./Library/stm32f4xx_flash.c ****   *            @arg OB_STOP_RST: Reset generated when entering in STOP
1227:./Library/stm32f4xx_flash.c ****   * @param  OB_STDBY: Reset event when entering Standby mode.
1228:./Library/stm32f4xx_flash.c ****   *          This parameter  can be one of the following values:
1229:./Library/stm32f4xx_flash.c ****   *            @arg OB_STDBY_NoRST: No reset generated when entering in STANDBY
1230:./Library/stm32f4xx_flash.c ****   *            @arg OB_STDBY_RST: Reset generated when entering in STANDBY
1231:./Library/stm32f4xx_flash.c ****   * @retval None
1232:./Library/stm32f4xx_flash.c ****   */
1233:./Library/stm32f4xx_flash.c **** void FLASH_OB_UserConfig(uint8_t OB_IWDG, uint8_t OB_STOP, uint8_t OB_STDBY)
1234:./Library/stm32f4xx_flash.c **** {
1235:./Library/stm32f4xx_flash.c ****   uint8_t optiontmp = 0xFF;
1236:./Library/stm32f4xx_flash.c ****   FLASH_Status status = FLASH_COMPLETE; 
1237:./Library/stm32f4xx_flash.c **** 
1238:./Library/stm32f4xx_flash.c ****   /* Check the parameters */
1239:./Library/stm32f4xx_flash.c ****   assert_param(IS_OB_IWDG_SOURCE(OB_IWDG));
1240:./Library/stm32f4xx_flash.c ****   assert_param(IS_OB_STOP_SOURCE(OB_STOP));
1241:./Library/stm32f4xx_flash.c ****   assert_param(IS_OB_STDBY_SOURCE(OB_STDBY));
1242:./Library/stm32f4xx_flash.c **** 
1243:./Library/stm32f4xx_flash.c ****   /* Wait for last operation to be completed */
1244:./Library/stm32f4xx_flash.c ****   status = FLASH_WaitForLastOperation();
1245:./Library/stm32f4xx_flash.c ****   
ARM GAS  /var/folders/yl/_q9l42k90g1g4mdhbs226msm0000gn/T//ccpYyaD8.s 			page 30


1246:./Library/stm32f4xx_flash.c ****   if(status == FLASH_COMPLETE)
1247:./Library/stm32f4xx_flash.c ****   { 
1248:./Library/stm32f4xx_flash.c **** #if defined(STM32F427_437xx) || defined(STM32F429_439xx) || defined(STM32F469_479xx)
1249:./Library/stm32f4xx_flash.c ****     /* Mask OPTLOCK, OPTSTRT, BOR_LEV and BFB2 bits */
1250:./Library/stm32f4xx_flash.c ****     optiontmp =  (uint8_t)((*(__IO uint8_t *)OPTCR_BYTE0_ADDRESS) & (uint8_t)0x1F);
1251:./Library/stm32f4xx_flash.c **** #endif /* STM32F427_437xx ||  STM32F429_439xx ||  STM32F469_479xx */
1252:./Library/stm32f4xx_flash.c **** 
1253:./Library/stm32f4xx_flash.c **** #if defined(STM32F40_41xxx) || defined(STM32F401xx) || defined(STM32F410xx) || defined(STM32F411xE)
1254:./Library/stm32f4xx_flash.c ****     /* Mask OPTLOCK, OPTSTRT and BOR_LEV bits */
1255:./Library/stm32f4xx_flash.c ****     optiontmp =  (uint8_t)((*(__IO uint8_t *)OPTCR_BYTE0_ADDRESS) & (uint8_t)0x0F); 
1256:./Library/stm32f4xx_flash.c **** #endif /* STM32F40_41xxx || STM32F401xx || STM32F410xx || STM32F411xE || STM32F446xx */ 
1257:./Library/stm32f4xx_flash.c **** 
1258:./Library/stm32f4xx_flash.c ****     /* Update User Option Byte */
1259:./Library/stm32f4xx_flash.c ****     *(__IO uint8_t *)OPTCR_BYTE0_ADDRESS = OB_IWDG | (uint8_t)(OB_STDBY | (uint8_t)(OB_STOP | ((uin
1260:./Library/stm32f4xx_flash.c ****   }  
1261:./Library/stm32f4xx_flash.c **** }
1262:./Library/stm32f4xx_flash.c **** 
1263:./Library/stm32f4xx_flash.c **** /**
1264:./Library/stm32f4xx_flash.c ****   * @brief  Configure the Dual Bank Boot.
1265:./Library/stm32f4xx_flash.c ****   *   
1266:./Library/stm32f4xx_flash.c ****   * @note   This function can be used only for STM32F42xxx/43xxx devices.
1267:./Library/stm32f4xx_flash.c ****   *      
1268:./Library/stm32f4xx_flash.c ****   * @param  OB_BOOT: specifies the Dual Bank Boot Option byte.
1269:./Library/stm32f4xx_flash.c ****   *          This parameter can be one of the following values:
1270:./Library/stm32f4xx_flash.c ****   *            @arg OB_Dual_BootEnabled: Dual Bank Boot Enable
1271:./Library/stm32f4xx_flash.c ****   *            @arg OB_Dual_BootDisabled: Dual Bank Boot Disabled
1272:./Library/stm32f4xx_flash.c ****   * @retval None
1273:./Library/stm32f4xx_flash.c ****   */
1274:./Library/stm32f4xx_flash.c **** void FLASH_OB_BootConfig(uint8_t OB_BOOT)
1275:./Library/stm32f4xx_flash.c **** {
 428              		.loc 1 1275 1 is_stmt 1 view -0
 429              		.cfi_startproc
 430              		@ args = 0, pretend = 0, frame = 0
 431              		@ frame_needed = 0, uses_anonymous_args = 0
 432              		@ link register save eliminated.
1276:./Library/stm32f4xx_flash.c ****   /* Check the parameters */
1277:./Library/stm32f4xx_flash.c ****   assert_param(IS_OB_BOOT(OB_BOOT));
 433              		.loc 1 1277 3 view .LVU79
1278:./Library/stm32f4xx_flash.c **** 
1279:./Library/stm32f4xx_flash.c ****   /* Set Dual Bank Boot */
1280:./Library/stm32f4xx_flash.c ****   *(__IO uint8_t *)OPTCR_BYTE0_ADDRESS &= (~FLASH_OPTCR_BFB2);
 434              		.loc 1 1280 3 view .LVU80
 435              		.loc 1 1280 40 is_stmt 0 view .LVU81
 436 0000 044B     		ldr	r3, .L44
 437 0002 197D     		ldrb	r1, [r3, #20]	@ zero_extendqisi2
 438 0004 01F0EF01 		and	r1, r1, #239
 439 0008 1975     		strb	r1, [r3, #20]
1281:./Library/stm32f4xx_flash.c ****   *(__IO uint8_t *)OPTCR_BYTE0_ADDRESS |= OB_BOOT;
 440              		.loc 1 1281 3 is_stmt 1 view .LVU82
 441              		.loc 1 1281 40 is_stmt 0 view .LVU83
 442 000a 1A7D     		ldrb	r2, [r3, #20]	@ zero_extendqisi2
 443 000c 0243     		orrs	r2, r2, r0
 444 000e 1A75     		strb	r2, [r3, #20]
1282:./Library/stm32f4xx_flash.c **** 
1283:./Library/stm32f4xx_flash.c **** }
 445              		.loc 1 1283 1 view .LVU84
 446 0010 7047     		bx	lr
ARM GAS  /var/folders/yl/_q9l42k90g1g4mdhbs226msm0000gn/T//ccpYyaD8.s 			page 31


 447              	.L45:
 448 0012 00BF     		.align	2
 449              	.L44:
 450 0014 003C0240 		.word	1073888256
 451              		.cfi_endproc
 452              	.LFE148:
 454              		.section	.text.FLASH_OB_BORConfig,"ax",%progbits
 455              		.align	1
 456              		.global	FLASH_OB_BORConfig
 457              		.syntax unified
 458              		.thumb
 459              		.thumb_func
 461              	FLASH_OB_BORConfig:
 462              	.LVL9:
 463              	.LFB149:
1284:./Library/stm32f4xx_flash.c **** 
1285:./Library/stm32f4xx_flash.c **** /**
1286:./Library/stm32f4xx_flash.c ****   * @brief  Sets the BOR Level. 
1287:./Library/stm32f4xx_flash.c ****   * @param  OB_BOR: specifies the Option Bytes BOR Reset Level.
1288:./Library/stm32f4xx_flash.c ****   *          This parameter can be one of the following values:
1289:./Library/stm32f4xx_flash.c ****   *            @arg OB_BOR_LEVEL3: Supply voltage ranges from 2.7 to 3.6 V
1290:./Library/stm32f4xx_flash.c ****   *            @arg OB_BOR_LEVEL2: Supply voltage ranges from 2.4 to 2.7 V
1291:./Library/stm32f4xx_flash.c ****   *            @arg OB_BOR_LEVEL1: Supply voltage ranges from 2.1 to 2.4 V
1292:./Library/stm32f4xx_flash.c ****   *            @arg OB_BOR_OFF: Supply voltage ranges from 1.62 to 2.1 V
1293:./Library/stm32f4xx_flash.c ****   * @retval None
1294:./Library/stm32f4xx_flash.c ****   */
1295:./Library/stm32f4xx_flash.c **** void FLASH_OB_BORConfig(uint8_t OB_BOR)
1296:./Library/stm32f4xx_flash.c **** {
 464              		.loc 1 1296 1 is_stmt 1 view -0
 465              		.cfi_startproc
 466              		@ args = 0, pretend = 0, frame = 0
 467              		@ frame_needed = 0, uses_anonymous_args = 0
 468              		@ link register save eliminated.
1297:./Library/stm32f4xx_flash.c ****   /* Check the parameters */
1298:./Library/stm32f4xx_flash.c ****   assert_param(IS_OB_BOR(OB_BOR));
 469              		.loc 1 1298 3 view .LVU86
1299:./Library/stm32f4xx_flash.c **** 
1300:./Library/stm32f4xx_flash.c ****   /* Set the BOR Level */
1301:./Library/stm32f4xx_flash.c ****   *(__IO uint8_t *)OPTCR_BYTE0_ADDRESS &= (~FLASH_OPTCR_BOR_LEV);
 470              		.loc 1 1301 3 view .LVU87
 471              		.loc 1 1301 40 is_stmt 0 view .LVU88
 472 0000 044B     		ldr	r3, .L47
 473 0002 197D     		ldrb	r1, [r3, #20]	@ zero_extendqisi2
 474 0004 01F0F301 		and	r1, r1, #243
 475 0008 1975     		strb	r1, [r3, #20]
1302:./Library/stm32f4xx_flash.c ****   *(__IO uint8_t *)OPTCR_BYTE0_ADDRESS |= OB_BOR;
 476              		.loc 1 1302 3 is_stmt 1 view .LVU89
 477              		.loc 1 1302 40 is_stmt 0 view .LVU90
 478 000a 1A7D     		ldrb	r2, [r3, #20]	@ zero_extendqisi2
 479 000c 0243     		orrs	r2, r2, r0
 480 000e 1A75     		strb	r2, [r3, #20]
1303:./Library/stm32f4xx_flash.c **** 
1304:./Library/stm32f4xx_flash.c **** }
 481              		.loc 1 1304 1 view .LVU91
 482 0010 7047     		bx	lr
 483              	.L48:
 484 0012 00BF     		.align	2
ARM GAS  /var/folders/yl/_q9l42k90g1g4mdhbs226msm0000gn/T//ccpYyaD8.s 			page 32


 485              	.L47:
 486 0014 003C0240 		.word	1073888256
 487              		.cfi_endproc
 488              	.LFE149:
 490              		.section	.text.FLASH_OB_GetUser,"ax",%progbits
 491              		.align	1
 492              		.global	FLASH_OB_GetUser
 493              		.syntax unified
 494              		.thumb
 495              		.thumb_func
 497              	FLASH_OB_GetUser:
 498              	.LFB151:
1305:./Library/stm32f4xx_flash.c **** 
1306:./Library/stm32f4xx_flash.c **** /**
1307:./Library/stm32f4xx_flash.c ****   * @brief  Launch the option byte loading.
1308:./Library/stm32f4xx_flash.c ****   * @param  None
1309:./Library/stm32f4xx_flash.c ****   * @retval FLASH Status: The returned value can be: FLASH_BUSY, FLASH_ERROR_PROGRAM,
1310:./Library/stm32f4xx_flash.c ****   *                       FLASH_ERROR_WRP, FLASH_ERROR_OPERATION or FLASH_COMPLETE.
1311:./Library/stm32f4xx_flash.c ****   */
1312:./Library/stm32f4xx_flash.c **** FLASH_Status FLASH_OB_Launch(void)
1313:./Library/stm32f4xx_flash.c **** {
1314:./Library/stm32f4xx_flash.c ****   FLASH_Status status = FLASH_COMPLETE;
1315:./Library/stm32f4xx_flash.c **** 
1316:./Library/stm32f4xx_flash.c ****   /* Set the OPTSTRT bit in OPTCR register */
1317:./Library/stm32f4xx_flash.c ****   *(__IO uint8_t *)OPTCR_BYTE0_ADDRESS |= FLASH_OPTCR_OPTSTRT;
1318:./Library/stm32f4xx_flash.c **** 
1319:./Library/stm32f4xx_flash.c ****   /* Wait for last operation to be completed */
1320:./Library/stm32f4xx_flash.c ****   status = FLASH_WaitForLastOperation();
1321:./Library/stm32f4xx_flash.c **** 
1322:./Library/stm32f4xx_flash.c ****   return status;
1323:./Library/stm32f4xx_flash.c **** }
1324:./Library/stm32f4xx_flash.c **** 
1325:./Library/stm32f4xx_flash.c **** /**
1326:./Library/stm32f4xx_flash.c ****   * @brief  Returns the FLASH User Option Bytes values.
1327:./Library/stm32f4xx_flash.c ****   * @param  None
1328:./Library/stm32f4xx_flash.c ****   * @retval The FLASH User Option Bytes values: IWDG_SW(Bit0), RST_STOP(Bit1)
1329:./Library/stm32f4xx_flash.c ****   *         and RST_STDBY(Bit2).
1330:./Library/stm32f4xx_flash.c ****   */
1331:./Library/stm32f4xx_flash.c **** uint8_t FLASH_OB_GetUser(void)
1332:./Library/stm32f4xx_flash.c **** {
 499              		.loc 1 1332 1 is_stmt 1 view -0
 500              		.cfi_startproc
 501              		@ args = 0, pretend = 0, frame = 0
 502              		@ frame_needed = 0, uses_anonymous_args = 0
 503              		@ link register save eliminated.
1333:./Library/stm32f4xx_flash.c ****   /* Return the User Option Byte */
1334:./Library/stm32f4xx_flash.c ****   return (uint8_t)(FLASH->OPTCR >> 5);
 504              		.loc 1 1334 3 view .LVU93
 505              		.loc 1 1334 25 is_stmt 0 view .LVU94
 506 0000 024B     		ldr	r3, .L50
 507 0002 5869     		ldr	r0, [r3, #20]
1335:./Library/stm32f4xx_flash.c **** }
 508              		.loc 1 1335 1 view .LVU95
 509 0004 C0F34710 		ubfx	r0, r0, #5, #8
 510 0008 7047     		bx	lr
 511              	.L51:
 512 000a 00BF     		.align	2
ARM GAS  /var/folders/yl/_q9l42k90g1g4mdhbs226msm0000gn/T//ccpYyaD8.s 			page 33


 513              	.L50:
 514 000c 003C0240 		.word	1073888256
 515              		.cfi_endproc
 516              	.LFE151:
 518              		.section	.text.FLASH_OB_GetWRP,"ax",%progbits
 519              		.align	1
 520              		.global	FLASH_OB_GetWRP
 521              		.syntax unified
 522              		.thumb
 523              		.thumb_func
 525              	FLASH_OB_GetWRP:
 526              	.LFB152:
1336:./Library/stm32f4xx_flash.c **** 
1337:./Library/stm32f4xx_flash.c **** /**
1338:./Library/stm32f4xx_flash.c ****   * @brief  Returns the FLASH Write Protection Option Bytes value.
1339:./Library/stm32f4xx_flash.c ****   * @param  None
1340:./Library/stm32f4xx_flash.c ****   * @retval The FLASH Write Protection  Option Bytes value
1341:./Library/stm32f4xx_flash.c ****   */
1342:./Library/stm32f4xx_flash.c **** uint16_t FLASH_OB_GetWRP(void)
1343:./Library/stm32f4xx_flash.c **** {
 527              		.loc 1 1343 1 is_stmt 1 view -0
 528              		.cfi_startproc
 529              		@ args = 0, pretend = 0, frame = 0
 530              		@ frame_needed = 0, uses_anonymous_args = 0
 531              		@ link register save eliminated.
1344:./Library/stm32f4xx_flash.c ****   /* Return the FLASH write protection Register value */
1345:./Library/stm32f4xx_flash.c ****   return (*(__IO uint16_t *)(OPTCR_BYTE2_ADDRESS));
 532              		.loc 1 1345 3 view .LVU97
 533              		.loc 1 1345 11 is_stmt 0 view .LVU98
 534 0000 014B     		ldr	r3, .L53
 535 0002 D88A     		ldrh	r0, [r3, #22]
1346:./Library/stm32f4xx_flash.c **** }
 536              		.loc 1 1346 1 view .LVU99
 537 0004 80B2     		uxth	r0, r0
 538 0006 7047     		bx	lr
 539              	.L54:
 540              		.align	2
 541              	.L53:
 542 0008 003C0240 		.word	1073888256
 543              		.cfi_endproc
 544              	.LFE152:
 546              		.section	.text.FLASH_OB_GetWRP1,"ax",%progbits
 547              		.align	1
 548              		.global	FLASH_OB_GetWRP1
 549              		.syntax unified
 550              		.thumb
 551              		.thumb_func
 553              	FLASH_OB_GetWRP1:
 554              	.LFB153:
1347:./Library/stm32f4xx_flash.c **** 
1348:./Library/stm32f4xx_flash.c **** /**
1349:./Library/stm32f4xx_flash.c ****   * @brief  Returns the FLASH Write Protection Option Bytes value.
1350:./Library/stm32f4xx_flash.c ****   *   
1351:./Library/stm32f4xx_flash.c ****   * @note   This function can be used only for STM32F42xxx/43xxx devices.
1352:./Library/stm32f4xx_flash.c ****   *   
1353:./Library/stm32f4xx_flash.c ****   * @param  None
1354:./Library/stm32f4xx_flash.c ****   * @retval The FLASH Write Protection  Option Bytes value
ARM GAS  /var/folders/yl/_q9l42k90g1g4mdhbs226msm0000gn/T//ccpYyaD8.s 			page 34


1355:./Library/stm32f4xx_flash.c ****   */
1356:./Library/stm32f4xx_flash.c **** uint16_t FLASH_OB_GetWRP1(void)
1357:./Library/stm32f4xx_flash.c **** {
 555              		.loc 1 1357 1 is_stmt 1 view -0
 556              		.cfi_startproc
 557              		@ args = 0, pretend = 0, frame = 0
 558              		@ frame_needed = 0, uses_anonymous_args = 0
 559              		@ link register save eliminated.
1358:./Library/stm32f4xx_flash.c ****   /* Return the FLASH write protection Register value */
1359:./Library/stm32f4xx_flash.c ****   return (*(__IO uint16_t *)(OPTCR1_BYTE2_ADDRESS));
 560              		.loc 1 1359 3 view .LVU101
 561              		.loc 1 1359 11 is_stmt 0 view .LVU102
 562 0000 014B     		ldr	r3, .L56
 563 0002 588B     		ldrh	r0, [r3, #26]
1360:./Library/stm32f4xx_flash.c **** }
 564              		.loc 1 1360 1 view .LVU103
 565 0004 80B2     		uxth	r0, r0
 566 0006 7047     		bx	lr
 567              	.L57:
 568              		.align	2
 569              	.L56:
 570 0008 003C0240 		.word	1073888256
 571              		.cfi_endproc
 572              	.LFE153:
 574              		.section	.text.FLASH_OB_GetPCROP,"ax",%progbits
 575              		.align	1
 576              		.global	FLASH_OB_GetPCROP
 577              		.syntax unified
 578              		.thumb
 579              		.thumb_func
 581              	FLASH_OB_GetPCROP:
 582              	.LFB154:
1361:./Library/stm32f4xx_flash.c **** 
1362:./Library/stm32f4xx_flash.c **** /**
1363:./Library/stm32f4xx_flash.c ****   * @brief  Returns the FLASH PC Read/Write Protection Option Bytes value.
1364:./Library/stm32f4xx_flash.c ****   *   
1365:./Library/stm32f4xx_flash.c ****   * @note   This function can be used only for STM32F42xxx/43xxx devices and STM32F401xx/411xE devi
1366:./Library/stm32f4xx_flash.c ****   *   
1367:./Library/stm32f4xx_flash.c ****   * @param  None
1368:./Library/stm32f4xx_flash.c ****   * @retval The FLASH PC Read/Write Protection Option Bytes value
1369:./Library/stm32f4xx_flash.c ****   */
1370:./Library/stm32f4xx_flash.c **** uint16_t FLASH_OB_GetPCROP(void)
1371:./Library/stm32f4xx_flash.c **** {
 583              		.loc 1 1371 1 is_stmt 1 view -0
 584              		.cfi_startproc
 585              		@ args = 0, pretend = 0, frame = 0
 586              		@ frame_needed = 0, uses_anonymous_args = 0
 587              		@ link register save eliminated.
1372:./Library/stm32f4xx_flash.c ****   /* Return the FLASH PC Read/write protection Register value */
1373:./Library/stm32f4xx_flash.c ****   return (*(__IO uint16_t *)(OPTCR_BYTE2_ADDRESS));
 588              		.loc 1 1373 3 view .LVU105
 589              		.loc 1 1373 11 is_stmt 0 view .LVU106
 590 0000 014B     		ldr	r3, .L59
 591 0002 D88A     		ldrh	r0, [r3, #22]
1374:./Library/stm32f4xx_flash.c **** }
 592              		.loc 1 1374 1 view .LVU107
 593 0004 80B2     		uxth	r0, r0
ARM GAS  /var/folders/yl/_q9l42k90g1g4mdhbs226msm0000gn/T//ccpYyaD8.s 			page 35


 594 0006 7047     		bx	lr
 595              	.L60:
 596              		.align	2
 597              	.L59:
 598 0008 003C0240 		.word	1073888256
 599              		.cfi_endproc
 600              	.LFE154:
 602              		.section	.text.FLASH_OB_GetPCROP1,"ax",%progbits
 603              		.align	1
 604              		.global	FLASH_OB_GetPCROP1
 605              		.syntax unified
 606              		.thumb
 607              		.thumb_func
 609              	FLASH_OB_GetPCROP1:
 610              	.LFB155:
1375:./Library/stm32f4xx_flash.c **** 
1376:./Library/stm32f4xx_flash.c **** /**
1377:./Library/stm32f4xx_flash.c ****   * @brief  Returns the FLASH PC Read/Write Protection Option Bytes value.
1378:./Library/stm32f4xx_flash.c ****   *   
1379:./Library/stm32f4xx_flash.c ****   * @note   This function can be used only for STM32F42xxx/43xxx devices. 
1380:./Library/stm32f4xx_flash.c ****   *     
1381:./Library/stm32f4xx_flash.c ****   * @param  None
1382:./Library/stm32f4xx_flash.c ****   * @retval The FLASH PC Read/Write Protection Option Bytes value
1383:./Library/stm32f4xx_flash.c ****   */
1384:./Library/stm32f4xx_flash.c **** uint16_t FLASH_OB_GetPCROP1(void)
1385:./Library/stm32f4xx_flash.c **** {
 611              		.loc 1 1385 1 is_stmt 1 view -0
 612              		.cfi_startproc
 613              		@ args = 0, pretend = 0, frame = 0
 614              		@ frame_needed = 0, uses_anonymous_args = 0
 615              		@ link register save eliminated.
1386:./Library/stm32f4xx_flash.c ****   /* Return the FLASH write protection Register value */
1387:./Library/stm32f4xx_flash.c ****   return (*(__IO uint16_t *)(OPTCR1_BYTE2_ADDRESS));
 616              		.loc 1 1387 3 view .LVU109
 617              		.loc 1 1387 11 is_stmt 0 view .LVU110
 618 0000 014B     		ldr	r3, .L62
 619 0002 588B     		ldrh	r0, [r3, #26]
1388:./Library/stm32f4xx_flash.c **** }
 620              		.loc 1 1388 1 view .LVU111
 621 0004 80B2     		uxth	r0, r0
 622 0006 7047     		bx	lr
 623              	.L63:
 624              		.align	2
 625              	.L62:
 626 0008 003C0240 		.word	1073888256
 627              		.cfi_endproc
 628              	.LFE155:
 630              		.section	.text.FLASH_OB_GetRDP,"ax",%progbits
 631              		.align	1
 632              		.global	FLASH_OB_GetRDP
 633              		.syntax unified
 634              		.thumb
 635              		.thumb_func
 637              	FLASH_OB_GetRDP:
 638              	.LFB156:
1389:./Library/stm32f4xx_flash.c **** 
1390:./Library/stm32f4xx_flash.c **** /**
ARM GAS  /var/folders/yl/_q9l42k90g1g4mdhbs226msm0000gn/T//ccpYyaD8.s 			page 36


1391:./Library/stm32f4xx_flash.c ****   * @brief  Returns the FLASH Read Protection level.
1392:./Library/stm32f4xx_flash.c ****   * @param  None
1393:./Library/stm32f4xx_flash.c ****   * @retval FLASH ReadOut Protection Status:
1394:./Library/stm32f4xx_flash.c ****   *           - SET, when OB_RDP_Level_1 or OB_RDP_Level_2 is set
1395:./Library/stm32f4xx_flash.c ****   *           - RESET, when OB_RDP_Level_0 is set
1396:./Library/stm32f4xx_flash.c ****   */
1397:./Library/stm32f4xx_flash.c **** FlagStatus FLASH_OB_GetRDP(void)
1398:./Library/stm32f4xx_flash.c **** {
 639              		.loc 1 1398 1 is_stmt 1 view -0
 640              		.cfi_startproc
 641              		@ args = 0, pretend = 0, frame = 0
 642              		@ frame_needed = 0, uses_anonymous_args = 0
 643              		@ link register save eliminated.
1399:./Library/stm32f4xx_flash.c ****   FlagStatus readstatus = RESET;
 644              		.loc 1 1399 3 view .LVU113
 645              	.LVL10:
1400:./Library/stm32f4xx_flash.c **** 
1401:./Library/stm32f4xx_flash.c ****   if ((*(__IO uint8_t*)(OPTCR_BYTE1_ADDRESS) != (uint8_t)OB_RDP_Level_0))
 646              		.loc 1 1401 3 view .LVU114
 647              		.loc 1 1401 8 is_stmt 0 view .LVU115
 648 0000 044B     		ldr	r3, .L67
 649 0002 5B7D     		ldrb	r3, [r3, #21]	@ zero_extendqisi2
 650 0004 DBB2     		uxtb	r3, r3
 651              		.loc 1 1401 6 view .LVU116
 652 0006 AA2B     		cmp	r3, #170
 653 0008 01D0     		beq	.L66
1402:./Library/stm32f4xx_flash.c ****   {
1403:./Library/stm32f4xx_flash.c ****     readstatus = SET;
 654              		.loc 1 1403 16 view .LVU117
 655 000a 0120     		movs	r0, #1
 656 000c 7047     		bx	lr
 657              	.L66:
1404:./Library/stm32f4xx_flash.c ****   }
1405:./Library/stm32f4xx_flash.c ****   else
1406:./Library/stm32f4xx_flash.c ****   {
1407:./Library/stm32f4xx_flash.c ****     readstatus = RESET;
 658              		.loc 1 1407 16 view .LVU118
 659 000e 0020     		movs	r0, #0
 660              	.LVL11:
1408:./Library/stm32f4xx_flash.c ****   }
1409:./Library/stm32f4xx_flash.c ****   return readstatus;
 661              		.loc 1 1409 3 is_stmt 1 view .LVU119
1410:./Library/stm32f4xx_flash.c **** }
 662              		.loc 1 1410 1 is_stmt 0 view .LVU120
 663 0010 7047     		bx	lr
 664              	.L68:
 665 0012 00BF     		.align	2
 666              	.L67:
 667 0014 003C0240 		.word	1073888256
 668              		.cfi_endproc
 669              	.LFE156:
 671              		.section	.text.FLASH_OB_GetBOR,"ax",%progbits
 672              		.align	1
 673              		.global	FLASH_OB_GetBOR
 674              		.syntax unified
 675              		.thumb
 676              		.thumb_func
ARM GAS  /var/folders/yl/_q9l42k90g1g4mdhbs226msm0000gn/T//ccpYyaD8.s 			page 37


 678              	FLASH_OB_GetBOR:
 679              	.LFB157:
1411:./Library/stm32f4xx_flash.c **** 
1412:./Library/stm32f4xx_flash.c **** /**
1413:./Library/stm32f4xx_flash.c ****   * @brief  Returns the FLASH BOR level.
1414:./Library/stm32f4xx_flash.c ****   * @param  None
1415:./Library/stm32f4xx_flash.c ****   * @retval The FLASH BOR level:
1416:./Library/stm32f4xx_flash.c ****   *           - OB_BOR_LEVEL3: Supply voltage ranges from 2.7 to 3.6 V
1417:./Library/stm32f4xx_flash.c ****   *           - OB_BOR_LEVEL2: Supply voltage ranges from 2.4 to 2.7 V
1418:./Library/stm32f4xx_flash.c ****   *           - OB_BOR_LEVEL1: Supply voltage ranges from 2.1 to 2.4 V
1419:./Library/stm32f4xx_flash.c ****   *           - OB_BOR_OFF   : Supply voltage ranges from 1.62 to 2.1 V  
1420:./Library/stm32f4xx_flash.c ****   */
1421:./Library/stm32f4xx_flash.c **** uint8_t FLASH_OB_GetBOR(void)
1422:./Library/stm32f4xx_flash.c **** {
 680              		.loc 1 1422 1 is_stmt 1 view -0
 681              		.cfi_startproc
 682              		@ args = 0, pretend = 0, frame = 0
 683              		@ frame_needed = 0, uses_anonymous_args = 0
 684              		@ link register save eliminated.
1423:./Library/stm32f4xx_flash.c ****   /* Return the FLASH BOR level */
1424:./Library/stm32f4xx_flash.c ****   return (uint8_t)(*(__IO uint8_t *)(OPTCR_BYTE0_ADDRESS) & (uint8_t)0x0C);
 685              		.loc 1 1424 3 view .LVU122
 686              		.loc 1 1424 10 is_stmt 0 view .LVU123
 687 0000 024B     		ldr	r3, .L70
 688 0002 187D     		ldrb	r0, [r3, #20]	@ zero_extendqisi2
1425:./Library/stm32f4xx_flash.c **** }
 689              		.loc 1 1425 1 view .LVU124
 690 0004 00F00C00 		and	r0, r0, #12
 691 0008 7047     		bx	lr
 692              	.L71:
 693 000a 00BF     		.align	2
 694              	.L70:
 695 000c 003C0240 		.word	1073888256
 696              		.cfi_endproc
 697              	.LFE157:
 699              		.section	.text.FLASH_ITConfig,"ax",%progbits
 700              		.align	1
 701              		.global	FLASH_ITConfig
 702              		.syntax unified
 703              		.thumb
 704              		.thumb_func
 706              	FLASH_ITConfig:
 707              	.LVL12:
 708              	.LFB158:
1426:./Library/stm32f4xx_flash.c **** 
1427:./Library/stm32f4xx_flash.c **** /**
1428:./Library/stm32f4xx_flash.c ****   * @}
1429:./Library/stm32f4xx_flash.c ****   */
1430:./Library/stm32f4xx_flash.c **** 
1431:./Library/stm32f4xx_flash.c **** /** @defgroup FLASH_Group4 Interrupts and flags management functions
1432:./Library/stm32f4xx_flash.c ****  *  @brief   Interrupts and flags management functions
1433:./Library/stm32f4xx_flash.c ****  *
1434:./Library/stm32f4xx_flash.c **** @verbatim   
1435:./Library/stm32f4xx_flash.c ****  ===============================================================================
1436:./Library/stm32f4xx_flash.c ****               ##### Interrupts and flags management functions #####
1437:./Library/stm32f4xx_flash.c ****  ===============================================================================  
1438:./Library/stm32f4xx_flash.c **** @endverbatim
ARM GAS  /var/folders/yl/_q9l42k90g1g4mdhbs226msm0000gn/T//ccpYyaD8.s 			page 38


1439:./Library/stm32f4xx_flash.c ****   * @{
1440:./Library/stm32f4xx_flash.c ****   */
1441:./Library/stm32f4xx_flash.c **** 
1442:./Library/stm32f4xx_flash.c **** /**
1443:./Library/stm32f4xx_flash.c ****   * @brief  Enables or disables the specified FLASH interrupts.
1444:./Library/stm32f4xx_flash.c ****   * @param  FLASH_IT: specifies the FLASH interrupt sources to be enabled or disabled.
1445:./Library/stm32f4xx_flash.c ****   *          This parameter can be any combination of the following values:
1446:./Library/stm32f4xx_flash.c ****   *            @arg FLASH_IT_ERR: FLASH Error Interrupt
1447:./Library/stm32f4xx_flash.c ****   *            @arg FLASH_IT_EOP: FLASH end of operation Interrupt
1448:./Library/stm32f4xx_flash.c ****   * @retval None 
1449:./Library/stm32f4xx_flash.c ****   */
1450:./Library/stm32f4xx_flash.c **** void FLASH_ITConfig(uint32_t FLASH_IT, FunctionalState NewState)
1451:./Library/stm32f4xx_flash.c **** {
 709              		.loc 1 1451 1 is_stmt 1 view -0
 710              		.cfi_startproc
 711              		@ args = 0, pretend = 0, frame = 0
 712              		@ frame_needed = 0, uses_anonymous_args = 0
 713              		@ link register save eliminated.
1452:./Library/stm32f4xx_flash.c ****   /* Check the parameters */
1453:./Library/stm32f4xx_flash.c ****   assert_param(IS_FLASH_IT(FLASH_IT)); 
 714              		.loc 1 1453 3 view .LVU126
1454:./Library/stm32f4xx_flash.c ****   assert_param(IS_FUNCTIONAL_STATE(NewState));
 715              		.loc 1 1454 3 view .LVU127
1455:./Library/stm32f4xx_flash.c **** 
1456:./Library/stm32f4xx_flash.c ****   if(NewState != DISABLE)
 716              		.loc 1 1456 3 view .LVU128
 717              		.loc 1 1456 5 is_stmt 0 view .LVU129
 718 0000 21B1     		cbz	r1, .L73
1457:./Library/stm32f4xx_flash.c ****   {
1458:./Library/stm32f4xx_flash.c ****     /* Enable the interrupt sources */
1459:./Library/stm32f4xx_flash.c ****     FLASH->CR |= FLASH_IT;
 719              		.loc 1 1459 5 is_stmt 1 view .LVU130
 720              		.loc 1 1459 15 is_stmt 0 view .LVU131
 721 0002 054A     		ldr	r2, .L75
 722 0004 1369     		ldr	r3, [r2, #16]
 723 0006 1843     		orrs	r0, r0, r3
 724              	.LVL13:
 725              		.loc 1 1459 15 view .LVU132
 726 0008 1061     		str	r0, [r2, #16]
 727 000a 7047     		bx	lr
 728              	.LVL14:
 729              	.L73:
1460:./Library/stm32f4xx_flash.c ****   }
1461:./Library/stm32f4xx_flash.c ****   else
1462:./Library/stm32f4xx_flash.c ****   {
1463:./Library/stm32f4xx_flash.c ****     /* Disable the interrupt sources */
1464:./Library/stm32f4xx_flash.c ****     FLASH->CR &= ~(uint32_t)FLASH_IT;
 730              		.loc 1 1464 5 is_stmt 1 view .LVU133
 731              		.loc 1 1464 15 is_stmt 0 view .LVU134
 732 000c 024A     		ldr	r2, .L75
 733 000e 1369     		ldr	r3, [r2, #16]
 734 0010 23EA0000 		bic	r0, r3, r0
 735              	.LVL15:
 736              		.loc 1 1464 15 view .LVU135
 737 0014 1061     		str	r0, [r2, #16]
1465:./Library/stm32f4xx_flash.c ****   }
1466:./Library/stm32f4xx_flash.c **** }
ARM GAS  /var/folders/yl/_q9l42k90g1g4mdhbs226msm0000gn/T//ccpYyaD8.s 			page 39


 738              		.loc 1 1466 1 view .LVU136
 739 0016 7047     		bx	lr
 740              	.L76:
 741              		.align	2
 742              	.L75:
 743 0018 003C0240 		.word	1073888256
 744              		.cfi_endproc
 745              	.LFE158:
 747              		.section	.text.FLASH_GetFlagStatus,"ax",%progbits
 748              		.align	1
 749              		.global	FLASH_GetFlagStatus
 750              		.syntax unified
 751              		.thumb
 752              		.thumb_func
 754              	FLASH_GetFlagStatus:
 755              	.LVL16:
 756              	.LFB159:
1467:./Library/stm32f4xx_flash.c **** 
1468:./Library/stm32f4xx_flash.c **** /**
1469:./Library/stm32f4xx_flash.c ****   * @brief  Checks whether the specified FLASH flag is set or not.
1470:./Library/stm32f4xx_flash.c ****   * @param  FLASH_FLAG: specifies the FLASH flag to check.
1471:./Library/stm32f4xx_flash.c ****   *          This parameter can be one of the following values:
1472:./Library/stm32f4xx_flash.c ****   *            @arg FLASH_FLAG_EOP: FLASH End of Operation flag 
1473:./Library/stm32f4xx_flash.c ****   *            @arg FLASH_FLAG_OPERR: FLASH operation Error flag 
1474:./Library/stm32f4xx_flash.c ****   *            @arg FLASH_FLAG_WRPERR: FLASH Write protected error flag 
1475:./Library/stm32f4xx_flash.c ****   *            @arg FLASH_FLAG_PGAERR: FLASH Programming Alignment error flag
1476:./Library/stm32f4xx_flash.c ****   *            @arg FLASH_FLAG_PGPERR: FLASH Programming Parallelism error flag
1477:./Library/stm32f4xx_flash.c ****   *            @arg FLASH_FLAG_PGSERR: FLASH Programming Sequence error flag
1478:./Library/stm32f4xx_flash.c ****   *            @arg FLASH_FLAG_RDERR: FLASH (PCROP) Read Protection error flag (STM32F42xx/43xxx an
1479:./Library/stm32f4xx_flash.c ****   *            @arg FLASH_FLAG_BSY: FLASH Busy flag
1480:./Library/stm32f4xx_flash.c ****   * @retval The new state of FLASH_FLAG (SET or RESET).
1481:./Library/stm32f4xx_flash.c ****   */
1482:./Library/stm32f4xx_flash.c **** FlagStatus FLASH_GetFlagStatus(uint32_t FLASH_FLAG)
1483:./Library/stm32f4xx_flash.c **** {
 757              		.loc 1 1483 1 is_stmt 1 view -0
 758              		.cfi_startproc
 759              		@ args = 0, pretend = 0, frame = 0
 760              		@ frame_needed = 0, uses_anonymous_args = 0
 761              		@ link register save eliminated.
1484:./Library/stm32f4xx_flash.c ****   FlagStatus bitstatus = RESET;
 762              		.loc 1 1484 3 view .LVU138
1485:./Library/stm32f4xx_flash.c ****   /* Check the parameters */
1486:./Library/stm32f4xx_flash.c ****   assert_param(IS_FLASH_GET_FLAG(FLASH_FLAG));
 763              		.loc 1 1486 3 view .LVU139
1487:./Library/stm32f4xx_flash.c **** 
1488:./Library/stm32f4xx_flash.c ****   if((FLASH->SR & FLASH_FLAG) != (uint32_t)RESET)
 764              		.loc 1 1488 3 view .LVU140
 765              		.loc 1 1488 12 is_stmt 0 view .LVU141
 766 0000 034B     		ldr	r3, .L80
 767 0002 DB68     		ldr	r3, [r3, #12]
 768              		.loc 1 1488 5 view .LVU142
 769 0004 0342     		tst	r3, r0
 770 0006 01D0     		beq	.L79
1489:./Library/stm32f4xx_flash.c ****   {
1490:./Library/stm32f4xx_flash.c ****     bitstatus = SET;
 771              		.loc 1 1490 15 view .LVU143
 772 0008 0120     		movs	r0, #1
ARM GAS  /var/folders/yl/_q9l42k90g1g4mdhbs226msm0000gn/T//ccpYyaD8.s 			page 40


 773              	.LVL17:
 774              		.loc 1 1490 15 view .LVU144
 775 000a 7047     		bx	lr
 776              	.LVL18:
 777              	.L79:
1491:./Library/stm32f4xx_flash.c ****   }
1492:./Library/stm32f4xx_flash.c ****   else
1493:./Library/stm32f4xx_flash.c ****   {
1494:./Library/stm32f4xx_flash.c ****     bitstatus = RESET;
 778              		.loc 1 1494 15 view .LVU145
 779 000c 0020     		movs	r0, #0
 780              	.LVL19:
1495:./Library/stm32f4xx_flash.c ****   }
1496:./Library/stm32f4xx_flash.c ****   /* Return the new state of FLASH_FLAG (SET or RESET) */
1497:./Library/stm32f4xx_flash.c ****   return bitstatus; 
 781              		.loc 1 1497 3 is_stmt 1 view .LVU146
1498:./Library/stm32f4xx_flash.c **** }
 782              		.loc 1 1498 1 is_stmt 0 view .LVU147
 783 000e 7047     		bx	lr
 784              	.L81:
 785              		.align	2
 786              	.L80:
 787 0010 003C0240 		.word	1073888256
 788              		.cfi_endproc
 789              	.LFE159:
 791              		.section	.text.FLASH_ClearFlag,"ax",%progbits
 792              		.align	1
 793              		.global	FLASH_ClearFlag
 794              		.syntax unified
 795              		.thumb
 796              		.thumb_func
 798              	FLASH_ClearFlag:
 799              	.LVL20:
 800              	.LFB160:
1499:./Library/stm32f4xx_flash.c **** 
1500:./Library/stm32f4xx_flash.c **** /**
1501:./Library/stm32f4xx_flash.c ****   * @brief  Clears the FLASH's pending flags.
1502:./Library/stm32f4xx_flash.c ****   * @param  FLASH_FLAG: specifies the FLASH flags to clear.
1503:./Library/stm32f4xx_flash.c ****   *          This parameter can be any combination of the following values:
1504:./Library/stm32f4xx_flash.c ****   *            @arg FLASH_FLAG_EOP: FLASH End of Operation flag 
1505:./Library/stm32f4xx_flash.c ****   *            @arg FLASH_FLAG_OPERR: FLASH operation Error flag 
1506:./Library/stm32f4xx_flash.c ****   *            @arg FLASH_FLAG_WRPERR: FLASH Write protected error flag 
1507:./Library/stm32f4xx_flash.c ****   *            @arg FLASH_FLAG_PGAERR: FLASH Programming Alignment error flag 
1508:./Library/stm32f4xx_flash.c ****   *            @arg FLASH_FLAG_PGPERR: FLASH Programming Parallelism error flag
1509:./Library/stm32f4xx_flash.c ****   *            @arg FLASH_FLAG_PGSERR: FLASH Programming Sequence error flag
1510:./Library/stm32f4xx_flash.c ****   *            @arg FLASH_FLAG_RDERR: FLASH Read Protection error flag (STM32F42xx/43xxx and STM32F
1511:./Library/stm32f4xx_flash.c ****   * @retval None
1512:./Library/stm32f4xx_flash.c ****   */
1513:./Library/stm32f4xx_flash.c **** void FLASH_ClearFlag(uint32_t FLASH_FLAG)
1514:./Library/stm32f4xx_flash.c **** {
 801              		.loc 1 1514 1 is_stmt 1 view -0
 802              		.cfi_startproc
 803              		@ args = 0, pretend = 0, frame = 0
 804              		@ frame_needed = 0, uses_anonymous_args = 0
 805              		@ link register save eliminated.
1515:./Library/stm32f4xx_flash.c ****   /* Check the parameters */
1516:./Library/stm32f4xx_flash.c ****   assert_param(IS_FLASH_CLEAR_FLAG(FLASH_FLAG));
ARM GAS  /var/folders/yl/_q9l42k90g1g4mdhbs226msm0000gn/T//ccpYyaD8.s 			page 41


 806              		.loc 1 1516 3 view .LVU149
1517:./Library/stm32f4xx_flash.c ****   
1518:./Library/stm32f4xx_flash.c ****   /* Clear the flags */
1519:./Library/stm32f4xx_flash.c ****   FLASH->SR = FLASH_FLAG;
 807              		.loc 1 1519 3 view .LVU150
 808              		.loc 1 1519 13 is_stmt 0 view .LVU151
 809 0000 014B     		ldr	r3, .L83
 810 0002 D860     		str	r0, [r3, #12]
1520:./Library/stm32f4xx_flash.c **** }
 811              		.loc 1 1520 1 view .LVU152
 812 0004 7047     		bx	lr
 813              	.L84:
 814 0006 00BF     		.align	2
 815              	.L83:
 816 0008 003C0240 		.word	1073888256
 817              		.cfi_endproc
 818              	.LFE160:
 820              		.section	.text.FLASH_GetStatus,"ax",%progbits
 821              		.align	1
 822              		.global	FLASH_GetStatus
 823              		.syntax unified
 824              		.thumb
 825              		.thumb_func
 827              	FLASH_GetStatus:
 828              	.LFB161:
1521:./Library/stm32f4xx_flash.c **** 
1522:./Library/stm32f4xx_flash.c **** /**
1523:./Library/stm32f4xx_flash.c ****   * @brief  Returns the FLASH Status.
1524:./Library/stm32f4xx_flash.c ****   * @param  None
1525:./Library/stm32f4xx_flash.c ****   * @retval FLASH Status: The returned value can be: FLASH_BUSY, FLASH_ERROR_PROGRAM,
1526:./Library/stm32f4xx_flash.c ****   *                       FLASH_ERROR_WRP, FLASH_ERROR_RD, FLASH_ERROR_OPERATION or FLASH_COMPLETE.
1527:./Library/stm32f4xx_flash.c ****   */
1528:./Library/stm32f4xx_flash.c **** FLASH_Status FLASH_GetStatus(void)
1529:./Library/stm32f4xx_flash.c **** {
 829              		.loc 1 1529 1 is_stmt 1 view -0
 830              		.cfi_startproc
 831              		@ args = 0, pretend = 0, frame = 0
 832              		@ frame_needed = 0, uses_anonymous_args = 0
 833              		@ link register save eliminated.
1530:./Library/stm32f4xx_flash.c ****   FLASH_Status flashstatus = FLASH_COMPLETE;
 834              		.loc 1 1530 3 view .LVU154
 835              	.LVL21:
1531:./Library/stm32f4xx_flash.c ****   
1532:./Library/stm32f4xx_flash.c ****   if((FLASH->SR & FLASH_FLAG_BSY) == FLASH_FLAG_BSY) 
 836              		.loc 1 1532 3 view .LVU155
 837              		.loc 1 1532 12 is_stmt 0 view .LVU156
 838 0000 124B     		ldr	r3, .L92
 839 0002 DB68     		ldr	r3, [r3, #12]
 840              		.loc 1 1532 5 view .LVU157
 841 0004 13F4803F 		tst	r3, #65536
 842 0008 15D1     		bne	.L87
1533:./Library/stm32f4xx_flash.c ****   {
1534:./Library/stm32f4xx_flash.c ****     flashstatus = FLASH_BUSY;
1535:./Library/stm32f4xx_flash.c ****   }
1536:./Library/stm32f4xx_flash.c ****   else 
1537:./Library/stm32f4xx_flash.c ****   {  
1538:./Library/stm32f4xx_flash.c ****     if((FLASH->SR & FLASH_FLAG_WRPERR) != (uint32_t)0x00)
ARM GAS  /var/folders/yl/_q9l42k90g1g4mdhbs226msm0000gn/T//ccpYyaD8.s 			page 42


 843              		.loc 1 1538 5 is_stmt 1 view .LVU158
 844              		.loc 1 1538 14 is_stmt 0 view .LVU159
 845 000a 104B     		ldr	r3, .L92
 846 000c DB68     		ldr	r3, [r3, #12]
 847              		.loc 1 1538 7 view .LVU160
 848 000e 13F0100F 		tst	r3, #16
 849 0012 12D1     		bne	.L88
1539:./Library/stm32f4xx_flash.c ****     { 
1540:./Library/stm32f4xx_flash.c ****       flashstatus = FLASH_ERROR_WRP;
1541:./Library/stm32f4xx_flash.c ****     }
1542:./Library/stm32f4xx_flash.c ****     else
1543:./Library/stm32f4xx_flash.c ****     {
1544:./Library/stm32f4xx_flash.c ****       if((FLASH->SR & FLASH_FLAG_RDERR) != (uint32_t)0x00)
 850              		.loc 1 1544 7 is_stmt 1 view .LVU161
 851              		.loc 1 1544 16 is_stmt 0 view .LVU162
 852 0014 0D4B     		ldr	r3, .L92
 853 0016 DB68     		ldr	r3, [r3, #12]
 854              		.loc 1 1544 9 view .LVU163
 855 0018 13F4807F 		tst	r3, #256
 856 001c 0FD1     		bne	.L89
1545:./Library/stm32f4xx_flash.c ****       { 
1546:./Library/stm32f4xx_flash.c ****         flashstatus = FLASH_ERROR_RD;
1547:./Library/stm32f4xx_flash.c ****       } 
1548:./Library/stm32f4xx_flash.c ****       else 
1549:./Library/stm32f4xx_flash.c ****       {
1550:./Library/stm32f4xx_flash.c ****         if((FLASH->SR & (uint32_t)0xE0) != (uint32_t)0x00)
 857              		.loc 1 1550 9 is_stmt 1 view .LVU164
 858              		.loc 1 1550 18 is_stmt 0 view .LVU165
 859 001e 0B4B     		ldr	r3, .L92
 860 0020 DB68     		ldr	r3, [r3, #12]
 861              		.loc 1 1550 11 view .LVU166
 862 0022 13F0E00F 		tst	r3, #224
 863 0026 0CD1     		bne	.L90
1551:./Library/stm32f4xx_flash.c ****         {
1552:./Library/stm32f4xx_flash.c ****           flashstatus = FLASH_ERROR_PROGRAM; 
1553:./Library/stm32f4xx_flash.c ****         }
1554:./Library/stm32f4xx_flash.c ****         else
1555:./Library/stm32f4xx_flash.c ****         {
1556:./Library/stm32f4xx_flash.c ****           if((FLASH->SR & FLASH_FLAG_OPERR) != (uint32_t)0x00)
 864              		.loc 1 1556 11 is_stmt 1 view .LVU167
 865              		.loc 1 1556 20 is_stmt 0 view .LVU168
 866 0028 084B     		ldr	r3, .L92
 867 002a DB68     		ldr	r3, [r3, #12]
 868              		.loc 1 1556 13 view .LVU169
 869 002c 13F0020F 		tst	r3, #2
 870 0030 09D0     		beq	.L91
1557:./Library/stm32f4xx_flash.c ****           {
1558:./Library/stm32f4xx_flash.c ****             flashstatus = FLASH_ERROR_OPERATION;
 871              		.loc 1 1558 25 view .LVU170
 872 0032 0820     		movs	r0, #8
 873 0034 7047     		bx	lr
 874              	.L87:
1534:./Library/stm32f4xx_flash.c ****   }
 875              		.loc 1 1534 17 view .LVU171
 876 0036 0120     		movs	r0, #1
 877 0038 7047     		bx	lr
 878              	.L88:
ARM GAS  /var/folders/yl/_q9l42k90g1g4mdhbs226msm0000gn/T//ccpYyaD8.s 			page 43


1540:./Library/stm32f4xx_flash.c ****     }
 879              		.loc 1 1540 19 view .LVU172
 880 003a 0620     		movs	r0, #6
 881 003c 7047     		bx	lr
 882              	.L89:
1546:./Library/stm32f4xx_flash.c ****       } 
 883              		.loc 1 1546 21 view .LVU173
 884 003e 0220     		movs	r0, #2
 885 0040 7047     		bx	lr
 886              	.L90:
1552:./Library/stm32f4xx_flash.c ****         }
 887              		.loc 1 1552 23 view .LVU174
 888 0042 0720     		movs	r0, #7
 889 0044 7047     		bx	lr
 890              	.L91:
1559:./Library/stm32f4xx_flash.c ****           }
1560:./Library/stm32f4xx_flash.c ****           else
1561:./Library/stm32f4xx_flash.c ****           {
1562:./Library/stm32f4xx_flash.c ****             flashstatus = FLASH_COMPLETE;
 891              		.loc 1 1562 25 view .LVU175
 892 0046 0920     		movs	r0, #9
 893              	.LVL22:
1563:./Library/stm32f4xx_flash.c ****           }
1564:./Library/stm32f4xx_flash.c ****         }
1565:./Library/stm32f4xx_flash.c ****       }
1566:./Library/stm32f4xx_flash.c ****     }
1567:./Library/stm32f4xx_flash.c ****   }
1568:./Library/stm32f4xx_flash.c ****   /* Return the FLASH Status */
1569:./Library/stm32f4xx_flash.c ****   return flashstatus;
 894              		.loc 1 1569 3 is_stmt 1 view .LVU176
1570:./Library/stm32f4xx_flash.c **** }
 895              		.loc 1 1570 1 is_stmt 0 view .LVU177
 896 0048 7047     		bx	lr
 897              	.L93:
 898 004a 00BF     		.align	2
 899              	.L92:
 900 004c 003C0240 		.word	1073888256
 901              		.cfi_endproc
 902              	.LFE161:
 904              		.section	.text.FLASH_WaitForLastOperation,"ax",%progbits
 905              		.align	1
 906              		.global	FLASH_WaitForLastOperation
 907              		.syntax unified
 908              		.thumb
 909              		.thumb_func
 911              	FLASH_WaitForLastOperation:
 912              	.LFB162:
1571:./Library/stm32f4xx_flash.c **** 
1572:./Library/stm32f4xx_flash.c **** /**
1573:./Library/stm32f4xx_flash.c ****   * @brief  Waits for a FLASH operation to complete.
1574:./Library/stm32f4xx_flash.c ****   * @param  None
1575:./Library/stm32f4xx_flash.c ****   * @retval FLASH Status: The returned value can be: FLASH_BUSY, FLASH_ERROR_PROGRAM,
1576:./Library/stm32f4xx_flash.c ****   *                       FLASH_ERROR_WRP, FLASH_ERROR_OPERATION or FLASH_COMPLETE.
1577:./Library/stm32f4xx_flash.c ****   */
1578:./Library/stm32f4xx_flash.c **** FLASH_Status FLASH_WaitForLastOperation(void)
1579:./Library/stm32f4xx_flash.c **** { 
 913              		.loc 1 1579 1 is_stmt 1 view -0
ARM GAS  /var/folders/yl/_q9l42k90g1g4mdhbs226msm0000gn/T//ccpYyaD8.s 			page 44


 914              		.cfi_startproc
 915              		@ args = 0, pretend = 0, frame = 8
 916              		@ frame_needed = 0, uses_anonymous_args = 0
 917 0000 00B5     		push	{lr}
 918              	.LCFI0:
 919              		.cfi_def_cfa_offset 4
 920              		.cfi_offset 14, -4
 921 0002 83B0     		sub	sp, sp, #12
 922              	.LCFI1:
 923              		.cfi_def_cfa_offset 16
1580:./Library/stm32f4xx_flash.c ****   __IO FLASH_Status status = FLASH_COMPLETE;
 924              		.loc 1 1580 3 view .LVU179
 925              		.loc 1 1580 21 is_stmt 0 view .LVU180
 926 0004 0923     		movs	r3, #9
 927 0006 8DF80730 		strb	r3, [sp, #7]
1581:./Library/stm32f4xx_flash.c ****    
1582:./Library/stm32f4xx_flash.c ****   /* Check for the FLASH Status */
1583:./Library/stm32f4xx_flash.c ****   status = FLASH_GetStatus();
 928              		.loc 1 1583 3 is_stmt 1 view .LVU181
 929              		.loc 1 1583 12 is_stmt 0 view .LVU182
 930 000a FFF7FEFF 		bl	FLASH_GetStatus
 931              	.LVL23:
 932              		.loc 1 1583 10 view .LVU183
 933 000e 8DF80700 		strb	r0, [sp, #7]
1584:./Library/stm32f4xx_flash.c **** 
1585:./Library/stm32f4xx_flash.c ****   /* Wait for the FLASH operation to complete by polling on BUSY flag to be reset.
1586:./Library/stm32f4xx_flash.c ****      Even if the FLASH operation fails, the BUSY flag will be reset and an error
1587:./Library/stm32f4xx_flash.c ****      flag will be set */
1588:./Library/stm32f4xx_flash.c ****   while(status == FLASH_BUSY)
 934              		.loc 1 1588 3 is_stmt 1 view .LVU184
 935              		.loc 1 1588 8 is_stmt 0 view .LVU185
 936 0012 03E0     		b	.L95
 937              	.L96:
1589:./Library/stm32f4xx_flash.c ****   {
1590:./Library/stm32f4xx_flash.c ****     status = FLASH_GetStatus();
 938              		.loc 1 1590 5 is_stmt 1 view .LVU186
 939              		.loc 1 1590 14 is_stmt 0 view .LVU187
 940 0014 FFF7FEFF 		bl	FLASH_GetStatus
 941              	.LVL24:
 942              		.loc 1 1590 12 view .LVU188
 943 0018 8DF80700 		strb	r0, [sp, #7]
 944              	.L95:
1588:./Library/stm32f4xx_flash.c ****   {
 945              		.loc 1 1588 8 is_stmt 1 view .LVU189
1588:./Library/stm32f4xx_flash.c ****   {
 946              		.loc 1 1588 16 is_stmt 0 view .LVU190
 947 001c 9DF80730 		ldrb	r3, [sp, #7]	@ zero_extendqisi2
 948 0020 DBB2     		uxtb	r3, r3
1588:./Library/stm32f4xx_flash.c ****   {
 949              		.loc 1 1588 8 view .LVU191
 950 0022 012B     		cmp	r3, #1
 951 0024 F6D0     		beq	.L96
1591:./Library/stm32f4xx_flash.c ****   }
1592:./Library/stm32f4xx_flash.c ****   /* Return the operation status */
1593:./Library/stm32f4xx_flash.c ****   return status;
 952              		.loc 1 1593 3 is_stmt 1 view .LVU192
 953              		.loc 1 1593 10 is_stmt 0 view .LVU193
ARM GAS  /var/folders/yl/_q9l42k90g1g4mdhbs226msm0000gn/T//ccpYyaD8.s 			page 45


 954 0026 9DF80700 		ldrb	r0, [sp, #7]	@ zero_extendqisi2
1594:./Library/stm32f4xx_flash.c **** }
 955              		.loc 1 1594 1 view .LVU194
 956 002a 03B0     		add	sp, sp, #12
 957              	.LCFI2:
 958              		.cfi_def_cfa_offset 4
 959              		@ sp needed
 960 002c 5DF804FB 		ldr	pc, [sp], #4
 961              		.cfi_endproc
 962              	.LFE162:
 964              		.section	.text.FLASH_EraseSector,"ax",%progbits
 965              		.align	1
 966              		.global	FLASH_EraseSector
 967              		.syntax unified
 968              		.thumb
 969              		.thumb_func
 971              	FLASH_EraseSector:
 972              	.LVL25:
 973              	.LFB131:
 469:./Library/stm32f4xx_flash.c ****   uint32_t tmp_psize = 0x0;
 974              		.loc 1 469 1 is_stmt 1 view -0
 975              		.cfi_startproc
 976              		@ args = 0, pretend = 0, frame = 0
 977              		@ frame_needed = 0, uses_anonymous_args = 0
 469:./Library/stm32f4xx_flash.c ****   uint32_t tmp_psize = 0x0;
 978              		.loc 1 469 1 is_stmt 0 view .LVU196
 979 0000 70B5     		push	{r4, r5, r6, lr}
 980              	.LCFI3:
 981              		.cfi_def_cfa_offset 16
 982              		.cfi_offset 4, -16
 983              		.cfi_offset 5, -12
 984              		.cfi_offset 6, -8
 985              		.cfi_offset 14, -4
 986 0002 0446     		mov	r4, r0
 470:./Library/stm32f4xx_flash.c ****   FLASH_Status status = FLASH_COMPLETE;
 987              		.loc 1 470 3 is_stmt 1 view .LVU197
 988              	.LVL26:
 471:./Library/stm32f4xx_flash.c **** 
 989              		.loc 1 471 3 view .LVU198
 474:./Library/stm32f4xx_flash.c ****   assert_param(IS_VOLTAGERANGE(VoltageRange));
 990              		.loc 1 474 3 view .LVU199
 475:./Library/stm32f4xx_flash.c ****   
 991              		.loc 1 475 3 view .LVU200
 477:./Library/stm32f4xx_flash.c ****   {
 992              		.loc 1 477 3 view .LVU201
 477:./Library/stm32f4xx_flash.c ****   {
 993              		.loc 1 477 5 is_stmt 0 view .LVU202
 994 0004 49B1     		cbz	r1, .L101
 481:./Library/stm32f4xx_flash.c ****   {
 995              		.loc 1 481 8 is_stmt 1 view .LVU203
 481:./Library/stm32f4xx_flash.c ****   {
 996              		.loc 1 481 10 is_stmt 0 view .LVU204
 997 0006 0129     		cmp	r1, #1
 998 0008 0DD0     		beq	.L102
 485:./Library/stm32f4xx_flash.c ****   {
 999              		.loc 1 485 8 is_stmt 1 view .LVU205
 485:./Library/stm32f4xx_flash.c ****   {
ARM GAS  /var/folders/yl/_q9l42k90g1g4mdhbs226msm0000gn/T//ccpYyaD8.s 			page 46


 1000              		.loc 1 485 10 is_stmt 0 view .LVU206
 1001 000a 0229     		cmp	r1, #2
 1002 000c 02D0     		beq	.L105
 491:./Library/stm32f4xx_flash.c ****   }
 1003              		.loc 1 491 15 view .LVU207
 1004 000e 4FF44076 		mov	r6, #768
 1005 0012 03E0     		b	.L99
 1006              	.L105:
 487:./Library/stm32f4xx_flash.c ****   }
 1007              		.loc 1 487 15 view .LVU208
 1008 0014 4FF40076 		mov	r6, #512
 1009 0018 00E0     		b	.L99
 1010              	.L101:
 479:./Library/stm32f4xx_flash.c ****   }
 1011              		.loc 1 479 16 view .LVU209
 1012 001a 0026     		movs	r6, #0
 1013              	.L99:
 1014              	.LVL27:
 494:./Library/stm32f4xx_flash.c ****   
 1015              		.loc 1 494 3 is_stmt 1 view .LVU210
 494:./Library/stm32f4xx_flash.c ****   
 1016              		.loc 1 494 12 is_stmt 0 view .LVU211
 1017 001c FFF7FEFF 		bl	FLASH_WaitForLastOperation
 1018              	.LVL28:
 496:./Library/stm32f4xx_flash.c ****   { 
 1019              		.loc 1 496 3 is_stmt 1 view .LVU212
 496:./Library/stm32f4xx_flash.c ****   { 
 1020              		.loc 1 496 5 is_stmt 0 view .LVU213
 1021 0020 0928     		cmp	r0, #9
 1022 0022 03D0     		beq	.L106
 1023              	.LVL29:
 1024              	.L100:
 513:./Library/stm32f4xx_flash.c **** }
 1025              		.loc 1 513 3 is_stmt 1 view .LVU214
 514:./Library/stm32f4xx_flash.c **** 
 1026              		.loc 1 514 1 is_stmt 0 view .LVU215
 1027 0024 70BD     		pop	{r4, r5, r6, pc}
 1028              	.LVL30:
 1029              	.L102:
 483:./Library/stm32f4xx_flash.c ****   }
 1030              		.loc 1 483 15 view .LVU216
 1031 0026 4FF48076 		mov	r6, #256
 1032 002a F7E7     		b	.L99
 1033              	.LVL31:
 1034              	.L106:
 499:./Library/stm32f4xx_flash.c ****     FLASH->CR |= tmp_psize;
 1035              		.loc 1 499 5 is_stmt 1 view .LVU217
 499:./Library/stm32f4xx_flash.c ****     FLASH->CR |= tmp_psize;
 1036              		.loc 1 499 15 is_stmt 0 view .LVU218
 1037 002c 0F4D     		ldr	r5, .L107
 1038 002e 2B69     		ldr	r3, [r5, #16]
 1039 0030 23F44073 		bic	r3, r3, #768
 1040 0034 2B61     		str	r3, [r5, #16]
 500:./Library/stm32f4xx_flash.c ****     FLASH->CR &= SECTOR_MASK;
 1041              		.loc 1 500 5 is_stmt 1 view .LVU219
 500:./Library/stm32f4xx_flash.c ****     FLASH->CR &= SECTOR_MASK;
 1042              		.loc 1 500 15 is_stmt 0 view .LVU220
ARM GAS  /var/folders/yl/_q9l42k90g1g4mdhbs226msm0000gn/T//ccpYyaD8.s 			page 47


 1043 0036 2B69     		ldr	r3, [r5, #16]
 1044 0038 1E43     		orrs	r6, r6, r3
 1045              	.LVL32:
 500:./Library/stm32f4xx_flash.c ****     FLASH->CR &= SECTOR_MASK;
 1046              		.loc 1 500 15 view .LVU221
 1047 003a 2E61     		str	r6, [r5, #16]
 501:./Library/stm32f4xx_flash.c ****     FLASH->CR |= FLASH_CR_SER | FLASH_Sector;
 1048              		.loc 1 501 5 is_stmt 1 view .LVU222
 501:./Library/stm32f4xx_flash.c ****     FLASH->CR |= FLASH_CR_SER | FLASH_Sector;
 1049              		.loc 1 501 15 is_stmt 0 view .LVU223
 1050 003c 2B69     		ldr	r3, [r5, #16]
 1051 003e 23F0F803 		bic	r3, r3, #248
 1052 0042 2B61     		str	r3, [r5, #16]
 502:./Library/stm32f4xx_flash.c ****     FLASH->CR |= FLASH_CR_STRT;
 1053              		.loc 1 502 5 is_stmt 1 view .LVU224
 502:./Library/stm32f4xx_flash.c ****     FLASH->CR |= FLASH_CR_STRT;
 1054              		.loc 1 502 15 is_stmt 0 view .LVU225
 1055 0044 2869     		ldr	r0, [r5, #16]
 1056              	.LVL33:
 502:./Library/stm32f4xx_flash.c ****     FLASH->CR |= FLASH_CR_STRT;
 1057              		.loc 1 502 15 view .LVU226
 1058 0046 2043     		orrs	r0, r0, r4
 1059 0048 40F00200 		orr	r0, r0, #2
 1060 004c 2861     		str	r0, [r5, #16]
 503:./Library/stm32f4xx_flash.c ****     
 1061              		.loc 1 503 5 is_stmt 1 view .LVU227
 503:./Library/stm32f4xx_flash.c ****     
 1062              		.loc 1 503 15 is_stmt 0 view .LVU228
 1063 004e 2B69     		ldr	r3, [r5, #16]
 1064 0050 43F48033 		orr	r3, r3, #65536
 1065 0054 2B61     		str	r3, [r5, #16]
 506:./Library/stm32f4xx_flash.c ****     
 1066              		.loc 1 506 5 is_stmt 1 view .LVU229
 506:./Library/stm32f4xx_flash.c ****     
 1067              		.loc 1 506 14 is_stmt 0 view .LVU230
 1068 0056 FFF7FEFF 		bl	FLASH_WaitForLastOperation
 1069              	.LVL34:
 509:./Library/stm32f4xx_flash.c ****     FLASH->CR &= SECTOR_MASK; 
 1070              		.loc 1 509 5 is_stmt 1 view .LVU231
 509:./Library/stm32f4xx_flash.c ****     FLASH->CR &= SECTOR_MASK; 
 1071              		.loc 1 509 15 is_stmt 0 view .LVU232
 1072 005a 2B69     		ldr	r3, [r5, #16]
 1073 005c 23F00203 		bic	r3, r3, #2
 1074 0060 2B61     		str	r3, [r5, #16]
 510:./Library/stm32f4xx_flash.c ****   }
 1075              		.loc 1 510 5 is_stmt 1 view .LVU233
 510:./Library/stm32f4xx_flash.c ****   }
 1076              		.loc 1 510 15 is_stmt 0 view .LVU234
 1077 0062 2B69     		ldr	r3, [r5, #16]
 1078 0064 23F0F803 		bic	r3, r3, #248
 1079 0068 2B61     		str	r3, [r5, #16]
 1080 006a DBE7     		b	.L100
 1081              	.L108:
 1082              		.align	2
 1083              	.L107:
 1084 006c 003C0240 		.word	1073888256
 1085              		.cfi_endproc
ARM GAS  /var/folders/yl/_q9l42k90g1g4mdhbs226msm0000gn/T//ccpYyaD8.s 			page 48


 1086              	.LFE131:
 1088              		.section	.text.FLASH_EraseAllSectors,"ax",%progbits
 1089              		.align	1
 1090              		.global	FLASH_EraseAllSectors
 1091              		.syntax unified
 1092              		.thumb
 1093              		.thumb_func
 1095              	FLASH_EraseAllSectors:
 1096              	.LVL35:
 1097              	.LFB132:
 537:./Library/stm32f4xx_flash.c ****   uint32_t tmp_psize = 0x0;
 1098              		.loc 1 537 1 is_stmt 1 view -0
 1099              		.cfi_startproc
 1100              		@ args = 0, pretend = 0, frame = 0
 1101              		@ frame_needed = 0, uses_anonymous_args = 0
 537:./Library/stm32f4xx_flash.c ****   uint32_t tmp_psize = 0x0;
 1102              		.loc 1 537 1 is_stmt 0 view .LVU236
 1103 0000 10B5     		push	{r4, lr}
 1104              	.LCFI4:
 1105              		.cfi_def_cfa_offset 8
 1106              		.cfi_offset 4, -8
 1107              		.cfi_offset 14, -4
 1108 0002 0446     		mov	r4, r0
 538:./Library/stm32f4xx_flash.c ****   FLASH_Status status = FLASH_COMPLETE;
 1109              		.loc 1 538 3 is_stmt 1 view .LVU237
 1110              	.LVL36:
 539:./Library/stm32f4xx_flash.c ****   
 1111              		.loc 1 539 3 view .LVU238
 542:./Library/stm32f4xx_flash.c ****   assert_param(IS_VOLTAGERANGE(VoltageRange));
 1112              		.loc 1 542 3 view .LVU239
 542:./Library/stm32f4xx_flash.c ****   assert_param(IS_VOLTAGERANGE(VoltageRange));
 1113              		.loc 1 542 12 is_stmt 0 view .LVU240
 1114 0004 FFF7FEFF 		bl	FLASH_WaitForLastOperation
 1115              	.LVL37:
 543:./Library/stm32f4xx_flash.c ****   
 1116              		.loc 1 543 3 is_stmt 1 view .LVU241
 545:./Library/stm32f4xx_flash.c ****   {
 1117              		.loc 1 545 3 view .LVU242
 545:./Library/stm32f4xx_flash.c ****   {
 1118              		.loc 1 545 5 is_stmt 0 view .LVU243
 1119 0008 4CB1     		cbz	r4, .L112
 549:./Library/stm32f4xx_flash.c ****   {
 1120              		.loc 1 549 8 is_stmt 1 view .LVU244
 549:./Library/stm32f4xx_flash.c ****   {
 1121              		.loc 1 549 10 is_stmt 0 view .LVU245
 1122 000a 012C     		cmp	r4, #1
 1123 000c 0BD0     		beq	.L113
 553:./Library/stm32f4xx_flash.c ****   {
 1124              		.loc 1 553 8 is_stmt 1 view .LVU246
 553:./Library/stm32f4xx_flash.c ****   {
 1125              		.loc 1 553 10 is_stmt 0 view .LVU247
 1126 000e 022C     		cmp	r4, #2
 1127 0010 02D0     		beq	.L116
 559:./Library/stm32f4xx_flash.c ****   }  
 1128              		.loc 1 559 15 view .LVU248
 1129 0012 4FF44073 		mov	r3, #768
 1130 0016 03E0     		b	.L110
ARM GAS  /var/folders/yl/_q9l42k90g1g4mdhbs226msm0000gn/T//ccpYyaD8.s 			page 49


 1131              	.L116:
 555:./Library/stm32f4xx_flash.c ****   }
 1132              		.loc 1 555 15 view .LVU249
 1133 0018 4FF40073 		mov	r3, #512
 1134 001c 00E0     		b	.L110
 1135              	.L112:
 547:./Library/stm32f4xx_flash.c ****   }
 1136              		.loc 1 547 16 view .LVU250
 1137 001e 0023     		movs	r3, #0
 1138              	.L110:
 1139              	.LVL38:
 561:./Library/stm32f4xx_flash.c ****   {
 1140              		.loc 1 561 3 is_stmt 1 view .LVU251
 561:./Library/stm32f4xx_flash.c ****   {
 1141              		.loc 1 561 5 is_stmt 0 view .LVU252
 1142 0020 0928     		cmp	r0, #9
 1143 0022 03D0     		beq	.L117
 1144              	.LVL39:
 1145              	.L111:
 592:./Library/stm32f4xx_flash.c **** }
 1146              		.loc 1 592 3 is_stmt 1 view .LVU253
 593:./Library/stm32f4xx_flash.c **** 
 1147              		.loc 1 593 1 is_stmt 0 view .LVU254
 1148 0024 10BD     		pop	{r4, pc}
 1149              	.LVL40:
 1150              	.L113:
 551:./Library/stm32f4xx_flash.c ****   }
 1151              		.loc 1 551 15 view .LVU255
 1152 0026 4FF48073 		mov	r3, #256
 1153 002a F9E7     		b	.L110
 1154              	.LVL41:
 1155              	.L117:
 578:./Library/stm32f4xx_flash.c ****     FLASH->CR |= tmp_psize;
 1156              		.loc 1 578 5 is_stmt 1 view .LVU256
 578:./Library/stm32f4xx_flash.c ****     FLASH->CR |= tmp_psize;
 1157              		.loc 1 578 15 is_stmt 0 view .LVU257
 1158 002c 0B4C     		ldr	r4, .L118
 1159 002e 2269     		ldr	r2, [r4, #16]
 1160 0030 22F44072 		bic	r2, r2, #768
 1161 0034 2261     		str	r2, [r4, #16]
 579:./Library/stm32f4xx_flash.c ****     FLASH->CR |= FLASH_CR_MER;
 1162              		.loc 1 579 5 is_stmt 1 view .LVU258
 579:./Library/stm32f4xx_flash.c ****     FLASH->CR |= FLASH_CR_MER;
 1163              		.loc 1 579 15 is_stmt 0 view .LVU259
 1164 0036 2269     		ldr	r2, [r4, #16]
 1165 0038 1343     		orrs	r3, r3, r2
 1166              	.LVL42:
 579:./Library/stm32f4xx_flash.c ****     FLASH->CR |= FLASH_CR_MER;
 1167              		.loc 1 579 15 view .LVU260
 1168 003a 2361     		str	r3, [r4, #16]
 580:./Library/stm32f4xx_flash.c ****     FLASH->CR |= FLASH_CR_STRT;
 1169              		.loc 1 580 5 is_stmt 1 view .LVU261
 580:./Library/stm32f4xx_flash.c ****     FLASH->CR |= FLASH_CR_STRT;
 1170              		.loc 1 580 15 is_stmt 0 view .LVU262
 1171 003c 2369     		ldr	r3, [r4, #16]
 1172 003e 43F00403 		orr	r3, r3, #4
 1173 0042 2361     		str	r3, [r4, #16]
ARM GAS  /var/folders/yl/_q9l42k90g1g4mdhbs226msm0000gn/T//ccpYyaD8.s 			page 50


 581:./Library/stm32f4xx_flash.c ****     
 1174              		.loc 1 581 5 is_stmt 1 view .LVU263
 581:./Library/stm32f4xx_flash.c ****     
 1175              		.loc 1 581 15 is_stmt 0 view .LVU264
 1176 0044 2369     		ldr	r3, [r4, #16]
 1177 0046 43F48033 		orr	r3, r3, #65536
 1178 004a 2361     		str	r3, [r4, #16]
 584:./Library/stm32f4xx_flash.c **** 
 1179              		.loc 1 584 5 is_stmt 1 view .LVU265
 584:./Library/stm32f4xx_flash.c **** 
 1180              		.loc 1 584 14 is_stmt 0 view .LVU266
 1181 004c FFF7FEFF 		bl	FLASH_WaitForLastOperation
 1182              	.LVL43:
 587:./Library/stm32f4xx_flash.c **** #endif /* STM32F40_41xxx || STM32F401xx || STM32F410xx || STM32F411xE || STM32F412xG || STM32F413_4
 1183              		.loc 1 587 5 is_stmt 1 view .LVU267
 587:./Library/stm32f4xx_flash.c **** #endif /* STM32F40_41xxx || STM32F401xx || STM32F410xx || STM32F411xE || STM32F412xG || STM32F413_4
 1184              		.loc 1 587 15 is_stmt 0 view .LVU268
 1185 0050 2369     		ldr	r3, [r4, #16]
 1186 0052 23F00403 		bic	r3, r3, #4
 1187 0056 2361     		str	r3, [r4, #16]
 1188 0058 E4E7     		b	.L111
 1189              	.L119:
 1190 005a 00BF     		.align	2
 1191              	.L118:
 1192 005c 003C0240 		.word	1073888256
 1193              		.cfi_endproc
 1194              	.LFE132:
 1196              		.section	.text.FLASH_EraseAllBank1Sectors,"ax",%progbits
 1197              		.align	1
 1198              		.global	FLASH_EraseAllBank1Sectors
 1199              		.syntax unified
 1200              		.thumb
 1201              		.thumb_func
 1203              	FLASH_EraseAllBank1Sectors:
 1204              	.LVL44:
 1205              	.LFB133:
 618:./Library/stm32f4xx_flash.c ****   uint32_t tmp_psize = 0x0;
 1206              		.loc 1 618 1 is_stmt 1 view -0
 1207              		.cfi_startproc
 1208              		@ args = 0, pretend = 0, frame = 0
 1209              		@ frame_needed = 0, uses_anonymous_args = 0
 618:./Library/stm32f4xx_flash.c ****   uint32_t tmp_psize = 0x0;
 1210              		.loc 1 618 1 is_stmt 0 view .LVU270
 1211 0000 10B5     		push	{r4, lr}
 1212              	.LCFI5:
 1213              		.cfi_def_cfa_offset 8
 1214              		.cfi_offset 4, -8
 1215              		.cfi_offset 14, -4
 1216 0002 0446     		mov	r4, r0
 619:./Library/stm32f4xx_flash.c ****   FLASH_Status status = FLASH_COMPLETE;
 1217              		.loc 1 619 3 is_stmt 1 view .LVU271
 1218              	.LVL45:
 620:./Library/stm32f4xx_flash.c ****   
 1219              		.loc 1 620 3 view .LVU272
 623:./Library/stm32f4xx_flash.c ****   assert_param(IS_VOLTAGERANGE(VoltageRange));
 1220              		.loc 1 623 3 view .LVU273
 623:./Library/stm32f4xx_flash.c ****   assert_param(IS_VOLTAGERANGE(VoltageRange));
ARM GAS  /var/folders/yl/_q9l42k90g1g4mdhbs226msm0000gn/T//ccpYyaD8.s 			page 51


 1221              		.loc 1 623 12 is_stmt 0 view .LVU274
 1222 0004 FFF7FEFF 		bl	FLASH_WaitForLastOperation
 1223              	.LVL46:
 624:./Library/stm32f4xx_flash.c ****   
 1224              		.loc 1 624 3 is_stmt 1 view .LVU275
 626:./Library/stm32f4xx_flash.c ****   {
 1225              		.loc 1 626 3 view .LVU276
 626:./Library/stm32f4xx_flash.c ****   {
 1226              		.loc 1 626 5 is_stmt 0 view .LVU277
 1227 0008 4CB1     		cbz	r4, .L123
 630:./Library/stm32f4xx_flash.c ****   {
 1228              		.loc 1 630 8 is_stmt 1 view .LVU278
 630:./Library/stm32f4xx_flash.c ****   {
 1229              		.loc 1 630 10 is_stmt 0 view .LVU279
 1230 000a 012C     		cmp	r4, #1
 1231 000c 0BD0     		beq	.L124
 634:./Library/stm32f4xx_flash.c ****   {
 1232              		.loc 1 634 8 is_stmt 1 view .LVU280
 634:./Library/stm32f4xx_flash.c ****   {
 1233              		.loc 1 634 10 is_stmt 0 view .LVU281
 1234 000e 022C     		cmp	r4, #2
 1235 0010 02D0     		beq	.L127
 640:./Library/stm32f4xx_flash.c ****   }  
 1236              		.loc 1 640 15 view .LVU282
 1237 0012 4FF44073 		mov	r3, #768
 1238 0016 03E0     		b	.L121
 1239              	.L127:
 636:./Library/stm32f4xx_flash.c ****   }
 1240              		.loc 1 636 15 view .LVU283
 1241 0018 4FF40073 		mov	r3, #512
 1242 001c 00E0     		b	.L121
 1243              	.L123:
 628:./Library/stm32f4xx_flash.c ****   }
 1244              		.loc 1 628 16 view .LVU284
 1245 001e 0023     		movs	r3, #0
 1246              	.L121:
 1247              	.LVL47:
 642:./Library/stm32f4xx_flash.c ****   {
 1248              		.loc 1 642 3 is_stmt 1 view .LVU285
 642:./Library/stm32f4xx_flash.c ****   {
 1249              		.loc 1 642 5 is_stmt 0 view .LVU286
 1250 0020 0928     		cmp	r0, #9
 1251 0022 03D0     		beq	.L128
 1252              	.LVL48:
 1253              	.L122:
 658:./Library/stm32f4xx_flash.c **** }
 1254              		.loc 1 658 3 is_stmt 1 view .LVU287
 659:./Library/stm32f4xx_flash.c **** 
 1255              		.loc 1 659 1 is_stmt 0 view .LVU288
 1256 0024 10BD     		pop	{r4, pc}
 1257              	.LVL49:
 1258              	.L124:
 632:./Library/stm32f4xx_flash.c ****   }
 1259              		.loc 1 632 15 view .LVU289
 1260 0026 4FF48073 		mov	r3, #256
 1261 002a F9E7     		b	.L121
 1262              	.LVL50:
ARM GAS  /var/folders/yl/_q9l42k90g1g4mdhbs226msm0000gn/T//ccpYyaD8.s 			page 52


 1263              	.L128:
 645:./Library/stm32f4xx_flash.c ****      FLASH->CR |= tmp_psize;
 1264              		.loc 1 645 6 is_stmt 1 view .LVU290
 645:./Library/stm32f4xx_flash.c ****      FLASH->CR |= tmp_psize;
 1265              		.loc 1 645 16 is_stmt 0 view .LVU291
 1266 002c 0B4C     		ldr	r4, .L129
 1267 002e 2269     		ldr	r2, [r4, #16]
 1268 0030 22F44072 		bic	r2, r2, #768
 1269 0034 2261     		str	r2, [r4, #16]
 646:./Library/stm32f4xx_flash.c ****      FLASH->CR |= FLASH_CR_MER1;
 1270              		.loc 1 646 6 is_stmt 1 view .LVU292
 646:./Library/stm32f4xx_flash.c ****      FLASH->CR |= FLASH_CR_MER1;
 1271              		.loc 1 646 16 is_stmt 0 view .LVU293
 1272 0036 2269     		ldr	r2, [r4, #16]
 1273 0038 1343     		orrs	r3, r3, r2
 1274              	.LVL51:
 646:./Library/stm32f4xx_flash.c ****      FLASH->CR |= FLASH_CR_MER1;
 1275              		.loc 1 646 16 view .LVU294
 1276 003a 2361     		str	r3, [r4, #16]
 647:./Library/stm32f4xx_flash.c ****      FLASH->CR |= FLASH_CR_STRT;
 1277              		.loc 1 647 6 is_stmt 1 view .LVU295
 647:./Library/stm32f4xx_flash.c ****      FLASH->CR |= FLASH_CR_STRT;
 1278              		.loc 1 647 16 is_stmt 0 view .LVU296
 1279 003c 2369     		ldr	r3, [r4, #16]
 1280 003e 43F00403 		orr	r3, r3, #4
 1281 0042 2361     		str	r3, [r4, #16]
 648:./Library/stm32f4xx_flash.c ****     
 1282              		.loc 1 648 6 is_stmt 1 view .LVU297
 648:./Library/stm32f4xx_flash.c ****     
 1283              		.loc 1 648 16 is_stmt 0 view .LVU298
 1284 0044 2369     		ldr	r3, [r4, #16]
 1285 0046 43F48033 		orr	r3, r3, #65536
 1286 004a 2361     		str	r3, [r4, #16]
 651:./Library/stm32f4xx_flash.c **** 
 1287              		.loc 1 651 5 is_stmt 1 view .LVU299
 651:./Library/stm32f4xx_flash.c **** 
 1288              		.loc 1 651 14 is_stmt 0 view .LVU300
 1289 004c FFF7FEFF 		bl	FLASH_WaitForLastOperation
 1290              	.LVL52:
 654:./Library/stm32f4xx_flash.c **** 
 1291              		.loc 1 654 5 is_stmt 1 view .LVU301
 654:./Library/stm32f4xx_flash.c **** 
 1292              		.loc 1 654 15 is_stmt 0 view .LVU302
 1293 0050 2369     		ldr	r3, [r4, #16]
 1294 0052 23F00403 		bic	r3, r3, #4
 1295 0056 2361     		str	r3, [r4, #16]
 1296 0058 E4E7     		b	.L122
 1297              	.L130:
 1298 005a 00BF     		.align	2
 1299              	.L129:
 1300 005c 003C0240 		.word	1073888256
 1301              		.cfi_endproc
 1302              	.LFE133:
 1304              		.section	.text.FLASH_EraseAllBank2Sectors,"ax",%progbits
 1305              		.align	1
 1306              		.global	FLASH_EraseAllBank2Sectors
 1307              		.syntax unified
ARM GAS  /var/folders/yl/_q9l42k90g1g4mdhbs226msm0000gn/T//ccpYyaD8.s 			page 53


 1308              		.thumb
 1309              		.thumb_func
 1311              	FLASH_EraseAllBank2Sectors:
 1312              	.LVL53:
 1313              	.LFB134:
 685:./Library/stm32f4xx_flash.c ****   uint32_t tmp_psize = 0x0;
 1314              		.loc 1 685 1 is_stmt 1 view -0
 1315              		.cfi_startproc
 1316              		@ args = 0, pretend = 0, frame = 0
 1317              		@ frame_needed = 0, uses_anonymous_args = 0
 685:./Library/stm32f4xx_flash.c ****   uint32_t tmp_psize = 0x0;
 1318              		.loc 1 685 1 is_stmt 0 view .LVU304
 1319 0000 10B5     		push	{r4, lr}
 1320              	.LCFI6:
 1321              		.cfi_def_cfa_offset 8
 1322              		.cfi_offset 4, -8
 1323              		.cfi_offset 14, -4
 1324 0002 0446     		mov	r4, r0
 686:./Library/stm32f4xx_flash.c ****   FLASH_Status status = FLASH_COMPLETE;
 1325              		.loc 1 686 3 is_stmt 1 view .LVU305
 1326              	.LVL54:
 687:./Library/stm32f4xx_flash.c ****   
 1327              		.loc 1 687 3 view .LVU306
 690:./Library/stm32f4xx_flash.c ****   assert_param(IS_VOLTAGERANGE(VoltageRange));
 1328              		.loc 1 690 3 view .LVU307
 690:./Library/stm32f4xx_flash.c ****   assert_param(IS_VOLTAGERANGE(VoltageRange));
 1329              		.loc 1 690 12 is_stmt 0 view .LVU308
 1330 0004 FFF7FEFF 		bl	FLASH_WaitForLastOperation
 1331              	.LVL55:
 691:./Library/stm32f4xx_flash.c ****   
 1332              		.loc 1 691 3 is_stmt 1 view .LVU309
 693:./Library/stm32f4xx_flash.c ****   {
 1333              		.loc 1 693 3 view .LVU310
 693:./Library/stm32f4xx_flash.c ****   {
 1334              		.loc 1 693 5 is_stmt 0 view .LVU311
 1335 0008 4CB1     		cbz	r4, .L134
 697:./Library/stm32f4xx_flash.c ****   {
 1336              		.loc 1 697 8 is_stmt 1 view .LVU312
 697:./Library/stm32f4xx_flash.c ****   {
 1337              		.loc 1 697 10 is_stmt 0 view .LVU313
 1338 000a 012C     		cmp	r4, #1
 1339 000c 0BD0     		beq	.L135
 701:./Library/stm32f4xx_flash.c ****   {
 1340              		.loc 1 701 8 is_stmt 1 view .LVU314
 701:./Library/stm32f4xx_flash.c ****   {
 1341              		.loc 1 701 10 is_stmt 0 view .LVU315
 1342 000e 022C     		cmp	r4, #2
 1343 0010 02D0     		beq	.L138
 707:./Library/stm32f4xx_flash.c ****   }  
 1344              		.loc 1 707 15 view .LVU316
 1345 0012 4FF44073 		mov	r3, #768
 1346 0016 03E0     		b	.L132
 1347              	.L138:
 703:./Library/stm32f4xx_flash.c ****   }
 1348              		.loc 1 703 15 view .LVU317
 1349 0018 4FF40073 		mov	r3, #512
 1350 001c 00E0     		b	.L132
ARM GAS  /var/folders/yl/_q9l42k90g1g4mdhbs226msm0000gn/T//ccpYyaD8.s 			page 54


 1351              	.L134:
 695:./Library/stm32f4xx_flash.c ****   }
 1352              		.loc 1 695 16 view .LVU318
 1353 001e 0023     		movs	r3, #0
 1354              	.L132:
 1355              	.LVL56:
 709:./Library/stm32f4xx_flash.c ****   {
 1356              		.loc 1 709 3 is_stmt 1 view .LVU319
 709:./Library/stm32f4xx_flash.c ****   {
 1357              		.loc 1 709 5 is_stmt 0 view .LVU320
 1358 0020 0928     		cmp	r0, #9
 1359 0022 03D0     		beq	.L139
 1360              	.LVL57:
 1361              	.L133:
 725:./Library/stm32f4xx_flash.c **** }
 1362              		.loc 1 725 3 is_stmt 1 view .LVU321
 726:./Library/stm32f4xx_flash.c **** 
 1363              		.loc 1 726 1 is_stmt 0 view .LVU322
 1364 0024 10BD     		pop	{r4, pc}
 1365              	.LVL58:
 1366              	.L135:
 699:./Library/stm32f4xx_flash.c ****   }
 1367              		.loc 1 699 15 view .LVU323
 1368 0026 4FF48073 		mov	r3, #256
 1369 002a F9E7     		b	.L132
 1370              	.LVL59:
 1371              	.L139:
 712:./Library/stm32f4xx_flash.c ****      FLASH->CR |= tmp_psize;
 1372              		.loc 1 712 6 is_stmt 1 view .LVU324
 712:./Library/stm32f4xx_flash.c ****      FLASH->CR |= tmp_psize;
 1373              		.loc 1 712 16 is_stmt 0 view .LVU325
 1374 002c 0B4C     		ldr	r4, .L140
 1375 002e 2269     		ldr	r2, [r4, #16]
 1376 0030 22F44072 		bic	r2, r2, #768
 1377 0034 2261     		str	r2, [r4, #16]
 713:./Library/stm32f4xx_flash.c ****      FLASH->CR |= FLASH_CR_MER2;
 1378              		.loc 1 713 6 is_stmt 1 view .LVU326
 713:./Library/stm32f4xx_flash.c ****      FLASH->CR |= FLASH_CR_MER2;
 1379              		.loc 1 713 16 is_stmt 0 view .LVU327
 1380 0036 2269     		ldr	r2, [r4, #16]
 1381 0038 1343     		orrs	r3, r3, r2
 1382              	.LVL60:
 713:./Library/stm32f4xx_flash.c ****      FLASH->CR |= FLASH_CR_MER2;
 1383              		.loc 1 713 16 view .LVU328
 1384 003a 2361     		str	r3, [r4, #16]
 714:./Library/stm32f4xx_flash.c ****      FLASH->CR |= FLASH_CR_STRT;
 1385              		.loc 1 714 6 is_stmt 1 view .LVU329
 714:./Library/stm32f4xx_flash.c ****      FLASH->CR |= FLASH_CR_STRT;
 1386              		.loc 1 714 16 is_stmt 0 view .LVU330
 1387 003c 2369     		ldr	r3, [r4, #16]
 1388 003e 43F40043 		orr	r3, r3, #32768
 1389 0042 2361     		str	r3, [r4, #16]
 715:./Library/stm32f4xx_flash.c ****     
 1390              		.loc 1 715 6 is_stmt 1 view .LVU331
 715:./Library/stm32f4xx_flash.c ****     
 1391              		.loc 1 715 16 is_stmt 0 view .LVU332
 1392 0044 2369     		ldr	r3, [r4, #16]
ARM GAS  /var/folders/yl/_q9l42k90g1g4mdhbs226msm0000gn/T//ccpYyaD8.s 			page 55


 1393 0046 43F48033 		orr	r3, r3, #65536
 1394 004a 2361     		str	r3, [r4, #16]
 718:./Library/stm32f4xx_flash.c **** 
 1395              		.loc 1 718 5 is_stmt 1 view .LVU333
 718:./Library/stm32f4xx_flash.c **** 
 1396              		.loc 1 718 14 is_stmt 0 view .LVU334
 1397 004c FFF7FEFF 		bl	FLASH_WaitForLastOperation
 1398              	.LVL61:
 721:./Library/stm32f4xx_flash.c **** 
 1399              		.loc 1 721 5 is_stmt 1 view .LVU335
 721:./Library/stm32f4xx_flash.c **** 
 1400              		.loc 1 721 15 is_stmt 0 view .LVU336
 1401 0050 2369     		ldr	r3, [r4, #16]
 1402 0052 23F40043 		bic	r3, r3, #32768
 1403 0056 2361     		str	r3, [r4, #16]
 1404 0058 E4E7     		b	.L133
 1405              	.L141:
 1406 005a 00BF     		.align	2
 1407              	.L140:
 1408 005c 003C0240 		.word	1073888256
 1409              		.cfi_endproc
 1410              	.LFE134:
 1412              		.section	.text.FLASH_ProgramDoubleWord,"ax",%progbits
 1413              		.align	1
 1414              		.global	FLASH_ProgramDoubleWord
 1415              		.syntax unified
 1416              		.thumb
 1417              		.thumb_func
 1419              	FLASH_ProgramDoubleWord:
 1420              	.LVL62:
 1421              	.LFB135:
 742:./Library/stm32f4xx_flash.c ****   FLASH_Status status = FLASH_COMPLETE;
 1422              		.loc 1 742 1 is_stmt 1 view -0
 1423              		.cfi_startproc
 1424              		@ args = 0, pretend = 0, frame = 0
 1425              		@ frame_needed = 0, uses_anonymous_args = 0
 742:./Library/stm32f4xx_flash.c ****   FLASH_Status status = FLASH_COMPLETE;
 1426              		.loc 1 742 1 is_stmt 0 view .LVU338
 1427 0000 F8B5     		push	{r3, r4, r5, r6, r7, lr}
 1428              	.LCFI7:
 1429              		.cfi_def_cfa_offset 24
 1430              		.cfi_offset 3, -24
 1431              		.cfi_offset 4, -20
 1432              		.cfi_offset 5, -16
 1433              		.cfi_offset 6, -12
 1434              		.cfi_offset 7, -8
 1435              		.cfi_offset 14, -4
 1436 0002 0646     		mov	r6, r0
 1437 0004 1446     		mov	r4, r2
 1438 0006 1D46     		mov	r5, r3
 743:./Library/stm32f4xx_flash.c **** 
 1439              		.loc 1 743 3 is_stmt 1 view .LVU339
 1440              	.LVL63:
 746:./Library/stm32f4xx_flash.c **** 
 1441              		.loc 1 746 3 view .LVU340
 749:./Library/stm32f4xx_flash.c ****   
 1442              		.loc 1 749 3 view .LVU341
ARM GAS  /var/folders/yl/_q9l42k90g1g4mdhbs226msm0000gn/T//ccpYyaD8.s 			page 56


 749:./Library/stm32f4xx_flash.c ****   
 1443              		.loc 1 749 12 is_stmt 0 view .LVU342
 1444 0008 FFF7FEFF 		bl	FLASH_WaitForLastOperation
 1445              	.LVL64:
 751:./Library/stm32f4xx_flash.c ****   {
 1446              		.loc 1 751 3 is_stmt 1 view .LVU343
 751:./Library/stm32f4xx_flash.c ****   {
 1447              		.loc 1 751 5 is_stmt 0 view .LVU344
 1448 000c 0928     		cmp	r0, #9
 1449 000e 00D0     		beq	.L145
 1450              	.L143:
 767:./Library/stm32f4xx_flash.c **** }
 1451              		.loc 1 767 3 is_stmt 1 view .LVU345
 768:./Library/stm32f4xx_flash.c **** 
 1452              		.loc 1 768 1 is_stmt 0 view .LVU346
 1453 0010 F8BD     		pop	{r3, r4, r5, r6, r7, pc}
 1454              	.LVL65:
 1455              	.L145:
 754:./Library/stm32f4xx_flash.c ****     FLASH->CR |= FLASH_PSIZE_DOUBLE_WORD;
 1456              		.loc 1 754 5 is_stmt 1 view .LVU347
 754:./Library/stm32f4xx_flash.c ****     FLASH->CR |= FLASH_PSIZE_DOUBLE_WORD;
 1457              		.loc 1 754 15 is_stmt 0 view .LVU348
 1458 0012 0B4F     		ldr	r7, .L146
 1459 0014 3B69     		ldr	r3, [r7, #16]
 1460 0016 23F44073 		bic	r3, r3, #768
 1461 001a 3B61     		str	r3, [r7, #16]
 755:./Library/stm32f4xx_flash.c ****     FLASH->CR |= FLASH_CR_PG;
 1462              		.loc 1 755 5 is_stmt 1 view .LVU349
 755:./Library/stm32f4xx_flash.c ****     FLASH->CR |= FLASH_CR_PG;
 1463              		.loc 1 755 15 is_stmt 0 view .LVU350
 1464 001c 3B69     		ldr	r3, [r7, #16]
 1465 001e 43F44073 		orr	r3, r3, #768
 1466 0022 3B61     		str	r3, [r7, #16]
 756:./Library/stm32f4xx_flash.c ****   
 1467              		.loc 1 756 5 is_stmt 1 view .LVU351
 756:./Library/stm32f4xx_flash.c ****   
 1468              		.loc 1 756 15 is_stmt 0 view .LVU352
 1469 0024 3B69     		ldr	r3, [r7, #16]
 1470 0026 43F00103 		orr	r3, r3, #1
 1471 002a 3B61     		str	r3, [r7, #16]
 758:./Library/stm32f4xx_flash.c ****         
 1472              		.loc 1 758 5 is_stmt 1 view .LVU353
 758:./Library/stm32f4xx_flash.c ****         
 1473              		.loc 1 758 30 is_stmt 0 view .LVU354
 1474 002c C6E90045 		strd	r4, [r6]
 761:./Library/stm32f4xx_flash.c **** 
 1475              		.loc 1 761 5 is_stmt 1 view .LVU355
 761:./Library/stm32f4xx_flash.c **** 
 1476              		.loc 1 761 14 is_stmt 0 view .LVU356
 1477 0030 FFF7FEFF 		bl	FLASH_WaitForLastOperation
 1478              	.LVL66:
 764:./Library/stm32f4xx_flash.c ****   } 
 1479              		.loc 1 764 5 is_stmt 1 view .LVU357
 764:./Library/stm32f4xx_flash.c ****   } 
 1480              		.loc 1 764 15 is_stmt 0 view .LVU358
 1481 0034 3B69     		ldr	r3, [r7, #16]
 1482 0036 23F00103 		bic	r3, r3, #1
ARM GAS  /var/folders/yl/_q9l42k90g1g4mdhbs226msm0000gn/T//ccpYyaD8.s 			page 57


 1483 003a 3B61     		str	r3, [r7, #16]
 1484 003c E8E7     		b	.L143
 1485              	.L147:
 1486 003e 00BF     		.align	2
 1487              	.L146:
 1488 0040 003C0240 		.word	1073888256
 1489              		.cfi_endproc
 1490              	.LFE135:
 1492              		.section	.text.FLASH_ProgramWord,"ax",%progbits
 1493              		.align	1
 1494              		.global	FLASH_ProgramWord
 1495              		.syntax unified
 1496              		.thumb
 1497              		.thumb_func
 1499              	FLASH_ProgramWord:
 1500              	.LVL67:
 1501              	.LFB136:
 785:./Library/stm32f4xx_flash.c ****   FLASH_Status status = FLASH_COMPLETE;
 1502              		.loc 1 785 1 is_stmt 1 view -0
 1503              		.cfi_startproc
 1504              		@ args = 0, pretend = 0, frame = 0
 1505              		@ frame_needed = 0, uses_anonymous_args = 0
 785:./Library/stm32f4xx_flash.c ****   FLASH_Status status = FLASH_COMPLETE;
 1506              		.loc 1 785 1 is_stmt 0 view .LVU360
 1507 0000 70B5     		push	{r4, r5, r6, lr}
 1508              	.LCFI8:
 1509              		.cfi_def_cfa_offset 16
 1510              		.cfi_offset 4, -16
 1511              		.cfi_offset 5, -12
 1512              		.cfi_offset 6, -8
 1513              		.cfi_offset 14, -4
 1514 0002 0546     		mov	r5, r0
 1515 0004 0C46     		mov	r4, r1
 786:./Library/stm32f4xx_flash.c **** 
 1516              		.loc 1 786 3 is_stmt 1 view .LVU361
 1517              	.LVL68:
 789:./Library/stm32f4xx_flash.c **** 
 1518              		.loc 1 789 3 view .LVU362
 792:./Library/stm32f4xx_flash.c ****   
 1519              		.loc 1 792 3 view .LVU363
 792:./Library/stm32f4xx_flash.c ****   
 1520              		.loc 1 792 12 is_stmt 0 view .LVU364
 1521 0006 FFF7FEFF 		bl	FLASH_WaitForLastOperation
 1522              	.LVL69:
 794:./Library/stm32f4xx_flash.c ****   {
 1523              		.loc 1 794 3 is_stmt 1 view .LVU365
 794:./Library/stm32f4xx_flash.c ****   {
 1524              		.loc 1 794 5 is_stmt 0 view .LVU366
 1525 000a 0928     		cmp	r0, #9
 1526 000c 00D0     		beq	.L151
 1527              	.L149:
 810:./Library/stm32f4xx_flash.c **** }
 1528              		.loc 1 810 3 is_stmt 1 view .LVU367
 811:./Library/stm32f4xx_flash.c **** 
 1529              		.loc 1 811 1 is_stmt 0 view .LVU368
 1530 000e 70BD     		pop	{r4, r5, r6, pc}
 1531              	.LVL70:
ARM GAS  /var/folders/yl/_q9l42k90g1g4mdhbs226msm0000gn/T//ccpYyaD8.s 			page 58


 1532              	.L151:
 797:./Library/stm32f4xx_flash.c ****     FLASH->CR |= FLASH_PSIZE_WORD;
 1533              		.loc 1 797 5 is_stmt 1 view .LVU369
 797:./Library/stm32f4xx_flash.c ****     FLASH->CR |= FLASH_PSIZE_WORD;
 1534              		.loc 1 797 15 is_stmt 0 view .LVU370
 1535 0010 0A4E     		ldr	r6, .L152
 1536 0012 3369     		ldr	r3, [r6, #16]
 1537 0014 23F44073 		bic	r3, r3, #768
 1538 0018 3361     		str	r3, [r6, #16]
 798:./Library/stm32f4xx_flash.c ****     FLASH->CR |= FLASH_CR_PG;
 1539              		.loc 1 798 5 is_stmt 1 view .LVU371
 798:./Library/stm32f4xx_flash.c ****     FLASH->CR |= FLASH_CR_PG;
 1540              		.loc 1 798 15 is_stmt 0 view .LVU372
 1541 001a 3369     		ldr	r3, [r6, #16]
 1542 001c 43F40073 		orr	r3, r3, #512
 1543 0020 3361     		str	r3, [r6, #16]
 799:./Library/stm32f4xx_flash.c ****   
 1544              		.loc 1 799 5 is_stmt 1 view .LVU373
 799:./Library/stm32f4xx_flash.c ****   
 1545              		.loc 1 799 15 is_stmt 0 view .LVU374
 1546 0022 3369     		ldr	r3, [r6, #16]
 1547 0024 43F00103 		orr	r3, r3, #1
 1548 0028 3361     		str	r3, [r6, #16]
 801:./Library/stm32f4xx_flash.c ****         
 1549              		.loc 1 801 5 is_stmt 1 view .LVU375
 801:./Library/stm32f4xx_flash.c ****         
 1550              		.loc 1 801 30 is_stmt 0 view .LVU376
 1551 002a 2C60     		str	r4, [r5]
 804:./Library/stm32f4xx_flash.c **** 
 1552              		.loc 1 804 5 is_stmt 1 view .LVU377
 804:./Library/stm32f4xx_flash.c **** 
 1553              		.loc 1 804 14 is_stmt 0 view .LVU378
 1554 002c FFF7FEFF 		bl	FLASH_WaitForLastOperation
 1555              	.LVL71:
 807:./Library/stm32f4xx_flash.c ****   } 
 1556              		.loc 1 807 5 is_stmt 1 view .LVU379
 807:./Library/stm32f4xx_flash.c ****   } 
 1557              		.loc 1 807 15 is_stmt 0 view .LVU380
 1558 0030 3369     		ldr	r3, [r6, #16]
 1559 0032 23F00103 		bic	r3, r3, #1
 1560 0036 3361     		str	r3, [r6, #16]
 1561 0038 E9E7     		b	.L149
 1562              	.L153:
 1563 003a 00BF     		.align	2
 1564              	.L152:
 1565 003c 003C0240 		.word	1073888256
 1566              		.cfi_endproc
 1567              	.LFE136:
 1569              		.section	.text.FLASH_ProgramHalfWord,"ax",%progbits
 1570              		.align	1
 1571              		.global	FLASH_ProgramHalfWord
 1572              		.syntax unified
 1573              		.thumb
 1574              		.thumb_func
 1576              	FLASH_ProgramHalfWord:
 1577              	.LVL72:
 1578              	.LFB137:
ARM GAS  /var/folders/yl/_q9l42k90g1g4mdhbs226msm0000gn/T//ccpYyaD8.s 			page 59


 827:./Library/stm32f4xx_flash.c ****   FLASH_Status status = FLASH_COMPLETE;
 1579              		.loc 1 827 1 is_stmt 1 view -0
 1580              		.cfi_startproc
 1581              		@ args = 0, pretend = 0, frame = 0
 1582              		@ frame_needed = 0, uses_anonymous_args = 0
 827:./Library/stm32f4xx_flash.c ****   FLASH_Status status = FLASH_COMPLETE;
 1583              		.loc 1 827 1 is_stmt 0 view .LVU382
 1584 0000 70B5     		push	{r4, r5, r6, lr}
 1585              	.LCFI9:
 1586              		.cfi_def_cfa_offset 16
 1587              		.cfi_offset 4, -16
 1588              		.cfi_offset 5, -12
 1589              		.cfi_offset 6, -8
 1590              		.cfi_offset 14, -4
 1591 0002 0546     		mov	r5, r0
 1592 0004 0C46     		mov	r4, r1
 828:./Library/stm32f4xx_flash.c **** 
 1593              		.loc 1 828 3 is_stmt 1 view .LVU383
 1594              	.LVL73:
 831:./Library/stm32f4xx_flash.c **** 
 1595              		.loc 1 831 3 view .LVU384
 834:./Library/stm32f4xx_flash.c ****   
 1596              		.loc 1 834 3 view .LVU385
 834:./Library/stm32f4xx_flash.c ****   
 1597              		.loc 1 834 12 is_stmt 0 view .LVU386
 1598 0006 FFF7FEFF 		bl	FLASH_WaitForLastOperation
 1599              	.LVL74:
 836:./Library/stm32f4xx_flash.c ****   {
 1600              		.loc 1 836 3 is_stmt 1 view .LVU387
 836:./Library/stm32f4xx_flash.c ****   {
 1601              		.loc 1 836 5 is_stmt 0 view .LVU388
 1602 000a 0928     		cmp	r0, #9
 1603 000c 00D0     		beq	.L157
 1604              	.L155:
 852:./Library/stm32f4xx_flash.c **** }
 1605              		.loc 1 852 3 is_stmt 1 view .LVU389
 853:./Library/stm32f4xx_flash.c **** 
 1606              		.loc 1 853 1 is_stmt 0 view .LVU390
 1607 000e 70BD     		pop	{r4, r5, r6, pc}
 1608              	.LVL75:
 1609              	.L157:
 839:./Library/stm32f4xx_flash.c ****     FLASH->CR |= FLASH_PSIZE_HALF_WORD;
 1610              		.loc 1 839 5 is_stmt 1 view .LVU391
 839:./Library/stm32f4xx_flash.c ****     FLASH->CR |= FLASH_PSIZE_HALF_WORD;
 1611              		.loc 1 839 15 is_stmt 0 view .LVU392
 1612 0010 0A4E     		ldr	r6, .L158
 1613 0012 3369     		ldr	r3, [r6, #16]
 1614 0014 23F44073 		bic	r3, r3, #768
 1615 0018 3361     		str	r3, [r6, #16]
 840:./Library/stm32f4xx_flash.c ****     FLASH->CR |= FLASH_CR_PG;
 1616              		.loc 1 840 5 is_stmt 1 view .LVU393
 840:./Library/stm32f4xx_flash.c ****     FLASH->CR |= FLASH_CR_PG;
 1617              		.loc 1 840 15 is_stmt 0 view .LVU394
 1618 001a 3369     		ldr	r3, [r6, #16]
 1619 001c 43F48073 		orr	r3, r3, #256
 1620 0020 3361     		str	r3, [r6, #16]
 841:./Library/stm32f4xx_flash.c ****   
ARM GAS  /var/folders/yl/_q9l42k90g1g4mdhbs226msm0000gn/T//ccpYyaD8.s 			page 60


 1621              		.loc 1 841 5 is_stmt 1 view .LVU395
 841:./Library/stm32f4xx_flash.c ****   
 1622              		.loc 1 841 15 is_stmt 0 view .LVU396
 1623 0022 3369     		ldr	r3, [r6, #16]
 1624 0024 43F00103 		orr	r3, r3, #1
 1625 0028 3361     		str	r3, [r6, #16]
 843:./Library/stm32f4xx_flash.c ****         
 1626              		.loc 1 843 5 is_stmt 1 view .LVU397
 843:./Library/stm32f4xx_flash.c ****         
 1627              		.loc 1 843 30 is_stmt 0 view .LVU398
 1628 002a 2C80     		strh	r4, [r5]	@ movhi
 846:./Library/stm32f4xx_flash.c **** 
 1629              		.loc 1 846 5 is_stmt 1 view .LVU399
 846:./Library/stm32f4xx_flash.c **** 
 1630              		.loc 1 846 14 is_stmt 0 view .LVU400
 1631 002c FFF7FEFF 		bl	FLASH_WaitForLastOperation
 1632              	.LVL76:
 849:./Library/stm32f4xx_flash.c ****   } 
 1633              		.loc 1 849 5 is_stmt 1 view .LVU401
 849:./Library/stm32f4xx_flash.c ****   } 
 1634              		.loc 1 849 15 is_stmt 0 view .LVU402
 1635 0030 3369     		ldr	r3, [r6, #16]
 1636 0032 23F00103 		bic	r3, r3, #1
 1637 0036 3361     		str	r3, [r6, #16]
 1638 0038 E9E7     		b	.L155
 1639              	.L159:
 1640 003a 00BF     		.align	2
 1641              	.L158:
 1642 003c 003C0240 		.word	1073888256
 1643              		.cfi_endproc
 1644              	.LFE137:
 1646              		.section	.text.FLASH_ProgramByte,"ax",%progbits
 1647              		.align	1
 1648              		.global	FLASH_ProgramByte
 1649              		.syntax unified
 1650              		.thumb
 1651              		.thumb_func
 1653              	FLASH_ProgramByte:
 1654              	.LVL77:
 1655              	.LFB138:
 869:./Library/stm32f4xx_flash.c ****   FLASH_Status status = FLASH_COMPLETE;
 1656              		.loc 1 869 1 is_stmt 1 view -0
 1657              		.cfi_startproc
 1658              		@ args = 0, pretend = 0, frame = 0
 1659              		@ frame_needed = 0, uses_anonymous_args = 0
 869:./Library/stm32f4xx_flash.c ****   FLASH_Status status = FLASH_COMPLETE;
 1660              		.loc 1 869 1 is_stmt 0 view .LVU404
 1661 0000 70B5     		push	{r4, r5, r6, lr}
 1662              	.LCFI10:
 1663              		.cfi_def_cfa_offset 16
 1664              		.cfi_offset 4, -16
 1665              		.cfi_offset 5, -12
 1666              		.cfi_offset 6, -8
 1667              		.cfi_offset 14, -4
 1668 0002 0546     		mov	r5, r0
 1669 0004 0C46     		mov	r4, r1
 870:./Library/stm32f4xx_flash.c **** 
ARM GAS  /var/folders/yl/_q9l42k90g1g4mdhbs226msm0000gn/T//ccpYyaD8.s 			page 61


 1670              		.loc 1 870 3 is_stmt 1 view .LVU405
 1671              	.LVL78:
 873:./Library/stm32f4xx_flash.c **** 
 1672              		.loc 1 873 3 view .LVU406
 876:./Library/stm32f4xx_flash.c ****   
 1673              		.loc 1 876 3 view .LVU407
 876:./Library/stm32f4xx_flash.c ****   
 1674              		.loc 1 876 12 is_stmt 0 view .LVU408
 1675 0006 FFF7FEFF 		bl	FLASH_WaitForLastOperation
 1676              	.LVL79:
 878:./Library/stm32f4xx_flash.c ****   {
 1677              		.loc 1 878 3 is_stmt 1 view .LVU409
 878:./Library/stm32f4xx_flash.c ****   {
 1678              		.loc 1 878 5 is_stmt 0 view .LVU410
 1679 000a 0928     		cmp	r0, #9
 1680 000c 00D0     		beq	.L163
 1681              	.L161:
 895:./Library/stm32f4xx_flash.c **** }
 1682              		.loc 1 895 3 is_stmt 1 view .LVU411
 896:./Library/stm32f4xx_flash.c **** 
 1683              		.loc 1 896 1 is_stmt 0 view .LVU412
 1684 000e 70BD     		pop	{r4, r5, r6, pc}
 1685              	.LVL80:
 1686              	.L163:
 881:./Library/stm32f4xx_flash.c ****     FLASH->CR |= FLASH_PSIZE_BYTE;
 1687              		.loc 1 881 5 is_stmt 1 view .LVU413
 881:./Library/stm32f4xx_flash.c ****     FLASH->CR |= FLASH_PSIZE_BYTE;
 1688              		.loc 1 881 15 is_stmt 0 view .LVU414
 1689 0010 094E     		ldr	r6, .L164
 1690 0012 3369     		ldr	r3, [r6, #16]
 1691 0014 23F44073 		bic	r3, r3, #768
 1692 0018 3361     		str	r3, [r6, #16]
 882:./Library/stm32f4xx_flash.c ****     FLASH->CR |= FLASH_CR_PG;
 1693              		.loc 1 882 5 is_stmt 1 view .LVU415
 882:./Library/stm32f4xx_flash.c ****     FLASH->CR |= FLASH_CR_PG;
 1694              		.loc 1 882 15 is_stmt 0 view .LVU416
 1695 001a 3369     		ldr	r3, [r6, #16]
 1696 001c 3361     		str	r3, [r6, #16]
 883:./Library/stm32f4xx_flash.c ****   
 1697              		.loc 1 883 5 is_stmt 1 view .LVU417
 883:./Library/stm32f4xx_flash.c ****   
 1698              		.loc 1 883 15 is_stmt 0 view .LVU418
 1699 001e 3369     		ldr	r3, [r6, #16]
 1700 0020 43F00103 		orr	r3, r3, #1
 1701 0024 3361     		str	r3, [r6, #16]
 885:./Library/stm32f4xx_flash.c ****         
 1702              		.loc 1 885 5 is_stmt 1 view .LVU419
 885:./Library/stm32f4xx_flash.c ****         
 1703              		.loc 1 885 29 is_stmt 0 view .LVU420
 1704 0026 2C70     		strb	r4, [r5]
 888:./Library/stm32f4xx_flash.c **** 
 1705              		.loc 1 888 5 is_stmt 1 view .LVU421
 888:./Library/stm32f4xx_flash.c **** 
 1706              		.loc 1 888 14 is_stmt 0 view .LVU422
 1707 0028 FFF7FEFF 		bl	FLASH_WaitForLastOperation
 1708              	.LVL81:
 891:./Library/stm32f4xx_flash.c ****   } 
ARM GAS  /var/folders/yl/_q9l42k90g1g4mdhbs226msm0000gn/T//ccpYyaD8.s 			page 62


 1709              		.loc 1 891 5 is_stmt 1 view .LVU423
 891:./Library/stm32f4xx_flash.c ****   } 
 1710              		.loc 1 891 15 is_stmt 0 view .LVU424
 1711 002c 3369     		ldr	r3, [r6, #16]
 1712 002e 23F00103 		bic	r3, r3, #1
 1713 0032 3361     		str	r3, [r6, #16]
 1714 0034 EBE7     		b	.L161
 1715              	.L165:
 1716 0036 00BF     		.align	2
 1717              	.L164:
 1718 0038 003C0240 		.word	1073888256
 1719              		.cfi_endproc
 1720              	.LFE138:
 1722              		.section	.text.FLASH_OB_WRPConfig,"ax",%progbits
 1723              		.align	1
 1724              		.global	FLASH_OB_WRPConfig
 1725              		.syntax unified
 1726              		.thumb
 1727              		.thumb_func
 1729              	FLASH_OB_WRPConfig:
 1730              	.LVL82:
 1731              	.LFB141:
1006:./Library/stm32f4xx_flash.c ****   FLASH_Status status = FLASH_COMPLETE;
 1732              		.loc 1 1006 1 is_stmt 1 view -0
 1733              		.cfi_startproc
 1734              		@ args = 0, pretend = 0, frame = 0
 1735              		@ frame_needed = 0, uses_anonymous_args = 0
1006:./Library/stm32f4xx_flash.c ****   FLASH_Status status = FLASH_COMPLETE;
 1736              		.loc 1 1006 1 is_stmt 0 view .LVU426
 1737 0000 38B5     		push	{r3, r4, r5, lr}
 1738              	.LCFI11:
 1739              		.cfi_def_cfa_offset 16
 1740              		.cfi_offset 3, -16
 1741              		.cfi_offset 4, -12
 1742              		.cfi_offset 5, -8
 1743              		.cfi_offset 14, -4
 1744 0002 0546     		mov	r5, r0
 1745 0004 0C46     		mov	r4, r1
1007:./Library/stm32f4xx_flash.c ****   
 1746              		.loc 1 1007 3 is_stmt 1 view .LVU427
 1747              	.LVL83:
1010:./Library/stm32f4xx_flash.c ****   assert_param(IS_FUNCTIONAL_STATE(NewState));
 1748              		.loc 1 1010 3 view .LVU428
1011:./Library/stm32f4xx_flash.c ****     
 1749              		.loc 1 1011 3 view .LVU429
1013:./Library/stm32f4xx_flash.c **** 
 1750              		.loc 1 1013 3 view .LVU430
1013:./Library/stm32f4xx_flash.c **** 
 1751              		.loc 1 1013 12 is_stmt 0 view .LVU431
 1752 0006 FFF7FEFF 		bl	FLASH_WaitForLastOperation
 1753              	.LVL84:
1015:./Library/stm32f4xx_flash.c ****   { 
 1754              		.loc 1 1015 3 is_stmt 1 view .LVU432
1015:./Library/stm32f4xx_flash.c ****   { 
 1755              		.loc 1 1015 5 is_stmt 0 view .LVU433
 1756 000a 0928     		cmp	r0, #9
 1757 000c 00D0     		beq	.L170
ARM GAS  /var/folders/yl/_q9l42k90g1g4mdhbs226msm0000gn/T//ccpYyaD8.s 			page 63


 1758              	.LVL85:
 1759              	.L166:
1026:./Library/stm32f4xx_flash.c **** 
 1760              		.loc 1 1026 1 view .LVU434
 1761 000e 38BD     		pop	{r3, r4, r5, pc}
 1762              	.LVL86:
 1763              	.L170:
1017:./Library/stm32f4xx_flash.c ****     {
 1764              		.loc 1 1017 5 is_stmt 1 view .LVU435
1017:./Library/stm32f4xx_flash.c ****     {
 1765              		.loc 1 1017 7 is_stmt 0 view .LVU436
 1766 0010 34B1     		cbz	r4, .L168
1019:./Library/stm32f4xx_flash.c ****     }
 1767              		.loc 1 1019 7 is_stmt 1 view .LVU437
1019:./Library/stm32f4xx_flash.c ****     }
 1768              		.loc 1 1019 44 is_stmt 0 view .LVU438
 1769 0012 074B     		ldr	r3, .L171
 1770 0014 D88A     		ldrh	r0, [r3, #22]
 1771              	.LVL87:
1019:./Library/stm32f4xx_flash.c ****     }
 1772              		.loc 1 1019 44 view .LVU439
 1773 0016 80B2     		uxth	r0, r0
 1774 0018 20EA0500 		bic	r0, r0, r5
 1775 001c D882     		strh	r0, [r3, #22]	@ movhi
 1776 001e F6E7     		b	.L166
 1777              	.LVL88:
 1778              	.L168:
1023:./Library/stm32f4xx_flash.c ****     }
 1779              		.loc 1 1023 7 is_stmt 1 view .LVU440
1023:./Library/stm32f4xx_flash.c ****     }
 1780              		.loc 1 1023 44 is_stmt 0 view .LVU441
 1781 0020 034A     		ldr	r2, .L171
 1782 0022 D08A     		ldrh	r0, [r2, #22]
 1783              	.LVL89:
1023:./Library/stm32f4xx_flash.c ****     }
 1784              		.loc 1 1023 44 view .LVU442
 1785 0024 83B2     		uxth	r3, r0
1023:./Library/stm32f4xx_flash.c ****     }
 1786              		.loc 1 1023 47 view .LVU443
 1787 0026 A8B2     		uxth	r0, r5
1023:./Library/stm32f4xx_flash.c ****     }
 1788              		.loc 1 1023 44 view .LVU444
 1789 0028 1843     		orrs	r0, r0, r3
 1790 002a D082     		strh	r0, [r2, #22]	@ movhi
1026:./Library/stm32f4xx_flash.c **** 
 1791              		.loc 1 1026 1 view .LVU445
 1792 002c EFE7     		b	.L166
 1793              	.L172:
 1794 002e 00BF     		.align	2
 1795              	.L171:
 1796 0030 003C0240 		.word	1073888256
 1797              		.cfi_endproc
 1798              	.LFE141:
 1800              		.section	.text.FLASH_OB_WRP1Config,"ax",%progbits
 1801              		.align	1
 1802              		.global	FLASH_OB_WRP1Config
 1803              		.syntax unified
ARM GAS  /var/folders/yl/_q9l42k90g1g4mdhbs226msm0000gn/T//ccpYyaD8.s 			page 64


 1804              		.thumb
 1805              		.thumb_func
 1807              	FLASH_OB_WRP1Config:
 1808              	.LVL90:
 1809              	.LFB142:
1048:./Library/stm32f4xx_flash.c ****   FLASH_Status status = FLASH_COMPLETE;
 1810              		.loc 1 1048 1 is_stmt 1 view -0
 1811              		.cfi_startproc
 1812              		@ args = 0, pretend = 0, frame = 0
 1813              		@ frame_needed = 0, uses_anonymous_args = 0
1048:./Library/stm32f4xx_flash.c ****   FLASH_Status status = FLASH_COMPLETE;
 1814              		.loc 1 1048 1 is_stmt 0 view .LVU447
 1815 0000 38B5     		push	{r3, r4, r5, lr}
 1816              	.LCFI12:
 1817              		.cfi_def_cfa_offset 16
 1818              		.cfi_offset 3, -16
 1819              		.cfi_offset 4, -12
 1820              		.cfi_offset 5, -8
 1821              		.cfi_offset 14, -4
 1822 0002 0546     		mov	r5, r0
 1823 0004 0C46     		mov	r4, r1
1049:./Library/stm32f4xx_flash.c ****   
 1824              		.loc 1 1049 3 is_stmt 1 view .LVU448
 1825              	.LVL91:
1052:./Library/stm32f4xx_flash.c ****   assert_param(IS_FUNCTIONAL_STATE(NewState));
 1826              		.loc 1 1052 3 view .LVU449
1053:./Library/stm32f4xx_flash.c ****     
 1827              		.loc 1 1053 3 view .LVU450
1055:./Library/stm32f4xx_flash.c **** 
 1828              		.loc 1 1055 3 view .LVU451
1055:./Library/stm32f4xx_flash.c **** 
 1829              		.loc 1 1055 12 is_stmt 0 view .LVU452
 1830 0006 FFF7FEFF 		bl	FLASH_WaitForLastOperation
 1831              	.LVL92:
1057:./Library/stm32f4xx_flash.c ****   { 
 1832              		.loc 1 1057 3 is_stmt 1 view .LVU453
1057:./Library/stm32f4xx_flash.c ****   { 
 1833              		.loc 1 1057 5 is_stmt 0 view .LVU454
 1834 000a 0928     		cmp	r0, #9
 1835 000c 00D0     		beq	.L177
 1836              	.LVL93:
 1837              	.L173:
1068:./Library/stm32f4xx_flash.c **** 
 1838              		.loc 1 1068 1 view .LVU455
 1839 000e 38BD     		pop	{r3, r4, r5, pc}
 1840              	.LVL94:
 1841              	.L177:
1059:./Library/stm32f4xx_flash.c ****     {
 1842              		.loc 1 1059 5 is_stmt 1 view .LVU456
1059:./Library/stm32f4xx_flash.c ****     {
 1843              		.loc 1 1059 7 is_stmt 0 view .LVU457
 1844 0010 34B1     		cbz	r4, .L175
1061:./Library/stm32f4xx_flash.c ****     }
 1845              		.loc 1 1061 7 is_stmt 1 view .LVU458
1061:./Library/stm32f4xx_flash.c ****     }
 1846              		.loc 1 1061 45 is_stmt 0 view .LVU459
 1847 0012 074B     		ldr	r3, .L178
ARM GAS  /var/folders/yl/_q9l42k90g1g4mdhbs226msm0000gn/T//ccpYyaD8.s 			page 65


 1848 0014 588B     		ldrh	r0, [r3, #26]
 1849              	.LVL95:
1061:./Library/stm32f4xx_flash.c ****     }
 1850              		.loc 1 1061 45 view .LVU460
 1851 0016 80B2     		uxth	r0, r0
 1852 0018 20EA0500 		bic	r0, r0, r5
 1853 001c 5883     		strh	r0, [r3, #26]	@ movhi
 1854 001e F6E7     		b	.L173
 1855              	.LVL96:
 1856              	.L175:
1065:./Library/stm32f4xx_flash.c ****     }
 1857              		.loc 1 1065 7 is_stmt 1 view .LVU461
1065:./Library/stm32f4xx_flash.c ****     }
 1858              		.loc 1 1065 45 is_stmt 0 view .LVU462
 1859 0020 034A     		ldr	r2, .L178
 1860 0022 508B     		ldrh	r0, [r2, #26]
 1861              	.LVL97:
1065:./Library/stm32f4xx_flash.c ****     }
 1862              		.loc 1 1065 45 view .LVU463
 1863 0024 83B2     		uxth	r3, r0
1065:./Library/stm32f4xx_flash.c ****     }
 1864              		.loc 1 1065 48 view .LVU464
 1865 0026 A8B2     		uxth	r0, r5
1065:./Library/stm32f4xx_flash.c ****     }
 1866              		.loc 1 1065 45 view .LVU465
 1867 0028 1843     		orrs	r0, r0, r3
 1868 002a 5083     		strh	r0, [r2, #26]	@ movhi
1068:./Library/stm32f4xx_flash.c **** 
 1869              		.loc 1 1068 1 view .LVU466
 1870 002c EFE7     		b	.L173
 1871              	.L179:
 1872 002e 00BF     		.align	2
 1873              	.L178:
 1874 0030 003C0240 		.word	1073888256
 1875              		.cfi_endproc
 1876              	.LFE142:
 1878              		.section	.text.FLASH_OB_PCROPConfig,"ax",%progbits
 1879              		.align	1
 1880              		.global	FLASH_OB_PCROPConfig
 1881              		.syntax unified
 1882              		.thumb
 1883              		.thumb_func
 1885              	FLASH_OB_PCROPConfig:
 1886              	.LVL98:
 1887              	.LFB144:
1129:./Library/stm32f4xx_flash.c ****   FLASH_Status status = FLASH_COMPLETE;
 1888              		.loc 1 1129 1 is_stmt 1 view -0
 1889              		.cfi_startproc
 1890              		@ args = 0, pretend = 0, frame = 0
 1891              		@ frame_needed = 0, uses_anonymous_args = 0
1129:./Library/stm32f4xx_flash.c ****   FLASH_Status status = FLASH_COMPLETE;
 1892              		.loc 1 1129 1 is_stmt 0 view .LVU468
 1893 0000 38B5     		push	{r3, r4, r5, lr}
 1894              	.LCFI13:
 1895              		.cfi_def_cfa_offset 16
 1896              		.cfi_offset 3, -16
 1897              		.cfi_offset 4, -12
ARM GAS  /var/folders/yl/_q9l42k90g1g4mdhbs226msm0000gn/T//ccpYyaD8.s 			page 66


 1898              		.cfi_offset 5, -8
 1899              		.cfi_offset 14, -4
 1900 0002 0546     		mov	r5, r0
 1901 0004 0C46     		mov	r4, r1
1130:./Library/stm32f4xx_flash.c ****   
 1902              		.loc 1 1130 3 is_stmt 1 view .LVU469
 1903              	.LVL99:
1133:./Library/stm32f4xx_flash.c ****   assert_param(IS_FUNCTIONAL_STATE(NewState));
 1904              		.loc 1 1133 3 view .LVU470
1134:./Library/stm32f4xx_flash.c ****     
 1905              		.loc 1 1134 3 view .LVU471
1136:./Library/stm32f4xx_flash.c **** 
 1906              		.loc 1 1136 3 view .LVU472
1136:./Library/stm32f4xx_flash.c **** 
 1907              		.loc 1 1136 12 is_stmt 0 view .LVU473
 1908 0006 FFF7FEFF 		bl	FLASH_WaitForLastOperation
 1909              	.LVL100:
1138:./Library/stm32f4xx_flash.c ****   { 
 1910              		.loc 1 1138 3 is_stmt 1 view .LVU474
1138:./Library/stm32f4xx_flash.c ****   { 
 1911              		.loc 1 1138 5 is_stmt 0 view .LVU475
 1912 000a 0928     		cmp	r0, #9
 1913 000c 00D0     		beq	.L184
 1914              	.LVL101:
 1915              	.L180:
1149:./Library/stm32f4xx_flash.c **** 
 1916              		.loc 1 1149 1 view .LVU476
 1917 000e 38BD     		pop	{r3, r4, r5, pc}
 1918              	.LVL102:
 1919              	.L184:
1140:./Library/stm32f4xx_flash.c ****     {
 1920              		.loc 1 1140 5 is_stmt 1 view .LVU477
1140:./Library/stm32f4xx_flash.c ****     {
 1921              		.loc 1 1140 7 is_stmt 0 view .LVU478
 1922 0010 34B1     		cbz	r4, .L182
1142:./Library/stm32f4xx_flash.c ****     }
 1923              		.loc 1 1142 7 is_stmt 1 view .LVU479
1142:./Library/stm32f4xx_flash.c ****     }
 1924              		.loc 1 1142 44 is_stmt 0 view .LVU480
 1925 0012 074A     		ldr	r2, .L185
 1926 0014 D08A     		ldrh	r0, [r2, #22]
 1927              	.LVL103:
1142:./Library/stm32f4xx_flash.c ****     }
 1928              		.loc 1 1142 44 view .LVU481
 1929 0016 83B2     		uxth	r3, r0
1142:./Library/stm32f4xx_flash.c ****     }
 1930              		.loc 1 1142 47 view .LVU482
 1931 0018 A8B2     		uxth	r0, r5
1142:./Library/stm32f4xx_flash.c ****     }
 1932              		.loc 1 1142 44 view .LVU483
 1933 001a 1843     		orrs	r0, r0, r3
 1934 001c D082     		strh	r0, [r2, #22]	@ movhi
 1935 001e F6E7     		b	.L180
 1936              	.LVL104:
 1937              	.L182:
1146:./Library/stm32f4xx_flash.c ****     }
 1938              		.loc 1 1146 7 is_stmt 1 view .LVU484
ARM GAS  /var/folders/yl/_q9l42k90g1g4mdhbs226msm0000gn/T//ccpYyaD8.s 			page 67


1146:./Library/stm32f4xx_flash.c ****     }
 1939              		.loc 1 1146 44 is_stmt 0 view .LVU485
 1940 0020 034B     		ldr	r3, .L185
 1941 0022 D88A     		ldrh	r0, [r3, #22]
 1942              	.LVL105:
1146:./Library/stm32f4xx_flash.c ****     }
 1943              		.loc 1 1146 44 view .LVU486
 1944 0024 80B2     		uxth	r0, r0
 1945 0026 20EA0500 		bic	r0, r0, r5
 1946 002a D882     		strh	r0, [r3, #22]	@ movhi
1149:./Library/stm32f4xx_flash.c **** 
 1947              		.loc 1 1149 1 view .LVU487
 1948 002c EFE7     		b	.L180
 1949              	.L186:
 1950 002e 00BF     		.align	2
 1951              	.L185:
 1952 0030 003C0240 		.word	1073888256
 1953              		.cfi_endproc
 1954              	.LFE144:
 1956              		.section	.text.FLASH_OB_PCROP1Config,"ax",%progbits
 1957              		.align	1
 1958              		.global	FLASH_OB_PCROP1Config
 1959              		.syntax unified
 1960              		.thumb
 1961              		.thumb_func
 1963              	FLASH_OB_PCROP1Config:
 1964              	.LVL106:
 1965              	.LFB145:
1166:./Library/stm32f4xx_flash.c ****   FLASH_Status status = FLASH_COMPLETE;
 1966              		.loc 1 1166 1 is_stmt 1 view -0
 1967              		.cfi_startproc
 1968              		@ args = 0, pretend = 0, frame = 0
 1969              		@ frame_needed = 0, uses_anonymous_args = 0
1166:./Library/stm32f4xx_flash.c ****   FLASH_Status status = FLASH_COMPLETE;
 1970              		.loc 1 1166 1 is_stmt 0 view .LVU489
 1971 0000 38B5     		push	{r3, r4, r5, lr}
 1972              	.LCFI14:
 1973              		.cfi_def_cfa_offset 16
 1974              		.cfi_offset 3, -16
 1975              		.cfi_offset 4, -12
 1976              		.cfi_offset 5, -8
 1977              		.cfi_offset 14, -4
 1978 0002 0546     		mov	r5, r0
 1979 0004 0C46     		mov	r4, r1
1167:./Library/stm32f4xx_flash.c ****   
 1980              		.loc 1 1167 3 is_stmt 1 view .LVU490
 1981              	.LVL107:
1170:./Library/stm32f4xx_flash.c ****   assert_param(IS_FUNCTIONAL_STATE(NewState));
 1982              		.loc 1 1170 3 view .LVU491
1171:./Library/stm32f4xx_flash.c ****     
 1983              		.loc 1 1171 3 view .LVU492
1173:./Library/stm32f4xx_flash.c **** 
 1984              		.loc 1 1173 3 view .LVU493
1173:./Library/stm32f4xx_flash.c **** 
 1985              		.loc 1 1173 12 is_stmt 0 view .LVU494
 1986 0006 FFF7FEFF 		bl	FLASH_WaitForLastOperation
 1987              	.LVL108:
ARM GAS  /var/folders/yl/_q9l42k90g1g4mdhbs226msm0000gn/T//ccpYyaD8.s 			page 68


1175:./Library/stm32f4xx_flash.c ****   { 
 1988              		.loc 1 1175 3 is_stmt 1 view .LVU495
1175:./Library/stm32f4xx_flash.c ****   { 
 1989              		.loc 1 1175 5 is_stmt 0 view .LVU496
 1990 000a 0928     		cmp	r0, #9
 1991 000c 00D0     		beq	.L191
 1992              	.LVL109:
 1993              	.L187:
1186:./Library/stm32f4xx_flash.c **** 
 1994              		.loc 1 1186 1 view .LVU497
 1995 000e 38BD     		pop	{r3, r4, r5, pc}
 1996              	.LVL110:
 1997              	.L191:
1177:./Library/stm32f4xx_flash.c ****     {
 1998              		.loc 1 1177 5 is_stmt 1 view .LVU498
1177:./Library/stm32f4xx_flash.c ****     {
 1999              		.loc 1 1177 7 is_stmt 0 view .LVU499
 2000 0010 34B1     		cbz	r4, .L189
1179:./Library/stm32f4xx_flash.c ****     }
 2001              		.loc 1 1179 7 is_stmt 1 view .LVU500
1179:./Library/stm32f4xx_flash.c ****     }
 2002              		.loc 1 1179 45 is_stmt 0 view .LVU501
 2003 0012 074A     		ldr	r2, .L192
 2004 0014 508B     		ldrh	r0, [r2, #26]
 2005              	.LVL111:
1179:./Library/stm32f4xx_flash.c ****     }
 2006              		.loc 1 1179 45 view .LVU502
 2007 0016 83B2     		uxth	r3, r0
1179:./Library/stm32f4xx_flash.c ****     }
 2008              		.loc 1 1179 48 view .LVU503
 2009 0018 A8B2     		uxth	r0, r5
1179:./Library/stm32f4xx_flash.c ****     }
 2010              		.loc 1 1179 45 view .LVU504
 2011 001a 1843     		orrs	r0, r0, r3
 2012 001c 5083     		strh	r0, [r2, #26]	@ movhi
 2013 001e F6E7     		b	.L187
 2014              	.LVL112:
 2015              	.L189:
1183:./Library/stm32f4xx_flash.c ****     }
 2016              		.loc 1 1183 7 is_stmt 1 view .LVU505
1183:./Library/stm32f4xx_flash.c ****     }
 2017              		.loc 1 1183 45 is_stmt 0 view .LVU506
 2018 0020 034B     		ldr	r3, .L192
 2019 0022 588B     		ldrh	r0, [r3, #26]
 2020              	.LVL113:
1183:./Library/stm32f4xx_flash.c ****     }
 2021              		.loc 1 1183 45 view .LVU507
 2022 0024 80B2     		uxth	r0, r0
 2023 0026 20EA0500 		bic	r0, r0, r5
 2024 002a 5883     		strh	r0, [r3, #26]	@ movhi
1186:./Library/stm32f4xx_flash.c **** 
 2025              		.loc 1 1186 1 view .LVU508
 2026 002c EFE7     		b	.L187
 2027              	.L193:
 2028 002e 00BF     		.align	2
 2029              	.L192:
 2030 0030 003C0240 		.word	1073888256
ARM GAS  /var/folders/yl/_q9l42k90g1g4mdhbs226msm0000gn/T//ccpYyaD8.s 			page 69


 2031              		.cfi_endproc
 2032              	.LFE145:
 2034              		.section	.text.FLASH_OB_RDPConfig,"ax",%progbits
 2035              		.align	1
 2036              		.global	FLASH_OB_RDPConfig
 2037              		.syntax unified
 2038              		.thumb
 2039              		.thumb_func
 2041              	FLASH_OB_RDPConfig:
 2042              	.LVL114:
 2043              	.LFB146:
1202:./Library/stm32f4xx_flash.c ****   FLASH_Status status = FLASH_COMPLETE;
 2044              		.loc 1 1202 1 is_stmt 1 view -0
 2045              		.cfi_startproc
 2046              		@ args = 0, pretend = 0, frame = 0
 2047              		@ frame_needed = 0, uses_anonymous_args = 0
1202:./Library/stm32f4xx_flash.c ****   FLASH_Status status = FLASH_COMPLETE;
 2048              		.loc 1 1202 1 is_stmt 0 view .LVU510
 2049 0000 10B5     		push	{r4, lr}
 2050              	.LCFI15:
 2051              		.cfi_def_cfa_offset 8
 2052              		.cfi_offset 4, -8
 2053              		.cfi_offset 14, -4
 2054 0002 0446     		mov	r4, r0
1203:./Library/stm32f4xx_flash.c **** 
 2055              		.loc 1 1203 3 is_stmt 1 view .LVU511
 2056              	.LVL115:
1206:./Library/stm32f4xx_flash.c **** 
 2057              		.loc 1 1206 3 view .LVU512
1208:./Library/stm32f4xx_flash.c **** 
 2058              		.loc 1 1208 3 view .LVU513
1208:./Library/stm32f4xx_flash.c **** 
 2059              		.loc 1 1208 12 is_stmt 0 view .LVU514
 2060 0004 FFF7FEFF 		bl	FLASH_WaitForLastOperation
 2061              	.LVL116:
1210:./Library/stm32f4xx_flash.c ****   {
 2062              		.loc 1 1210 3 is_stmt 1 view .LVU515
1210:./Library/stm32f4xx_flash.c ****   {
 2063              		.loc 1 1210 5 is_stmt 0 view .LVU516
 2064 0008 0928     		cmp	r0, #9
 2065 000a 00D0     		beq	.L197
 2066              	.L194:
1215:./Library/stm32f4xx_flash.c **** 
 2067              		.loc 1 1215 1 view .LVU517
 2068 000c 10BD     		pop	{r4, pc}
 2069              	.L197:
1212:./Library/stm32f4xx_flash.c **** 
 2070              		.loc 1 1212 5 is_stmt 1 view .LVU518
1212:./Library/stm32f4xx_flash.c **** 
 2071              		.loc 1 1212 41 is_stmt 0 view .LVU519
 2072 000e 014B     		ldr	r3, .L198
 2073 0010 5C75     		strb	r4, [r3, #21]
1215:./Library/stm32f4xx_flash.c **** 
 2074              		.loc 1 1215 1 view .LVU520
 2075 0012 FBE7     		b	.L194
 2076              	.L199:
 2077              		.align	2
ARM GAS  /var/folders/yl/_q9l42k90g1g4mdhbs226msm0000gn/T//ccpYyaD8.s 			page 70


 2078              	.L198:
 2079 0014 003C0240 		.word	1073888256
 2080              		.cfi_endproc
 2081              	.LFE146:
 2083              		.section	.text.FLASH_OB_UserConfig,"ax",%progbits
 2084              		.align	1
 2085              		.global	FLASH_OB_UserConfig
 2086              		.syntax unified
 2087              		.thumb
 2088              		.thumb_func
 2090              	FLASH_OB_UserConfig:
 2091              	.LVL117:
 2092              	.LFB147:
1234:./Library/stm32f4xx_flash.c ****   uint8_t optiontmp = 0xFF;
 2093              		.loc 1 1234 1 is_stmt 1 view -0
 2094              		.cfi_startproc
 2095              		@ args = 0, pretend = 0, frame = 0
 2096              		@ frame_needed = 0, uses_anonymous_args = 0
1234:./Library/stm32f4xx_flash.c ****   uint8_t optiontmp = 0xFF;
 2097              		.loc 1 1234 1 is_stmt 0 view .LVU522
 2098 0000 F8B5     		push	{r3, r4, r5, r6, r7, lr}
 2099              	.LCFI16:
 2100              		.cfi_def_cfa_offset 24
 2101              		.cfi_offset 3, -24
 2102              		.cfi_offset 4, -20
 2103              		.cfi_offset 5, -16
 2104              		.cfi_offset 6, -12
 2105              		.cfi_offset 7, -8
 2106              		.cfi_offset 14, -4
 2107 0002 0446     		mov	r4, r0
 2108 0004 0E46     		mov	r6, r1
 2109 0006 1546     		mov	r5, r2
1235:./Library/stm32f4xx_flash.c ****   FLASH_Status status = FLASH_COMPLETE; 
 2110              		.loc 1 1235 3 is_stmt 1 view .LVU523
 2111              	.LVL118:
1236:./Library/stm32f4xx_flash.c **** 
 2112              		.loc 1 1236 3 view .LVU524
1239:./Library/stm32f4xx_flash.c ****   assert_param(IS_OB_STOP_SOURCE(OB_STOP));
 2113              		.loc 1 1239 3 view .LVU525
1240:./Library/stm32f4xx_flash.c ****   assert_param(IS_OB_STDBY_SOURCE(OB_STDBY));
 2114              		.loc 1 1240 3 view .LVU526
1241:./Library/stm32f4xx_flash.c **** 
 2115              		.loc 1 1241 3 view .LVU527
1244:./Library/stm32f4xx_flash.c ****   
 2116              		.loc 1 1244 3 view .LVU528
1244:./Library/stm32f4xx_flash.c ****   
 2117              		.loc 1 1244 12 is_stmt 0 view .LVU529
 2118 0008 FFF7FEFF 		bl	FLASH_WaitForLastOperation
 2119              	.LVL119:
1246:./Library/stm32f4xx_flash.c ****   { 
 2120              		.loc 1 1246 3 is_stmt 1 view .LVU530
1246:./Library/stm32f4xx_flash.c ****   { 
 2121              		.loc 1 1246 5 is_stmt 0 view .LVU531
 2122 000c 0928     		cmp	r0, #9
 2123 000e 00D0     		beq	.L203
 2124              	.LVL120:
 2125              	.L200:
ARM GAS  /var/folders/yl/_q9l42k90g1g4mdhbs226msm0000gn/T//ccpYyaD8.s 			page 71


1261:./Library/stm32f4xx_flash.c **** 
 2126              		.loc 1 1261 1 view .LVU532
 2127 0010 F8BD     		pop	{r3, r4, r5, r6, r7, pc}
 2128              	.LVL121:
 2129              	.L203:
1255:./Library/stm32f4xx_flash.c **** #endif /* STM32F40_41xxx || STM32F401xx || STM32F410xx || STM32F411xE || STM32F446xx */ 
 2130              		.loc 1 1255 5 is_stmt 1 view .LVU533
1255:./Library/stm32f4xx_flash.c **** #endif /* STM32F40_41xxx || STM32F401xx || STM32F410xx || STM32F411xE || STM32F446xx */ 
 2131              		.loc 1 1255 67 is_stmt 0 view .LVU534
 2132 0012 064F     		ldr	r7, .L204
 2133 0014 3B7D     		ldrb	r3, [r7, #20]	@ zero_extendqisi2
1255:./Library/stm32f4xx_flash.c **** #endif /* STM32F40_41xxx || STM32F401xx || STM32F410xx || STM32F411xE || STM32F446xx */ 
 2134              		.loc 1 1255 15 view .LVU535
 2135 0016 03F00F03 		and	r3, r3, #15
 2136              	.LVL122:
1259:./Library/stm32f4xx_flash.c ****   }  
 2137              		.loc 1 1259 5 is_stmt 1 view .LVU536
1259:./Library/stm32f4xx_flash.c ****   }  
 2138              		.loc 1 1259 75 is_stmt 0 view .LVU537
 2139 001a 43EA0601 		orr	r1, r3, r6
1259:./Library/stm32f4xx_flash.c ****   }  
 2140              		.loc 1 1259 54 view .LVU538
 2141 001e 41EA0502 		orr	r2, r1, r5
1259:./Library/stm32f4xx_flash.c ****   }  
 2142              		.loc 1 1259 42 view .LVU539
 2143 0022 42EA0400 		orr	r0, r2, r4
 2144              	.LVL123:
1259:./Library/stm32f4xx_flash.c ****   }  
 2145              		.loc 1 1259 42 view .LVU540
 2146 0026 3875     		strb	r0, [r7, #20]
1261:./Library/stm32f4xx_flash.c **** 
 2147              		.loc 1 1261 1 view .LVU541
 2148 0028 F2E7     		b	.L200
 2149              	.L205:
 2150 002a 00BF     		.align	2
 2151              	.L204:
 2152 002c 003C0240 		.word	1073888256
 2153              		.cfi_endproc
 2154              	.LFE147:
 2156              		.section	.text.FLASH_OB_Launch,"ax",%progbits
 2157              		.align	1
 2158              		.global	FLASH_OB_Launch
 2159              		.syntax unified
 2160              		.thumb
 2161              		.thumb_func
 2163              	FLASH_OB_Launch:
 2164              	.LFB150:
1313:./Library/stm32f4xx_flash.c ****   FLASH_Status status = FLASH_COMPLETE;
 2165              		.loc 1 1313 1 is_stmt 1 view -0
 2166              		.cfi_startproc
 2167              		@ args = 0, pretend = 0, frame = 0
 2168              		@ frame_needed = 0, uses_anonymous_args = 0
 2169 0000 08B5     		push	{r3, lr}
 2170              	.LCFI17:
 2171              		.cfi_def_cfa_offset 8
 2172              		.cfi_offset 3, -8
 2173              		.cfi_offset 14, -4
ARM GAS  /var/folders/yl/_q9l42k90g1g4mdhbs226msm0000gn/T//ccpYyaD8.s 			page 72


1314:./Library/stm32f4xx_flash.c **** 
 2174              		.loc 1 1314 3 view .LVU543
 2175              	.LVL124:
1317:./Library/stm32f4xx_flash.c **** 
 2176              		.loc 1 1317 3 view .LVU544
1317:./Library/stm32f4xx_flash.c **** 
 2177              		.loc 1 1317 40 is_stmt 0 view .LVU545
 2178 0002 044A     		ldr	r2, .L208
 2179 0004 137D     		ldrb	r3, [r2, #20]	@ zero_extendqisi2
 2180 0006 43F00203 		orr	r3, r3, #2
 2181 000a 1375     		strb	r3, [r2, #20]
1320:./Library/stm32f4xx_flash.c **** 
 2182              		.loc 1 1320 3 is_stmt 1 view .LVU546
1320:./Library/stm32f4xx_flash.c **** 
 2183              		.loc 1 1320 12 is_stmt 0 view .LVU547
 2184 000c FFF7FEFF 		bl	FLASH_WaitForLastOperation
 2185              	.LVL125:
1322:./Library/stm32f4xx_flash.c **** }
 2186              		.loc 1 1322 3 is_stmt 1 view .LVU548
1323:./Library/stm32f4xx_flash.c **** 
 2187              		.loc 1 1323 1 is_stmt 0 view .LVU549
 2188 0010 08BD     		pop	{r3, pc}
 2189              	.L209:
 2190 0012 00BF     		.align	2
 2191              	.L208:
 2192 0014 003C0240 		.word	1073888256
 2193              		.cfi_endproc
 2194              	.LFE150:
 2196              		.text
 2197              	.Letext0:
 2198              		.file 2 "/Applications/ARM/arm-none-eabi/include/machine/_default_types.h"
 2199              		.file 3 "/Applications/ARM/arm-none-eabi/include/sys/_stdint.h"
 2200              		.file 4 "./CORE/stm32f4xx.h"
 2201              		.file 5 "./Library/stm32f4xx_flash.h"
ARM GAS  /var/folders/yl/_q9l42k90g1g4mdhbs226msm0000gn/T//ccpYyaD8.s 			page 73

