ARM GAS  /var/folders/yl/_q9l42k90g1g4mdhbs226msm0000gn/T//ccnb8eCC.s 			page 1


   1              		.cpu cortex-m4
   2              		.arch armv7e-m
   3              		.fpu fpv4-sp-d16
   4              		.eabi_attribute 27, 1
   5              		.eabi_attribute 28, 1
   6              		.eabi_attribute 20, 1
   7              		.eabi_attribute 21, 1
   8              		.eabi_attribute 23, 3
   9              		.eabi_attribute 24, 1
  10              		.eabi_attribute 25, 1
  11              		.eabi_attribute 26, 1
  12              		.eabi_attribute 30, 1
  13              		.eabi_attribute 34, 1
  14              		.eabi_attribute 18, 4
  15              		.file	"stm32f4xx_dma2d.c"
  16              		.text
  17              	.Ltext0:
  18              		.cfi_sections	.debug_frame
  19              		.section	.text.DMA2D_DeInit,"ax",%progbits
  20              		.align	1
  21              		.global	DMA2D_DeInit
  22              		.syntax unified
  23              		.thumb
  24              		.thumb_func
  26              	DMA2D_DeInit:
  27              	.LFB123:
  28              		.file 1 "./Library/stm32f4xx_dma2d.c"
   1:./Library/stm32f4xx_dma2d.c **** /**
   2:./Library/stm32f4xx_dma2d.c ****   ******************************************************************************
   3:./Library/stm32f4xx_dma2d.c ****   * @file    stm32f4xx_dma2d.c
   4:./Library/stm32f4xx_dma2d.c ****   * @author  MCD Application Team
   5:./Library/stm32f4xx_dma2d.c ****   * @version V1.8.1
   6:./Library/stm32f4xx_dma2d.c ****   * @date    27-January-2022
   7:./Library/stm32f4xx_dma2d.c ****   * @brief   This file provides firmware functions to manage the following 
   8:./Library/stm32f4xx_dma2d.c ****   *          functionalities of the DMA2D controller (DMA2D) peripheral:
   9:./Library/stm32f4xx_dma2d.c ****   *           + Initialization and configuration
  10:./Library/stm32f4xx_dma2d.c ****   *           + Interrupts and flags management
  11:./Library/stm32f4xx_dma2d.c ****   *           
  12:./Library/stm32f4xx_dma2d.c ****   @verbatim  
  13:./Library/stm32f4xx_dma2d.c ****  ===============================================================================
  14:./Library/stm32f4xx_dma2d.c ****                       ##### How to use this driver #####
  15:./Library/stm32f4xx_dma2d.c ****  ===============================================================================
  16:./Library/stm32f4xx_dma2d.c ****     [..]
  17:./Library/stm32f4xx_dma2d.c ****         (#) Enable DMA2D clock using 
  18:./Library/stm32f4xx_dma2d.c ****             RCC_APB2PeriphResetCmd(RCC_APB2Periph_DMA2D, ENABLE) function.
  19:./Library/stm32f4xx_dma2d.c ****             
  20:./Library/stm32f4xx_dma2d.c ****         (#) Configures DMA2D
  21:./Library/stm32f4xx_dma2d.c ****           (++) transfer mode 
  22:./Library/stm32f4xx_dma2d.c ****           (++) pixel format, line_number, pixel_per_line
  23:./Library/stm32f4xx_dma2d.c ****           (++) output memory address
  24:./Library/stm32f4xx_dma2d.c ****           (++) alpha value
  25:./Library/stm32f4xx_dma2d.c ****           (++) output offset
  26:./Library/stm32f4xx_dma2d.c ****           (++) Default color (RGB)
  27:./Library/stm32f4xx_dma2d.c ****            
  28:./Library/stm32f4xx_dma2d.c ****         (#) Configures Foreground or/and background
  29:./Library/stm32f4xx_dma2d.c ****           (++) memory address
  30:./Library/stm32f4xx_dma2d.c ****           (++) alpha value
ARM GAS  /var/folders/yl/_q9l42k90g1g4mdhbs226msm0000gn/T//ccnb8eCC.s 			page 2


  31:./Library/stm32f4xx_dma2d.c ****           (++) offset and default color
  32:./Library/stm32f4xx_dma2d.c ****   
  33:./Library/stm32f4xx_dma2d.c ****         (#) Call the DMA2D_Start() to enable the DMA2D controller.
  34:./Library/stm32f4xx_dma2d.c ****         
  35:./Library/stm32f4xx_dma2d.c ****     @endverbatim
  36:./Library/stm32f4xx_dma2d.c ****   
  37:./Library/stm32f4xx_dma2d.c ****   ******************************************************************************
  38:./Library/stm32f4xx_dma2d.c ****   * @attention
  39:./Library/stm32f4xx_dma2d.c ****   *
  40:./Library/stm32f4xx_dma2d.c ****   * Copyright (c) 2016 STMicroelectronics.
  41:./Library/stm32f4xx_dma2d.c ****   * All rights reserved.
  42:./Library/stm32f4xx_dma2d.c ****   *
  43:./Library/stm32f4xx_dma2d.c ****   * This software is licensed under terms that can be found in the LICENSE file
  44:./Library/stm32f4xx_dma2d.c ****   * in the root directory of this software component.
  45:./Library/stm32f4xx_dma2d.c ****   * If no LICENSE file comes with this software, it is provided AS-IS.
  46:./Library/stm32f4xx_dma2d.c ****   *
  47:./Library/stm32f4xx_dma2d.c ****   ******************************************************************************
  48:./Library/stm32f4xx_dma2d.c ****   */
  49:./Library/stm32f4xx_dma2d.c **** 
  50:./Library/stm32f4xx_dma2d.c **** /* Includes ------------------------------------------------------------------*/
  51:./Library/stm32f4xx_dma2d.c **** #include "stm32f4xx_dma2d.h"
  52:./Library/stm32f4xx_dma2d.c **** #include "stm32f4xx_rcc.h"
  53:./Library/stm32f4xx_dma2d.c **** 
  54:./Library/stm32f4xx_dma2d.c **** /** @addtogroup STM32F4xx_StdPeriph_Driver
  55:./Library/stm32f4xx_dma2d.c ****   * @{
  56:./Library/stm32f4xx_dma2d.c ****   */
  57:./Library/stm32f4xx_dma2d.c **** 
  58:./Library/stm32f4xx_dma2d.c **** /** @defgroup DMA2D 
  59:./Library/stm32f4xx_dma2d.c ****   * @brief DMA2D driver modules
  60:./Library/stm32f4xx_dma2d.c ****   * @{
  61:./Library/stm32f4xx_dma2d.c ****   */
  62:./Library/stm32f4xx_dma2d.c **** 
  63:./Library/stm32f4xx_dma2d.c **** /* Private typedef -----------------------------------------------------------*/
  64:./Library/stm32f4xx_dma2d.c **** /* Private define ------------------------------------------------------------*/
  65:./Library/stm32f4xx_dma2d.c **** /* Private macro -------------------------------------------------------------*/
  66:./Library/stm32f4xx_dma2d.c **** /* Private variables ---------------------------------------------------------*/
  67:./Library/stm32f4xx_dma2d.c **** /* Private function prototypes -----------------------------------------------*/
  68:./Library/stm32f4xx_dma2d.c **** /* Private functions ---------------------------------------------------------*/
  69:./Library/stm32f4xx_dma2d.c **** 
  70:./Library/stm32f4xx_dma2d.c **** #define CR_MASK                     ((uint32_t)0xFFFCE0FC)  /* DMA2D CR Mask */
  71:./Library/stm32f4xx_dma2d.c **** #define PFCCR_MASK                  ((uint32_t)0x00FC00C0)  /* DMA2D FGPFCCR Mask */
  72:./Library/stm32f4xx_dma2d.c **** #define DEAD_MASK                   ((uint32_t)0xFFFF00FE)  /* DMA2D DEAD Mask */
  73:./Library/stm32f4xx_dma2d.c **** 
  74:./Library/stm32f4xx_dma2d.c **** /** @defgroup DMA2D_Private_Functions
  75:./Library/stm32f4xx_dma2d.c ****   * @{
  76:./Library/stm32f4xx_dma2d.c ****   */
  77:./Library/stm32f4xx_dma2d.c **** 
  78:./Library/stm32f4xx_dma2d.c **** /** @defgroup DMA2D_Group1 Initialization and Configuration functions
  79:./Library/stm32f4xx_dma2d.c ****  *  @brief   Initialization and Configuration functions 
  80:./Library/stm32f4xx_dma2d.c ****  *
  81:./Library/stm32f4xx_dma2d.c **** @verbatim
  82:./Library/stm32f4xx_dma2d.c ****  ===============================================================================
  83:./Library/stm32f4xx_dma2d.c ****             ##### Initialization and Configuration functions #####
  84:./Library/stm32f4xx_dma2d.c ****  ===============================================================================
  85:./Library/stm32f4xx_dma2d.c ****     [..]  This section provides functions allowing to:
  86:./Library/stm32f4xx_dma2d.c ****       (+) Initialize and configure the DMA2D
  87:./Library/stm32f4xx_dma2d.c ****       (+) Start/Abort/Suspend Transfer
ARM GAS  /var/folders/yl/_q9l42k90g1g4mdhbs226msm0000gn/T//ccnb8eCC.s 			page 3


  88:./Library/stm32f4xx_dma2d.c ****       (+) Initialize, configure and set Foreground and background
  89:./Library/stm32f4xx_dma2d.c ****       (+) configure and enable DeadTime
  90:./Library/stm32f4xx_dma2d.c ****       (+) configure lineWatermark
  91:./Library/stm32f4xx_dma2d.c ****     
  92:./Library/stm32f4xx_dma2d.c ****     
  93:./Library/stm32f4xx_dma2d.c **** @endverbatim
  94:./Library/stm32f4xx_dma2d.c ****   * @{
  95:./Library/stm32f4xx_dma2d.c ****   */
  96:./Library/stm32f4xx_dma2d.c **** 
  97:./Library/stm32f4xx_dma2d.c **** /**
  98:./Library/stm32f4xx_dma2d.c ****   * @brief  Deinitializes the DMA2D peripheral registers to their default reset
  99:./Library/stm32f4xx_dma2d.c ****   *         values.
 100:./Library/stm32f4xx_dma2d.c ****   * @param  None
 101:./Library/stm32f4xx_dma2d.c ****   * @retval None
 102:./Library/stm32f4xx_dma2d.c ****   */
 103:./Library/stm32f4xx_dma2d.c **** 
 104:./Library/stm32f4xx_dma2d.c **** void DMA2D_DeInit(void)
 105:./Library/stm32f4xx_dma2d.c **** {
  29              		.loc 1 105 1 view -0
  30              		.cfi_startproc
  31              		@ args = 0, pretend = 0, frame = 0
  32              		@ frame_needed = 0, uses_anonymous_args = 0
  33 0000 08B5     		push	{r3, lr}
  34              	.LCFI0:
  35              		.cfi_def_cfa_offset 8
  36              		.cfi_offset 3, -8
  37              		.cfi_offset 14, -4
 106:./Library/stm32f4xx_dma2d.c ****   /* Enable DMA2D reset state */
 107:./Library/stm32f4xx_dma2d.c ****   RCC_AHB1PeriphResetCmd(RCC_AHB1Periph_DMA2D, ENABLE);
  38              		.loc 1 107 3 view .LVU1
  39 0002 0121     		movs	r1, #1
  40 0004 4FF40000 		mov	r0, #8388608
  41 0008 FFF7FEFF 		bl	RCC_AHB1PeriphResetCmd
  42              	.LVL0:
 108:./Library/stm32f4xx_dma2d.c ****   /* Release DMA2D from reset state */
 109:./Library/stm32f4xx_dma2d.c ****   RCC_AHB1PeriphResetCmd(RCC_AHB1Periph_DMA2D, DISABLE);
  43              		.loc 1 109 3 view .LVU2
  44 000c 0021     		movs	r1, #0
  45 000e 4FF40000 		mov	r0, #8388608
  46 0012 FFF7FEFF 		bl	RCC_AHB1PeriphResetCmd
  47              	.LVL1:
 110:./Library/stm32f4xx_dma2d.c **** }
  48              		.loc 1 110 1 is_stmt 0 view .LVU3
  49 0016 08BD     		pop	{r3, pc}
  50              		.cfi_endproc
  51              	.LFE123:
  53              		.section	.text.DMA2D_Init,"ax",%progbits
  54              		.align	1
  55              		.global	DMA2D_Init
  56              		.syntax unified
  57              		.thumb
  58              		.thumb_func
  60              	DMA2D_Init:
  61              	.LVL2:
  62              	.LFB124:
 111:./Library/stm32f4xx_dma2d.c **** 
 112:./Library/stm32f4xx_dma2d.c **** 
ARM GAS  /var/folders/yl/_q9l42k90g1g4mdhbs226msm0000gn/T//ccnb8eCC.s 			page 4


 113:./Library/stm32f4xx_dma2d.c **** /**
 114:./Library/stm32f4xx_dma2d.c ****   * @brief  Initializes the DMA2D peripheral according to the specified parameters
 115:./Library/stm32f4xx_dma2d.c ****   *         in the DMA2D_InitStruct.
 116:./Library/stm32f4xx_dma2d.c ****   * @note   This function can be used only when the DMA2D is disabled.
 117:./Library/stm32f4xx_dma2d.c ****   * @param  DMA2D_InitStruct: pointer to a DMA2D_InitTypeDef structure that contains
 118:./Library/stm32f4xx_dma2d.c ****   *         the configuration information for the specified DMA2D peripheral.
 119:./Library/stm32f4xx_dma2d.c ****   * @retval None
 120:./Library/stm32f4xx_dma2d.c ****   */
 121:./Library/stm32f4xx_dma2d.c **** void DMA2D_Init(DMA2D_InitTypeDef* DMA2D_InitStruct)
 122:./Library/stm32f4xx_dma2d.c **** {
  63              		.loc 1 122 1 is_stmt 1 view -0
  64              		.cfi_startproc
  65              		@ args = 0, pretend = 0, frame = 0
  66              		@ frame_needed = 0, uses_anonymous_args = 0
  67              		@ link register save eliminated.
  68              		.loc 1 122 1 is_stmt 0 view .LVU5
  69 0000 30B4     		push	{r4, r5}
  70              	.LCFI1:
  71              		.cfi_def_cfa_offset 8
  72              		.cfi_offset 4, -8
  73              		.cfi_offset 5, -4
 123:./Library/stm32f4xx_dma2d.c **** 
 124:./Library/stm32f4xx_dma2d.c ****   uint32_t outgreen = 0;
  74              		.loc 1 124 3 is_stmt 1 view .LVU6
  75              	.LVL3:
 125:./Library/stm32f4xx_dma2d.c ****   uint32_t outred   = 0;
  76              		.loc 1 125 3 view .LVU7
 126:./Library/stm32f4xx_dma2d.c ****   uint32_t outalpha = 0;
  77              		.loc 1 126 3 view .LVU8
 127:./Library/stm32f4xx_dma2d.c ****   uint32_t pixline  = 0;
  78              		.loc 1 127 3 view .LVU9
 128:./Library/stm32f4xx_dma2d.c **** 
 129:./Library/stm32f4xx_dma2d.c ****   /* Check the parameters */
 130:./Library/stm32f4xx_dma2d.c ****   assert_param(IS_DMA2D_MODE(DMA2D_InitStruct->DMA2D_Mode));
  79              		.loc 1 130 3 view .LVU10
 131:./Library/stm32f4xx_dma2d.c ****   assert_param(IS_DMA2D_CMODE(DMA2D_InitStruct->DMA2D_CMode));
  80              		.loc 1 131 3 view .LVU11
 132:./Library/stm32f4xx_dma2d.c ****   assert_param(IS_DMA2D_OGREEN(DMA2D_InitStruct->DMA2D_OutputGreen));
  81              		.loc 1 132 3 view .LVU12
 133:./Library/stm32f4xx_dma2d.c ****   assert_param(IS_DMA2D_ORED(DMA2D_InitStruct->DMA2D_OutputRed));
  82              		.loc 1 133 3 view .LVU13
 134:./Library/stm32f4xx_dma2d.c ****   assert_param(IS_DMA2D_OBLUE(DMA2D_InitStruct->DMA2D_OutputBlue));
  83              		.loc 1 134 3 view .LVU14
 135:./Library/stm32f4xx_dma2d.c ****   assert_param(IS_DMA2D_OALPHA(DMA2D_InitStruct->DMA2D_OutputAlpha));
  84              		.loc 1 135 3 view .LVU15
 136:./Library/stm32f4xx_dma2d.c ****   assert_param(IS_DMA2D_OUTPUT_OFFSET(DMA2D_InitStruct->DMA2D_OutputOffset));
  85              		.loc 1 136 3 view .LVU16
 137:./Library/stm32f4xx_dma2d.c ****   assert_param(IS_DMA2D_LINE(DMA2D_InitStruct->DMA2D_NumberOfLine));
  86              		.loc 1 137 3 view .LVU17
 138:./Library/stm32f4xx_dma2d.c ****   assert_param(IS_DMA2D_PIXEL(DMA2D_InitStruct->DMA2D_PixelPerLine));
  87              		.loc 1 138 3 view .LVU18
 139:./Library/stm32f4xx_dma2d.c **** 
 140:./Library/stm32f4xx_dma2d.c ****   /* Configures the DMA2D operation mode */
 141:./Library/stm32f4xx_dma2d.c ****   DMA2D->CR &= (uint32_t)CR_MASK;
  88              		.loc 1 141 3 view .LVU19
  89              		.loc 1 141 13 is_stmt 0 view .LVU20
  90 0002 2D4B     		ldr	r3, .L13
ARM GAS  /var/folders/yl/_q9l42k90g1g4mdhbs226msm0000gn/T//ccnb8eCC.s 			page 5


  91 0004 1A68     		ldr	r2, [r3]
  92 0006 22F00312 		bic	r2, r2, #196611
  93 000a 22F4F852 		bic	r2, r2, #7936
  94 000e 1A60     		str	r2, [r3]
 142:./Library/stm32f4xx_dma2d.c ****   DMA2D->CR |= (DMA2D_InitStruct->DMA2D_Mode);
  95              		.loc 1 142 3 is_stmt 1 view .LVU21
  96              		.loc 1 142 13 is_stmt 0 view .LVU22
  97 0010 1A68     		ldr	r2, [r3]
  98              		.loc 1 142 33 view .LVU23
  99 0012 0168     		ldr	r1, [r0]
 100              		.loc 1 142 13 view .LVU24
 101 0014 0A43     		orrs	r2, r2, r1
 102 0016 1A60     		str	r2, [r3]
 143:./Library/stm32f4xx_dma2d.c **** 
 144:./Library/stm32f4xx_dma2d.c ****   /* Configures the color mode of the output image */
 145:./Library/stm32f4xx_dma2d.c ****   DMA2D->OPFCCR &= ~(uint32_t)DMA2D_OPFCCR_CM;
 103              		.loc 1 145 3 is_stmt 1 view .LVU25
 104              		.loc 1 145 17 is_stmt 0 view .LVU26
 105 0018 5A6B     		ldr	r2, [r3, #52]
 106 001a 22F00702 		bic	r2, r2, #7
 107 001e 5A63     		str	r2, [r3, #52]
 146:./Library/stm32f4xx_dma2d.c ****   DMA2D->OPFCCR |= (DMA2D_InitStruct->DMA2D_CMode);
 108              		.loc 1 146 3 is_stmt 1 view .LVU27
 109              		.loc 1 146 17 is_stmt 0 view .LVU28
 110 0020 5A6B     		ldr	r2, [r3, #52]
 111              		.loc 1 146 37 view .LVU29
 112 0022 4168     		ldr	r1, [r0, #4]
 113              		.loc 1 146 17 view .LVU30
 114 0024 0A43     		orrs	r2, r2, r1
 115 0026 5A63     		str	r2, [r3, #52]
 147:./Library/stm32f4xx_dma2d.c **** 
 148:./Library/stm32f4xx_dma2d.c ****   /* Configures the output color */
 149:./Library/stm32f4xx_dma2d.c **** 
 150:./Library/stm32f4xx_dma2d.c ****   if (DMA2D_InitStruct->DMA2D_CMode == DMA2D_ARGB8888)
 116              		.loc 1 150 3 is_stmt 1 view .LVU31
 117              		.loc 1 150 23 is_stmt 0 view .LVU32
 118 0028 4368     		ldr	r3, [r0, #4]
 119              		.loc 1 150 6 view .LVU33
 120 002a 23BB     		cbnz	r3, .L4
 151:./Library/stm32f4xx_dma2d.c ****   {
 152:./Library/stm32f4xx_dma2d.c ****     outgreen = DMA2D_InitStruct->DMA2D_OutputGreen << 8;
 121              		.loc 1 152 5 is_stmt 1 view .LVU34
 122              		.loc 1 152 32 is_stmt 0 view .LVU35
 123 002c C268     		ldr	r2, [r0, #12]
 124              		.loc 1 152 14 view .LVU36
 125 002e 1202     		lsls	r2, r2, #8
 126              	.LVL4:
 153:./Library/stm32f4xx_dma2d.c ****     outred = DMA2D_InitStruct->DMA2D_OutputRed << 16;
 127              		.loc 1 153 5 is_stmt 1 view .LVU37
 128              		.loc 1 153 30 is_stmt 0 view .LVU38
 129 0030 0369     		ldr	r3, [r0, #16]
 130              		.loc 1 153 12 view .LVU39
 131 0032 1B04     		lsls	r3, r3, #16
 132              	.LVL5:
 154:./Library/stm32f4xx_dma2d.c ****     outalpha = DMA2D_InitStruct->DMA2D_OutputAlpha << 24;
 133              		.loc 1 154 5 is_stmt 1 view .LVU40
 134              		.loc 1 154 32 is_stmt 0 view .LVU41
ARM GAS  /var/folders/yl/_q9l42k90g1g4mdhbs226msm0000gn/T//ccnb8eCC.s 			page 6


 135 0034 4169     		ldr	r1, [r0, #20]
 136              		.loc 1 154 14 view .LVU42
 137 0036 0906     		lsls	r1, r1, #24
 138              	.LVL6:
 139              	.L5:
 155:./Library/stm32f4xx_dma2d.c ****   }
 156:./Library/stm32f4xx_dma2d.c ****   else
 157:./Library/stm32f4xx_dma2d.c ****   
 158:./Library/stm32f4xx_dma2d.c ****     if (DMA2D_InitStruct->DMA2D_CMode == DMA2D_RGB888)
 159:./Library/stm32f4xx_dma2d.c ****     {
 160:./Library/stm32f4xx_dma2d.c ****       outgreen = DMA2D_InitStruct->DMA2D_OutputGreen << 8;
 161:./Library/stm32f4xx_dma2d.c ****       outred = DMA2D_InitStruct->DMA2D_OutputRed << 16;
 162:./Library/stm32f4xx_dma2d.c ****       outalpha = (uint32_t)0x00000000;
 163:./Library/stm32f4xx_dma2d.c ****     }
 164:./Library/stm32f4xx_dma2d.c ****      
 165:./Library/stm32f4xx_dma2d.c ****   else
 166:./Library/stm32f4xx_dma2d.c **** 
 167:./Library/stm32f4xx_dma2d.c ****     if (DMA2D_InitStruct->DMA2D_CMode == DMA2D_RGB565)
 168:./Library/stm32f4xx_dma2d.c ****     {
 169:./Library/stm32f4xx_dma2d.c ****       outgreen = DMA2D_InitStruct->DMA2D_OutputGreen << 5;
 170:./Library/stm32f4xx_dma2d.c ****       outred = DMA2D_InitStruct->DMA2D_OutputRed << 11;
 171:./Library/stm32f4xx_dma2d.c ****       outalpha = (uint32_t)0x00000000;
 172:./Library/stm32f4xx_dma2d.c ****     }
 173:./Library/stm32f4xx_dma2d.c **** 
 174:./Library/stm32f4xx_dma2d.c ****   else
 175:./Library/stm32f4xx_dma2d.c **** 
 176:./Library/stm32f4xx_dma2d.c ****     if (DMA2D_InitStruct->DMA2D_CMode == DMA2D_ARGB1555)
 177:./Library/stm32f4xx_dma2d.c ****     {  
 178:./Library/stm32f4xx_dma2d.c ****       outgreen = DMA2D_InitStruct->DMA2D_OutputGreen << 5;
 179:./Library/stm32f4xx_dma2d.c ****       outred = DMA2D_InitStruct->DMA2D_OutputRed << 10;
 180:./Library/stm32f4xx_dma2d.c ****       outalpha = DMA2D_InitStruct->DMA2D_OutputAlpha << 15;
 181:./Library/stm32f4xx_dma2d.c ****     }
 182:./Library/stm32f4xx_dma2d.c **** 
 183:./Library/stm32f4xx_dma2d.c ****   else /* DMA2D_CMode = DMA2D_ARGB4444 */
 184:./Library/stm32f4xx_dma2d.c ****   {
 185:./Library/stm32f4xx_dma2d.c ****     outgreen = DMA2D_InitStruct->DMA2D_OutputGreen << 4;
 186:./Library/stm32f4xx_dma2d.c ****     outred = DMA2D_InitStruct->DMA2D_OutputRed << 8;
 187:./Library/stm32f4xx_dma2d.c ****     outalpha = DMA2D_InitStruct->DMA2D_OutputAlpha << 12;
 188:./Library/stm32f4xx_dma2d.c ****   }  
 189:./Library/stm32f4xx_dma2d.c ****   DMA2D->OCOLR = ((outgreen) | (outred) | (DMA2D_InitStruct->DMA2D_OutputBlue) | (outalpha));
 140              		.loc 1 189 3 is_stmt 1 view .LVU43
 141              		.loc 1 189 30 is_stmt 0 view .LVU44
 142 0038 1A43     		orrs	r2, r2, r3
 143              	.LVL7:
 144              		.loc 1 189 60 view .LVU45
 145 003a 8368     		ldr	r3, [r0, #8]
 146              	.LVL8:
 147              		.loc 1 189 41 view .LVU46
 148 003c 1A43     		orrs	r2, r2, r3
 149              		.loc 1 189 80 view .LVU47
 150 003e 0A43     		orrs	r2, r2, r1
 151              		.loc 1 189 16 view .LVU48
 152 0040 1D4B     		ldr	r3, .L13
 153 0042 9A63     		str	r2, [r3, #56]
 190:./Library/stm32f4xx_dma2d.c **** 
 191:./Library/stm32f4xx_dma2d.c ****   /* Configures the output memory address */
 192:./Library/stm32f4xx_dma2d.c ****   DMA2D->OMAR = (DMA2D_InitStruct->DMA2D_OutputMemoryAdd);
ARM GAS  /var/folders/yl/_q9l42k90g1g4mdhbs226msm0000gn/T//ccnb8eCC.s 			page 7


 154              		.loc 1 192 3 is_stmt 1 view .LVU49
 155              		.loc 1 192 34 is_stmt 0 view .LVU50
 156 0044 8269     		ldr	r2, [r0, #24]
 157              		.loc 1 192 15 view .LVU51
 158 0046 DA63     		str	r2, [r3, #60]
 193:./Library/stm32f4xx_dma2d.c **** 
 194:./Library/stm32f4xx_dma2d.c ****   /* Configure  the line Offset */
 195:./Library/stm32f4xx_dma2d.c ****   DMA2D->OOR &= ~(uint32_t)DMA2D_OOR_LO;
 159              		.loc 1 195 3 is_stmt 1 view .LVU52
 160              		.loc 1 195 14 is_stmt 0 view .LVU53
 161 0048 1A6C     		ldr	r2, [r3, #64]
 162 004a 22F47F52 		bic	r2, r2, #16320
 163 004e 22F03F02 		bic	r2, r2, #63
 164 0052 1A64     		str	r2, [r3, #64]
 196:./Library/stm32f4xx_dma2d.c ****   DMA2D->OOR |= (DMA2D_InitStruct->DMA2D_OutputOffset);
 165              		.loc 1 196 3 is_stmt 1 view .LVU54
 166              		.loc 1 196 14 is_stmt 0 view .LVU55
 167 0054 1A6C     		ldr	r2, [r3, #64]
 168              		.loc 1 196 34 view .LVU56
 169 0056 C169     		ldr	r1, [r0, #28]
 170              	.LVL9:
 171              		.loc 1 196 14 view .LVU57
 172 0058 0A43     		orrs	r2, r2, r1
 173 005a 1A64     		str	r2, [r3, #64]
 197:./Library/stm32f4xx_dma2d.c **** 
 198:./Library/stm32f4xx_dma2d.c ****   /* Configure the number of line and pixel per line */
 199:./Library/stm32f4xx_dma2d.c ****   pixline = DMA2D_InitStruct->DMA2D_PixelPerLine << 16; 
 174              		.loc 1 199 3 is_stmt 1 view .LVU58
 175              		.loc 1 199 29 is_stmt 0 view .LVU59
 176 005c 456A     		ldr	r5, [r0, #36]
 177              	.LVL10:
 200:./Library/stm32f4xx_dma2d.c ****   DMA2D->NLR &= ~(DMA2D_NLR_NL | DMA2D_NLR_PL);
 178              		.loc 1 200 3 is_stmt 1 view .LVU60
 179              		.loc 1 200 14 is_stmt 0 view .LVU61
 180 005e 5C6C     		ldr	r4, [r3, #68]
 181 0060 04F04044 		and	r4, r4, #-1073741824
 182 0064 5C64     		str	r4, [r3, #68]
 201:./Library/stm32f4xx_dma2d.c ****   DMA2D->NLR |= ((DMA2D_InitStruct->DMA2D_NumberOfLine) | (pixline));
 183              		.loc 1 201 3 is_stmt 1 view .LVU62
 184              		.loc 1 201 14 is_stmt 0 view .LVU63
 185 0066 5A6C     		ldr	r2, [r3, #68]
 186              		.loc 1 201 35 view .LVU64
 187 0068 016A     		ldr	r1, [r0, #32]
 188              		.loc 1 201 57 view .LVU65
 189 006a 41EA0541 		orr	r1, r1, r5, lsl #16
 190              		.loc 1 201 14 view .LVU66
 191 006e 0A43     		orrs	r2, r2, r1
 192 0070 5A64     		str	r2, [r3, #68]
 202:./Library/stm32f4xx_dma2d.c **** 
 203:./Library/stm32f4xx_dma2d.c **** /**
 204:./Library/stm32f4xx_dma2d.c ****   * @brief  Fills each DMA2D_InitStruct member with its default value.
 205:./Library/stm32f4xx_dma2d.c ****   * @param  DMA2D_InitStruct: pointer to a DMA2D_InitTypeDef structure which will
 206:./Library/stm32f4xx_dma2d.c ****   *         be initialized.
 207:./Library/stm32f4xx_dma2d.c ****   * @retval None
 208:./Library/stm32f4xx_dma2d.c ****   */
 209:./Library/stm32f4xx_dma2d.c **** }
 193              		.loc 1 209 1 view .LVU67
ARM GAS  /var/folders/yl/_q9l42k90g1g4mdhbs226msm0000gn/T//ccnb8eCC.s 			page 8


 194 0072 30BC     		pop	{r4, r5}
 195              	.LCFI2:
 196              		.cfi_remember_state
 197              		.cfi_restore 5
 198              		.cfi_restore 4
 199              		.cfi_def_cfa_offset 0
 200              	.LVL11:
 201              		.loc 1 209 1 view .LVU68
 202 0074 7047     		bx	lr
 203              	.LVL12:
 204              	.L4:
 205              	.LCFI3:
 206              		.cfi_restore_state
 158:./Library/stm32f4xx_dma2d.c ****     {
 207              		.loc 1 158 5 is_stmt 1 view .LVU69
 158:./Library/stm32f4xx_dma2d.c ****     {
 208              		.loc 1 158 8 is_stmt 0 view .LVU70
 209 0076 012B     		cmp	r3, #1
 210 0078 0AD0     		beq	.L10
 167:./Library/stm32f4xx_dma2d.c ****     {
 211              		.loc 1 167 5 is_stmt 1 view .LVU71
 167:./Library/stm32f4xx_dma2d.c ****     {
 212              		.loc 1 167 8 is_stmt 0 view .LVU72
 213 007a 022B     		cmp	r3, #2
 214 007c 0ED0     		beq	.L11
 176:./Library/stm32f4xx_dma2d.c ****     {  
 215              		.loc 1 176 5 is_stmt 1 view .LVU73
 176:./Library/stm32f4xx_dma2d.c ****     {  
 216              		.loc 1 176 8 is_stmt 0 view .LVU74
 217 007e 032B     		cmp	r3, #3
 218 0080 12D0     		beq	.L12
 185:./Library/stm32f4xx_dma2d.c ****     outred = DMA2D_InitStruct->DMA2D_OutputRed << 8;
 219              		.loc 1 185 5 is_stmt 1 view .LVU75
 185:./Library/stm32f4xx_dma2d.c ****     outred = DMA2D_InitStruct->DMA2D_OutputRed << 8;
 220              		.loc 1 185 32 is_stmt 0 view .LVU76
 221 0082 C268     		ldr	r2, [r0, #12]
 185:./Library/stm32f4xx_dma2d.c ****     outred = DMA2D_InitStruct->DMA2D_OutputRed << 8;
 222              		.loc 1 185 14 view .LVU77
 223 0084 1201     		lsls	r2, r2, #4
 224              	.LVL13:
 186:./Library/stm32f4xx_dma2d.c ****     outalpha = DMA2D_InitStruct->DMA2D_OutputAlpha << 12;
 225              		.loc 1 186 5 is_stmt 1 view .LVU78
 186:./Library/stm32f4xx_dma2d.c ****     outalpha = DMA2D_InitStruct->DMA2D_OutputAlpha << 12;
 226              		.loc 1 186 30 is_stmt 0 view .LVU79
 227 0086 0369     		ldr	r3, [r0, #16]
 186:./Library/stm32f4xx_dma2d.c ****     outalpha = DMA2D_InitStruct->DMA2D_OutputAlpha << 12;
 228              		.loc 1 186 12 view .LVU80
 229 0088 1B02     		lsls	r3, r3, #8
 230              	.LVL14:
 187:./Library/stm32f4xx_dma2d.c ****   }  
 231              		.loc 1 187 5 is_stmt 1 view .LVU81
 187:./Library/stm32f4xx_dma2d.c ****   }  
 232              		.loc 1 187 32 is_stmt 0 view .LVU82
 233 008a 4169     		ldr	r1, [r0, #20]
 187:./Library/stm32f4xx_dma2d.c ****   }  
 234              		.loc 1 187 14 view .LVU83
 235 008c 0903     		lsls	r1, r1, #12
ARM GAS  /var/folders/yl/_q9l42k90g1g4mdhbs226msm0000gn/T//ccnb8eCC.s 			page 9


 236              	.LVL15:
 187:./Library/stm32f4xx_dma2d.c ****   }  
 237              		.loc 1 187 14 view .LVU84
 238 008e D3E7     		b	.L5
 239              	.LVL16:
 240              	.L10:
 160:./Library/stm32f4xx_dma2d.c ****       outred = DMA2D_InitStruct->DMA2D_OutputRed << 16;
 241              		.loc 1 160 7 is_stmt 1 view .LVU85
 160:./Library/stm32f4xx_dma2d.c ****       outred = DMA2D_InitStruct->DMA2D_OutputRed << 16;
 242              		.loc 1 160 34 is_stmt 0 view .LVU86
 243 0090 C268     		ldr	r2, [r0, #12]
 160:./Library/stm32f4xx_dma2d.c ****       outred = DMA2D_InitStruct->DMA2D_OutputRed << 16;
 244              		.loc 1 160 16 view .LVU87
 245 0092 1202     		lsls	r2, r2, #8
 246              	.LVL17:
 161:./Library/stm32f4xx_dma2d.c ****       outalpha = (uint32_t)0x00000000;
 247              		.loc 1 161 7 is_stmt 1 view .LVU88
 161:./Library/stm32f4xx_dma2d.c ****       outalpha = (uint32_t)0x00000000;
 248              		.loc 1 161 32 is_stmt 0 view .LVU89
 249 0094 0369     		ldr	r3, [r0, #16]
 161:./Library/stm32f4xx_dma2d.c ****       outalpha = (uint32_t)0x00000000;
 250              		.loc 1 161 14 view .LVU90
 251 0096 1B04     		lsls	r3, r3, #16
 252              	.LVL18:
 162:./Library/stm32f4xx_dma2d.c ****     }
 253              		.loc 1 162 7 is_stmt 1 view .LVU91
 162:./Library/stm32f4xx_dma2d.c ****     }
 254              		.loc 1 162 16 is_stmt 0 view .LVU92
 255 0098 0021     		movs	r1, #0
 256 009a CDE7     		b	.L5
 257              	.LVL19:
 258              	.L11:
 169:./Library/stm32f4xx_dma2d.c ****       outred = DMA2D_InitStruct->DMA2D_OutputRed << 11;
 259              		.loc 1 169 7 is_stmt 1 view .LVU93
 169:./Library/stm32f4xx_dma2d.c ****       outred = DMA2D_InitStruct->DMA2D_OutputRed << 11;
 260              		.loc 1 169 34 is_stmt 0 view .LVU94
 261 009c C268     		ldr	r2, [r0, #12]
 169:./Library/stm32f4xx_dma2d.c ****       outred = DMA2D_InitStruct->DMA2D_OutputRed << 11;
 262              		.loc 1 169 16 view .LVU95
 263 009e 5201     		lsls	r2, r2, #5
 264              	.LVL20:
 170:./Library/stm32f4xx_dma2d.c ****       outalpha = (uint32_t)0x00000000;
 265              		.loc 1 170 7 is_stmt 1 view .LVU96
 170:./Library/stm32f4xx_dma2d.c ****       outalpha = (uint32_t)0x00000000;
 266              		.loc 1 170 32 is_stmt 0 view .LVU97
 267 00a0 0369     		ldr	r3, [r0, #16]
 170:./Library/stm32f4xx_dma2d.c ****       outalpha = (uint32_t)0x00000000;
 268              		.loc 1 170 14 view .LVU98
 269 00a2 DB02     		lsls	r3, r3, #11
 270              	.LVL21:
 171:./Library/stm32f4xx_dma2d.c ****     }
 271              		.loc 1 171 7 is_stmt 1 view .LVU99
 171:./Library/stm32f4xx_dma2d.c ****     }
 272              		.loc 1 171 16 is_stmt 0 view .LVU100
 273 00a4 0021     		movs	r1, #0
 274 00a6 C7E7     		b	.L5
 275              	.LVL22:
ARM GAS  /var/folders/yl/_q9l42k90g1g4mdhbs226msm0000gn/T//ccnb8eCC.s 			page 10


 276              	.L12:
 178:./Library/stm32f4xx_dma2d.c ****       outred = DMA2D_InitStruct->DMA2D_OutputRed << 10;
 277              		.loc 1 178 7 is_stmt 1 view .LVU101
 178:./Library/stm32f4xx_dma2d.c ****       outred = DMA2D_InitStruct->DMA2D_OutputRed << 10;
 278              		.loc 1 178 34 is_stmt 0 view .LVU102
 279 00a8 C268     		ldr	r2, [r0, #12]
 178:./Library/stm32f4xx_dma2d.c ****       outred = DMA2D_InitStruct->DMA2D_OutputRed << 10;
 280              		.loc 1 178 16 view .LVU103
 281 00aa 5201     		lsls	r2, r2, #5
 282              	.LVL23:
 179:./Library/stm32f4xx_dma2d.c ****       outalpha = DMA2D_InitStruct->DMA2D_OutputAlpha << 15;
 283              		.loc 1 179 7 is_stmt 1 view .LVU104
 179:./Library/stm32f4xx_dma2d.c ****       outalpha = DMA2D_InitStruct->DMA2D_OutputAlpha << 15;
 284              		.loc 1 179 32 is_stmt 0 view .LVU105
 285 00ac 0369     		ldr	r3, [r0, #16]
 179:./Library/stm32f4xx_dma2d.c ****       outalpha = DMA2D_InitStruct->DMA2D_OutputAlpha << 15;
 286              		.loc 1 179 14 view .LVU106
 287 00ae 9B02     		lsls	r3, r3, #10
 288              	.LVL24:
 180:./Library/stm32f4xx_dma2d.c ****     }
 289              		.loc 1 180 7 is_stmt 1 view .LVU107
 180:./Library/stm32f4xx_dma2d.c ****     }
 290              		.loc 1 180 34 is_stmt 0 view .LVU108
 291 00b0 4169     		ldr	r1, [r0, #20]
 180:./Library/stm32f4xx_dma2d.c ****     }
 292              		.loc 1 180 16 view .LVU109
 293 00b2 C903     		lsls	r1, r1, #15
 294              	.LVL25:
 180:./Library/stm32f4xx_dma2d.c ****     }
 295              		.loc 1 180 16 view .LVU110
 296 00b4 C0E7     		b	.L5
 297              	.L14:
 298 00b6 00BF     		.align	2
 299              	.L13:
 300 00b8 00B00240 		.word	1073917952
 301              		.cfi_endproc
 302              	.LFE124:
 304              		.section	.text.DMA2D_StructInit,"ax",%progbits
 305              		.align	1
 306              		.global	DMA2D_StructInit
 307              		.syntax unified
 308              		.thumb
 309              		.thumb_func
 311              	DMA2D_StructInit:
 312              	.LVL26:
 313              	.LFB125:
 210:./Library/stm32f4xx_dma2d.c **** void DMA2D_StructInit(DMA2D_InitTypeDef* DMA2D_InitStruct)
 211:./Library/stm32f4xx_dma2d.c **** {
 314              		.loc 1 211 1 is_stmt 1 view -0
 315              		.cfi_startproc
 316              		@ args = 0, pretend = 0, frame = 0
 317              		@ frame_needed = 0, uses_anonymous_args = 0
 318              		@ link register save eliminated.
 212:./Library/stm32f4xx_dma2d.c ****   /* Initialize the transfer mode member */
 213:./Library/stm32f4xx_dma2d.c ****   DMA2D_InitStruct->DMA2D_Mode = DMA2D_M2M;
 319              		.loc 1 213 3 view .LVU112
 320              		.loc 1 213 32 is_stmt 0 view .LVU113
ARM GAS  /var/folders/yl/_q9l42k90g1g4mdhbs226msm0000gn/T//ccnb8eCC.s 			page 11


 321 0000 0023     		movs	r3, #0
 322 0002 0360     		str	r3, [r0]
 214:./Library/stm32f4xx_dma2d.c **** 
 215:./Library/stm32f4xx_dma2d.c ****   /* Initialize the output color mode members */
 216:./Library/stm32f4xx_dma2d.c ****   DMA2D_InitStruct->DMA2D_CMode = DMA2D_ARGB8888;
 323              		.loc 1 216 3 is_stmt 1 view .LVU114
 324              		.loc 1 216 33 is_stmt 0 view .LVU115
 325 0004 4360     		str	r3, [r0, #4]
 217:./Library/stm32f4xx_dma2d.c **** 
 218:./Library/stm32f4xx_dma2d.c ****   /* Initialize the alpha and RGB values */
 219:./Library/stm32f4xx_dma2d.c ****   DMA2D_InitStruct->DMA2D_OutputGreen = 0x00;
 326              		.loc 1 219 3 is_stmt 1 view .LVU116
 327              		.loc 1 219 39 is_stmt 0 view .LVU117
 328 0006 C360     		str	r3, [r0, #12]
 220:./Library/stm32f4xx_dma2d.c ****   DMA2D_InitStruct->DMA2D_OutputBlue = 0x00;
 329              		.loc 1 220 3 is_stmt 1 view .LVU118
 330              		.loc 1 220 38 is_stmt 0 view .LVU119
 331 0008 8360     		str	r3, [r0, #8]
 221:./Library/stm32f4xx_dma2d.c ****   DMA2D_InitStruct->DMA2D_OutputRed = 0x00;
 332              		.loc 1 221 3 is_stmt 1 view .LVU120
 333              		.loc 1 221 37 is_stmt 0 view .LVU121
 334 000a 0361     		str	r3, [r0, #16]
 222:./Library/stm32f4xx_dma2d.c ****   DMA2D_InitStruct->DMA2D_OutputAlpha = 0x00;
 335              		.loc 1 222 3 is_stmt 1 view .LVU122
 336              		.loc 1 222 39 is_stmt 0 view .LVU123
 337 000c 4361     		str	r3, [r0, #20]
 223:./Library/stm32f4xx_dma2d.c **** 
 224:./Library/stm32f4xx_dma2d.c ****   /* Initialize the output memory address */
 225:./Library/stm32f4xx_dma2d.c ****   DMA2D_InitStruct->DMA2D_OutputMemoryAdd = 0x00;
 338              		.loc 1 225 3 is_stmt 1 view .LVU124
 339              		.loc 1 225 43 is_stmt 0 view .LVU125
 340 000e 8361     		str	r3, [r0, #24]
 226:./Library/stm32f4xx_dma2d.c **** 
 227:./Library/stm32f4xx_dma2d.c ****   /* Initialize the output offset */
 228:./Library/stm32f4xx_dma2d.c ****   DMA2D_InitStruct->DMA2D_OutputOffset = 0x00;
 341              		.loc 1 228 3 is_stmt 1 view .LVU126
 342              		.loc 1 228 40 is_stmt 0 view .LVU127
 343 0010 C361     		str	r3, [r0, #28]
 229:./Library/stm32f4xx_dma2d.c **** 
 230:./Library/stm32f4xx_dma2d.c ****   /* Initialize the number of line and the number of pixel per line */
 231:./Library/stm32f4xx_dma2d.c ****   DMA2D_InitStruct->DMA2D_NumberOfLine = 0x00;
 344              		.loc 1 231 3 is_stmt 1 view .LVU128
 345              		.loc 1 231 40 is_stmt 0 view .LVU129
 346 0012 0362     		str	r3, [r0, #32]
 232:./Library/stm32f4xx_dma2d.c ****   DMA2D_InitStruct->DMA2D_PixelPerLine = 0x00;
 347              		.loc 1 232 3 is_stmt 1 view .LVU130
 348              		.loc 1 232 40 is_stmt 0 view .LVU131
 349 0014 4362     		str	r3, [r0, #36]
 233:./Library/stm32f4xx_dma2d.c **** }
 350              		.loc 1 233 1 view .LVU132
 351 0016 7047     		bx	lr
 352              		.cfi_endproc
 353              	.LFE125:
 355              		.section	.text.DMA2D_StartTransfer,"ax",%progbits
 356              		.align	1
 357              		.global	DMA2D_StartTransfer
 358              		.syntax unified
ARM GAS  /var/folders/yl/_q9l42k90g1g4mdhbs226msm0000gn/T//ccnb8eCC.s 			page 12


 359              		.thumb
 360              		.thumb_func
 362              	DMA2D_StartTransfer:
 363              	.LFB126:
 234:./Library/stm32f4xx_dma2d.c **** 
 235:./Library/stm32f4xx_dma2d.c **** /**
 236:./Library/stm32f4xx_dma2d.c ****   * @brief  Start the DMA2D transfer.
 237:./Library/stm32f4xx_dma2d.c ****   * @param 
 238:./Library/stm32f4xx_dma2d.c ****   * @retval None
 239:./Library/stm32f4xx_dma2d.c ****   */
 240:./Library/stm32f4xx_dma2d.c **** 
 241:./Library/stm32f4xx_dma2d.c **** void DMA2D_StartTransfer(void)
 242:./Library/stm32f4xx_dma2d.c **** {
 364              		.loc 1 242 1 is_stmt 1 view -0
 365              		.cfi_startproc
 366              		@ args = 0, pretend = 0, frame = 0
 367              		@ frame_needed = 0, uses_anonymous_args = 0
 368              		@ link register save eliminated.
 243:./Library/stm32f4xx_dma2d.c ****     /* Start DMA2D transfer by setting START bit */
 244:./Library/stm32f4xx_dma2d.c ****     DMA2D->CR |= (uint32_t)DMA2D_CR_START;
 369              		.loc 1 244 5 view .LVU134
 370              		.loc 1 244 15 is_stmt 0 view .LVU135
 371 0000 024A     		ldr	r2, .L17
 372 0002 1368     		ldr	r3, [r2]
 373 0004 43F00103 		orr	r3, r3, #1
 374 0008 1360     		str	r3, [r2]
 245:./Library/stm32f4xx_dma2d.c **** }
 375              		.loc 1 245 1 view .LVU136
 376 000a 7047     		bx	lr
 377              	.L18:
 378              		.align	2
 379              	.L17:
 380 000c 00B00240 		.word	1073917952
 381              		.cfi_endproc
 382              	.LFE126:
 384              		.section	.text.DMA2D_AbortTransfer,"ax",%progbits
 385              		.align	1
 386              		.global	DMA2D_AbortTransfer
 387              		.syntax unified
 388              		.thumb
 389              		.thumb_func
 391              	DMA2D_AbortTransfer:
 392              	.LFB127:
 246:./Library/stm32f4xx_dma2d.c **** 
 247:./Library/stm32f4xx_dma2d.c **** /**
 248:./Library/stm32f4xx_dma2d.c ****   * @brief  Abort the DMA2D transfer.
 249:./Library/stm32f4xx_dma2d.c ****   * @param
 250:./Library/stm32f4xx_dma2d.c ****   * @retval None
 251:./Library/stm32f4xx_dma2d.c ****   */
 252:./Library/stm32f4xx_dma2d.c **** 
 253:./Library/stm32f4xx_dma2d.c **** void DMA2D_AbortTransfer(void)
 254:./Library/stm32f4xx_dma2d.c **** {
 393              		.loc 1 254 1 is_stmt 1 view -0
 394              		.cfi_startproc
 395              		@ args = 0, pretend = 0, frame = 0
 396              		@ frame_needed = 0, uses_anonymous_args = 0
 397              		@ link register save eliminated.
ARM GAS  /var/folders/yl/_q9l42k90g1g4mdhbs226msm0000gn/T//ccnb8eCC.s 			page 13


 255:./Library/stm32f4xx_dma2d.c ****     /* Start DMA2D transfer by setting START bit */
 256:./Library/stm32f4xx_dma2d.c ****     DMA2D->CR |= (uint32_t)DMA2D_CR_ABORT;
 398              		.loc 1 256 5 view .LVU138
 399              		.loc 1 256 15 is_stmt 0 view .LVU139
 400 0000 024A     		ldr	r2, .L20
 401 0002 1368     		ldr	r3, [r2]
 402 0004 43F00403 		orr	r3, r3, #4
 403 0008 1360     		str	r3, [r2]
 257:./Library/stm32f4xx_dma2d.c **** 
 258:./Library/stm32f4xx_dma2d.c **** }
 404              		.loc 1 258 1 view .LVU140
 405 000a 7047     		bx	lr
 406              	.L21:
 407              		.align	2
 408              	.L20:
 409 000c 00B00240 		.word	1073917952
 410              		.cfi_endproc
 411              	.LFE127:
 413              		.section	.text.DMA2D_Suspend,"ax",%progbits
 414              		.align	1
 415              		.global	DMA2D_Suspend
 416              		.syntax unified
 417              		.thumb
 418              		.thumb_func
 420              	DMA2D_Suspend:
 421              	.LVL27:
 422              	.LFB128:
 259:./Library/stm32f4xx_dma2d.c **** 
 260:./Library/stm32f4xx_dma2d.c **** /**
 261:./Library/stm32f4xx_dma2d.c ****   * @brief  Stop or continue the DMA2D transfer.
 262:./Library/stm32f4xx_dma2d.c ****   * @param  NewState: new state of the DMA2D peripheral.
 263:./Library/stm32f4xx_dma2d.c ****   *   This parameter can be: ENABLE or DISABLE.
 264:./Library/stm32f4xx_dma2d.c ****   * @retval None
 265:./Library/stm32f4xx_dma2d.c ****   */
 266:./Library/stm32f4xx_dma2d.c **** void DMA2D_Suspend(FunctionalState NewState)
 267:./Library/stm32f4xx_dma2d.c **** {
 423              		.loc 1 267 1 is_stmt 1 view -0
 424              		.cfi_startproc
 425              		@ args = 0, pretend = 0, frame = 0
 426              		@ frame_needed = 0, uses_anonymous_args = 0
 427              		@ link register save eliminated.
 268:./Library/stm32f4xx_dma2d.c ****   /* Check the parameters */
 269:./Library/stm32f4xx_dma2d.c ****   assert_param(IS_FUNCTIONAL_STATE(NewState));
 428              		.loc 1 269 3 view .LVU142
 270:./Library/stm32f4xx_dma2d.c **** 
 271:./Library/stm32f4xx_dma2d.c ****   if (NewState != DISABLE)
 429              		.loc 1 271 3 view .LVU143
 430              		.loc 1 271 6 is_stmt 0 view .LVU144
 431 0000 28B1     		cbz	r0, .L23
 272:./Library/stm32f4xx_dma2d.c ****   {
 273:./Library/stm32f4xx_dma2d.c ****     /* Suspend DMA2D transfer by setting STOP bit */
 274:./Library/stm32f4xx_dma2d.c ****     DMA2D->CR |= (uint32_t)DMA2D_CR_SUSP;
 432              		.loc 1 274 5 is_stmt 1 view .LVU145
 433              		.loc 1 274 15 is_stmt 0 view .LVU146
 434 0002 064A     		ldr	r2, .L25
 435 0004 1368     		ldr	r3, [r2]
 436 0006 43F00203 		orr	r3, r3, #2
ARM GAS  /var/folders/yl/_q9l42k90g1g4mdhbs226msm0000gn/T//ccnb8eCC.s 			page 14


 437 000a 1360     		str	r3, [r2]
 438 000c 7047     		bx	lr
 439              	.L23:
 275:./Library/stm32f4xx_dma2d.c ****   }
 276:./Library/stm32f4xx_dma2d.c ****   else
 277:./Library/stm32f4xx_dma2d.c ****   {
 278:./Library/stm32f4xx_dma2d.c ****     /* Continue DMA2D transfer by clearing STOP bit */
 279:./Library/stm32f4xx_dma2d.c ****     DMA2D->CR &= ~(uint32_t)DMA2D_CR_SUSP;
 440              		.loc 1 279 5 is_stmt 1 view .LVU147
 441              		.loc 1 279 15 is_stmt 0 view .LVU148
 442 000e 034A     		ldr	r2, .L25
 443 0010 1368     		ldr	r3, [r2]
 444 0012 23F00203 		bic	r3, r3, #2
 445 0016 1360     		str	r3, [r2]
 280:./Library/stm32f4xx_dma2d.c ****   }
 281:./Library/stm32f4xx_dma2d.c **** }
 446              		.loc 1 281 1 view .LVU149
 447 0018 7047     		bx	lr
 448              	.L26:
 449 001a 00BF     		.align	2
 450              	.L25:
 451 001c 00B00240 		.word	1073917952
 452              		.cfi_endproc
 453              	.LFE128:
 455              		.section	.text.DMA2D_FGConfig,"ax",%progbits
 456              		.align	1
 457              		.global	DMA2D_FGConfig
 458              		.syntax unified
 459              		.thumb
 460              		.thumb_func
 462              	DMA2D_FGConfig:
 463              	.LVL28:
 464              	.LFB129:
 282:./Library/stm32f4xx_dma2d.c **** 
 283:./Library/stm32f4xx_dma2d.c **** /**
 284:./Library/stm32f4xx_dma2d.c ****   * @brief  Configures the Foreground according to the specified parameters
 285:./Library/stm32f4xx_dma2d.c ****   *         in the DMA2D_FGStruct.
 286:./Library/stm32f4xx_dma2d.c ****   * @note   This function can be used only when the transfer is disabled.
 287:./Library/stm32f4xx_dma2d.c ****   * @param  DMA2D_FGStruct: pointer to a DMA2D_FGTypeDef structure that contains
 288:./Library/stm32f4xx_dma2d.c ****   *         the configuration information for the specified Background.
 289:./Library/stm32f4xx_dma2d.c ****   * @retval None
 290:./Library/stm32f4xx_dma2d.c ****   */
 291:./Library/stm32f4xx_dma2d.c **** void DMA2D_FGConfig(DMA2D_FG_InitTypeDef* DMA2D_FG_InitStruct)
 292:./Library/stm32f4xx_dma2d.c **** {
 465              		.loc 1 292 1 is_stmt 1 view -0
 466              		.cfi_startproc
 467              		@ args = 0, pretend = 0, frame = 0
 468              		@ frame_needed = 0, uses_anonymous_args = 0
 469              		@ link register save eliminated.
 470              		.loc 1 292 1 is_stmt 0 view .LVU151
 471 0000 10B4     		push	{r4}
 472              	.LCFI4:
 473              		.cfi_def_cfa_offset 4
 474              		.cfi_offset 4, -4
 293:./Library/stm32f4xx_dma2d.c **** 
 294:./Library/stm32f4xx_dma2d.c ****   uint32_t fg_clutcolormode = 0;
 475              		.loc 1 294 3 is_stmt 1 view .LVU152
ARM GAS  /var/folders/yl/_q9l42k90g1g4mdhbs226msm0000gn/T//ccnb8eCC.s 			page 15


 476              	.LVL29:
 295:./Library/stm32f4xx_dma2d.c ****   uint32_t fg_clutsize = 0;
 477              		.loc 1 295 3 view .LVU153
 296:./Library/stm32f4xx_dma2d.c ****   uint32_t fg_alpha_mode = 0;
 478              		.loc 1 296 3 view .LVU154
 297:./Library/stm32f4xx_dma2d.c ****   uint32_t fg_alphavalue = 0;
 479              		.loc 1 297 3 view .LVU155
 298:./Library/stm32f4xx_dma2d.c ****   uint32_t fg_colorgreen = 0;
 480              		.loc 1 298 3 view .LVU156
 299:./Library/stm32f4xx_dma2d.c ****   uint32_t fg_colorred = 0;
 481              		.loc 1 299 3 view .LVU157
 300:./Library/stm32f4xx_dma2d.c **** 
 301:./Library/stm32f4xx_dma2d.c ****   assert_param(IS_DMA2D_FGO(DMA2D_FG_InitStruct->DMA2D_FGO));
 482              		.loc 1 301 3 view .LVU158
 302:./Library/stm32f4xx_dma2d.c ****   assert_param(IS_DMA2D_FGCM(DMA2D_FG_InitStruct->DMA2D_FGCM));
 483              		.loc 1 302 3 view .LVU159
 303:./Library/stm32f4xx_dma2d.c ****   assert_param(IS_DMA2D_FG_CLUT_CM(DMA2D_FG_InitStruct->DMA2D_FG_CLUT_CM));
 484              		.loc 1 303 3 view .LVU160
 304:./Library/stm32f4xx_dma2d.c ****   assert_param(IS_DMA2D_FG_CLUT_SIZE(DMA2D_FG_InitStruct->DMA2D_FG_CLUT_SIZE));
 485              		.loc 1 304 3 view .LVU161
 305:./Library/stm32f4xx_dma2d.c ****   assert_param(IS_DMA2D_FG_ALPHA_MODE(DMA2D_FG_InitStruct->DMA2D_FGPFC_ALPHA_MODE));
 486              		.loc 1 305 3 view .LVU162
 306:./Library/stm32f4xx_dma2d.c ****   assert_param(IS_DMA2D_FG_ALPHA_VALUE(DMA2D_FG_InitStruct->DMA2D_FGPFC_ALPHA_VALUE));
 487              		.loc 1 306 3 view .LVU163
 307:./Library/stm32f4xx_dma2d.c ****   assert_param(IS_DMA2D_FGC_BLUE(DMA2D_FG_InitStruct->DMA2D_FGC_BLUE));
 488              		.loc 1 307 3 view .LVU164
 308:./Library/stm32f4xx_dma2d.c ****   assert_param(IS_DMA2D_FGC_GREEN(DMA2D_FG_InitStruct->DMA2D_FGC_GREEN));
 489              		.loc 1 308 3 view .LVU165
 309:./Library/stm32f4xx_dma2d.c ****   assert_param(IS_DMA2D_FGC_RED(DMA2D_FG_InitStruct->DMA2D_FGC_RED));
 490              		.loc 1 309 3 view .LVU166
 310:./Library/stm32f4xx_dma2d.c **** 
 311:./Library/stm32f4xx_dma2d.c ****   /* Configures the FG memory address */
 312:./Library/stm32f4xx_dma2d.c ****   DMA2D->FGMAR = (DMA2D_FG_InitStruct->DMA2D_FGMA);
 491              		.loc 1 312 3 view .LVU167
 492              		.loc 1 312 38 is_stmt 0 view .LVU168
 493 0002 0268     		ldr	r2, [r0]
 494              		.loc 1 312 16 view .LVU169
 495 0004 194B     		ldr	r3, .L29
 496 0006 DA60     		str	r2, [r3, #12]
 313:./Library/stm32f4xx_dma2d.c **** 
 314:./Library/stm32f4xx_dma2d.c ****   /* Configures the FG offset */
 315:./Library/stm32f4xx_dma2d.c ****   DMA2D->FGOR &= ~(uint32_t)DMA2D_FGOR_LO;
 497              		.loc 1 315 3 is_stmt 1 view .LVU170
 498              		.loc 1 315 15 is_stmt 0 view .LVU171
 499 0008 1A69     		ldr	r2, [r3, #16]
 500 000a 22F47F52 		bic	r2, r2, #16320
 501 000e 22F03F02 		bic	r2, r2, #63
 502 0012 1A61     		str	r2, [r3, #16]
 316:./Library/stm32f4xx_dma2d.c ****   DMA2D->FGOR |= (DMA2D_FG_InitStruct->DMA2D_FGO);
 503              		.loc 1 316 3 is_stmt 1 view .LVU172
 504              		.loc 1 316 15 is_stmt 0 view .LVU173
 505 0014 1A69     		ldr	r2, [r3, #16]
 506              		.loc 1 316 38 view .LVU174
 507 0016 4168     		ldr	r1, [r0, #4]
 508              		.loc 1 316 15 view .LVU175
 509 0018 0A43     		orrs	r2, r2, r1
 510 001a 1A61     		str	r2, [r3, #16]
ARM GAS  /var/folders/yl/_q9l42k90g1g4mdhbs226msm0000gn/T//ccnb8eCC.s 			page 16


 317:./Library/stm32f4xx_dma2d.c **** 
 318:./Library/stm32f4xx_dma2d.c ****   /* Configures foreground Pixel Format Convertor */
 319:./Library/stm32f4xx_dma2d.c ****   DMA2D->FGPFCCR &= (uint32_t)PFCCR_MASK;
 511              		.loc 1 319 3 is_stmt 1 view .LVU176
 512              		.loc 1 319 18 is_stmt 0 view .LVU177
 513 001c D969     		ldr	r1, [r3, #28]
 514 001e 144A     		ldr	r2, .L29+4
 515 0020 0A40     		ands	r2, r2, r1
 516 0022 DA61     		str	r2, [r3, #28]
 320:./Library/stm32f4xx_dma2d.c ****   fg_clutcolormode = DMA2D_FG_InitStruct->DMA2D_FG_CLUT_CM << 4;
 517              		.loc 1 320 3 is_stmt 1 view .LVU178
 518              	.LVL30:
 321:./Library/stm32f4xx_dma2d.c ****   fg_clutsize = DMA2D_FG_InitStruct->DMA2D_FG_CLUT_SIZE << 8;
 519              		.loc 1 321 3 view .LVU179
 322:./Library/stm32f4xx_dma2d.c ****   fg_alpha_mode = DMA2D_FG_InitStruct->DMA2D_FGPFC_ALPHA_MODE << 16;
 520              		.loc 1 322 3 view .LVU180
 323:./Library/stm32f4xx_dma2d.c ****   fg_alphavalue = DMA2D_FG_InitStruct->DMA2D_FGPFC_ALPHA_VALUE << 24;
 521              		.loc 1 323 3 view .LVU181
 324:./Library/stm32f4xx_dma2d.c ****   DMA2D->FGPFCCR |= (DMA2D_FG_InitStruct->DMA2D_FGCM | fg_clutcolormode | fg_clutsize | \
 522              		.loc 1 324 3 view .LVU182
 523              		.loc 1 324 18 is_stmt 0 view .LVU183
 524 0024 D969     		ldr	r1, [r3, #28]
 525              		.loc 1 324 41 view .LVU184
 526 0026 8268     		ldr	r2, [r0, #8]
 527              		.loc 1 324 54 view .LVU185
 528 0028 C468     		ldr	r4, [r0, #12]
 529 002a 42EA0412 		orr	r2, r2, r4, lsl #4
 530              		.loc 1 324 73 view .LVU186
 531 002e 0469     		ldr	r4, [r0, #16]
 532 0030 42EA0422 		orr	r2, r2, r4, lsl #8
 533              		.loc 1 324 87 view .LVU187
 534 0034 4469     		ldr	r4, [r0, #20]
 535 0036 42EA0442 		orr	r2, r2, r4, lsl #16
 325:./Library/stm32f4xx_dma2d.c ****                     fg_alpha_mode | fg_alphavalue);
 536              		.loc 1 325 35 view .LVU188
 537 003a 8469     		ldr	r4, [r0, #24]
 538 003c 42EA0462 		orr	r2, r2, r4, lsl #24
 324:./Library/stm32f4xx_dma2d.c ****   DMA2D->FGPFCCR |= (DMA2D_FG_InitStruct->DMA2D_FGCM | fg_clutcolormode | fg_clutsize | \
 539              		.loc 1 324 18 view .LVU189
 540 0040 0A43     		orrs	r2, r2, r1
 541 0042 DA61     		str	r2, [r3, #28]
 542              	.LVL31:
 326:./Library/stm32f4xx_dma2d.c **** 
 327:./Library/stm32f4xx_dma2d.c ****   /* Configures foreground color */
 328:./Library/stm32f4xx_dma2d.c ****   DMA2D->FGCOLR &= ~(DMA2D_FGCOLR_BLUE | DMA2D_FGCOLR_GREEN | DMA2D_FGCOLR_RED);
 543              		.loc 1 328 3 is_stmt 1 view .LVU190
 544              		.loc 1 328 17 is_stmt 0 view .LVU191
 545 0044 1A6A     		ldr	r2, [r3, #32]
 546 0046 02F07F42 		and	r2, r2, #-16777216
 547 004a 1A62     		str	r2, [r3, #32]
 329:./Library/stm32f4xx_dma2d.c ****   fg_colorgreen = DMA2D_FG_InitStruct->DMA2D_FGC_GREEN << 8;
 548              		.loc 1 329 3 is_stmt 1 view .LVU192
 549              	.LVL32:
 330:./Library/stm32f4xx_dma2d.c ****   fg_colorred = DMA2D_FG_InitStruct->DMA2D_FGC_RED << 16;
 550              		.loc 1 330 3 view .LVU193
 331:./Library/stm32f4xx_dma2d.c ****   DMA2D->FGCOLR |= (DMA2D_FG_InitStruct->DMA2D_FGC_BLUE | fg_colorgreen | fg_colorred);
 551              		.loc 1 331 3 view .LVU194
ARM GAS  /var/folders/yl/_q9l42k90g1g4mdhbs226msm0000gn/T//ccnb8eCC.s 			page 17


 552              		.loc 1 331 17 is_stmt 0 view .LVU195
 553 004c 196A     		ldr	r1, [r3, #32]
 554              		.loc 1 331 40 view .LVU196
 555 004e C269     		ldr	r2, [r0, #28]
 556              		.loc 1 331 57 view .LVU197
 557 0050 046A     		ldr	r4, [r0, #32]
 558              	.LVL33:
 559              		.loc 1 331 57 view .LVU198
 560 0052 42EA0422 		orr	r2, r2, r4, lsl #8
 561              		.loc 1 331 73 view .LVU199
 562 0056 446A     		ldr	r4, [r0, #36]
 563 0058 42EA0442 		orr	r2, r2, r4, lsl #16
 564              		.loc 1 331 17 view .LVU200
 565 005c 0A43     		orrs	r2, r2, r1
 566 005e 1A62     		str	r2, [r3, #32]
 567              	.LVL34:
 332:./Library/stm32f4xx_dma2d.c **** 
 333:./Library/stm32f4xx_dma2d.c ****   /* Configures foreground CLUT memory address */
 334:./Library/stm32f4xx_dma2d.c ****   DMA2D->FGCMAR = DMA2D_FG_InitStruct->DMA2D_FGCMAR;
 568              		.loc 1 334 3 is_stmt 1 view .LVU201
 569              		.loc 1 334 38 is_stmt 0 view .LVU202
 570 0060 826A     		ldr	r2, [r0, #40]
 571              		.loc 1 334 17 view .LVU203
 572 0062 DA62     		str	r2, [r3, #44]
 335:./Library/stm32f4xx_dma2d.c **** }
 573              		.loc 1 335 1 view .LVU204
 574 0064 5DF8044B 		ldr	r4, [sp], #4
 575              	.LCFI5:
 576              		.cfi_restore 4
 577              		.cfi_def_cfa_offset 0
 578              	.LVL35:
 579              		.loc 1 335 1 view .LVU205
 580 0068 7047     		bx	lr
 581              	.L30:
 582 006a 00BF     		.align	2
 583              	.L29:
 584 006c 00B00240 		.word	1073917952
 585 0070 C000FC00 		.word	16515264
 586              		.cfi_endproc
 587              	.LFE129:
 589              		.section	.text.DMA2D_FG_StructInit,"ax",%progbits
 590              		.align	1
 591              		.global	DMA2D_FG_StructInit
 592              		.syntax unified
 593              		.thumb
 594              		.thumb_func
 596              	DMA2D_FG_StructInit:
 597              	.LVL36:
 598              	.LFB130:
 336:./Library/stm32f4xx_dma2d.c **** 
 337:./Library/stm32f4xx_dma2d.c **** /**
 338:./Library/stm32f4xx_dma2d.c ****   * @brief  Fills each DMA2D_FGStruct member with its default value.
 339:./Library/stm32f4xx_dma2d.c ****   * @param  DMA2D_FGStruct: pointer to a DMA2D_FGTypeDef structure which will
 340:./Library/stm32f4xx_dma2d.c ****   *         be initialized.
 341:./Library/stm32f4xx_dma2d.c ****   * @retval None
 342:./Library/stm32f4xx_dma2d.c ****   */
 343:./Library/stm32f4xx_dma2d.c **** void DMA2D_FG_StructInit(DMA2D_FG_InitTypeDef* DMA2D_FG_InitStruct)
ARM GAS  /var/folders/yl/_q9l42k90g1g4mdhbs226msm0000gn/T//ccnb8eCC.s 			page 18


 344:./Library/stm32f4xx_dma2d.c **** {
 599              		.loc 1 344 1 is_stmt 1 view -0
 600              		.cfi_startproc
 601              		@ args = 0, pretend = 0, frame = 0
 602              		@ frame_needed = 0, uses_anonymous_args = 0
 603              		@ link register save eliminated.
 345:./Library/stm32f4xx_dma2d.c ****   /*!< Initialize the DMA2D foreground memory address */
 346:./Library/stm32f4xx_dma2d.c ****   DMA2D_FG_InitStruct->DMA2D_FGMA = 0x00;
 604              		.loc 1 346 3 view .LVU207
 605              		.loc 1 346 35 is_stmt 0 view .LVU208
 606 0000 0023     		movs	r3, #0
 607 0002 0360     		str	r3, [r0]
 347:./Library/stm32f4xx_dma2d.c **** 
 348:./Library/stm32f4xx_dma2d.c ****   /*!< Initialize the DMA2D foreground offset */
 349:./Library/stm32f4xx_dma2d.c ****   DMA2D_FG_InitStruct->DMA2D_FGO = 0x00;
 608              		.loc 1 349 3 is_stmt 1 view .LVU209
 609              		.loc 1 349 34 is_stmt 0 view .LVU210
 610 0004 4360     		str	r3, [r0, #4]
 350:./Library/stm32f4xx_dma2d.c **** 
 351:./Library/stm32f4xx_dma2d.c ****   /*!< Initialize the DMA2D foreground color mode */
 352:./Library/stm32f4xx_dma2d.c ****   DMA2D_FG_InitStruct->DMA2D_FGCM = CM_ARGB8888;
 611              		.loc 1 352 3 is_stmt 1 view .LVU211
 612              		.loc 1 352 35 is_stmt 0 view .LVU212
 613 0006 8360     		str	r3, [r0, #8]
 353:./Library/stm32f4xx_dma2d.c **** 
 354:./Library/stm32f4xx_dma2d.c ****   /*!< Initialize the DMA2D foreground CLUT color mode */
 355:./Library/stm32f4xx_dma2d.c ****   DMA2D_FG_InitStruct->DMA2D_FG_CLUT_CM = CLUT_CM_ARGB8888;
 614              		.loc 1 355 3 is_stmt 1 view .LVU213
 615              		.loc 1 355 41 is_stmt 0 view .LVU214
 616 0008 C360     		str	r3, [r0, #12]
 356:./Library/stm32f4xx_dma2d.c **** 
 357:./Library/stm32f4xx_dma2d.c ****   /*!< Initialize the DMA2D foreground CLUT size */
 358:./Library/stm32f4xx_dma2d.c ****   DMA2D_FG_InitStruct->DMA2D_FG_CLUT_SIZE = 0x00;
 617              		.loc 1 358 3 is_stmt 1 view .LVU215
 618              		.loc 1 358 43 is_stmt 0 view .LVU216
 619 000a 0361     		str	r3, [r0, #16]
 359:./Library/stm32f4xx_dma2d.c **** 
 360:./Library/stm32f4xx_dma2d.c ****   /*!< Initialize the DMA2D foreground alpha mode */
 361:./Library/stm32f4xx_dma2d.c ****   DMA2D_FG_InitStruct->DMA2D_FGPFC_ALPHA_MODE = NO_MODIF_ALPHA_VALUE;
 620              		.loc 1 361 3 is_stmt 1 view .LVU217
 621              		.loc 1 361 47 is_stmt 0 view .LVU218
 622 000c 4361     		str	r3, [r0, #20]
 362:./Library/stm32f4xx_dma2d.c **** 
 363:./Library/stm32f4xx_dma2d.c ****   /*!< Initialize the DMA2D foreground alpha value */
 364:./Library/stm32f4xx_dma2d.c ****   DMA2D_FG_InitStruct->DMA2D_FGPFC_ALPHA_VALUE = 0x00;
 623              		.loc 1 364 3 is_stmt 1 view .LVU219
 624              		.loc 1 364 48 is_stmt 0 view .LVU220
 625 000e 8361     		str	r3, [r0, #24]
 365:./Library/stm32f4xx_dma2d.c **** 
 366:./Library/stm32f4xx_dma2d.c ****   /*!< Initialize the DMA2D foreground blue value */
 367:./Library/stm32f4xx_dma2d.c ****   DMA2D_FG_InitStruct->DMA2D_FGC_BLUE = 0x00;
 626              		.loc 1 367 3 is_stmt 1 view .LVU221
 627              		.loc 1 367 39 is_stmt 0 view .LVU222
 628 0010 C361     		str	r3, [r0, #28]
 368:./Library/stm32f4xx_dma2d.c **** 
 369:./Library/stm32f4xx_dma2d.c ****   /*!< Initialize the DMA2D foreground green value */
 370:./Library/stm32f4xx_dma2d.c ****   DMA2D_FG_InitStruct->DMA2D_FGC_GREEN = 0x00;
ARM GAS  /var/folders/yl/_q9l42k90g1g4mdhbs226msm0000gn/T//ccnb8eCC.s 			page 19


 629              		.loc 1 370 3 is_stmt 1 view .LVU223
 630              		.loc 1 370 40 is_stmt 0 view .LVU224
 631 0012 0362     		str	r3, [r0, #32]
 371:./Library/stm32f4xx_dma2d.c **** 
 372:./Library/stm32f4xx_dma2d.c ****   /*!< Initialize the DMA2D foreground red value */
 373:./Library/stm32f4xx_dma2d.c ****   DMA2D_FG_InitStruct->DMA2D_FGC_RED = 0x00;
 632              		.loc 1 373 3 is_stmt 1 view .LVU225
 633              		.loc 1 373 38 is_stmt 0 view .LVU226
 634 0014 4362     		str	r3, [r0, #36]
 374:./Library/stm32f4xx_dma2d.c **** 
 375:./Library/stm32f4xx_dma2d.c ****   /*!< Initialize the DMA2D foreground CLUT memory address */
 376:./Library/stm32f4xx_dma2d.c ****   DMA2D_FG_InitStruct->DMA2D_FGCMAR = 0x00;
 635              		.loc 1 376 3 is_stmt 1 view .LVU227
 636              		.loc 1 376 37 is_stmt 0 view .LVU228
 637 0016 8362     		str	r3, [r0, #40]
 377:./Library/stm32f4xx_dma2d.c **** }
 638              		.loc 1 377 1 view .LVU229
 639 0018 7047     		bx	lr
 640              		.cfi_endproc
 641              	.LFE130:
 643              		.section	.text.DMA2D_BGConfig,"ax",%progbits
 644              		.align	1
 645              		.global	DMA2D_BGConfig
 646              		.syntax unified
 647              		.thumb
 648              		.thumb_func
 650              	DMA2D_BGConfig:
 651              	.LVL37:
 652              	.LFB131:
 378:./Library/stm32f4xx_dma2d.c **** 
 379:./Library/stm32f4xx_dma2d.c **** 
 380:./Library/stm32f4xx_dma2d.c **** /**
 381:./Library/stm32f4xx_dma2d.c ****   * @brief  Configures the Background according to the specified parameters
 382:./Library/stm32f4xx_dma2d.c ****   *         in the DMA2D_BGStruct.
 383:./Library/stm32f4xx_dma2d.c ****   * @note   This function can be used only when the transfer is disabled.
 384:./Library/stm32f4xx_dma2d.c ****   * @param  DMA2D_BGStruct: pointer to a DMA2D_BGTypeDef structure that contains
 385:./Library/stm32f4xx_dma2d.c ****   *         the configuration information for the specified Background.
 386:./Library/stm32f4xx_dma2d.c ****   * @retval None
 387:./Library/stm32f4xx_dma2d.c ****   */
 388:./Library/stm32f4xx_dma2d.c **** void DMA2D_BGConfig(DMA2D_BG_InitTypeDef* DMA2D_BG_InitStruct)
 389:./Library/stm32f4xx_dma2d.c **** {
 653              		.loc 1 389 1 is_stmt 1 view -0
 654              		.cfi_startproc
 655              		@ args = 0, pretend = 0, frame = 0
 656              		@ frame_needed = 0, uses_anonymous_args = 0
 657              		@ link register save eliminated.
 658              		.loc 1 389 1 is_stmt 0 view .LVU231
 659 0000 10B4     		push	{r4}
 660              	.LCFI6:
 661              		.cfi_def_cfa_offset 4
 662              		.cfi_offset 4, -4
 390:./Library/stm32f4xx_dma2d.c **** 
 391:./Library/stm32f4xx_dma2d.c ****   uint32_t bg_clutcolormode = 0;
 663              		.loc 1 391 3 is_stmt 1 view .LVU232
 664              	.LVL38:
 392:./Library/stm32f4xx_dma2d.c ****   uint32_t bg_clutsize = 0;
 665              		.loc 1 392 3 view .LVU233
ARM GAS  /var/folders/yl/_q9l42k90g1g4mdhbs226msm0000gn/T//ccnb8eCC.s 			page 20


 393:./Library/stm32f4xx_dma2d.c ****   uint32_t bg_alpha_mode = 0;
 666              		.loc 1 393 3 view .LVU234
 394:./Library/stm32f4xx_dma2d.c ****   uint32_t bg_alphavalue = 0;
 667              		.loc 1 394 3 view .LVU235
 395:./Library/stm32f4xx_dma2d.c ****   uint32_t bg_colorgreen = 0;
 668              		.loc 1 395 3 view .LVU236
 396:./Library/stm32f4xx_dma2d.c ****   uint32_t bg_colorred = 0;
 669              		.loc 1 396 3 view .LVU237
 397:./Library/stm32f4xx_dma2d.c **** 
 398:./Library/stm32f4xx_dma2d.c ****   assert_param(IS_DMA2D_BGO(DMA2D_BG_InitStruct->DMA2D_BGO));
 670              		.loc 1 398 3 view .LVU238
 399:./Library/stm32f4xx_dma2d.c ****   assert_param(IS_DMA2D_BGCM(DMA2D_BG_InitStruct->DMA2D_BGCM));
 671              		.loc 1 399 3 view .LVU239
 400:./Library/stm32f4xx_dma2d.c ****   assert_param(IS_DMA2D_BG_CLUT_CM(DMA2D_BG_InitStruct->DMA2D_BG_CLUT_CM));
 672              		.loc 1 400 3 view .LVU240
 401:./Library/stm32f4xx_dma2d.c ****   assert_param(IS_DMA2D_BG_CLUT_SIZE(DMA2D_BG_InitStruct->DMA2D_BG_CLUT_SIZE));
 673              		.loc 1 401 3 view .LVU241
 402:./Library/stm32f4xx_dma2d.c ****   assert_param(IS_DMA2D_BG_ALPHA_MODE(DMA2D_BG_InitStruct->DMA2D_BGPFC_ALPHA_MODE));
 674              		.loc 1 402 3 view .LVU242
 403:./Library/stm32f4xx_dma2d.c ****   assert_param(IS_DMA2D_BG_ALPHA_VALUE(DMA2D_BG_InitStruct->DMA2D_BGPFC_ALPHA_VALUE));
 675              		.loc 1 403 3 view .LVU243
 404:./Library/stm32f4xx_dma2d.c ****   assert_param(IS_DMA2D_BGC_BLUE(DMA2D_BG_InitStruct->DMA2D_BGC_BLUE));
 676              		.loc 1 404 3 view .LVU244
 405:./Library/stm32f4xx_dma2d.c ****   assert_param(IS_DMA2D_BGC_GREEN(DMA2D_BG_InitStruct->DMA2D_BGC_GREEN));
 677              		.loc 1 405 3 view .LVU245
 406:./Library/stm32f4xx_dma2d.c ****   assert_param(IS_DMA2D_BGC_RED(DMA2D_BG_InitStruct->DMA2D_BGC_RED));
 678              		.loc 1 406 3 view .LVU246
 407:./Library/stm32f4xx_dma2d.c **** 
 408:./Library/stm32f4xx_dma2d.c ****   /* Configures the BG memory address */
 409:./Library/stm32f4xx_dma2d.c ****   DMA2D->BGMAR = (DMA2D_BG_InitStruct->DMA2D_BGMA);
 679              		.loc 1 409 3 view .LVU247
 680              		.loc 1 409 38 is_stmt 0 view .LVU248
 681 0002 0268     		ldr	r2, [r0]
 682              		.loc 1 409 16 view .LVU249
 683 0004 194B     		ldr	r3, .L34
 684 0006 5A61     		str	r2, [r3, #20]
 410:./Library/stm32f4xx_dma2d.c **** 
 411:./Library/stm32f4xx_dma2d.c ****   /* Configures the BG offset */
 412:./Library/stm32f4xx_dma2d.c ****   DMA2D->BGOR &= ~(uint32_t)DMA2D_BGOR_LO;
 685              		.loc 1 412 3 is_stmt 1 view .LVU250
 686              		.loc 1 412 15 is_stmt 0 view .LVU251
 687 0008 9A69     		ldr	r2, [r3, #24]
 688 000a 22F47F52 		bic	r2, r2, #16320
 689 000e 22F03F02 		bic	r2, r2, #63
 690 0012 9A61     		str	r2, [r3, #24]
 413:./Library/stm32f4xx_dma2d.c ****   DMA2D->BGOR |= (DMA2D_BG_InitStruct->DMA2D_BGO);
 691              		.loc 1 413 3 is_stmt 1 view .LVU252
 692              		.loc 1 413 15 is_stmt 0 view .LVU253
 693 0014 9A69     		ldr	r2, [r3, #24]
 694              		.loc 1 413 38 view .LVU254
 695 0016 4168     		ldr	r1, [r0, #4]
 696              		.loc 1 413 15 view .LVU255
 697 0018 0A43     		orrs	r2, r2, r1
 698 001a 9A61     		str	r2, [r3, #24]
 414:./Library/stm32f4xx_dma2d.c **** 
 415:./Library/stm32f4xx_dma2d.c ****   /* Configures background Pixel Format Convertor */
 416:./Library/stm32f4xx_dma2d.c ****   DMA2D->BGPFCCR &= (uint32_t)PFCCR_MASK;
ARM GAS  /var/folders/yl/_q9l42k90g1g4mdhbs226msm0000gn/T//ccnb8eCC.s 			page 21


 699              		.loc 1 416 3 is_stmt 1 view .LVU256
 700              		.loc 1 416 18 is_stmt 0 view .LVU257
 701 001c 596A     		ldr	r1, [r3, #36]
 702 001e 144A     		ldr	r2, .L34+4
 703 0020 0A40     		ands	r2, r2, r1
 704 0022 5A62     		str	r2, [r3, #36]
 417:./Library/stm32f4xx_dma2d.c ****   bg_clutcolormode = DMA2D_BG_InitStruct->DMA2D_BG_CLUT_CM << 4;
 705              		.loc 1 417 3 is_stmt 1 view .LVU258
 706              	.LVL39:
 418:./Library/stm32f4xx_dma2d.c ****   bg_clutsize = DMA2D_BG_InitStruct->DMA2D_BG_CLUT_SIZE << 8;
 707              		.loc 1 418 3 view .LVU259
 419:./Library/stm32f4xx_dma2d.c ****   bg_alpha_mode = DMA2D_BG_InitStruct->DMA2D_BGPFC_ALPHA_MODE << 16;
 708              		.loc 1 419 3 view .LVU260
 420:./Library/stm32f4xx_dma2d.c ****   bg_alphavalue = DMA2D_BG_InitStruct->DMA2D_BGPFC_ALPHA_VALUE << 24;
 709              		.loc 1 420 3 view .LVU261
 421:./Library/stm32f4xx_dma2d.c ****   DMA2D->BGPFCCR |= (DMA2D_BG_InitStruct->DMA2D_BGCM | bg_clutcolormode | bg_clutsize | \
 710              		.loc 1 421 3 view .LVU262
 711              		.loc 1 421 18 is_stmt 0 view .LVU263
 712 0024 596A     		ldr	r1, [r3, #36]
 713              		.loc 1 421 41 view .LVU264
 714 0026 8268     		ldr	r2, [r0, #8]
 715              		.loc 1 421 54 view .LVU265
 716 0028 C468     		ldr	r4, [r0, #12]
 717 002a 42EA0412 		orr	r2, r2, r4, lsl #4
 718              		.loc 1 421 73 view .LVU266
 719 002e 0469     		ldr	r4, [r0, #16]
 720 0030 42EA0422 		orr	r2, r2, r4, lsl #8
 721              		.loc 1 421 87 view .LVU267
 722 0034 4469     		ldr	r4, [r0, #20]
 723 0036 42EA0442 		orr	r2, r2, r4, lsl #16
 422:./Library/stm32f4xx_dma2d.c ****                     bg_alpha_mode | bg_alphavalue);
 724              		.loc 1 422 35 view .LVU268
 725 003a 8469     		ldr	r4, [r0, #24]
 726 003c 42EA0462 		orr	r2, r2, r4, lsl #24
 421:./Library/stm32f4xx_dma2d.c ****   DMA2D->BGPFCCR |= (DMA2D_BG_InitStruct->DMA2D_BGCM | bg_clutcolormode | bg_clutsize | \
 727              		.loc 1 421 18 view .LVU269
 728 0040 0A43     		orrs	r2, r2, r1
 729 0042 5A62     		str	r2, [r3, #36]
 730              	.LVL40:
 423:./Library/stm32f4xx_dma2d.c **** 
 424:./Library/stm32f4xx_dma2d.c ****   /* Configures background color */
 425:./Library/stm32f4xx_dma2d.c ****   DMA2D->BGCOLR &= ~(DMA2D_BGCOLR_BLUE | DMA2D_BGCOLR_GREEN | DMA2D_BGCOLR_RED);
 731              		.loc 1 425 3 is_stmt 1 view .LVU270
 732              		.loc 1 425 17 is_stmt 0 view .LVU271
 733 0044 9A6A     		ldr	r2, [r3, #40]
 734 0046 02F07F42 		and	r2, r2, #-16777216
 735 004a 9A62     		str	r2, [r3, #40]
 426:./Library/stm32f4xx_dma2d.c ****   bg_colorgreen = DMA2D_BG_InitStruct->DMA2D_BGC_GREEN << 8;
 736              		.loc 1 426 3 is_stmt 1 view .LVU272
 737              	.LVL41:
 427:./Library/stm32f4xx_dma2d.c ****   bg_colorred = DMA2D_BG_InitStruct->DMA2D_BGC_RED << 16;
 738              		.loc 1 427 3 view .LVU273
 428:./Library/stm32f4xx_dma2d.c ****   DMA2D->BGCOLR |= (DMA2D_BG_InitStruct->DMA2D_BGC_BLUE | bg_colorgreen | bg_colorred);
 739              		.loc 1 428 3 view .LVU274
 740              		.loc 1 428 17 is_stmt 0 view .LVU275
 741 004c 996A     		ldr	r1, [r3, #40]
 742              		.loc 1 428 40 view .LVU276
ARM GAS  /var/folders/yl/_q9l42k90g1g4mdhbs226msm0000gn/T//ccnb8eCC.s 			page 22


 743 004e C269     		ldr	r2, [r0, #28]
 744              		.loc 1 428 57 view .LVU277
 745 0050 046A     		ldr	r4, [r0, #32]
 746              	.LVL42:
 747              		.loc 1 428 57 view .LVU278
 748 0052 42EA0422 		orr	r2, r2, r4, lsl #8
 749              		.loc 1 428 73 view .LVU279
 750 0056 446A     		ldr	r4, [r0, #36]
 751 0058 42EA0442 		orr	r2, r2, r4, lsl #16
 752              		.loc 1 428 17 view .LVU280
 753 005c 0A43     		orrs	r2, r2, r1
 754 005e 9A62     		str	r2, [r3, #40]
 755              	.LVL43:
 429:./Library/stm32f4xx_dma2d.c ****   
 430:./Library/stm32f4xx_dma2d.c ****   /* Configures background CLUT memory address */
 431:./Library/stm32f4xx_dma2d.c ****   DMA2D->BGCMAR = DMA2D_BG_InitStruct->DMA2D_BGCMAR;
 756              		.loc 1 431 3 is_stmt 1 view .LVU281
 757              		.loc 1 431 38 is_stmt 0 view .LVU282
 758 0060 826A     		ldr	r2, [r0, #40]
 759              		.loc 1 431 17 view .LVU283
 760 0062 1A63     		str	r2, [r3, #48]
 432:./Library/stm32f4xx_dma2d.c **** 
 433:./Library/stm32f4xx_dma2d.c **** }
 761              		.loc 1 433 1 view .LVU284
 762 0064 5DF8044B 		ldr	r4, [sp], #4
 763              	.LCFI7:
 764              		.cfi_restore 4
 765              		.cfi_def_cfa_offset 0
 766              	.LVL44:
 767              		.loc 1 433 1 view .LVU285
 768 0068 7047     		bx	lr
 769              	.L35:
 770 006a 00BF     		.align	2
 771              	.L34:
 772 006c 00B00240 		.word	1073917952
 773 0070 C000FC00 		.word	16515264
 774              		.cfi_endproc
 775              	.LFE131:
 777              		.section	.text.DMA2D_BG_StructInit,"ax",%progbits
 778              		.align	1
 779              		.global	DMA2D_BG_StructInit
 780              		.syntax unified
 781              		.thumb
 782              		.thumb_func
 784              	DMA2D_BG_StructInit:
 785              	.LVL45:
 786              	.LFB132:
 434:./Library/stm32f4xx_dma2d.c **** 
 435:./Library/stm32f4xx_dma2d.c **** /**
 436:./Library/stm32f4xx_dma2d.c ****   * @brief  Fills each DMA2D_BGStruct member with its default value.
 437:./Library/stm32f4xx_dma2d.c ****   * @param  DMA2D_BGStruct: pointer to a DMA2D_BGTypeDef structure which will
 438:./Library/stm32f4xx_dma2d.c ****   *         be initialized.
 439:./Library/stm32f4xx_dma2d.c ****   * @retval None
 440:./Library/stm32f4xx_dma2d.c ****   */
 441:./Library/stm32f4xx_dma2d.c **** void DMA2D_BG_StructInit(DMA2D_BG_InitTypeDef* DMA2D_BG_InitStruct)
 442:./Library/stm32f4xx_dma2d.c **** {
 787              		.loc 1 442 1 is_stmt 1 view -0
ARM GAS  /var/folders/yl/_q9l42k90g1g4mdhbs226msm0000gn/T//ccnb8eCC.s 			page 23


 788              		.cfi_startproc
 789              		@ args = 0, pretend = 0, frame = 0
 790              		@ frame_needed = 0, uses_anonymous_args = 0
 791              		@ link register save eliminated.
 443:./Library/stm32f4xx_dma2d.c ****   /*!< Initialize the DMA2D background memory address */
 444:./Library/stm32f4xx_dma2d.c ****   DMA2D_BG_InitStruct->DMA2D_BGMA = 0x00;
 792              		.loc 1 444 3 view .LVU287
 793              		.loc 1 444 35 is_stmt 0 view .LVU288
 794 0000 0023     		movs	r3, #0
 795 0002 0360     		str	r3, [r0]
 445:./Library/stm32f4xx_dma2d.c **** 
 446:./Library/stm32f4xx_dma2d.c ****   /*!< Initialize the DMA2D background offset */
 447:./Library/stm32f4xx_dma2d.c ****   DMA2D_BG_InitStruct->DMA2D_BGO = 0x00;
 796              		.loc 1 447 3 is_stmt 1 view .LVU289
 797              		.loc 1 447 34 is_stmt 0 view .LVU290
 798 0004 4360     		str	r3, [r0, #4]
 448:./Library/stm32f4xx_dma2d.c **** 
 449:./Library/stm32f4xx_dma2d.c ****   /*!< Initialize the DMA2D background color mode */
 450:./Library/stm32f4xx_dma2d.c ****   DMA2D_BG_InitStruct->DMA2D_BGCM = CM_ARGB8888;
 799              		.loc 1 450 3 is_stmt 1 view .LVU291
 800              		.loc 1 450 35 is_stmt 0 view .LVU292
 801 0006 8360     		str	r3, [r0, #8]
 451:./Library/stm32f4xx_dma2d.c **** 
 452:./Library/stm32f4xx_dma2d.c ****   /*!< Initialize the DMA2D background CLUT color mode */
 453:./Library/stm32f4xx_dma2d.c ****   DMA2D_BG_InitStruct->DMA2D_BG_CLUT_CM = CLUT_CM_ARGB8888;
 802              		.loc 1 453 3 is_stmt 1 view .LVU293
 803              		.loc 1 453 41 is_stmt 0 view .LVU294
 804 0008 C360     		str	r3, [r0, #12]
 454:./Library/stm32f4xx_dma2d.c **** 
 455:./Library/stm32f4xx_dma2d.c ****   /*!< Initialize the DMA2D background CLUT size */
 456:./Library/stm32f4xx_dma2d.c ****   DMA2D_BG_InitStruct->DMA2D_BG_CLUT_SIZE = 0x00;
 805              		.loc 1 456 3 is_stmt 1 view .LVU295
 806              		.loc 1 456 43 is_stmt 0 view .LVU296
 807 000a 0361     		str	r3, [r0, #16]
 457:./Library/stm32f4xx_dma2d.c **** 
 458:./Library/stm32f4xx_dma2d.c ****   /*!< Initialize the DMA2D background alpha mode */
 459:./Library/stm32f4xx_dma2d.c ****   DMA2D_BG_InitStruct->DMA2D_BGPFC_ALPHA_MODE = NO_MODIF_ALPHA_VALUE;
 808              		.loc 1 459 3 is_stmt 1 view .LVU297
 809              		.loc 1 459 47 is_stmt 0 view .LVU298
 810 000c 4361     		str	r3, [r0, #20]
 460:./Library/stm32f4xx_dma2d.c **** 
 461:./Library/stm32f4xx_dma2d.c ****   /*!< Initialize the DMA2D background alpha value */
 462:./Library/stm32f4xx_dma2d.c ****   DMA2D_BG_InitStruct->DMA2D_BGPFC_ALPHA_VALUE = 0x00;
 811              		.loc 1 462 3 is_stmt 1 view .LVU299
 812              		.loc 1 462 48 is_stmt 0 view .LVU300
 813 000e 8361     		str	r3, [r0, #24]
 463:./Library/stm32f4xx_dma2d.c **** 
 464:./Library/stm32f4xx_dma2d.c ****   /*!< Initialize the DMA2D background blue value */
 465:./Library/stm32f4xx_dma2d.c ****   DMA2D_BG_InitStruct->DMA2D_BGC_BLUE = 0x00;
 814              		.loc 1 465 3 is_stmt 1 view .LVU301
 815              		.loc 1 465 39 is_stmt 0 view .LVU302
 816 0010 C361     		str	r3, [r0, #28]
 466:./Library/stm32f4xx_dma2d.c **** 
 467:./Library/stm32f4xx_dma2d.c ****   /*!< Initialize the DMA2D background green value */
 468:./Library/stm32f4xx_dma2d.c ****   DMA2D_BG_InitStruct->DMA2D_BGC_GREEN = 0x00;
 817              		.loc 1 468 3 is_stmt 1 view .LVU303
 818              		.loc 1 468 40 is_stmt 0 view .LVU304
ARM GAS  /var/folders/yl/_q9l42k90g1g4mdhbs226msm0000gn/T//ccnb8eCC.s 			page 24


 819 0012 0362     		str	r3, [r0, #32]
 469:./Library/stm32f4xx_dma2d.c **** 
 470:./Library/stm32f4xx_dma2d.c ****   /*!< Initialize the DMA2D background red value */
 471:./Library/stm32f4xx_dma2d.c ****   DMA2D_BG_InitStruct->DMA2D_BGC_RED = 0x00;
 820              		.loc 1 471 3 is_stmt 1 view .LVU305
 821              		.loc 1 471 38 is_stmt 0 view .LVU306
 822 0014 4362     		str	r3, [r0, #36]
 472:./Library/stm32f4xx_dma2d.c **** 
 473:./Library/stm32f4xx_dma2d.c ****   /*!< Initialize the DMA2D background CLUT memory address */
 474:./Library/stm32f4xx_dma2d.c ****   DMA2D_BG_InitStruct->DMA2D_BGCMAR = 0x00;
 823              		.loc 1 474 3 is_stmt 1 view .LVU307
 824              		.loc 1 474 37 is_stmt 0 view .LVU308
 825 0016 8362     		str	r3, [r0, #40]
 475:./Library/stm32f4xx_dma2d.c **** }
 826              		.loc 1 475 1 view .LVU309
 827 0018 7047     		bx	lr
 828              		.cfi_endproc
 829              	.LFE132:
 831              		.section	.text.DMA2D_FGStart,"ax",%progbits
 832              		.align	1
 833              		.global	DMA2D_FGStart
 834              		.syntax unified
 835              		.thumb
 836              		.thumb_func
 838              	DMA2D_FGStart:
 839              	.LVL46:
 840              	.LFB133:
 476:./Library/stm32f4xx_dma2d.c **** 
 477:./Library/stm32f4xx_dma2d.c **** /**
 478:./Library/stm32f4xx_dma2d.c ****   * @brief  Start the automatic loading of the CLUT or abort the transfer.
 479:./Library/stm32f4xx_dma2d.c ****   * @param  NewState: new state of the DMA2D peripheral.
 480:./Library/stm32f4xx_dma2d.c ****   *   This parameter can be: ENABLE or DISABLE.
 481:./Library/stm32f4xx_dma2d.c ****   * @retval None
 482:./Library/stm32f4xx_dma2d.c ****   */
 483:./Library/stm32f4xx_dma2d.c **** 
 484:./Library/stm32f4xx_dma2d.c **** void DMA2D_FGStart(FunctionalState NewState) 
 485:./Library/stm32f4xx_dma2d.c **** {
 841              		.loc 1 485 1 is_stmt 1 view -0
 842              		.cfi_startproc
 843              		@ args = 0, pretend = 0, frame = 0
 844              		@ frame_needed = 0, uses_anonymous_args = 0
 845              		@ link register save eliminated.
 486:./Library/stm32f4xx_dma2d.c ****   /* Check the parameters */
 487:./Library/stm32f4xx_dma2d.c ****   assert_param(IS_FUNCTIONAL_STATE(NewState));
 846              		.loc 1 487 3 view .LVU311
 488:./Library/stm32f4xx_dma2d.c **** 
 489:./Library/stm32f4xx_dma2d.c ****   if (NewState != DISABLE)
 847              		.loc 1 489 3 view .LVU312
 848              		.loc 1 489 6 is_stmt 0 view .LVU313
 849 0000 28B1     		cbz	r0, .L38
 490:./Library/stm32f4xx_dma2d.c ****   {
 491:./Library/stm32f4xx_dma2d.c ****     /* Start the automatic loading of the CLUT */
 492:./Library/stm32f4xx_dma2d.c ****     DMA2D->FGPFCCR |= DMA2D_FGPFCCR_START;
 850              		.loc 1 492 5 is_stmt 1 view .LVU314
 851              		.loc 1 492 20 is_stmt 0 view .LVU315
 852 0002 064A     		ldr	r2, .L40
 853 0004 D369     		ldr	r3, [r2, #28]
ARM GAS  /var/folders/yl/_q9l42k90g1g4mdhbs226msm0000gn/T//ccnb8eCC.s 			page 25


 854 0006 43F02003 		orr	r3, r3, #32
 855 000a D361     		str	r3, [r2, #28]
 856 000c 7047     		bx	lr
 857              	.L38:
 493:./Library/stm32f4xx_dma2d.c ****   }
 494:./Library/stm32f4xx_dma2d.c ****   else
 495:./Library/stm32f4xx_dma2d.c ****   {
 496:./Library/stm32f4xx_dma2d.c ****     /* abort the transfer */
 497:./Library/stm32f4xx_dma2d.c ****     DMA2D->FGPFCCR &= (uint32_t)~DMA2D_FGPFCCR_START;
 858              		.loc 1 497 5 is_stmt 1 view .LVU316
 859              		.loc 1 497 20 is_stmt 0 view .LVU317
 860 000e 034A     		ldr	r2, .L40
 861 0010 D369     		ldr	r3, [r2, #28]
 862 0012 23F02003 		bic	r3, r3, #32
 863 0016 D361     		str	r3, [r2, #28]
 498:./Library/stm32f4xx_dma2d.c ****   }
 499:./Library/stm32f4xx_dma2d.c **** }
 864              		.loc 1 499 1 view .LVU318
 865 0018 7047     		bx	lr
 866              	.L41:
 867 001a 00BF     		.align	2
 868              	.L40:
 869 001c 00B00240 		.word	1073917952
 870              		.cfi_endproc
 871              	.LFE133:
 873              		.section	.text.DMA2D_BGStart,"ax",%progbits
 874              		.align	1
 875              		.global	DMA2D_BGStart
 876              		.syntax unified
 877              		.thumb
 878              		.thumb_func
 880              	DMA2D_BGStart:
 881              	.LVL47:
 882              	.LFB134:
 500:./Library/stm32f4xx_dma2d.c **** 
 501:./Library/stm32f4xx_dma2d.c **** /**
 502:./Library/stm32f4xx_dma2d.c ****   * @brief  Start the automatic loading of the CLUT or abort the transfer.
 503:./Library/stm32f4xx_dma2d.c ****   * @param  NewState: new state of the DMA2D peripheral.
 504:./Library/stm32f4xx_dma2d.c ****   *   This parameter can be: ENABLE or DISABLE.
 505:./Library/stm32f4xx_dma2d.c ****   * @retval None
 506:./Library/stm32f4xx_dma2d.c ****   */
 507:./Library/stm32f4xx_dma2d.c ****   
 508:./Library/stm32f4xx_dma2d.c **** void DMA2D_BGStart(FunctionalState NewState) 
 509:./Library/stm32f4xx_dma2d.c **** {
 883              		.loc 1 509 1 is_stmt 1 view -0
 884              		.cfi_startproc
 885              		@ args = 0, pretend = 0, frame = 0
 886              		@ frame_needed = 0, uses_anonymous_args = 0
 887              		@ link register save eliminated.
 510:./Library/stm32f4xx_dma2d.c ****   /* Check the parameters */
 511:./Library/stm32f4xx_dma2d.c ****   assert_param(IS_FUNCTIONAL_STATE(NewState));
 888              		.loc 1 511 3 view .LVU320
 512:./Library/stm32f4xx_dma2d.c ****   
 513:./Library/stm32f4xx_dma2d.c ****   if (NewState != DISABLE)
 889              		.loc 1 513 3 view .LVU321
 890              		.loc 1 513 6 is_stmt 0 view .LVU322
 891 0000 28B1     		cbz	r0, .L43
ARM GAS  /var/folders/yl/_q9l42k90g1g4mdhbs226msm0000gn/T//ccnb8eCC.s 			page 26


 514:./Library/stm32f4xx_dma2d.c ****   {
 515:./Library/stm32f4xx_dma2d.c ****     /* Start the automatic loading of the CLUT */
 516:./Library/stm32f4xx_dma2d.c ****     DMA2D->BGPFCCR |= DMA2D_BGPFCCR_START;
 892              		.loc 1 516 5 is_stmt 1 view .LVU323
 893              		.loc 1 516 20 is_stmt 0 view .LVU324
 894 0002 064A     		ldr	r2, .L45
 895 0004 536A     		ldr	r3, [r2, #36]
 896 0006 43F02003 		orr	r3, r3, #32
 897 000a 5362     		str	r3, [r2, #36]
 898 000c 7047     		bx	lr
 899              	.L43:
 517:./Library/stm32f4xx_dma2d.c ****   }
 518:./Library/stm32f4xx_dma2d.c ****   else
 519:./Library/stm32f4xx_dma2d.c ****   {
 520:./Library/stm32f4xx_dma2d.c ****     /* abort the transfer */
 521:./Library/stm32f4xx_dma2d.c ****     DMA2D->BGPFCCR &= (uint32_t)~DMA2D_BGPFCCR_START;
 900              		.loc 1 521 5 is_stmt 1 view .LVU325
 901              		.loc 1 521 20 is_stmt 0 view .LVU326
 902 000e 034A     		ldr	r2, .L45
 903 0010 536A     		ldr	r3, [r2, #36]
 904 0012 23F02003 		bic	r3, r3, #32
 905 0016 5362     		str	r3, [r2, #36]
 522:./Library/stm32f4xx_dma2d.c ****   }
 523:./Library/stm32f4xx_dma2d.c **** }
 906              		.loc 1 523 1 view .LVU327
 907 0018 7047     		bx	lr
 908              	.L46:
 909 001a 00BF     		.align	2
 910              	.L45:
 911 001c 00B00240 		.word	1073917952
 912              		.cfi_endproc
 913              	.LFE134:
 915              		.section	.text.DMA2D_DeadTimeConfig,"ax",%progbits
 916              		.align	1
 917              		.global	DMA2D_DeadTimeConfig
 918              		.syntax unified
 919              		.thumb
 920              		.thumb_func
 922              	DMA2D_DeadTimeConfig:
 923              	.LVL48:
 924              	.LFB135:
 524:./Library/stm32f4xx_dma2d.c **** 
 525:./Library/stm32f4xx_dma2d.c **** /**
 526:./Library/stm32f4xx_dma2d.c ****   * @brief  Configures the DMA2D dead time.
 527:./Library/stm32f4xx_dma2d.c ****   * @param  DMA2D_DeadTime: specifies the DMA2D dead time.
 528:./Library/stm32f4xx_dma2d.c ****   *   This parameter can be one of the following values:
 529:./Library/stm32f4xx_dma2d.c ****   * @retval None
 530:./Library/stm32f4xx_dma2d.c ****   */
 531:./Library/stm32f4xx_dma2d.c **** void DMA2D_DeadTimeConfig(uint32_t DMA2D_DeadTime, FunctionalState NewState)
 532:./Library/stm32f4xx_dma2d.c **** {
 925              		.loc 1 532 1 is_stmt 1 view -0
 926              		.cfi_startproc
 927              		@ args = 0, pretend = 0, frame = 0
 928              		@ frame_needed = 0, uses_anonymous_args = 0
 929              		@ link register save eliminated.
 533:./Library/stm32f4xx_dma2d.c ****    uint32_t DeadTime;
 930              		.loc 1 533 4 view .LVU329
ARM GAS  /var/folders/yl/_q9l42k90g1g4mdhbs226msm0000gn/T//ccnb8eCC.s 			page 27


 534:./Library/stm32f4xx_dma2d.c **** 
 535:./Library/stm32f4xx_dma2d.c ****   /* Check the parameters */
 536:./Library/stm32f4xx_dma2d.c ****   assert_param(IS_DMA2D_DEAD_TIME(DMA2D_DeadTime));
 931              		.loc 1 536 3 view .LVU330
 537:./Library/stm32f4xx_dma2d.c ****   assert_param(IS_FUNCTIONAL_STATE(NewState));
 932              		.loc 1 537 3 view .LVU331
 538:./Library/stm32f4xx_dma2d.c **** 
 539:./Library/stm32f4xx_dma2d.c ****   if (NewState != DISABLE)
 933              		.loc 1 539 3 view .LVU332
 934              		.loc 1 539 6 is_stmt 0 view .LVU333
 935 0000 69B1     		cbz	r1, .L48
 540:./Library/stm32f4xx_dma2d.c ****   {
 541:./Library/stm32f4xx_dma2d.c ****     /* Enable and Configures the dead time */
 542:./Library/stm32f4xx_dma2d.c ****     DMA2D->AMTCR &= (uint32_t)DEAD_MASK;
 936              		.loc 1 542 5 is_stmt 1 view .LVU334
 937              		.loc 1 542 18 is_stmt 0 view .LVU335
 938 0002 0A4A     		ldr	r2, .L50
 939 0004 D36C     		ldr	r3, [r2, #76]
 940 0006 23F47F43 		bic	r3, r3, #65280
 941 000a 23F00103 		bic	r3, r3, #1
 942 000e D364     		str	r3, [r2, #76]
 543:./Library/stm32f4xx_dma2d.c ****     DeadTime = DMA2D_DeadTime << 8;
 943              		.loc 1 543 5 is_stmt 1 view .LVU336
 944              	.LVL49:
 544:./Library/stm32f4xx_dma2d.c ****     DMA2D->AMTCR |= (DeadTime | DMA2D_AMTCR_EN);
 945              		.loc 1 544 5 view .LVU337
 946              		.loc 1 544 18 is_stmt 0 view .LVU338
 947 0010 D36C     		ldr	r3, [r2, #76]
 948 0012 43EA0020 		orr	r0, r3, r0, lsl #8
 949              	.LVL50:
 950              		.loc 1 544 18 view .LVU339
 951 0016 40F00100 		orr	r0, r0, #1
 952 001a D064     		str	r0, [r2, #76]
 953 001c 7047     		bx	lr
 954              	.LVL51:
 955              	.L48:
 545:./Library/stm32f4xx_dma2d.c ****   }
 546:./Library/stm32f4xx_dma2d.c ****   else
 547:./Library/stm32f4xx_dma2d.c ****   {
 548:./Library/stm32f4xx_dma2d.c ****      DMA2D->AMTCR &= ~(uint32_t)DMA2D_AMTCR_EN;
 956              		.loc 1 548 6 is_stmt 1 view .LVU340
 957              		.loc 1 548 19 is_stmt 0 view .LVU341
 958 001e 034A     		ldr	r2, .L50
 959 0020 D36C     		ldr	r3, [r2, #76]
 960 0022 23F00103 		bic	r3, r3, #1
 961 0026 D364     		str	r3, [r2, #76]
 549:./Library/stm32f4xx_dma2d.c ****   }
 550:./Library/stm32f4xx_dma2d.c **** }
 962              		.loc 1 550 1 view .LVU342
 963 0028 7047     		bx	lr
 964              	.L51:
 965 002a 00BF     		.align	2
 966              	.L50:
 967 002c 00B00240 		.word	1073917952
 968              		.cfi_endproc
 969              	.LFE135:
 971              		.section	.text.DMA2D_LineWatermarkConfig,"ax",%progbits
ARM GAS  /var/folders/yl/_q9l42k90g1g4mdhbs226msm0000gn/T//ccnb8eCC.s 			page 28


 972              		.align	1
 973              		.global	DMA2D_LineWatermarkConfig
 974              		.syntax unified
 975              		.thumb
 976              		.thumb_func
 978              	DMA2D_LineWatermarkConfig:
 979              	.LVL52:
 980              	.LFB136:
 551:./Library/stm32f4xx_dma2d.c **** 
 552:./Library/stm32f4xx_dma2d.c **** /**
 553:./Library/stm32f4xx_dma2d.c ****   * @brief  Define the configuration of the line watermark .
 554:./Library/stm32f4xx_dma2d.c ****   * @param  DMA2D_LWatermarkConfig: Line Watermark configuration.
 555:./Library/stm32f4xx_dma2d.c ****   * @retval None
 556:./Library/stm32f4xx_dma2d.c ****   */
 557:./Library/stm32f4xx_dma2d.c **** 
 558:./Library/stm32f4xx_dma2d.c **** void DMA2D_LineWatermarkConfig(uint32_t DMA2D_LWatermarkConfig)
 559:./Library/stm32f4xx_dma2d.c **** {
 981              		.loc 1 559 1 is_stmt 1 view -0
 982              		.cfi_startproc
 983              		@ args = 0, pretend = 0, frame = 0
 984              		@ frame_needed = 0, uses_anonymous_args = 0
 985              		@ link register save eliminated.
 560:./Library/stm32f4xx_dma2d.c ****   /* Check the parameters */
 561:./Library/stm32f4xx_dma2d.c ****   assert_param(IS_DMA2D_LineWatermark(DMA2D_LWatermarkConfig));
 986              		.loc 1 561 3 view .LVU344
 562:./Library/stm32f4xx_dma2d.c **** 
 563:./Library/stm32f4xx_dma2d.c ****   /* Sets the Line watermark configuration */
 564:./Library/stm32f4xx_dma2d.c ****   DMA2D->LWR = (uint32_t)DMA2D_LWatermarkConfig;
 987              		.loc 1 564 3 view .LVU345
 988              		.loc 1 564 14 is_stmt 0 view .LVU346
 989 0000 014B     		ldr	r3, .L53
 990 0002 9864     		str	r0, [r3, #72]
 565:./Library/stm32f4xx_dma2d.c **** }
 991              		.loc 1 565 1 view .LVU347
 992 0004 7047     		bx	lr
 993              	.L54:
 994 0006 00BF     		.align	2
 995              	.L53:
 996 0008 00B00240 		.word	1073917952
 997              		.cfi_endproc
 998              	.LFE136:
 1000              		.section	.text.DMA2D_ITConfig,"ax",%progbits
 1001              		.align	1
 1002              		.global	DMA2D_ITConfig
 1003              		.syntax unified
 1004              		.thumb
 1005              		.thumb_func
 1007              	DMA2D_ITConfig:
 1008              	.LVL53:
 1009              	.LFB137:
 566:./Library/stm32f4xx_dma2d.c **** 
 567:./Library/stm32f4xx_dma2d.c **** /**
 568:./Library/stm32f4xx_dma2d.c ****   * @}
 569:./Library/stm32f4xx_dma2d.c ****   */
 570:./Library/stm32f4xx_dma2d.c **** 
 571:./Library/stm32f4xx_dma2d.c **** /** @defgroup DMA2D_Group2 Interrupts and flags management functions
 572:./Library/stm32f4xx_dma2d.c ****  *  @brief   Interrupts and flags management functions
ARM GAS  /var/folders/yl/_q9l42k90g1g4mdhbs226msm0000gn/T//ccnb8eCC.s 			page 29


 573:./Library/stm32f4xx_dma2d.c ****  *
 574:./Library/stm32f4xx_dma2d.c **** @verbatim
 575:./Library/stm32f4xx_dma2d.c ****  ===============================================================================
 576:./Library/stm32f4xx_dma2d.c ****             ##### Interrupts and flags management functions #####
 577:./Library/stm32f4xx_dma2d.c ****  ===============================================================================
 578:./Library/stm32f4xx_dma2d.c **** 
 579:./Library/stm32f4xx_dma2d.c ****     [..] This section provides functions allowing to configure the DMA2D 
 580:./Library/stm32f4xx_dma2d.c ****          Interrupts and to get the status and clear flags and Interrupts 
 581:./Library/stm32f4xx_dma2d.c ****          pending bits.
 582:./Library/stm32f4xx_dma2d.c ****     [..] The DMA2D provides 6 Interrupts sources and 6 Flags
 583:./Library/stm32f4xx_dma2d.c ****     
 584:./Library/stm32f4xx_dma2d.c ****     *** Flags ***
 585:./Library/stm32f4xx_dma2d.c ****     =============
 586:./Library/stm32f4xx_dma2d.c ****     [..]
 587:./Library/stm32f4xx_dma2d.c ****       (+) DMA2D_FLAG_CE : Configuration Error Interrupt flag
 588:./Library/stm32f4xx_dma2d.c ****       (+) DMA2D_FLAG_CAE: CLUT Access Error Interrupt flag
 589:./Library/stm32f4xx_dma2d.c ****       (+) DMA2D_FLAG_TW:  Transfer Watermark Interrupt flag
 590:./Library/stm32f4xx_dma2d.c ****       (+) DMA2D_FLAG_TC:  Transfer Complete interrupt flag
 591:./Library/stm32f4xx_dma2d.c ****       (+) DMA2D_FLAG_TE:  Transfer Error interrupt flag
 592:./Library/stm32f4xx_dma2d.c ****       (+) DMA2D_FLAG_CTC: CLUT Transfer Complete Interrupt flag
 593:./Library/stm32f4xx_dma2d.c ****       
 594:./Library/stm32f4xx_dma2d.c ****     *** Interrupts ***
 595:./Library/stm32f4xx_dma2d.c ****     ==================
 596:./Library/stm32f4xx_dma2d.c ****     [..]
 597:./Library/stm32f4xx_dma2d.c ****       (+) DMA2D_IT_CE: Configuration Error Interrupt is generated when a wrong 
 598:./Library/stm32f4xx_dma2d.c ****                        configuration is detected
 599:./Library/stm32f4xx_dma2d.c ****       (+) DMA2D_IT_CAE: CLUT Access Error Interrupt
 600:./Library/stm32f4xx_dma2d.c ****       (+) DMA2D_IT_TW: Transfer Watermark Interrupt is generated when 
 601:./Library/stm32f4xx_dma2d.c ****                        the programmed watermark is reached 
 602:./Library/stm32f4xx_dma2d.c ****       (+) DMA2D_IT_TE: Transfer Error interrupt is generated when the CPU trying 
 603:./Library/stm32f4xx_dma2d.c ****                        to access the CLUT while a CLUT loading or a DMA2D1 transfer 
 604:./Library/stm32f4xx_dma2d.c ****                        is on going       
 605:./Library/stm32f4xx_dma2d.c ****       (+) DMA2D_IT_CTC: CLUT Transfer Complete Interrupt 
 606:./Library/stm32f4xx_dma2d.c ****       (+) DMA2D_IT_TC: Transfer Complete interrupt         
 607:./Library/stm32f4xx_dma2d.c **** @endverbatim
 608:./Library/stm32f4xx_dma2d.c ****   * @{
 609:./Library/stm32f4xx_dma2d.c ****   */
 610:./Library/stm32f4xx_dma2d.c **** /**
 611:./Library/stm32f4xx_dma2d.c ****   * @brief  Enables or disables the specified DMA2D's interrupts.
 612:./Library/stm32f4xx_dma2d.c ****   * @param  DMA2D_IT: specifies the DMA2D interrupts sources to be enabled or disabled.
 613:./Library/stm32f4xx_dma2d.c ****   *   This parameter can be any combination of the following values:
 614:./Library/stm32f4xx_dma2d.c ****   *     @arg DMA2D_IT_CE:   Configuration Error Interrupt Enable.
 615:./Library/stm32f4xx_dma2d.c ****   *     @arg DMA2D_IT_CTC:  CLUT Transfer Complete Interrupt Enable.
 616:./Library/stm32f4xx_dma2d.c ****   *     @arg DMA2D_IT_CAE:  CLUT Access Error Interrupt Enable.
 617:./Library/stm32f4xx_dma2d.c ****   *     @arg DMA2D_IT_TW:   Transfer Watermark Interrupt Enable.
 618:./Library/stm32f4xx_dma2d.c ****   *     @arg DMA2D_IT_TC:   Transfer Complete interrupt enable.
 619:./Library/stm32f4xx_dma2d.c ****   *     @arg DMA2D_IT_TE:   Transfer Error interrupt enable.
 620:./Library/stm32f4xx_dma2d.c ****   * @param NewState: new state of the specified DMA2D interrupts.
 621:./Library/stm32f4xx_dma2d.c ****   *   This parameter can be: ENABLE or DISABLE.
 622:./Library/stm32f4xx_dma2d.c ****   * @retval None
 623:./Library/stm32f4xx_dma2d.c ****   */
 624:./Library/stm32f4xx_dma2d.c **** 
 625:./Library/stm32f4xx_dma2d.c **** void DMA2D_ITConfig(uint32_t DMA2D_IT, FunctionalState NewState)
 626:./Library/stm32f4xx_dma2d.c **** {
 1010              		.loc 1 626 1 is_stmt 1 view -0
 1011              		.cfi_startproc
 1012              		@ args = 0, pretend = 0, frame = 0
ARM GAS  /var/folders/yl/_q9l42k90g1g4mdhbs226msm0000gn/T//ccnb8eCC.s 			page 30


 1013              		@ frame_needed = 0, uses_anonymous_args = 0
 1014              		@ link register save eliminated.
 627:./Library/stm32f4xx_dma2d.c ****   /* Check the parameters */
 628:./Library/stm32f4xx_dma2d.c ****   assert_param(IS_DMA2D_IT(DMA2D_IT));
 1015              		.loc 1 628 3 view .LVU349
 629:./Library/stm32f4xx_dma2d.c ****   assert_param(IS_FUNCTIONAL_STATE(NewState));
 1016              		.loc 1 629 3 view .LVU350
 630:./Library/stm32f4xx_dma2d.c **** 
 631:./Library/stm32f4xx_dma2d.c ****   if (NewState != DISABLE)
 1017              		.loc 1 631 3 view .LVU351
 1018              		.loc 1 631 6 is_stmt 0 view .LVU352
 1019 0000 21B1     		cbz	r1, .L56
 632:./Library/stm32f4xx_dma2d.c ****   {
 633:./Library/stm32f4xx_dma2d.c ****     /* Enable the selected DMA2D interrupts */
 634:./Library/stm32f4xx_dma2d.c ****     DMA2D->CR |= DMA2D_IT;
 1020              		.loc 1 634 5 is_stmt 1 view .LVU353
 1021              		.loc 1 634 15 is_stmt 0 view .LVU354
 1022 0002 054A     		ldr	r2, .L58
 1023 0004 1368     		ldr	r3, [r2]
 1024 0006 1843     		orrs	r0, r0, r3
 1025              	.LVL54:
 1026              		.loc 1 634 15 view .LVU355
 1027 0008 1060     		str	r0, [r2]
 1028 000a 7047     		bx	lr
 1029              	.LVL55:
 1030              	.L56:
 635:./Library/stm32f4xx_dma2d.c ****   }
 636:./Library/stm32f4xx_dma2d.c ****   else
 637:./Library/stm32f4xx_dma2d.c ****   {
 638:./Library/stm32f4xx_dma2d.c ****     /* Disable the selected DMA2D interrupts */
 639:./Library/stm32f4xx_dma2d.c ****     DMA2D->CR &= (uint32_t)~DMA2D_IT;
 1031              		.loc 1 639 5 is_stmt 1 view .LVU356
 1032              		.loc 1 639 15 is_stmt 0 view .LVU357
 1033 000c 024A     		ldr	r2, .L58
 1034 000e 1368     		ldr	r3, [r2]
 1035 0010 23EA0000 		bic	r0, r3, r0
 1036              	.LVL56:
 1037              		.loc 1 639 15 view .LVU358
 1038 0014 1060     		str	r0, [r2]
 640:./Library/stm32f4xx_dma2d.c ****   }
 641:./Library/stm32f4xx_dma2d.c **** }
 1039              		.loc 1 641 1 view .LVU359
 1040 0016 7047     		bx	lr
 1041              	.L59:
 1042              		.align	2
 1043              	.L58:
 1044 0018 00B00240 		.word	1073917952
 1045              		.cfi_endproc
 1046              	.LFE137:
 1048              		.section	.text.DMA2D_GetFlagStatus,"ax",%progbits
 1049              		.align	1
 1050              		.global	DMA2D_GetFlagStatus
 1051              		.syntax unified
 1052              		.thumb
 1053              		.thumb_func
 1055              	DMA2D_GetFlagStatus:
 1056              	.LVL57:
ARM GAS  /var/folders/yl/_q9l42k90g1g4mdhbs226msm0000gn/T//ccnb8eCC.s 			page 31


 1057              	.LFB138:
 642:./Library/stm32f4xx_dma2d.c **** 
 643:./Library/stm32f4xx_dma2d.c **** /**
 644:./Library/stm32f4xx_dma2d.c ****   * @brief  Checks whether the specified DMA2D's flag is set or not.
 645:./Library/stm32f4xx_dma2d.c ****   * @param  DMA2D_FLAG: specifies the flag to check.
 646:./Library/stm32f4xx_dma2d.c ****   *   This parameter can be one of the following values:
 647:./Library/stm32f4xx_dma2d.c ****   *     @arg DMA2D_FLAG_CE:   Configuration Error Interrupt flag.
 648:./Library/stm32f4xx_dma2d.c ****   *     @arg DMA2D_FLAG_CTC:  CLUT Transfer Complete Interrupt flag.
 649:./Library/stm32f4xx_dma2d.c ****   *     @arg DMA2D_FLAG_CAE:  CLUT Access Error Interrupt flag.
 650:./Library/stm32f4xx_dma2d.c ****   *     @arg DMA2D_FLAG_TW:   Transfer Watermark Interrupt flag.
 651:./Library/stm32f4xx_dma2d.c ****   *     @arg DMA2D_FLAG_TC:   Transfer Complete interrupt flag.
 652:./Library/stm32f4xx_dma2d.c ****   *     @arg DMA2D_FLAG_TE:   Transfer Error interrupt flag.
 653:./Library/stm32f4xx_dma2d.c ****   * @retval The new state of DMA2D_FLAG (SET or RESET).
 654:./Library/stm32f4xx_dma2d.c ****   */
 655:./Library/stm32f4xx_dma2d.c **** 
 656:./Library/stm32f4xx_dma2d.c **** FlagStatus DMA2D_GetFlagStatus(uint32_t DMA2D_FLAG)
 657:./Library/stm32f4xx_dma2d.c **** {
 1058              		.loc 1 657 1 is_stmt 1 view -0
 1059              		.cfi_startproc
 1060              		@ args = 0, pretend = 0, frame = 0
 1061              		@ frame_needed = 0, uses_anonymous_args = 0
 1062              		@ link register save eliminated.
 658:./Library/stm32f4xx_dma2d.c ****   FlagStatus bitstatus = RESET;
 1063              		.loc 1 658 3 view .LVU361
 659:./Library/stm32f4xx_dma2d.c ****   
 660:./Library/stm32f4xx_dma2d.c ****   /* Check the parameters */
 661:./Library/stm32f4xx_dma2d.c ****   assert_param(IS_DMA2D_GET_FLAG(DMA2D_FLAG));
 1064              		.loc 1 661 3 view .LVU362
 662:./Library/stm32f4xx_dma2d.c ****   
 663:./Library/stm32f4xx_dma2d.c ****   /* Check the status of the specified DMA2D flag */
 664:./Library/stm32f4xx_dma2d.c ****   if (((DMA2D->ISR) & DMA2D_FLAG) != (uint32_t)RESET)
 1065              		.loc 1 664 3 view .LVU363
 1066              		.loc 1 664 14 is_stmt 0 view .LVU364
 1067 0000 034B     		ldr	r3, .L63
 1068 0002 5B68     		ldr	r3, [r3, #4]
 1069              		.loc 1 664 6 view .LVU365
 1070 0004 0342     		tst	r3, r0
 1071 0006 01D0     		beq	.L62
 665:./Library/stm32f4xx_dma2d.c ****   {
 666:./Library/stm32f4xx_dma2d.c ****     /* DMA2D_FLAG is set */
 667:./Library/stm32f4xx_dma2d.c ****     bitstatus = SET;
 1072              		.loc 1 667 15 view .LVU366
 1073 0008 0120     		movs	r0, #1
 1074              	.LVL58:
 1075              		.loc 1 667 15 view .LVU367
 1076 000a 7047     		bx	lr
 1077              	.LVL59:
 1078              	.L62:
 668:./Library/stm32f4xx_dma2d.c ****   }
 669:./Library/stm32f4xx_dma2d.c ****   else
 670:./Library/stm32f4xx_dma2d.c ****   {
 671:./Library/stm32f4xx_dma2d.c ****     /* DMA2D_FLAG is reset */
 672:./Library/stm32f4xx_dma2d.c ****     bitstatus = RESET;
 1079              		.loc 1 672 15 view .LVU368
 1080 000c 0020     		movs	r0, #0
 1081              	.LVL60:
 673:./Library/stm32f4xx_dma2d.c ****   }
ARM GAS  /var/folders/yl/_q9l42k90g1g4mdhbs226msm0000gn/T//ccnb8eCC.s 			page 32


 674:./Library/stm32f4xx_dma2d.c ****   /* Return the DMA2D_FLAG status */
 675:./Library/stm32f4xx_dma2d.c ****   return bitstatus;
 1082              		.loc 1 675 3 is_stmt 1 view .LVU369
 676:./Library/stm32f4xx_dma2d.c **** }
 1083              		.loc 1 676 1 is_stmt 0 view .LVU370
 1084 000e 7047     		bx	lr
 1085              	.L64:
 1086              		.align	2
 1087              	.L63:
 1088 0010 00B00240 		.word	1073917952
 1089              		.cfi_endproc
 1090              	.LFE138:
 1092              		.section	.text.DMA2D_ClearFlag,"ax",%progbits
 1093              		.align	1
 1094              		.global	DMA2D_ClearFlag
 1095              		.syntax unified
 1096              		.thumb
 1097              		.thumb_func
 1099              	DMA2D_ClearFlag:
 1100              	.LVL61:
 1101              	.LFB139:
 677:./Library/stm32f4xx_dma2d.c **** 
 678:./Library/stm32f4xx_dma2d.c **** /**
 679:./Library/stm32f4xx_dma2d.c ****   * @brief  Clears the DMA2D's pending flags.
 680:./Library/stm32f4xx_dma2d.c ****   * @param  DMA2D_FLAG: specifies the flag to clear.
 681:./Library/stm32f4xx_dma2d.c ****   *   This parameter can be any combination of the following values:
 682:./Library/stm32f4xx_dma2d.c ****   *     @arg DMA2D_FLAG_CE:   Configuration Error Interrupt flag.
 683:./Library/stm32f4xx_dma2d.c ****   *     @arg DMA2D_FLAG_CTC:  CLUT Transfer Complete Interrupt flag.
 684:./Library/stm32f4xx_dma2d.c ****   *     @arg DMA2D_FLAG_CAE:  CLUT Access Error Interrupt flag.
 685:./Library/stm32f4xx_dma2d.c ****   *     @arg DMA2D_FLAG_TW:   Transfer Watermark Interrupt flag.
 686:./Library/stm32f4xx_dma2d.c ****   *     @arg DMA2D_FLAG_TC:   Transfer Complete interrupt flag.
 687:./Library/stm32f4xx_dma2d.c ****   *     @arg DMA2D_FLAG_TE:   Transfer Error interrupt flag.
 688:./Library/stm32f4xx_dma2d.c ****   * @retval None
 689:./Library/stm32f4xx_dma2d.c ****   */
 690:./Library/stm32f4xx_dma2d.c **** void DMA2D_ClearFlag(uint32_t DMA2D_FLAG)
 691:./Library/stm32f4xx_dma2d.c **** {
 1102              		.loc 1 691 1 is_stmt 1 view -0
 1103              		.cfi_startproc
 1104              		@ args = 0, pretend = 0, frame = 0
 1105              		@ frame_needed = 0, uses_anonymous_args = 0
 1106              		@ link register save eliminated.
 692:./Library/stm32f4xx_dma2d.c ****   /* Check the parameters */
 693:./Library/stm32f4xx_dma2d.c ****   assert_param(IS_DMA2D_GET_FLAG(DMA2D_FLAG));
 1107              		.loc 1 693 3 view .LVU372
 694:./Library/stm32f4xx_dma2d.c ****     
 695:./Library/stm32f4xx_dma2d.c ****   /* Clear the corresponding DMA2D flag */
 696:./Library/stm32f4xx_dma2d.c ****   DMA2D->IFCR = (uint32_t)DMA2D_FLAG;
 1108              		.loc 1 696 3 view .LVU373
 1109              		.loc 1 696 15 is_stmt 0 view .LVU374
 1110 0000 014B     		ldr	r3, .L66
 1111 0002 9860     		str	r0, [r3, #8]
 697:./Library/stm32f4xx_dma2d.c **** }
 1112              		.loc 1 697 1 view .LVU375
 1113 0004 7047     		bx	lr
 1114              	.L67:
 1115 0006 00BF     		.align	2
 1116              	.L66:
ARM GAS  /var/folders/yl/_q9l42k90g1g4mdhbs226msm0000gn/T//ccnb8eCC.s 			page 33


 1117 0008 00B00240 		.word	1073917952
 1118              		.cfi_endproc
 1119              	.LFE139:
 1121              		.section	.text.DMA2D_GetITStatus,"ax",%progbits
 1122              		.align	1
 1123              		.global	DMA2D_GetITStatus
 1124              		.syntax unified
 1125              		.thumb
 1126              		.thumb_func
 1128              	DMA2D_GetITStatus:
 1129              	.LVL62:
 1130              	.LFB140:
 698:./Library/stm32f4xx_dma2d.c **** 
 699:./Library/stm32f4xx_dma2d.c **** /**
 700:./Library/stm32f4xx_dma2d.c ****   * @brief  Checks whether the specified DMA2D's interrupt has occurred or not.
 701:./Library/stm32f4xx_dma2d.c ****   * @param  DMA2D_IT: specifies the DMA2D interrupts sources to check.
 702:./Library/stm32f4xx_dma2d.c ****   *   This parameter can be one of the following values:
 703:./Library/stm32f4xx_dma2d.c ****   *     @arg DMA2D_IT_CE:   Configuration Error Interrupt Enable.
 704:./Library/stm32f4xx_dma2d.c ****   *     @arg DMA2D_IT_CTC:  CLUT Transfer Complete Interrupt Enable.
 705:./Library/stm32f4xx_dma2d.c ****   *     @arg DMA2D_IT_CAE:  CLUT Access Error Interrupt Enable.
 706:./Library/stm32f4xx_dma2d.c ****   *     @arg DMA2D_IT_TW:   Transfer Watermark Interrupt Enable.
 707:./Library/stm32f4xx_dma2d.c ****   *     @arg DMA2D_IT_TC:   Transfer Complete interrupt enable.
 708:./Library/stm32f4xx_dma2d.c ****   *     @arg DMA2D_IT_TE:   Transfer Error interrupt enable.
 709:./Library/stm32f4xx_dma2d.c ****   * @retval The new state of the DMA2D_IT (SET or RESET).
 710:./Library/stm32f4xx_dma2d.c ****   */
 711:./Library/stm32f4xx_dma2d.c **** ITStatus DMA2D_GetITStatus(uint32_t DMA2D_IT)
 712:./Library/stm32f4xx_dma2d.c **** {
 1131              		.loc 1 712 1 is_stmt 1 view -0
 1132              		.cfi_startproc
 1133              		@ args = 0, pretend = 0, frame = 0
 1134              		@ frame_needed = 0, uses_anonymous_args = 0
 1135              		@ link register save eliminated.
 1136              		.loc 1 712 1 is_stmt 0 view .LVU377
 1137 0000 0346     		mov	r3, r0
 713:./Library/stm32f4xx_dma2d.c ****   ITStatus bitstatus = RESET;
 1138              		.loc 1 713 3 is_stmt 1 view .LVU378
 1139              	.LVL63:
 714:./Library/stm32f4xx_dma2d.c ****   uint32_t DMA2D_IT_FLAG = DMA2D_IT >> 8;
 1140              		.loc 1 714 3 view .LVU379
 715:./Library/stm32f4xx_dma2d.c ****   
 716:./Library/stm32f4xx_dma2d.c ****   /* Check the parameters */
 717:./Library/stm32f4xx_dma2d.c ****   assert_param(IS_DMA2D_IT(DMA2D_IT));
 1141              		.loc 1 717 3 view .LVU380
 718:./Library/stm32f4xx_dma2d.c **** 
 719:./Library/stm32f4xx_dma2d.c ****   if ((DMA2D->ISR & DMA2D_IT_FLAG) != (uint32_t)RESET)
 1142              		.loc 1 719 3 view .LVU381
 1143              		.loc 1 719 13 is_stmt 0 view .LVU382
 1144 0002 074A     		ldr	r2, .L73
 1145 0004 5268     		ldr	r2, [r2, #4]
 1146              		.loc 1 719 6 view .LVU383
 1147 0006 12EA1022 		ands	r2, r2, r0, lsr #8
 1148 000a 06D0     		beq	.L71
 720:./Library/stm32f4xx_dma2d.c ****   {
 721:./Library/stm32f4xx_dma2d.c ****     bitstatus = SET;
 1149              		.loc 1 721 15 view .LVU384
 1150 000c 0120     		movs	r0, #1
 1151              	.LVL64:
ARM GAS  /var/folders/yl/_q9l42k90g1g4mdhbs226msm0000gn/T//ccnb8eCC.s 			page 34


 1152              	.L69:
 722:./Library/stm32f4xx_dma2d.c ****   }
 723:./Library/stm32f4xx_dma2d.c ****   else
 724:./Library/stm32f4xx_dma2d.c ****   {
 725:./Library/stm32f4xx_dma2d.c ****     bitstatus = RESET;
 726:./Library/stm32f4xx_dma2d.c ****   }
 727:./Library/stm32f4xx_dma2d.c ****   
 728:./Library/stm32f4xx_dma2d.c ****   if (((DMA2D->CR & DMA2D_IT) != (uint32_t)RESET) && (bitstatus != (uint32_t)RESET))
 1153              		.loc 1 728 3 is_stmt 1 view .LVU385
 1154              		.loc 1 728 14 is_stmt 0 view .LVU386
 1155 000e 044A     		ldr	r2, .L73
 1156 0010 1268     		ldr	r2, [r2]
 1157              		.loc 1 728 6 view .LVU387
 1158 0012 1A42     		tst	r2, r3
 1159 0014 00D1     		bne	.L70
 729:./Library/stm32f4xx_dma2d.c ****   {
 730:./Library/stm32f4xx_dma2d.c ****     bitstatus = SET;
 731:./Library/stm32f4xx_dma2d.c ****   }
 732:./Library/stm32f4xx_dma2d.c ****   else
 733:./Library/stm32f4xx_dma2d.c ****   {
 734:./Library/stm32f4xx_dma2d.c ****     bitstatus = RESET;
 1160              		.loc 1 734 15 view .LVU388
 1161 0016 0020     		movs	r0, #0
 1162              	.LVL65:
 1163              	.L70:
 735:./Library/stm32f4xx_dma2d.c ****   }
 736:./Library/stm32f4xx_dma2d.c ****   return bitstatus;
 1164              		.loc 1 736 3 is_stmt 1 view .LVU389
 737:./Library/stm32f4xx_dma2d.c **** }
 1165              		.loc 1 737 1 is_stmt 0 view .LVU390
 1166 0018 7047     		bx	lr
 1167              	.LVL66:
 1168              	.L71:
 725:./Library/stm32f4xx_dma2d.c ****   }
 1169              		.loc 1 725 15 view .LVU391
 1170 001a 0020     		movs	r0, #0
 1171              	.LVL67:
 725:./Library/stm32f4xx_dma2d.c ****   }
 1172              		.loc 1 725 15 view .LVU392
 1173 001c F7E7     		b	.L69
 1174              	.L74:
 1175 001e 00BF     		.align	2
 1176              	.L73:
 1177 0020 00B00240 		.word	1073917952
 1178              		.cfi_endproc
 1179              	.LFE140:
 1181              		.section	.text.DMA2D_ClearITPendingBit,"ax",%progbits
 1182              		.align	1
 1183              		.global	DMA2D_ClearITPendingBit
 1184              		.syntax unified
 1185              		.thumb
 1186              		.thumb_func
 1188              	DMA2D_ClearITPendingBit:
 1189              	.LVL68:
 1190              	.LFB141:
 738:./Library/stm32f4xx_dma2d.c **** 
 739:./Library/stm32f4xx_dma2d.c **** /**
ARM GAS  /var/folders/yl/_q9l42k90g1g4mdhbs226msm0000gn/T//ccnb8eCC.s 			page 35


 740:./Library/stm32f4xx_dma2d.c ****   * @brief  Clears the DMA2D's interrupt pending bits.
 741:./Library/stm32f4xx_dma2d.c ****   * @param  DMA2D_IT: specifies the interrupt pending bit to clear.
 742:./Library/stm32f4xx_dma2d.c ****   *   This parameter can be any combination of the following values:
 743:./Library/stm32f4xx_dma2d.c ****   *     @arg DMA2D_IT_CE:   Configuration Error Interrupt.
 744:./Library/stm32f4xx_dma2d.c ****   *     @arg DMA2D_IT_CTC:  CLUT Transfer Complete Interrupt.
 745:./Library/stm32f4xx_dma2d.c ****   *     @arg DMA2D_IT_CAE:  CLUT Access Error Interrupt.
 746:./Library/stm32f4xx_dma2d.c ****   *     @arg DMA2D_IT_TW:   Transfer Watermark Interrupt.
 747:./Library/stm32f4xx_dma2d.c ****   *     @arg DMA2D_IT_TC:   Transfer Complete interrupt.
 748:./Library/stm32f4xx_dma2d.c ****   *     @arg DMA2D_IT_TE:   Transfer Error interrupt.
 749:./Library/stm32f4xx_dma2d.c ****   * @retval None
 750:./Library/stm32f4xx_dma2d.c ****   */
 751:./Library/stm32f4xx_dma2d.c **** void DMA2D_ClearITPendingBit(uint32_t DMA2D_IT)
 752:./Library/stm32f4xx_dma2d.c **** {
 1191              		.loc 1 752 1 is_stmt 1 view -0
 1192              		.cfi_startproc
 1193              		@ args = 0, pretend = 0, frame = 0
 1194              		@ frame_needed = 0, uses_anonymous_args = 0
 1195              		@ link register save eliminated.
 753:./Library/stm32f4xx_dma2d.c ****   /* Check the parameters */
 754:./Library/stm32f4xx_dma2d.c ****   assert_param(IS_DMA2D_IT(DMA2D_IT));
 1196              		.loc 1 754 3 view .LVU394
 755:./Library/stm32f4xx_dma2d.c ****   DMA2D_IT = DMA2D_IT >> 8;
 1197              		.loc 1 755 3 view .LVU395
 1198              		.loc 1 755 12 is_stmt 0 view .LVU396
 1199 0000 000A     		lsrs	r0, r0, #8
 1200              	.LVL69:
 756:./Library/stm32f4xx_dma2d.c ****     
 757:./Library/stm32f4xx_dma2d.c ****   /* Clear the corresponding DMA2D Interrupt */
 758:./Library/stm32f4xx_dma2d.c ****   DMA2D->IFCR = (uint32_t)DMA2D_IT;
 1201              		.loc 1 758 3 is_stmt 1 view .LVU397
 1202              		.loc 1 758 15 is_stmt 0 view .LVU398
 1203 0002 014B     		ldr	r3, .L76
 1204 0004 9860     		str	r0, [r3, #8]
 759:./Library/stm32f4xx_dma2d.c **** }
 1205              		.loc 1 759 1 view .LVU399
 1206 0006 7047     		bx	lr
 1207              	.L77:
 1208              		.align	2
 1209              	.L76:
 1210 0008 00B00240 		.word	1073917952
 1211              		.cfi_endproc
 1212              	.LFE141:
 1214              		.text
 1215              	.Letext0:
 1216              		.file 2 "/Applications/ARM/arm-none-eabi/include/machine/_default_types.h"
 1217              		.file 3 "/Applications/ARM/arm-none-eabi/include/sys/_stdint.h"
 1218              		.file 4 "./CORE/stm32f4xx.h"
 1219              		.file 5 "./Library/stm32f4xx_dma2d.h"
 1220              		.file 6 "./Library/stm32f4xx_rcc.h"
ARM GAS  /var/folders/yl/_q9l42k90g1g4mdhbs226msm0000gn/T//ccnb8eCC.s 			page 36

