ARM GAS  /var/folders/yl/_q9l42k90g1g4mdhbs226msm0000gn/T//ccj4tUGl.s 			page 1


   1              		.cpu cortex-m4
   2              		.arch armv7e-m
   3              		.fpu fpv4-sp-d16
   4              		.eabi_attribute 27, 1
   5              		.eabi_attribute 28, 1
   6              		.eabi_attribute 20, 1
   7              		.eabi_attribute 21, 1
   8              		.eabi_attribute 23, 3
   9              		.eabi_attribute 24, 1
  10              		.eabi_attribute 25, 1
  11              		.eabi_attribute 26, 1
  12              		.eabi_attribute 30, 1
  13              		.eabi_attribute 34, 1
  14              		.eabi_attribute 18, 4
  15              		.file	"stm32f4xx_crc.c"
  16              		.text
  17              	.Ltext0:
  18              		.cfi_sections	.debug_frame
  19              		.section	.text.CRC_ResetDR,"ax",%progbits
  20              		.align	1
  21              		.global	CRC_ResetDR
  22              		.syntax unified
  23              		.thumb
  24              		.thumb_func
  26              	CRC_ResetDR:
  27              	.LFB123:
  28              		.file 1 "./Library/stm32f4xx_crc.c"
   1:./Library/stm32f4xx_crc.c **** /**
   2:./Library/stm32f4xx_crc.c ****   ******************************************************************************
   3:./Library/stm32f4xx_crc.c ****   * @file    stm32f4xx_crc.c
   4:./Library/stm32f4xx_crc.c ****   * @author  MCD Application Team
   5:./Library/stm32f4xx_crc.c ****   * @version V1.8.1
   6:./Library/stm32f4xx_crc.c ****   * @date    27-January-2022
   7:./Library/stm32f4xx_crc.c ****   * @brief   This file provides all the CRC firmware functions.
   8:./Library/stm32f4xx_crc.c ****   ******************************************************************************
   9:./Library/stm32f4xx_crc.c ****   * @attention
  10:./Library/stm32f4xx_crc.c ****   *
  11:./Library/stm32f4xx_crc.c ****   * Copyright (c) 2016 STMicroelectronics.
  12:./Library/stm32f4xx_crc.c ****   * All rights reserved.
  13:./Library/stm32f4xx_crc.c ****   *
  14:./Library/stm32f4xx_crc.c ****   * This software is licensed under terms that can be found in the LICENSE file
  15:./Library/stm32f4xx_crc.c ****   * in the root directory of this software component.
  16:./Library/stm32f4xx_crc.c ****   * If no LICENSE file comes with this software, it is provided AS-IS.
  17:./Library/stm32f4xx_crc.c ****   *
  18:./Library/stm32f4xx_crc.c ****   ******************************************************************************
  19:./Library/stm32f4xx_crc.c ****   */
  20:./Library/stm32f4xx_crc.c **** 
  21:./Library/stm32f4xx_crc.c **** /* Includes ------------------------------------------------------------------*/
  22:./Library/stm32f4xx_crc.c **** #include "stm32f4xx_crc.h"
  23:./Library/stm32f4xx_crc.c **** 
  24:./Library/stm32f4xx_crc.c **** /** @addtogroup STM32F4xx_StdPeriph_Driver
  25:./Library/stm32f4xx_crc.c ****   * @{
  26:./Library/stm32f4xx_crc.c ****   */
  27:./Library/stm32f4xx_crc.c **** 
  28:./Library/stm32f4xx_crc.c **** /** @defgroup CRC 
  29:./Library/stm32f4xx_crc.c ****   * @brief CRC driver modules
  30:./Library/stm32f4xx_crc.c ****   * @{
ARM GAS  /var/folders/yl/_q9l42k90g1g4mdhbs226msm0000gn/T//ccj4tUGl.s 			page 2


  31:./Library/stm32f4xx_crc.c ****   */
  32:./Library/stm32f4xx_crc.c **** 
  33:./Library/stm32f4xx_crc.c **** /* Private typedef -----------------------------------------------------------*/
  34:./Library/stm32f4xx_crc.c **** /* Private define ------------------------------------------------------------*/
  35:./Library/stm32f4xx_crc.c **** /* Private macro -------------------------------------------------------------*/
  36:./Library/stm32f4xx_crc.c **** /* Private variables ---------------------------------------------------------*/
  37:./Library/stm32f4xx_crc.c **** /* Private function prototypes -----------------------------------------------*/
  38:./Library/stm32f4xx_crc.c **** /* Private functions ---------------------------------------------------------*/
  39:./Library/stm32f4xx_crc.c **** 
  40:./Library/stm32f4xx_crc.c **** /** @defgroup CRC_Private_Functions
  41:./Library/stm32f4xx_crc.c ****   * @{
  42:./Library/stm32f4xx_crc.c ****   */
  43:./Library/stm32f4xx_crc.c **** 
  44:./Library/stm32f4xx_crc.c **** /**
  45:./Library/stm32f4xx_crc.c ****   * @brief  Resets the CRC Data register (DR).
  46:./Library/stm32f4xx_crc.c ****   * @param  None
  47:./Library/stm32f4xx_crc.c ****   * @retval None
  48:./Library/stm32f4xx_crc.c ****   */
  49:./Library/stm32f4xx_crc.c **** void CRC_ResetDR(void)
  50:./Library/stm32f4xx_crc.c **** {
  29              		.loc 1 50 1 view -0
  30              		.cfi_startproc
  31              		@ args = 0, pretend = 0, frame = 0
  32              		@ frame_needed = 0, uses_anonymous_args = 0
  33              		@ link register save eliminated.
  51:./Library/stm32f4xx_crc.c ****   /* Reset CRC generator */
  52:./Library/stm32f4xx_crc.c ****   CRC->CR = CRC_CR_RESET;
  34              		.loc 1 52 3 view .LVU1
  35              		.loc 1 52 11 is_stmt 0 view .LVU2
  36 0000 014B     		ldr	r3, .L2
  37 0002 0122     		movs	r2, #1
  38 0004 9A60     		str	r2, [r3, #8]
  53:./Library/stm32f4xx_crc.c **** }
  39              		.loc 1 53 1 view .LVU3
  40 0006 7047     		bx	lr
  41              	.L3:
  42              		.align	2
  43              	.L2:
  44 0008 00300240 		.word	1073885184
  45              		.cfi_endproc
  46              	.LFE123:
  48              		.section	.text.CRC_CalcCRC,"ax",%progbits
  49              		.align	1
  50              		.global	CRC_CalcCRC
  51              		.syntax unified
  52              		.thumb
  53              		.thumb_func
  55              	CRC_CalcCRC:
  56              	.LVL0:
  57              	.LFB124:
  54:./Library/stm32f4xx_crc.c **** 
  55:./Library/stm32f4xx_crc.c **** /**
  56:./Library/stm32f4xx_crc.c ****   * @brief  Computes the 32-bit CRC of a given data word(32-bit).
  57:./Library/stm32f4xx_crc.c ****   * @param  Data: data word(32-bit) to compute its CRC
  58:./Library/stm32f4xx_crc.c ****   * @retval 32-bit CRC
  59:./Library/stm32f4xx_crc.c ****   */
  60:./Library/stm32f4xx_crc.c **** uint32_t CRC_CalcCRC(uint32_t Data)
ARM GAS  /var/folders/yl/_q9l42k90g1g4mdhbs226msm0000gn/T//ccj4tUGl.s 			page 3


  61:./Library/stm32f4xx_crc.c **** {
  58              		.loc 1 61 1 is_stmt 1 view -0
  59              		.cfi_startproc
  60              		@ args = 0, pretend = 0, frame = 0
  61              		@ frame_needed = 0, uses_anonymous_args = 0
  62              		@ link register save eliminated.
  62:./Library/stm32f4xx_crc.c ****   CRC->DR = Data;
  63              		.loc 1 62 3 view .LVU5
  64              		.loc 1 62 11 is_stmt 0 view .LVU6
  65 0000 014B     		ldr	r3, .L5
  66 0002 1860     		str	r0, [r3]
  63:./Library/stm32f4xx_crc.c ****   
  64:./Library/stm32f4xx_crc.c ****   return (CRC->DR);
  67              		.loc 1 64 3 is_stmt 1 view .LVU7
  68              		.loc 1 64 14 is_stmt 0 view .LVU8
  69 0004 1868     		ldr	r0, [r3]
  70              	.LVL1:
  65:./Library/stm32f4xx_crc.c **** }
  71              		.loc 1 65 1 view .LVU9
  72 0006 7047     		bx	lr
  73              	.L6:
  74              		.align	2
  75              	.L5:
  76 0008 00300240 		.word	1073885184
  77              		.cfi_endproc
  78              	.LFE124:
  80              		.section	.text.CRC_CalcBlockCRC,"ax",%progbits
  81              		.align	1
  82              		.global	CRC_CalcBlockCRC
  83              		.syntax unified
  84              		.thumb
  85              		.thumb_func
  87              	CRC_CalcBlockCRC:
  88              	.LVL2:
  89              	.LFB125:
  66:./Library/stm32f4xx_crc.c **** 
  67:./Library/stm32f4xx_crc.c **** /**
  68:./Library/stm32f4xx_crc.c ****   * @brief  Computes the 32-bit CRC of a given buffer of data word(32-bit).
  69:./Library/stm32f4xx_crc.c ****   * @param  pBuffer: pointer to the buffer containing the data to be computed
  70:./Library/stm32f4xx_crc.c ****   * @param  BufferLength: length of the buffer to be computed					
  71:./Library/stm32f4xx_crc.c ****   * @retval 32-bit CRC
  72:./Library/stm32f4xx_crc.c ****   */
  73:./Library/stm32f4xx_crc.c **** uint32_t CRC_CalcBlockCRC(uint32_t pBuffer[], uint32_t BufferLength)
  74:./Library/stm32f4xx_crc.c **** {
  90              		.loc 1 74 1 is_stmt 1 view -0
  91              		.cfi_startproc
  92              		@ args = 0, pretend = 0, frame = 0
  93              		@ frame_needed = 0, uses_anonymous_args = 0
  94              		@ link register save eliminated.
  75:./Library/stm32f4xx_crc.c ****   uint32_t index = 0;
  95              		.loc 1 75 3 view .LVU11
  76:./Library/stm32f4xx_crc.c ****   
  77:./Library/stm32f4xx_crc.c ****   for(index = 0; index < BufferLength; index++)
  96              		.loc 1 77 3 view .LVU12
  97              		.loc 1 77 13 is_stmt 0 view .LVU13
  98 0000 0023     		movs	r3, #0
  99              	.LVL3:
ARM GAS  /var/folders/yl/_q9l42k90g1g4mdhbs226msm0000gn/T//ccj4tUGl.s 			page 4


 100              		.loc 1 77 18 is_stmt 1 view .LVU14
 101              		.loc 1 77 3 is_stmt 0 view .LVU15
 102 0002 8B42     		cmp	r3, r1
 103 0004 0CD2     		bcs	.L14
  74:./Library/stm32f4xx_crc.c ****   uint32_t index = 0;
 104              		.loc 1 74 1 view .LVU16
 105 0006 10B4     		push	{r4}
 106              	.LCFI0:
 107              		.cfi_def_cfa_offset 4
 108              		.cfi_offset 4, -4
 109              	.L9:
  78:./Library/stm32f4xx_crc.c ****   {
  79:./Library/stm32f4xx_crc.c ****     CRC->DR = pBuffer[index];
 110              		.loc 1 79 5 is_stmt 1 discriminator 3 view .LVU17
 111              		.loc 1 79 13 is_stmt 0 discriminator 3 view .LVU18
 112 0008 074A     		ldr	r2, .L15
 113 000a 50F82340 		ldr	r4, [r0, r3, lsl #2]
 114 000e 1460     		str	r4, [r2]
  77:./Library/stm32f4xx_crc.c ****   {
 115              		.loc 1 77 40 is_stmt 1 discriminator 3 view .LVU19
  77:./Library/stm32f4xx_crc.c ****   {
 116              		.loc 1 77 45 is_stmt 0 discriminator 3 view .LVU20
 117 0010 0133     		adds	r3, r3, #1
 118              	.LVL4:
  77:./Library/stm32f4xx_crc.c ****   {
 119              		.loc 1 77 18 is_stmt 1 discriminator 3 view .LVU21
  77:./Library/stm32f4xx_crc.c ****   {
 120              		.loc 1 77 3 is_stmt 0 discriminator 3 view .LVU22
 121 0012 8B42     		cmp	r3, r1
 122 0014 F8D3     		bcc	.L9
  80:./Library/stm32f4xx_crc.c ****   }
  81:./Library/stm32f4xx_crc.c ****   return (CRC->DR);
 123              		.loc 1 81 3 is_stmt 1 view .LVU23
 124              		.loc 1 81 14 is_stmt 0 view .LVU24
 125 0016 044B     		ldr	r3, .L15
 126              	.LVL5:
 127              		.loc 1 81 14 view .LVU25
 128 0018 1868     		ldr	r0, [r3]
 129              	.LVL6:
  82:./Library/stm32f4xx_crc.c **** }
 130              		.loc 1 82 1 view .LVU26
 131 001a 5DF8044B 		ldr	r4, [sp], #4
 132              	.LCFI1:
 133              		.cfi_restore 4
 134              		.cfi_def_cfa_offset 0
 135 001e 7047     		bx	lr
 136              	.LVL7:
 137              	.L14:
  81:./Library/stm32f4xx_crc.c **** }
 138              		.loc 1 81 3 is_stmt 1 view .LVU27
  81:./Library/stm32f4xx_crc.c **** }
 139              		.loc 1 81 14 is_stmt 0 view .LVU28
 140 0020 014B     		ldr	r3, .L15
 141              	.LVL8:
  81:./Library/stm32f4xx_crc.c **** }
 142              		.loc 1 81 14 view .LVU29
 143 0022 1868     		ldr	r0, [r3]
ARM GAS  /var/folders/yl/_q9l42k90g1g4mdhbs226msm0000gn/T//ccj4tUGl.s 			page 5


 144              	.LVL9:
 145              		.loc 1 82 1 view .LVU30
 146 0024 7047     		bx	lr
 147              	.L16:
 148 0026 00BF     		.align	2
 149              	.L15:
 150 0028 00300240 		.word	1073885184
 151              		.cfi_endproc
 152              	.LFE125:
 154              		.section	.text.CRC_GetCRC,"ax",%progbits
 155              		.align	1
 156              		.global	CRC_GetCRC
 157              		.syntax unified
 158              		.thumb
 159              		.thumb_func
 161              	CRC_GetCRC:
 162              	.LFB126:
  83:./Library/stm32f4xx_crc.c **** 
  84:./Library/stm32f4xx_crc.c **** /**
  85:./Library/stm32f4xx_crc.c ****   * @brief  Returns the current CRC value.
  86:./Library/stm32f4xx_crc.c ****   * @param  None
  87:./Library/stm32f4xx_crc.c ****   * @retval 32-bit CRC
  88:./Library/stm32f4xx_crc.c ****   */
  89:./Library/stm32f4xx_crc.c **** uint32_t CRC_GetCRC(void)
  90:./Library/stm32f4xx_crc.c **** {
 163              		.loc 1 90 1 is_stmt 1 view -0
 164              		.cfi_startproc
 165              		@ args = 0, pretend = 0, frame = 0
 166              		@ frame_needed = 0, uses_anonymous_args = 0
 167              		@ link register save eliminated.
  91:./Library/stm32f4xx_crc.c ****   return (CRC->DR);
 168              		.loc 1 91 3 view .LVU32
 169              		.loc 1 91 14 is_stmt 0 view .LVU33
 170 0000 014B     		ldr	r3, .L18
 171 0002 1868     		ldr	r0, [r3]
  92:./Library/stm32f4xx_crc.c **** }
 172              		.loc 1 92 1 view .LVU34
 173 0004 7047     		bx	lr
 174              	.L19:
 175 0006 00BF     		.align	2
 176              	.L18:
 177 0008 00300240 		.word	1073885184
 178              		.cfi_endproc
 179              	.LFE126:
 181              		.section	.text.CRC_SetIDRegister,"ax",%progbits
 182              		.align	1
 183              		.global	CRC_SetIDRegister
 184              		.syntax unified
 185              		.thumb
 186              		.thumb_func
 188              	CRC_SetIDRegister:
 189              	.LVL10:
 190              	.LFB127:
  93:./Library/stm32f4xx_crc.c **** 
  94:./Library/stm32f4xx_crc.c **** /**
  95:./Library/stm32f4xx_crc.c ****   * @brief  Stores a 8-bit data in the Independent Data(ID) register.
  96:./Library/stm32f4xx_crc.c ****   * @param  IDValue: 8-bit value to be stored in the ID register 					
ARM GAS  /var/folders/yl/_q9l42k90g1g4mdhbs226msm0000gn/T//ccj4tUGl.s 			page 6


  97:./Library/stm32f4xx_crc.c ****   * @retval None
  98:./Library/stm32f4xx_crc.c ****   */
  99:./Library/stm32f4xx_crc.c **** void CRC_SetIDRegister(uint8_t IDValue)
 100:./Library/stm32f4xx_crc.c **** {
 191              		.loc 1 100 1 is_stmt 1 view -0
 192              		.cfi_startproc
 193              		@ args = 0, pretend = 0, frame = 0
 194              		@ frame_needed = 0, uses_anonymous_args = 0
 195              		@ link register save eliminated.
 101:./Library/stm32f4xx_crc.c ****   CRC->IDR = IDValue;
 196              		.loc 1 101 3 view .LVU36
 197              		.loc 1 101 12 is_stmt 0 view .LVU37
 198 0000 014B     		ldr	r3, .L21
 199 0002 1871     		strb	r0, [r3, #4]
 102:./Library/stm32f4xx_crc.c **** }
 200              		.loc 1 102 1 view .LVU38
 201 0004 7047     		bx	lr
 202              	.L22:
 203 0006 00BF     		.align	2
 204              	.L21:
 205 0008 00300240 		.word	1073885184
 206              		.cfi_endproc
 207              	.LFE127:
 209              		.section	.text.CRC_GetIDRegister,"ax",%progbits
 210              		.align	1
 211              		.global	CRC_GetIDRegister
 212              		.syntax unified
 213              		.thumb
 214              		.thumb_func
 216              	CRC_GetIDRegister:
 217              	.LFB128:
 103:./Library/stm32f4xx_crc.c **** 
 104:./Library/stm32f4xx_crc.c **** /**
 105:./Library/stm32f4xx_crc.c ****   * @brief  Returns the 8-bit data stored in the Independent Data(ID) register
 106:./Library/stm32f4xx_crc.c ****   * @param  None
 107:./Library/stm32f4xx_crc.c ****   * @retval 8-bit value of the ID register 
 108:./Library/stm32f4xx_crc.c ****   */
 109:./Library/stm32f4xx_crc.c **** uint8_t CRC_GetIDRegister(void)
 110:./Library/stm32f4xx_crc.c **** {
 218              		.loc 1 110 1 is_stmt 1 view -0
 219              		.cfi_startproc
 220              		@ args = 0, pretend = 0, frame = 0
 221              		@ frame_needed = 0, uses_anonymous_args = 0
 222              		@ link register save eliminated.
 111:./Library/stm32f4xx_crc.c ****   return (CRC->IDR);
 223              		.loc 1 111 3 view .LVU40
 224              		.loc 1 111 14 is_stmt 0 view .LVU41
 225 0000 014B     		ldr	r3, .L24
 226 0002 1879     		ldrb	r0, [r3, #4]	@ zero_extendqisi2
 112:./Library/stm32f4xx_crc.c **** }
 227              		.loc 1 112 1 view .LVU42
 228 0004 7047     		bx	lr
 229              	.L25:
 230 0006 00BF     		.align	2
 231              	.L24:
 232 0008 00300240 		.word	1073885184
 233              		.cfi_endproc
ARM GAS  /var/folders/yl/_q9l42k90g1g4mdhbs226msm0000gn/T//ccj4tUGl.s 			page 7


 234              	.LFE128:
 236              		.text
 237              	.Letext0:
 238              		.file 2 "/Applications/ARM/arm-none-eabi/include/machine/_default_types.h"
 239              		.file 3 "/Applications/ARM/arm-none-eabi/include/sys/_stdint.h"
 240              		.file 4 "./CORE/stm32f4xx.h"
ARM GAS  /var/folders/yl/_q9l42k90g1g4mdhbs226msm0000gn/T//ccj4tUGl.s 			page 8

